(dp0
S'11'
p1
(lp2
(dp3
S'scienza'
p4
S'1.93361263294'
p5
sS'regione'
p6
S'8.60054785691'
p7
sS'persone'
p8
S'5.16032871415'
p9
sS'media'
p10
S'2.14711569449'
p11
sS'politica'
p12
S'3.34353851112'
p13
sS'spettacolo'
p14
S'7.10199806639'
p15
sS'economia'
p16
S'3.55704157267'
p17
sS'gallerie'
p18
S'3.95987753787'
p19
sS'motori'
p20
S'3.06155333548'
p21
sS'esteri'
p22
S'4.22172091524'
p23
sS'viaggi'
p24
S'5.31743474057'
p25
sS'cronaca'
p26
S'9.92184982275'
p27
sS'sport'
p28
S'23.6585562359'
p29
sS'rubriche'
p30
S'8.49581050596'
p31
sa(dp32
S'storia'
p33
S'0.666666666667'
p34
sS'regione'
p35
S'6.66666666667'
p36
sS'persone'
p37
S'1.33333333333'
p38
sS'media'
p39
S'1.33333333333'
p40
sS'politica'
p41
S'2.66666666667'
p42
sS'norme'
p43
S'0.666666666667'
p44
sS'spettacolo'
p45
S'7.33333333333'
p46
sS'economia'
p47
S'2.0'
p48
sS'gallerie'
p49
S'2.0'
p50
sS'esteri'
p51
S'4.0'
p52
sS'viaggi'
p53
S'19.3333333333'
p54
sS'cronaca'
p55
S'11.3333333333'
p56
sS'sport'
p57
S'30.6666666667'
p58
sS'rubriche'
p59
S'7.33333333333'
p60
sa(dp61
a(dp62
a(dp63
a(dp64
a(dp65
a(dp66
a(dp67
a(dp68
a(dp69
a(dp70
a(dp71
a(dp72
a(dp73
S'tecnologia'
p74
S'1.68265619299'
p75
sS'storia'
p76
S'1.67407121241'
p77
sS'scienza'
p78
S'3.07556929152'
p79
sS'regione'
p80
S'6.97958920868'
p81
sS'persone'
p82
S'4.1057669607'
p83
sS'politica'
p84
S'1.87152576567'
p85
sS'spettacolo'
p86
S'6.96027300238'
p87
sS'economia'
p88
S'2.3351147168'
p89
sS'gallerie'
p90
S'3.48550211405'
p91
sS'motori'
p92
S'1.58178267122'
p93
sS'esteri'
p94
S'29.2318588629'
p95
sS'cronaca'
p96
S'12.0232652974'
p97
sS'sport'
p98
S'7.87242718863'
p99
sS'rubriche'
p100
S'8.72877900114'
p101
sa(dp102
S'tecnologia'
p103
S'1.77865612648'
p104
sS'storia'
p105
S'2.37154150198'
p106
sS'scuola'
p107
S'3.55731225296'
p108
sS'regione'
p109
S'5.33596837945'
p110
sS'persone'
p111
S'4.15019762846'
p112
sS'politica'
p113
S'2.37154150198'
p114
sS'scienza'
p115
S'1.18577075099'
p116
sS'spettacolo'
p117
S'8.89328063241'
p118
sS'economia'
p119
S'1.58102766798'
p120
sS'gallerie'
p121
S'5.13833992095'
p122
sS'esteri'
p123
S'26.8774703557'
p124
sS'cronaca'
p125
S'11.8577075099'
p126
sS'sport'
p127
S'5.13833992095'
p128
sS'rubriche'
p129
S'11.4624505929'
p130
sa(dp131
a(dp132
a(dp133
a(dp134
a(dp135
a(dp136
a(dp137
a(dp138
a(dp139
a(dp140
a(dp141
a(dp142
a(dp143
a(dp144
S'tecnologia'
p145
S'1.61968868321'
p146
sS'scienza'
p147
S'2.37694572991'
p148
sS'regione'
p149
S'7.08876735381'
p150
sS'persone'
p151
S'6.58392932268'
p152
sS'media'
p153
S'2.39798064788'
p154
sS'politica'
p155
S'1.70382835507'
p156
sS'spettacolo'
p157
S'9.35002103492'
p158
sS'economia'
p159
S'6.18426588136'
p160
sS'gallerie'
p161
S'3.7231804796'
p162
sS'motori'
p163
S'2.36642827093'
p164
sS'esteri'
p165
S'7.20445940261'
p166
sS'cronaca'
p167
S'12.1687000421'
p168
sS'sport'
p169
S'18.7421119058'
p170
sS'rubriche'
p171
S'9.28691628103'
p172
sasS'10'
p173
(lp174
(dp175
a(dp176
a(dp177
a(dp178
a(dp179
a(dp180
a(dp181
a(dp182
a(dp183
a(dp184
a(dp185
a(dp186
a(dp187
a(dp188
a(dp189
a(dp190
a(dp191
a(dp192
a(dp193
a(dp194
a(dp195
a(dp196
a(dp197
a(dp198
a(dp199
a(dp200
a(dp201
S'scienza'
p202
S'2.47333578522'
p203
sS'regione'
p204
S'5.45237219566'
p205
sS'persone'
p206
S'4.05479955866'
p207
sS'spettacolo'
p208
S'3.75137918352'
p209
sS'economia'
p210
S'6.20632585509'
p211
sS'gallerie'
p212
S'4.59727841118'
p213
sS'salute'
p214
S'4.34902537698'
p215
sS'motori'
p216
S'6.02243471865'
p217
sS'esteri'
p218
S'2.41816844428'
p219
sS'viaggi'
p220
S'10.353070982'
p221
sS'cronaca'
p222
S'8.03604266274'
p223
sS'sport'
p224
S'23.5564545789'
p225
sS'rossi'
p226
S'2.66642147848'
p227
sS'rubriche'
p228
S'6.36263332107'
p229
sa(dp230
S'scienza'
p231
S'2.9752583777'
p232
sS'regione'
p233
S'9.42687128093'
p234
sS'persone'
p235
S'3.86783589101'
p236
sS'politica'
p237
S'2.49765111181'
p238
sS'spettacolo'
p239
S'5.7077983088'
p240
sS'economia'
p241
S'6.16191669277'
p242
sS'gallerie'
p243
S'2.66207328531'
p244
sS'motori'
p245
S'5.80958346383'
p246
sS'esteri'
p247
S'3.9383025368'
p248
sS'viaggi'
p249
S'4.76824303163'
p250
sS'cronaca'
p251
S'8.97275289696'
p252
sS'sport'
p253
S'21.5079862199'
p254
sS'rossi'
p255
S'2.81866583151'
p256
sS'rubriche'
p257
S'7.20325712496'
p258
sa(dp259
S'scienza'
p260
S'2.36528543482'
p261
sS'regione'
p262
S'8.36741952694'
p263
sS'persone'
p264
S'5.49528721323'
p265
sS'politica'
p266
S'2.24079672773'
p267
sS'spettacolo'
p268
S'5.53085541526'
p269
sS'economia'
p270
S'6.02881024364'
p271
sS'gallerie'
p272
S'2.92548461675'
p273
sS'salute'
p274
S'2.09852391962'
p275
sS'motori'
p276
S'3.61906455629'
p277
sS'esteri'
p278
S'2.68539925307'
p279
sS'cronaca'
p280
S'13.68486573'
p281
sS'sport'
p282
S'21.3587053174'
p283
sS'rossi'
p284
S'2.32971723279'
p285
sS'rubriche'
p286
S'6.82909478926'
p287
sa(dp288
S'scienza'
p289
S'2.66464032421'
p290
sS'regione'
p291
S'8.20668693009'
p292
sS'persone'
p293
S'5.57244174265'
p294
sS'politica'
p295
S'2.36068895643'
p296
sS'spettacolo'
p297
S'7.24417426545'
p298
sS'economia'
p299
S'5.72441742655'
p300
sS'gallerie'
p301
S'3.35359675785'
p302
sS'salute'
p303
S'2.38095238095'
p304
sS'motori'
p305
S'4.5896656535'
p306
sS'esteri'
p307
S'3.05977710233'
p308
sS'viaggi'
p309
S'4.15400202634'
p310
sS'cronaca'
p311
S'13.6676798379'
p312
sS'sport'
p313
S'17.0618034448'
p314
sS'rubriche'
p315
S'7.96352583587'
p316
sa(dp317
S'scienza'
p318
S'2.07612456747'
p319
sS'regione'
p320
S'7.89473684211'
p321
sS'persone'
p322
S'4.96266618102'
p323
sS'politica'
p324
S'2.94117647059'
p325
sS'spettacolo'
p326
S'8.27718084138'
p327
sS'economia'
p328
S'4.10672008742'
p329
sS'gallerie'
p330
S'3.42378437443'
p331
sS'salute'
p332
S'1.86669094883'
p333
sS'motori'
p334
S'4.48005827718'
p335
sS'esteri'
p336
S'5.16299399017'
p337
sS'viaggi'
p338
S'3.27809142233'
p339
sS'cronaca'
p340
S'11.5552722637'
p341
sS'sport'
p342
S'21.143689674'
p343
sS'rubriche'
p344
S'7.94937169914'
p345
sasS'12'
p346
(lp347
(dp348
S'tecnologia'
p349
S'3.37090377792'
p350
sS'scienza'
p351
S'2.57774994782'
p352
sS'regione'
p353
S'6.55395533292'
p354
sS'persone'
p355
S'4.83197662283'
p356
sS'media'
p357
S'2.26466290962'
p358
sS'politica'
p359
S'2.19160926738'
p360
sS'spettacolo'
p361
S'8.41160509288'
p362
sS'economia'
p363
S'7.84804842413'
p364
sS'gallerie'
p365
S'4.91546649969'
p366
sS'motori'
p367
S'2.09768315592'
p368
sS'esteri'
p369
S'5.55207681069'
p370
sS'cronaca'
p371
S'15.2890836986'
p372
sS'sport'
p373
S'16.5936130244'
p374
sS'rubriche'
p375
S'8.16113546233'
p376
sa(dp377
S'tecnologia'
p378
S'4.1095890411'
p379
sS'calendario'
p380
S'5.02283105023'
p381
sS'scienza'
p382
S'2.28310502283'
p383
sS'regione'
p384
S'5.02283105023'
p385
sS'persone'
p386
S'3.19634703196'
p387
sS'politica'
p388
S'2.28310502283'
p389
sS'curiosita'
p390
S'1.3698630137'
p391
sS'spettacolo'
p392
S'8.67579908676'
p393
sS'economia'
p394
S'14.1552511416'
p395
sS'social'
p396
S'1.82648401826'
p397
sS'esteri'
p398
S'8.67579908676'
p399
sS'cronaca'
p400
S'12.3287671233'
p401
sS'sport'
p402
S'16.8949771689'
p403
sS'rubriche'
p404
S'6.39269406393'
p405
sa(dp406
a(dp407
a(dp408
a(dp409
a(dp410
a(dp411
a(dp412
a(dp413
a(dp414
a(dp415
a(dp416
a(dp417
a(dp418
S'tecnologia'
p419
S'1.98803497469'
p420
sS'scienza'
p421
S'3.28578002761'
p422
sS'regione'
p423
S'8.14542107685'
p424
sS'persone'
p425
S'5.43948458353'
p426
sS'politica'
p427
S'3.12931431201'
p428
sS'spettacolo'
p429
S'7.74045098942'
p430
sS'economia'
p431
S'6.97653014266'
p432
sS'gallerie'
p433
S'4.25218591809'
p434
sS'motori'
p435
S'1.45421076852'
p436
sS'esteri'
p437
S'4.1785549931'
p438
sS'viaggi'
p439
S'2.89921767142'
p440
sS'cronaca'
p441
S'18.1132075472'
p442
sS'sport'
p443
S'14.9102623102'
p444
sS'rubriche'
p445
S'8.4767602393'
p446
sa(dp447
S'tecnologia'
p448
S'2.27588948519'
p449
sS'scienza'
p450
S'3.17034386802'
p451
sS'regione'
p452
S'7.67243092824'
p453
sS'persone'
p454
S'5.80401510634'
p455
sS'media'
p456
S'1.26217451799'
p457
sS'politica'
p458
S'5.09838998211'
p459
sS'spettacolo'
p460
S'7.98052077122'
p461
sS'economia'
p462
S'8.7656529517'
p463
sS'gallerie'
p464
S'4.6213476446'
p465
sS'motori'
p466
S'1.52057245081'
p467
sS'esteri'
p468
S'3.33929636255'
p469
sS'cronaca'
p470
S'14.4504074737'
p471
sS'sport'
p472
S'17.3424766448'
p473
sS'rubriche'
p474
S'7.7221228384'
p475
sa(dp476
S'tecnologia'
p477
S'2.42424242424'
p478
sS'scuola'
p479
S'1.21212121212'
p480
sS'regione'
p481
S'4.24242424242'
p482
sS'persone'
p483
S'3.0303030303'
p484
sS'media'
p485
S'4.24242424242'
p486
sS'politica'
p487
S'4.24242424242'
p488
sS'spettacolo'
p489
S'6.66666666667'
p490
sS'economia'
p491
S'7.27272727273'
p492
sS'gallerie'
p493
S'7.87878787879'
p494
sS'motori'
p495
S'7.27272727273'
p496
sS'esteri'
p497
S'3.0303030303'
p498
sS'cronaca'
p499
S'8.48484848485'
p500
sS'sport'
p501
S'29.696969697'
p502
sS'rubriche'
p503
S'4.24242424242'
p504
sa(dp505
a(dp506
a(dp507
a(dp508
a(dp509
a(dp510
a(dp511
a(dp512
a(dp513
a(dp514
a(dp515
a(dp516
a(dp517
a(dp518
S'tecnologia'
p519
S'3.84615384615'
p520
sS'scienza'
p521
S'2.87769784173'
p522
sS'regione'
p523
S'9.93359158827'
p524
sS'persone'
p525
S'5.1743220808'
p526
sS'media'
p527
S'1.59103486442'
p528
sS'politica'
p529
S'3.08522412839'
p530
sS'spettacolo'
p531
S'9.18649695628'
p532
sS'economia'
p533
S'8.30105146652'
p534
sS'gallerie'
p535
S'3.41726618705'
p536
sS'motori'
p537
S'1.14831211954'
p538
sS'esteri'
p539
S'4.85611510791'
p540
sS'cronaca'
p541
S'18.4144991699'
p542
sS'sport'
p543
S'8.50857775318'
p544
sS'rubriche'
p545
S'10.4593248478'
p546
sasS'1'
p547
(lp548
(dp549
S'tecnologia'
p550
S'2.04081632653'
p551
sS'scienza'
p552
S'3.0612244898'
p553
sS'regione'
p554
S'4.7619047619'
p555
sS'persone'
p556
S'4.7619047619'
p557
sS'media'
p558
S'2.55102040816'
p559
sS'politica'
p560
S'4.93197278912'
p561
sS'spettacolo'
p562
S'10.8843537415'
p563
sS'economia'
p564
S'8.67346938776'
p565
sS'gallerie'
p566
S'6.2925170068'
p567
sS'salute'
p568
S'2.04081632653'
p569
sS'esteri'
p570
S'6.12244897959'
p571
sS'cronaca'
p572
S'16.156462585'
p573
sS'sport'
p574
S'6.97278911565'
p575
sS'rubriche'
p576
S'13.2653061224'
p577
sa(dp578
S'tecnologia'
p579
S'1.81058495822'
p580
sS'scienza'
p581
S'1.25348189415'
p582
sS'regione'
p583
S'10.8635097493'
p584
sS'persone'
p585
S'3.3426183844'
p586
sS'media'
p587
S'2.92479108635'
p588
sS'politica'
p589
S'2.22841225627'
p590
sS'spettacolo'
p591
S'9.61002785515'
p592
sS'economia'
p593
S'9.05292479109'
p594
sS'gallerie'
p595
S'3.20334261838'
p596
sS'salute'
p597
S'1.94986072423'
p598
sS'esteri'
p599
S'4.59610027855'
p600
sS'cronaca'
p601
S'17.8272980501'
p602
sS'sport'
p603
S'7.5208913649'
p604
sS'rubriche'
p605
S'12.6740947075'
p606
sa(dp607
S'storia'
p608
S'1.44356955381'
p609
sS'scienza'
p610
S'3.80577427822'
p611
sS'regione'
p612
S'6.69291338583'
p613
sS'persone'
p614
S'5.38057742782'
p615
sS'media'
p616
S'1.44356955381'
p617
sS'politica'
p618
S'4.59317585302'
p619
sS'spettacolo'
p620
S'9.44881889764'
p621
sS'economia'
p622
S'5.38057742782'
p623
sS'gallerie'
p624
S'2.75590551181'
p625
sS'salute'
p626
S'1.70603674541'
p627
sS'esteri'
p628
S'5.38057742782'
p629
sS'cronaca'
p630
S'18.8976377953'
p631
sS'sport'
p632
S'9.18635170604'
p633
sS'rubriche'
p634
S'12.5984251969'
p635
sa(dp636
S'tecnologia'
p637
S'7.79220779221'
p638
sS'scienza'
p639
S'3.76623376623'
p640
sS'regione'
p641
S'6.75324675325'
p642
sS'persone'
p643
S'3.63636363636'
p644
sS'media'
p645
S'2.72727272727'
p646
sS'politica'
p647
S'3.8961038961'
p648
sS'spettacolo'
p649
S'8.31168831169'
p650
sS'economia'
p651
S'5.71428571429'
p652
sS'gallerie'
p653
S'2.33766233766'
p654
sS'motori'
p655
S'1.42857142857'
p656
sS'esteri'
p657
S'4.67532467532'
p658
sS'cronaca'
p659
S'17.1428571429'
p660
sS'sport'
p661
S'12.3376623377'
p662
sS'rubriche'
p663
S'11.8181818182'
p664
sa(dp665
S'tecnologia'
p666
S'2.15053763441'
p667
sS'scienza'
p668
S'3.22580645161'
p669
sS'regione'
p670
S'7.95698924731'
p671
sS'persone'
p672
S'4.83870967742'
p673
sS'media'
p674
S'2.58064516129'
p675
sS'politica'
p676
S'2.58064516129'
p677
sS'spettacolo'
p678
S'13.6559139785'
p679
sS'economia'
p680
S'6.66666666667'
p681
sS'gallerie'
p682
S'2.15053763441'
p683
sS'salute'
p684
S'1.18279569892'
p685
sS'esteri'
p686
S'3.11827956989'
p687
sS'cronaca'
p688
S'22.3655913978'
p689
sS'sport'
p690
S'10.5376344086'
p691
sS'rubriche'
p692
S'10.9677419355'
p693
sa(dp694
S'tecnologia'
p695
S'2.20356768101'
p696
sS'scienza'
p697
S'3.04302203568'
p698
sS'regione'
p699
S'5.35152151102'
p700
sS'persone'
p701
S'6.19097586569'
p702
sS'media'
p703
S'1.57397691501'
p704
sS'politica'
p705
S'2.62329485834'
p706
sS'prodotto'
p707
S'1.36411332634'
p708
sS'spettacolo'
p709
S'12.3819517314'
p710
sS'economia'
p711
S'6.40083945435'
p712
sS'gallerie'
p713
S'4.72193074502'
p714
sS'esteri'
p715
S'4.72193074502'
p716
sS'cronaca'
p717
S'15.6348373557'
p718
sS'sport'
p719
S'11.5424973767'
p720
sS'rubriche'
p721
S'11.8572927597'
p722
sa(dp723
S'tecnologia'
p724
S'2.36518448439'
p725
sS'scienza'
p726
S'2.17596972564'
p727
sS'regione'
p728
S'6.43330179754'
p729
sS'persone'
p730
S'4.6357615894'
p731
sS'media'
p732
S'2.45979186377'
p733
sS'politica'
p734
S'2.74361400189'
p735
sS'curiosita'
p736
S'4.06811731315'
p737
sS'spettacolo'
p738
S'7.85241248817'
p739
sS'economia'
p740
S'4.35193945128'
p741
sS'gallerie'
p742
S'4.44654683065'
p743
sS'esteri'
p744
S'12.9612109745'
p745
sS'cronaca'
p746
S'17.880794702'
p747
sS'sport'
p748
S'8.70387890255'
p749
sS'rubriche'
p750
S'11.3528855251'
p751
sa(dp752
S'tecnologia'
p753
S'1.86823992134'
p754
sS'scienza'
p755
S'2.94985250737'
p756
sS'regione'
p757
S'7.0796460177'
p758
sS'persone'
p759
S'5.30973451327'
p760
sS'media'
p761
S'1.76991150442'
p762
sS'politica'
p763
S'3.83480825959'
p764
sS'spettacolo'
p765
S'5.30973451327'
p766
sS'economia'
p767
S'5.21140609636'
p768
sS'gallerie'
p769
S'3.1465093412'
p770
sS'salute'
p771
S'1.37659783677'
p772
sS'esteri'
p773
S'14.8475909538'
p774
sS'cronaca'
p775
S'16.9124877089'
p776
sS'sport'
p777
S'6.68633235005'
p778
sS'rubriche'
p779
S'14.552605703'
p780
sa(dp781
S'tecnologia'
p782
S'2.76981852913'
p783
sS'scienza'
p784
S'1.8147086915'
p785
sS'regione'
p786
S'7.92741165234'
p787
sS'persone'
p788
S'4.58452722063'
p789
sS'media'
p790
S'3.05635148042'
p791
sS'politica'
p792
S'2.48328557784'
p793
sS'spettacolo'
p794
S'7.54536771729'
p795
sS'economia'
p796
S'4.58452722063'
p797
sS'gallerie'
p798
S'3.53390639924'
p799
sS'salute'
p800
S'1.8147086915'
p801
sS'esteri'
p802
S'18.147086915'
p803
sS'cronaca'
p804
S'12.511938873'
p805
sS'sport'
p806
S'8.88252148997'
p807
sS'rubriche'
p808
S'11.5568290353'
p809
sa(dp810
S'tecnologia'
p811
S'1.26984126984'
p812
sS'scienza'
p813
S'3.91534391534'
p814
sS'regione'
p815
S'9.62962962963'
p816
sS'persone'
p817
S'4.65608465608'
p818
sS'media'
p819
S'3.91534391534'
p820
sS'politica'
p821
S'2.32804232804'
p822
sS'spettacolo'
p823
S'6.66666666667'
p824
sS'economia'
p825
S'4.86772486772'
p826
sS'gallerie'
p827
S'2.6455026455'
p828
sS'motori'
p829
S'1.90476190476'
p830
sS'esteri'
p831
S'14.6031746032'
p832
sS'cronaca'
p833
S'15.6613756614'
p834
sS'sport'
p835
S'10.582010582'
p836
sS'rubriche'
p837
S'11.2169312169'
p838
sa(dp839
S'scienza'
p840
S'1.99456029012'
p841
sS'regione'
p842
S'6.79963735267'
p843
sS'persone'
p844
S'5.16772438803'
p845
sS'media'
p846
S'2.35720761559'
p847
sS'politica'
p848
S'1.4505893019'
p849
sS'spettacolo'
p850
S'8.34088848595'
p851
sS'economia'
p852
S'5.80235720762'
p853
sS'gallerie'
p854
S'3.08250226655'
p855
sS'salute'
p856
S'1.54125113327'
p857
sS'motori'
p858
S'2.44786944696'
p859
sS'esteri'
p860
S'14.0525838622'
p861
sS'cronaca'
p862
S'13.5992747053'
p863
sS'sport'
p864
S'14.1432456936'
p865
sS'rubriche'
p866
S'11.060743427'
p867
sa(dp868
S'tecnologia'
p869
S'2.34636871508'
p870
sS'scienza'
p871
S'2.12290502793'
p872
sS'regione'
p873
S'6.70391061453'
p874
sS'persone'
p875
S'4.46927374302'
p876
sS'media'
p877
S'3.68715083799'
p878
sS'politica'
p879
S'2.56983240223'
p880
sS'spettacolo'
p881
S'8.49162011173'
p882
sS'economia'
p883
S'6.03351955307'
p884
sS'gallerie'
p885
S'5.81005586592'
p886
sS'salute'
p887
S'2.01117318436'
p888
sS'esteri'
p889
S'9.27374301676'
p890
sS'cronaca'
p891
S'12.0670391061'
p892
sS'sport'
p893
S'17.094972067'
p894
sS'rubriche'
p895
S'9.60893854749'
p896
sa(dp897
S'tecnologia'
p898
S'4.01301518438'
p899
sS'scienza'
p900
S'2.27765726681'
p901
sS'regione'
p902
S'7.91757049892'
p903
sS'persone'
p904
S'4.22993492408'
p905
sS'politica'
p906
S'2.27765726681'
p907
sS'spettacolo'
p908
S'8.35140997831'
p909
sS'economia'
p910
S'5.53145336226'
p911
sS'gallerie'
p912
S'5.20607375271'
p913
sS'salute'
p914
S'3.36225596529'
p915
sS'motori'
p916
S'4.77223427332'
p917
sS'esteri'
p918
S'9.86984815618'
p919
sS'cronaca'
p920
S'14.6420824295'
p921
sS'sport'
p922
S'8.568329718'
p923
sS'rubriche'
p924
S'9.76138828633'
p925
sa(dp926
S'scienza'
p927
S'2.95930949445'
p928
sS'regione'
p929
S'7.15166461159'
p930
sS'persone'
p931
S'9.12453760789'
p932
sS'media'
p933
S'2.21948212084'
p934
sS'politica'
p935
S'5.5487053021'
p936
sS'spettacolo'
p937
S'6.28853267571'
p938
sS'economia'
p939
S'6.78175092478'
p940
sS'gallerie'
p941
S'3.20591861899'
p942
sS'salute'
p943
S'2.21948212084'
p944
sS'motori'
p945
S'3.82244143033'
p946
sS'esteri'
p947
S'8.75462392109'
p948
sS'cronaca'
p949
S'13.1935881628'
p950
sS'sport'
p951
S'9.4944512947'
p952
sS'rubriche'
p953
S'10.2342786683'
p954
sa(dp955
S'tecnologia'
p956
S'2.17391304348'
p957
sS'scienza'
p958
S'3.47826086957'
p959
sS'regione'
p960
S'7.60869565217'
p961
sS'persone'
p962
S'5.65217391304'
p963
sS'politica'
p964
S'4.13043478261'
p965
sS'spettacolo'
p966
S'5.86956521739'
p967
sS'economia'
p968
S'9.78260869565'
p969
sS'gallerie'
p970
S'5.21739130435'
p971
sS'salute'
p972
S'2.17391304348'
p973
sS'motori'
p974
S'1.84782608696'
p975
sS'esteri'
p976
S'7.17391304348'
p977
sS'cronaca'
p978
S'13.9130434783'
p979
sS'sport'
p980
S'9.02173913043'
p981
sS'rubriche'
p982
S'12.0652173913'
p983
sa(dp984
S'tecnologia'
p985
S'1.90930787589'
p986
sS'scienza'
p987
S'3.93794749403'
p988
sS'regione'
p989
S'7.15990453461'
p990
sS'persone'
p991
S'4.89260143198'
p992
sS'media'
p993
S'2.62529832936'
p994
sS'politica'
p995
S'2.62529832936'
p996
sS'spettacolo'
p997
S'4.53460620525'
p998
sS'economia'
p999
S'9.54653937947'
p1000
sS'gallerie'
p1001
S'5.25059665871'
p1002
sS'salute'
p1003
S'2.26730310263'
p1004
sS'esteri'
p1005
S'7.75656324582'
p1006
sS'cronaca'
p1007
S'14.6778042959'
p1008
sS'sport'
p1009
S'9.66587112172'
p1010
sS'rubriche'
p1011
S'14.200477327'
p1012
sa(dp1013
S'tecnologia'
p1014
S'1.71149144254'
p1015
sS'scienza'
p1016
S'4.03422982885'
p1017
sS'regione'
p1018
S'8.80195599022'
p1019
sS'persone'
p1020
S'4.27872860636'
p1021
sS'politica'
p1022
S'2.93398533007'
p1023
sS'prodotto'
p1024
S'1.71149144254'
p1025
sS'spettacolo'
p1026
S'6.72371638142'
p1027
sS'economia'
p1028
S'7.21271393643'
p1029
sS'gallerie'
p1030
S'2.20048899756'
p1031
sS'motori'
p1032
S'2.0782396088'
p1033
sS'esteri'
p1034
S'6.47921760391'
p1035
sS'cronaca'
p1036
S'17.4816625917'
p1037
sS'sport'
p1038
S'14.3031784841'
p1039
sS'rubriche'
p1040
S'10.391198044'
p1041
sa(dp1042
S'tecnologia'
p1043
S'3.13111545988'
p1044
sS'scienza'
p1045
S'2.83757338552'
p1046
sS'regione'
p1047
S'5.9686888454'
p1048
sS'persone'
p1049
S'5.47945205479'
p1050
sS'media'
p1051
S'2.15264187867'
p1052
sS'politica'
p1053
S'4.40313111546'
p1054
sS'spettacolo'
p1055
S'9.19765166341'
p1056
sS'economia'
p1057
S'3.91389432485'
p1058
sS'gallerie'
p1059
S'2.93542074364'
p1060
sS'motori'
p1061
S'3.13111545988'
p1062
sS'esteri'
p1063
S'7.14285714286'
p1064
sS'cronaca'
p1065
S'17.6125244618'
p1066
sS'sport'
p1067
S'13.4050880626'
p1068
sS'rubriche'
p1069
S'10.8610567515'
p1070
sa(dp1071
S'tecnologia'
p1072
S'2.04301075269'
p1073
sS'scienza'
p1074
S'2.79569892473'
p1075
sS'regione'
p1076
S'8.60215053763'
p1077
sS'persone'
p1078
S'5.48387096774'
p1079
sS'media'
p1080
S'1.93548387097'
p1081
sS'politica'
p1082
S'3.11827956989'
p1083
sS'spettacolo'
p1084
S'6.12903225806'
p1085
sS'economia'
p1086
S'5.91397849462'
p1087
sS'gallerie'
p1088
S'2.68817204301'
p1089
sS'motori'
p1090
S'2.36559139785'
p1091
sS'esteri'
p1092
S'4.62365591398'
p1093
sS'cronaca'
p1094
S'18.2795698925'
p1095
sS'sport'
p1096
S'16.3440860215'
p1097
sS'rubriche'
p1098
S'9.4623655914'
p1099
sa(dp1100
S'tecnologia'
p1101
S'2.12264150943'
p1102
sS'scienza'
p1103
S'3.06603773585'
p1104
sS'regione'
p1105
S'11.2028301887'
p1106
sS'persone'
p1107
S'5.42452830189'
p1108
sS'media'
p1109
S'1.88679245283'
p1110
sS'politica'
p1111
S'4.36320754717'
p1112
sS'spettacolo'
p1113
S'6.25'
p1114
sS'economia'
p1115
S'9.31603773585'
p1116
sS'gallerie'
p1117
S'2.00471698113'
p1118
sS'salute'
p1119
S'1.88679245283'
p1120
sS'esteri'
p1121
S'6.1320754717'
p1122
sS'cronaca'
p1123
S'14.3867924528'
p1124
sS'sport'
p1125
S'11.320754717'
p1126
sS'rubriche'
p1127
S'11.0849056604'
p1128
sa(dp1129
S'tecnologia'
p1130
S'3.97275822928'
p1131
sS'scienza'
p1132
S'3.63223609535'
p1133
sS'regione'
p1134
S'8.17253121453'
p1135
sS'persone'
p1136
S'5.67536889898'
p1137
sS'media'
p1138
S'2.49716231555'
p1139
sS'politica'
p1140
S'6.81044267877'
p1141
sS'spettacolo'
p1142
S'7.26447219069'
p1143
sS'economia'
p1144
S'7.83200908059'
p1145
sS'gallerie'
p1146
S'5.10783200908'
p1147
sS'salute'
p1148
S'2.04313280363'
p1149
sS'esteri'
p1150
S'5.10783200908'
p1151
sS'cronaca'
p1152
S'9.76163450624'
p1153
sS'sport'
p1154
S'12.9398410897'
p1155
sS'rubriche'
p1156
S'10.896708286'
p1157
sa(dp1158
S'tecnologia'
p1159
S'3.51941747573'
p1160
sS'scienza'
p1161
S'4.12621359223'
p1162
sS'regione'
p1163
S'8.25242718447'
p1164
sS'persone'
p1165
S'5.58252427184'
p1166
sS'media'
p1167
S'2.54854368932'
p1168
sS'politica'
p1169
S'5.82524271845'
p1170
sS'spettacolo'
p1171
S'7.76699029126'
p1172
sS'economia'
p1173
S'9.34466019417'
p1174
sS'gallerie'
p1175
S'4.24757281553'
p1176
sS'salute'
p1177
S'2.06310679612'
p1178
sS'esteri'
p1179
S'3.88349514563'
p1180
sS'cronaca'
p1181
S'12.9854368932'
p1182
sS'sport'
p1183
S'6.79611650485'
p1184
sS'rubriche'
p1185
S'14.6844660194'
p1186
sa(dp1187
S'tecnologia'
p1188
S'1.14155251142'
p1189
sS'scienza'
p1190
S'2.05479452055'
p1191
sS'regione'
p1192
S'8.56164383562'
p1193
sS'persone'
p1194
S'9.47488584475'
p1195
sS'media'
p1196
S'1.71232876712'
p1197
sS'politica'
p1198
S'3.08219178082'
p1199
sS'spettacolo'
p1200
S'7.76255707763'
p1201
sS'economia'
p1202
S'12.7853881279'
p1203
sS'gallerie'
p1204
S'3.31050228311'
p1205
sS'social'
p1206
S'1.25570776256'
p1207
sS'esteri'
p1208
S'5.47945205479'
p1209
sS'cronaca'
p1210
S'15.8675799087'
p1211
sS'sport'
p1212
S'9.93150684932'
p1213
sS'rubriche'
p1214
S'10.7305936073'
p1215
sa(dp1216
S'scienza'
p1217
S'1.98135198135'
p1218
sS'regione'
p1219
S'11.7715617716'
p1220
sS'persone'
p1221
S'5.59440559441'
p1222
sS'media'
p1223
S'2.44755244755'
p1224
sS'politica'
p1225
S'3.4965034965'
p1226
sS'spettacolo'
p1227
S'7.57575757576'
p1228
sS'economia'
p1229
S'6.87645687646'
p1230
sS'gallerie'
p1231
S'3.14685314685'
p1232
sS'motori'
p1233
S'1.6317016317'
p1234
sS'esteri'
p1235
S'5.12820512821'
p1236
sS'viaggi'
p1237
S'2.0979020979'
p1238
sS'cronaca'
p1239
S'12.2377622378'
p1240
sS'sport'
p1241
S'16.8997668998'
p1242
sS'rubriche'
p1243
S'10.0233100233'
p1244
sa(dp1245
S'tecnologia'
p1246
S'2.52873563218'
p1247
sS'scienza'
p1248
S'3.10344827586'
p1249
sS'regione'
p1250
S'8.96551724138'
p1251
sS'persone'
p1252
S'4.48275862069'
p1253
sS'media'
p1254
S'2.87356321839'
p1255
sS'politica'
p1256
S'5.1724137931'
p1257
sS'spettacolo'
p1258
S'6.55172413793'
p1259
sS'economia'
p1260
S'5.40229885057'
p1261
sS'gallerie'
p1262
S'2.75862068966'
p1263
sS'motori'
p1264
S'1.49425287356'
p1265
sS'esteri'
p1266
S'7.12643678161'
p1267
sS'cronaca'
p1268
S'11.6091954023'
p1269
sS'sport'
p1270
S'17.9310344828'
p1271
sS'rubriche'
p1272
S'12.183908046'
p1273
sa(dp1274
S'tecnologia'
p1275
S'1.27795527157'
p1276
sS'scienza'
p1277
S'1.81043663472'
p1278
sS'regione'
p1279
S'8.94568690096'
p1280
sS'persone'
p1281
S'4.57933972311'
p1282
sS'media'
p1283
S'1.81043663472'
p1284
sS'politica'
p1285
S'3.72736954207'
p1286
sS'spettacolo'
p1287
S'8.09371671991'
p1288
sS'economia'
p1289
S'8.30670926518'
p1290
sS'gallerie'
p1291
S'3.62087326944'
p1292
sS'motori'
p1293
S'1.0649627263'
p1294
sS'esteri'
p1295
S'10.3301384452'
p1296
sS'cronaca'
p1297
S'15.3354632588'
p1298
sS'sport'
p1299
S'10.7561235357'
p1300
sS'rubriche'
p1301
S'12.4600638978'
p1302
sa(dp1303
S'storia'
p1304
S'1.52403282532'
p1305
sS'scienza'
p1306
S'2.69636576788'
p1307
sS'regione'
p1308
S'11.2543962485'
p1309
sS'persone'
p1310
S'6.44783118406'
p1311
sS'media'
p1312
S'1.75849941383'
p1313
sS'politica'
p1314
S'3.63423212192'
p1315
sS'spettacolo'
p1316
S'7.97186400938'
p1317
sS'economia'
p1318
S'6.91676436108'
p1319
sS'gallerie'
p1320
S'2.93083235639'
p1321
sS'moda'
p1322
S'2.81359906213'
p1323
sS'esteri'
p1324
S'7.3856975381'
p1325
sS'cronaca'
p1326
S'11.2543962485'
p1327
sS'sport'
p1328
S'9.96483001172'
p1329
sS'rubriche'
p1330
S'13.3645955451'
p1331
sa(dp1332
S'tecnologia'
p1333
S'1.30293159609'
p1334
sS'scienza'
p1335
S'1.73724212812'
p1336
sS'regione'
p1337
S'9.01194353963'
p1338
sS'persone'
p1339
S'8.36047774159'
p1340
sS'media'
p1341
S'3.36590662324'
p1342
sS'politica'
p1343
S'4.3431053203'
p1344
sS'spettacolo'
p1345
S'4.3431053203'
p1346
sS'economia'
p1347
S'11.4006514658'
p1348
sS'gallerie'
p1349
S'3.36590662324'
p1350
sS'moda'
p1351
S'1.52008686211'
p1352
sS'esteri'
p1353
S'4.66883821933'
p1354
sS'cronaca'
p1355
S'21.2812160695'
p1356
sS'sport'
p1357
S'5.6460369164'
p1358
sS'rubriche'
p1359
S'11.8349619978'
p1360
sa(dp1361
S'tecnologia'
p1362
S'1.67664670659'
p1363
sS'scienza'
p1364
S'1.4371257485'
p1365
sS'regione'
p1366
S'8.02395209581'
p1367
sS'persone'
p1368
S'6.70658682635'
p1369
sS'media'
p1370
S'1.4371257485'
p1371
sS'politica'
p1372
S'5.74850299401'
p1373
sS'spettacolo'
p1374
S'5.38922155689'
p1375
sS'economia'
p1376
S'8.8622754491'
p1377
sS'gallerie'
p1378
S'3.83233532934'
p1379
sS'salute'
p1380
S'1.31736526946'
p1381
sS'esteri'
p1382
S'4.55089820359'
p1383
sS'cronaca'
p1384
S'14.9700598802'
p1385
sS'sport'
p1386
S'9.46107784431'
p1387
sS'rubriche'
p1388
S'18.9221556886'
p1389
sa(dp1390
S'tecnologia'
p1391
S'2.68456375839'
p1392
sS'scienza'
p1393
S'4.56375838926'
p1394
sS'regione'
p1395
S'8.18791946309'
p1396
sS'persone'
p1397
S'6.44295302013'
p1398
sS'media'
p1399
S'2.55033557047'
p1400
sS'politica'
p1401
S'4.69798657718'
p1402
sS'prodotto'
p1403
S'1.61073825503'
p1404
sS'spettacolo'
p1405
S'8.18791946309'
p1406
sS'economia'
p1407
S'9.26174496644'
p1408
sS'gallerie'
p1409
S'3.48993288591'
p1410
sS'esteri'
p1411
S'3.75838926174'
p1412
sS'cronaca'
p1413
S'12.0805369128'
p1414
sS'sport'
p1415
S'8.32214765101'
p1416
sS'rubriche'
p1417
S'14.8993288591'
p1418
sa(dp1419
S'tecnologia'
p1420
S'2.0474137931'
p1421
sS'scienza'
p1422
S'2.69396551724'
p1423
sS'regione'
p1424
S'8.94396551724'
p1425
sS'persone'
p1426
S'6.35775862069'
p1427
sS'media'
p1428
S'1.61637931034'
p1429
sS'politica'
p1430
S'8.2974137931'
p1431
sS'spettacolo'
p1432
S'6.78879310345'
p1433
sS'economia'
p1434
S'6.78879310345'
p1435
sS'gallerie'
p1436
S'3.55603448276'
p1437
sS'motori'
p1438
S'1.29310344828'
p1439
sS'esteri'
p1440
S'3.23275862069'
p1441
sS'cronaca'
p1442
S'7.97413793103'
p1443
sS'sport'
p1444
S'13.6853448276'
p1445
sS'rubriche'
p1446
S'18.8577586207'
p1447
sasS'3'
p1448
(lp1449
(dp1450
S'tecnologia'
p1451
S'6.07703511895'
p1452
sS'scienza'
p1453
S'3.05874737012'
p1454
sS'regione'
p1455
S'5.73717430005'
p1456
sS'persone'
p1457
S'4.60430490371'
p1458
sS'media'
p1459
S'1.96633759508'
p1460
sS'politica'
p1461
S'3.33387279495'
p1462
sS'spettacolo'
p1463
S'10.3414792038'
p1464
sS'economia'
p1465
S'3.68182553811'
p1466
sS'gallerie'
p1467
S'4.57193720667'
p1468
sS'motori'
p1469
S'1.65884447322'
p1470
sS'esteri'
p1471
S'4.644764525'
p1472
sS'cronaca'
p1473
S'15.431299563'
p1474
sS'sport'
p1475
S'13.4406861952'
p1476
sS'rubriche'
p1477
S'12.1378863894'
p1478
sa(dp1479
S'tecnologia'
p1480
S'5.36761389265'
p1481
sS'scienza'
p1482
S'2.86874154263'
p1483
sS'regione'
p1484
S'6.16147947677'
p1485
sS'persone'
p1486
S'5.22327469553'
p1487
sS'media'
p1488
S'2.4898511502'
p1489
sS'politica'
p1490
S'2.69733874605'
p1491
sS'spettacolo'
p1492
S'8.0649526387'
p1493
sS'economia'
p1494
S'6.450157871'
p1495
sS'gallerie'
p1496
S'3.41903473162'
p1497
sS'motori'
p1498
S'1.52458276951'
p1499
sS'esteri'
p1500
S'5.26838069463'
p1501
sS'cronaca'
p1502
S'16.6892196662'
p1503
sS'sport'
p1504
S'11.50202977'
p1505
sS'rubriche'
p1506
S'11.7816869644'
p1507
sa(dp1508
S'tecnologia'
p1509
S'2.84316976127'
p1510
sS'scienza'
p1511
S'2.10543766578'
p1512
sS'regione'
p1513
S'7.15351458886'
p1514
sS'persone'
p1515
S'6.30802387268'
p1516
sS'politica'
p1517
S'2.92606100796'
p1518
sS'spettacolo'
p1519
S'7.06233421751'
p1520
sS'economia'
p1521
S'7.21153846154'
p1522
sS'gallerie'
p1523
S'4.94860742706'
p1524
sS'motori'
p1525
S'1.8650530504'
p1526
sS'esteri'
p1527
S'4.98176392573'
p1528
sS'cronaca'
p1529
S'14.6634615385'
p1530
sS'sport'
p1531
S'11.2897877984'
p1532
sS'rubriche'
p1533
S'13.6273209549'
p1534
sS'scuola'
p1535
S'1.66611405836'
p1536
sa(dp1537
S'tecnologia'
p1538
S'2.01069177372'
p1539
sS'notizia'
p1540
S'1.97079709567'
p1541
sS'scienza'
p1542
S'2.35378600495'
p1543
sS'regione'
p1544
S'7.84329370462'
p1545
sS'persone'
p1546
S'4.57193010452'
p1547
sS'politica'
p1548
S'2.9522061757'
p1549
sS'spettacolo'
p1550
S'12.2636240326'
p1551
sS'economia'
p1552
S'6.9496529163'
p1553
sS'gallerie'
p1554
S'4.64374052501'
p1555
sS'salute'
p1556
S'1.53195563712'
p1557
sS'esteri'
p1558
S'4.3963935211'
p1559
sS'cronaca'
p1560
S'17.0270485917'
p1561
sS'sport'
p1562
S'9.94175377005'
p1563
sS'rubriche'
p1564
S'11.6731827974'
p1565
sa(dp1566
S'tecnologia'
p1567
S'3.46217898151'
p1568
sS'scienza'
p1569
S'2.35778771146'
p1570
sS'regione'
p1571
S'6.6701726707'
p1572
sS'persone'
p1573
S'4.85581558419'
p1574
sS'media'
p1575
S'1.4725216934'
p1576
sS'politica'
p1577
S'2.31396266106'
p1578
sS'spettacolo'
p1579
S'10.3164168639'
p1580
sS'economia'
p1581
S'5.933911824'
p1582
sS'gallerie'
p1583
S'3.78648435446'
p1584
sS'salute'
p1585
S'1.48128670348'
p1586
sS'esteri'
p1587
S'5.35542115873'
p1588
sS'cronaca'
p1589
S'18.0383907441'
p1590
sS'sport'
p1591
S'10.553072136'
p1592
sS'rubriche'
p1593
S'12.9985099483'
p1594
sa(dp1595
S'tecnologia'
p1596
S'2.55550521069'
p1597
sS'scienza'
p1598
S'3.20797462619'
p1599
sS'regione'
p1600
S'5.03851381966'
p1601
sS'persone'
p1602
S'5.18350702311'
p1603
sS'media'
p1604
S'1.4861803353'
p1605
sS'politica'
p1606
S'2.6189397372'
p1607
sS'spettacolo'
p1608
S'9.93203443589'
p1609
sS'economia'
p1610
S'6.83280471228'
p1611
sS'gallerie'
p1612
S'6.56094245582'
p1613
sS'esteri'
p1614
S'5.85410058903'
p1615
sS'viaggi'
p1616
S'2.21114635251'
p1617
sS'cronaca'
p1618
S'16.6107838695'
p1619
sS'sport'
p1620
S'10.3398278206'
p1621
sS'rubriche'
p1622
S'11.409152696'
p1623
sa(dp1624
S'tecnologia'
p1625
S'2.47918763151'
p1626
sS'scienza'
p1627
S'3.25679260818'
p1628
sS'regione'
p1629
S'5.33345531058'
p1630
sS'persone'
p1631
S'4.72051962309'
p1632
sS'politica'
p1633
S'2.47003933766'
p1634
sS'spettacolo'
p1635
S'8.46217180496'
p1636
sS'economia'
p1637
S'5.47982801208'
p1638
sS'gallerie'
p1639
S'5.11389625835'
p1640
sS'salute'
p1641
S'2.52492910072'
p1642
sS'esteri'
p1643
S'5.34260360443'
p1644
sS'viaggi'
p1645
S'1.91199341323'
p1646
sS'cronaca'
p1647
S'16.2382215717'
p1648
sS'sport'
p1649
S'14.5091940353'
p1650
sS'rubriche'
p1651
S'12.1855273991'
p1652
sa(dp1653
S'tecnologia'
p1654
S'1.91138777005'
p1655
sS'scienza'
p1656
S'2.60710362505'
p1657
sS'regione'
p1658
S'5.13365067741'
p1659
sS'persone'
p1660
S'5.6243134383'
p1661
sS'politica'
p1662
S'3.70560234346'
p1663
sS'spettacolo'
p1664
S'9.85719516661'
p1665
sS'economia'
p1666
S'4.3061149762'
p1667
sS'gallerie'
p1668
S'4.17429512999'
p1669
sS'salute'
p1670
S'1.91138777005'
p1671
sS'motori'
p1672
S'8.49505675577'
p1673
sS'esteri'
p1674
S'3.60307579641'
p1675
sS'cronaca'
p1676
S'12.940314903'
p1677
sS'sport'
p1678
S'16.4628341267'
p1679
sS'rubriche'
p1680
S'9.93775173929'
p1681
sa(dp1682
S'tecnologia'
p1683
S'2.92020956798'
p1684
sS'scienza'
p1685
S'3.05763119471'
p1686
sS'regione'
p1687
S'4.03676028515'
p1688
sS'persone'
p1689
S'7.12874688654'
p1690
sS'politica'
p1691
S'3.0318646397'
p1692
sS'spettacolo'
p1693
S'11.2599845401'
p1694
sS'economia'
p1695
S'4.53491368204'
p1696
sS'gallerie'
p1697
S'3.58155114661'
p1698
sS'salute'
p1699
S'1.91531392253'
p1700
sS'motori'
p1701
S'3.63308425663'
p1702
sS'esteri'
p1703
S'4.5177359787'
p1704
sS'cronaca'
p1705
S'12.8317443958'
p1706
sS'sport'
p1707
S'15.2022674568'
p1708
sS'rubriche'
p1709
S'11.7924933436'
p1710
sa(dp1711
S'tecnologia'
p1712
S'4.52418096724'
p1713
sS'scienza'
p1714
S'2.79990146974'
p1715
sS'regione'
p1716
S'7.54577551523'
p1717
sS'persone'
p1718
S'4.87724772149'
p1719
sS'politica'
p1720
S'3.83446916824'
p1721
sS'spettacolo'
p1722
S'12.8335659742'
p1723
sS'economia'
p1724
S'6.42909926923'
p1725
sS'gallerie'
p1726
S'3.51424583299'
p1727
sS'salute'
p1728
S'1.20699564825'
p1729
sS'motori'
p1730
S'1.40405616225'
p1731
sS'esteri'
p1732
S'8.30117415223'
p1733
sS'cronaca'
p1734
S'13.1537893095'
p1735
sS'sport'
p1736
S'9.97618852123'
p1737
sS'rubriche'
p1738
S'10.1568273257'
p1739
sa(dp1740
S'tecnologia'
p1741
S'3.47917764892'
p1742
sS'scienza'
p1743
S'3.51432085749'
p1744
sS'regione'
p1745
S'9.21630644878'
p1746
sS'persone'
p1747
S'6.15884730276'
p1748
sS'politica'
p1749
S'3.58460727464'
p1750
sS'spettacolo'
p1751
S'7.90722192936'
p1752
sS'economia'
p1753
S'5.89527323845'
p1754
sS'gallerie'
p1755
S'3.55824986821'
p1756
sS'salute'
p1757
S'2.74117026885'
p1758
sS'esteri'
p1759
S'4.72676155333'
p1760
sS'cronaca'
p1761
S'14.05728343'
p1762
sS'sport'
p1763
S'12.6251976805'
p1764
sS'rubriche'
p1765
S'10.1300298717'
p1766
sS'scuola'
p1767
S'2.35459497452'
p1768
sa(dp1769
S'tecnologia'
p1770
S'2.57525368807'
p1771
sS'scienza'
p1772
S'3.53031465848'
p1773
sS'regione'
p1774
S'5.6792018419'
p1775
sS'persone'
p1776
S'5.71331116228'
p1777
sS'politica'
p1778
S'3.51325999829'
p1779
sS'spettacolo'
p1780
S'7.41024985077'
p1781
sS'economia'
p1782
S'7.15442994798'
p1783
sS'gallerie'
p1784
S'2.71169096956'
p1785
sS'salute'
p1786
S'2.32796111537'
p1787
sS'esteri'
p1788
S'4.76677752196'
p1789
sS'cronaca'
p1790
S'13.575509508'
p1791
sS'sport'
p1792
S'14.8546090219'
p1793
sS'rubriche'
p1794
S'13.029760382'
p1795
sS'scuola'
p1796
S'3.17216679458'
p1797
sa(dp1798
S'tecnologia'
p1799
S'2.65872310155'
p1800
sS'scienza'
p1801
S'3.43233149564'
p1802
sS'regione'
p1803
S'4.48159345545'
p1804
sS'persone'
p1805
S'6.33113996087'
p1806
sS'politica'
p1807
S'3.29005868753'
p1808
sS'spettacolo'
p1809
S'7.789436244'
p1810
sS'economia'
p1811
S'6.24221945581'
p1812
sS'gallerie'
p1813
S'3.35230304108'
p1814
sS'salute'
p1815
S'1.60946114174'
p1816
sS'esteri'
p1817
S'6.46452071848'
p1818
sS'cronaca'
p1819
S'14.1472523564'
p1820
sS'sport'
p1821
S'15.0631335586'
p1822
sS'rubriche'
p1823
S'12.5733594167'
p1824
sS'scuola'
p1825
S'2.65872310155'
p1826
sa(dp1827
S'tecnologia'
p1828
S'2.43407707911'
p1829
sS'scienza'
p1830
S'3.12711291413'
p1831
sS'regione'
p1832
S'5.02873563218'
p1833
sS'persone'
p1834
S'5.62035158891'
p1835
sS'politica'
p1836
S'3.44827586207'
p1837
sS'spettacolo'
p1838
S'7.47971602434'
p1839
sS'economia'
p1840
S'4.32724814064'
p1841
sS'gallerie'
p1842
S'3.38066260987'
p1843
sS'salute'
p1844
S'2.17207572684'
p1845
sS'motori'
p1846
S'2.41717376606'
p1847
sS'esteri'
p1848
S'5.94151453685'
p1849
sS'cronaca'
p1850
S'14.5875591616'
p1851
sS'sport'
p1852
S'18.8133874239'
p1853
sS'rubriche'
p1854
S'10.6068289385'
p1855
sa(dp1856
S'tecnologia'
p1857
S'3.64414996768'
p1858
sS'scienza'
p1859
S'3.03005817712'
p1860
sS'regione'
p1861
S'4.64608920491'
p1862
sS'persone'
p1863
S'5.41370394312'
p1864
sS'politica'
p1865
S'3.58758888171'
p1866
sS'spettacolo'
p1867
S'8.75888817065'
p1868
sS'economia'
p1869
S'3.96735617324'
p1870
sS'gallerie'
p1871
S'3.17550096962'
p1872
sS'salute'
p1873
S'2.40788623142'
p1874
sS'motori'
p1875
S'2.57756948933'
p1876
sS'esteri'
p1877
S'5.39754363284'
p1878
sS'cronaca'
p1879
S'12.5323206206'
p1880
sS'sport'
p1881
S'17.3400129282'
p1882
sS'rubriche'
p1883
S'11.9424692954'
p1884
sa(dp1885
S'tecnologia'
p1886
S'2.0206185567'
p1887
sS'scienza'
p1888
S'3.81030927835'
p1889
sS'regione'
p1890
S'4.09896907216'
p1891
sS'persone'
p1892
S'6.91958762887'
p1893
sS'politica'
p1894
S'2.76288659794'
p1895
sS'spettacolo'
p1896
S'8.53608247423'
p1897
sS'economia'
p1898
S'8.28041237113'
p1899
sS'gallerie'
p1900
S'4.65979381443'
p1901
sS'salute'
p1902
S'1.92164948454'
p1903
sS'moda'
p1904
S'2.52371134021'
p1905
sS'esteri'
p1906
S'4.01649484536'
p1907
sS'cronaca'
p1908
S'14.2597938144'
p1909
sS'sport'
p1910
S'13.5505154639'
p1911
sS'rubriche'
p1912
S'10.9443298969'
p1913
sa(dp1914
S'tecnologia'
p1915
S'1.80599820217'
p1916
sS'scienza'
p1917
S'3.22791533873'
p1918
sS'regione'
p1919
S'6.0554057367'
p1920
sS'persone'
p1921
S'6.09626542453'
p1922
sS'politica'
p1923
S'3.79177903081'
p1924
sS'spettacolo'
p1925
S'7.86140393887'
p1926
sS'economia'
p1927
S'6.64378524148'
p1928
sS'gallerie'
p1929
S'3.1625398382'
p1930
sS'moda'
p1931
S'2.58233227098'
p1932
sS'esteri'
p1933
S'4.51090953665'
p1934
sS'viaggi'
p1935
S'5.01756966577'
p1936
sS'cronaca'
p1937
S'14.4316417423'
p1938
sS'sport'
p1939
S'12.0699517856'
p1940
sS'rubriche'
p1941
S'11.195554466'
p1942
sa(dp1943
S'tecnologia'
p1944
S'2.03054065208'
p1945
sS'scienza'
p1946
S'3.27692942633'
p1947
sS'regione'
p1948
S'4.46553858853'
p1949
sS'persone'
p1950
S'7.20594304581'
p1951
sS'politica'
p1952
S'3.37598018985'
p1953
sS'spettacolo'
p1954
S'8.39455220801'
p1955
sS'economia'
p1956
S'8.43582335947'
p1957
sS'gallerie'
p1958
S'2.70738753611'
p1959
sS'salute'
p1960
S'1.68386297978'
p1961
sS'esteri'
p1962
S'8.84028064383'
p1963
sS'viaggi'
p1964
S'1.49401568304'
p1965
sS'cronaca'
p1966
S'13.7267849773'
p1967
sS'sport'
p1968
S'10.8543128353'
p1969
sS'rubriche'
p1970
S'11.1679735865'
p1971
sa(dp1972
S'tecnologia'
p1973
S'2.83487430274'
p1974
sS'sole'
p1975
S'1.08504622908'
p1976
sS'regione'
p1977
S'3.72125009551'
p1978
sS'scienza'
p1979
S'5.30297241537'
p1980
sS'persone'
p1981
S'8.2448231069'
p1982
sS'politica'
p1983
S'2.81959196149'
p1984
sS'spettacolo'
p1985
S'6.61725376328'
p1986
sS'economia'
p1987
S'5.25712539161'
p1988
sS'gallerie'
p1989
S'3.47673263544'
p1990
sS'salute'
p1991
S'1.55879880798'
p1992
sS'esteri'
p1993
S'7.35844731413'
p1994
sS'cronaca'
p1995
S'11.8438144724'
p1996
sS'sport'
p1997
S'16.3979521663'
p1998
sS'rubriche'
p1999
S'13.6929777642'
p2000
sa(dp2001
S'tecnologia'
p2002
S'4.06955234924'
p2003
sS'politica'
p2004
S'2.14576396596'
p2005
sS'regione'
p2006
S'3.93636699963'
p2007
sS'scienza'
p2008
S'9.38216796152'
p2009
sS'persone'
p2010
S'5.69737328894'
p2011
sS'sole'
p2012
S'2.6859045505'
p2013
sS'spettacolo'
p2014
S'7.4213836478'
p2015
sS'economia'
p2016
S'6.45209027007'
p2017
sS'gallerie'
p2018
S'2.75989641139'
p2019
sS'motori'
p2020
S'1.65001849797'
p2021
sS'esteri'
p2022
S'6.49648538661'
p2023
sS'cronaca'
p2024
S'12.6748057714'
p2025
sS'sport'
p2026
S'14.5394006659'
p2027
sS'rubriche'
p2028
S'12.2900480947'
p2029
sa(dp2030
S'tecnologia'
p2031
S'4.26501709263'
p2032
sS'scienza'
p2033
S'2.99527917955'
p2034
sS'regione'
p2035
S'5.41266482175'
p2036
sS'persone'
p2037
S'4.23245971024'
p2038
sS'media'
p2039
S'1.53833631776'
p2040
sS'politica'
p2041
S'2.93016441478'
p2042
sS'spettacolo'
p2043
S'7.39866514732'
p2044
sS'economia'
p2045
S'5.90102555755'
p2046
sS'gallerie'
p2047
S'3.34527104021'
p2048
sS'esteri'
p2049
S'6.9591404851'
p2050
sS'cronaca'
p2051
S'15.1961582289'
p2052
sS'sport'
p2053
S'16.9949536057'
p2054
sS'rubriche'
p2055
S'12.4531987628'
p2056
sS'scuola'
p2057
S'1.25345922188'
p2058
sa(dp2059
S'tecnologia'
p2060
S'2.46375776619'
p2061
sS'scienza'
p2062
S'2.62086695708'
p2063
sS'regione'
p2064
S'5.96300792687'
p2065
sS'persone'
p2066
S'4.5633078626'
p2067
sS'media'
p2068
S'2.24951796044'
p2069
sS'politica'
p2070
S'3.1850317789'
p2071
sS'spettacolo'
p2072
S'8.6624294794'
p2073
sS'economia'
p2074
S'4.74184103406'
p2075
sS'gallerie'
p2076
S'6.42005284582'
p2077
sS'esteri'
p2078
S'5.77733342855'
p2079
sS'cronaca'
p2080
S'14.2540884096'
p2081
sS'sport'
p2082
S'16.5393130044'
p2083
sS'rubriche'
p2084
S'12.468756695'
p2085
sS'scuola'
p2086
S'1.6710704849'
p2087
sa(dp2088
S'tecnologia'
p2089
S'2.51539595802'
p2090
sS'scienza'
p2091
S'2.75826177466'
p2092
sS'regione'
p2093
S'5.44713331599'
p2094
sS'persone'
p2095
S'6.10634053257'
p2096
sS'politica'
p2097
S'2.671523983'
p2098
sS'spettacolo'
p2099
S'7.72833723653'
p2100
sS'economia'
p2101
S'8.39621823228'
p2102
sS'gallerie'
p2103
S'5.46448087432'
p2104
sS'motori'
p2105
S'1.73475583312'
p2106
sS'esteri'
p2107
S'3.85115794952'
p2108
sS'cronaca'
p2109
S'15.6995402897'
p2110
sS'sport'
p2111
S'15.5434122647'
p2112
sS'rubriche'
p2113
S'10.7294648278'
p2114
sS'scuola'
p2115
S'2.13374967473'
p2116
sa(dp2117
S'tecnologia'
p2118
S'1.91888027692'
p2119
sS'scienza'
p2120
S'2.81435773948'
p2121
sS'regione'
p2122
S'5.40296485815'
p2123
sS'persone'
p2124
S'5.64376552036'
p2125
sS'politica'
p2126
S'2.03928060802'
p2127
sS'spettacolo'
p2128
S'8.60862367372'
p2129
sS'economia'
p2130
S'7.50244563173'
p2131
sS'gallerie'
p2132
S'3.09278350515'
p2133
sS'salute'
p2134
S'1.42222891113'
p2135
sS'esteri'
p2136
S'12.5667845587'
p2137
sS'cronaca'
p2138
S'14.1921890285'
p2139
sS'sport'
p2140
S'8.0216720596'
p2141
sS'rubriche'
p2142
S'12.4990593724'
p2143
sS'aereo'
p2144
S'2.70148242908'
p2145
sa(dp2146
S'tecnologia'
p2147
S'1.44409493852'
p2148
sS'scienza'
p2149
S'2.72376322562'
p2150
sS'regione'
p2151
S'8.05690591936'
p2152
sS'persone'
p2153
S'5.58335716328'
p2154
sS'politica'
p2155
S'2.32342007435'
p2156
sS'spettacolo'
p2157
S'6.85587646554'
p2158
sS'economia'
p2159
S'6.00514726909'
p2160
sS'gallerie'
p2161
S'2.58078352874'
p2162
sS'esteri'
p2163
S'11.9388046897'
p2164
sS'cronaca'
p2165
S'18.0583357163'
p2166
sS'sport'
p2167
S'8.22848155562'
p2168
sS'scuola'
p2169
S'1.75865027166'
p2170
sS'rubriche'
p2171
S'11.1381183872'
p2172
sS'aereo'
p2173
S'2.1375464684'
p2174
sa(dp2175
S'tecnologia'
p2176
S'1.93939393939'
p2177
sS'scuola'
p2178
S'2.18181818182'
p2179
sS'regione'
p2180
S'4.36363636364'
p2181
sS'persone'
p2182
S'5.21212121212'
p2183
sS'politica'
p2184
S'3.15151515152'
p2185
sS'scienza'
p2186
S'1.93939393939'
p2187
sS'spettacolo'
p2188
S'15.3939393939'
p2189
sS'economia'
p2190
S'2.90909090909'
p2191
sS'salute'
p2192
S'1.93939393939'
p2193
sS'esteri'
p2194
S'14.7878787879'
p2195
sS'cronaca'
p2196
S'16.7272727273'
p2197
sS'sport'
p2198
S'9.45454545455'
p2199
sS'rubriche'
p2200
S'7.15151515152'
p2201
sS'aereo'
p2202
S'2.06060606061'
p2203
sa(dp2204
a(dp2205
a(dp2206
a(dp2207
a(dp2208
asS'2'
p2209
(lp2210
(dp2211
S'tecnologia'
p2212
S'2.36440495809'
p2213
sS'scienza'
p2214
S'2.42888872967'
p2215
sS'regione'
p2216
S'6.88543383249'
p2217
sS'persone'
p2218
S'5.41663681307'
p2219
sS'media'
p2220
S'2.27126173246'
p2221
sS'politica'
p2222
S'6.11879343699'
p2223
sS'spettacolo'
p2224
S'8.13928494662'
p2225
sS'economia'
p2226
S'5.78920971555'
p2227
sS'gallerie'
p2228
S'3.47495880203'
p2229
sS'motori'
p2230
S'1.1463781615'
p2231
sS'esteri'
p2232
S'4.55685319195'
p2233
sS'cronaca'
p2234
S'9.93766568747'
p2235
sS'sport'
p2236
S'17.5180912804'
p2237
sS'rubriche'
p2238
S'14.7166296482'
p2239
sa(dp2240
S'tecnologia'
p2241
S'2.42627846211'
p2242
sS'scienza'
p2243
S'2.42627846211'
p2244
sS'regione'
p2245
S'8.7420679358'
p2246
sS'persone'
p2247
S'5.12131392311'
p2248
sS'media'
p2249
S'3.85218365062'
p2250
sS'politica'
p2251
S'3.31466965286'
p2252
sS'spettacolo'
p2253
S'6.82344158268'
p2254
sS'economia'
p2255
S'8.89137737962'
p2256
sS'gallerie'
p2257
S'3.47144456887'
p2258
sS'salute'
p2259
S'1.37364688317'
p2260
sS'esteri'
p2261
S'4.58379992535'
p2262
sS'cronaca'
p2263
S'12.3702874207'
p2264
sS'sport'
p2265
S'15.0429264651'
p2266
sS'rubriche'
p2267
S'11.3027248973'
p2268
sa(dp2269
S'tecnologia'
p2270
S'1.79516521242'
p2271
sS'scienza'
p2272
S'2.73208410814'
p2273
sS'regione'
p2274
S'8.08897153483'
p2275
sS'persone'
p2276
S'4.87769989987'
p2277
sS'politica'
p2278
S'3.44013731941'
p2279
sS'spettacolo'
p2280
S'7.61693606065'
p2281
sS'economia'
p2282
S'8.28922900873'
p2283
sS'gallerie'
p2284
S'5.93620369046'
p2285
sS'salute'
p2286
S'2.19568016021'
p2287
sS'motori'
p2288
S'2.82506079245'
p2289
sS'esteri'
p2290
S'5.88613932199'
p2291
sS'cronaca'
p2292
S'11.0213131169'
p2293
sS'sport'
p2294
S'10.7137748534'
p2295
sS'rubriche'
p2296
S'15.319696753'
p2297
sa(dp2298
S'scienza'
p2299
S'3.54358117516'
p2300
sS'aereo'
p2301
S'3.90559732665'
p2302
sS'regione'
p2303
S'5.54859370649'
p2304
sS'persone'
p2305
S'5.32581453634'
p2306
sS'politica'
p2307
S'2.59676970203'
p2308
sS'spettacolo'
p2309
S'9.81620718463'
p2310
sS'economia'
p2311
S'6.223893066'
p2312
sS'gallerie'
p2313
S'3.25814536341'
p2314
sS'motori'
p2315
S'1.90754664439'
p2316
sS'esteri'
p2317
S'8.57003620162'
p2318
sS'cronaca'
p2319
S'12.8376496798'
p2320
sS'sport'
p2321
S'12.1901977165'
p2322
sS'tecnologia'
p2323
S'1.76830966305'
p2324
sS'rubriche'
p2325
S'11.9186856029'
p2326
sa(dp2327
S'tecnologia'
p2328
S'1.99684708355'
p2329
sS'scienza'
p2330
S'2.66496509271'
p2331
sS'regione'
p2332
S'5.48757600781'
p2333
sS'persone'
p2334
S'5.57015239096'
p2335
sS'media'
p2336
S'1.2987012987'
p2337
sS'politica'
p2338
S'3.23549283087'
p2339
sS'spettacolo'
p2340
S'8.07747166129'
p2341
sS'economia'
p2342
S'8.37024247429'
p2343
sS'gallerie'
p2344
S'3.52826364387'
p2345
sS'motori'
p2346
S'1.43382628932'
p2347
sS'esteri'
p2348
S'5.28488852188'
p2349
sS'cronaca'
p2350
S'16.1324224908'
p2351
sS'sport'
p2352
S'12.6341866226'
p2353
sS'rubriche'
p2354
S'14.3457698371'
p2355
sa(dp2356
S'tecnologia'
p2357
S'1.35150947812'
p2358
sS'scienza'
p2359
S'2.45143926983'
p2360
sS'regione'
p2361
S'8.13831032062'
p2362
sS'persone'
p2363
S'5.16615960683'
p2364
sS'politica'
p2365
S'3.06576175989'
p2366
sS'spettacolo'
p2367
S'9.08612216242'
p2368
sS'economia'
p2369
S'6.4708635619'
p2370
sS'gallerie'
p2371
S'3.17107418675'
p2372
sS'motori'
p2373
S'1.36906154926'
p2374
sS'maltempo'
p2375
S'2.3051720103'
p2376
sS'esteri'
p2377
S'4.25345190733'
p2378
sS'cronaca'
p2379
S'20.8694125907'
p2380
sS'sport'
p2381
S'11.2157734613'
p2382
sS'rubriche'
p2383
S'12.3859115376'
p2384
sa(dp2385
S'tecnologia'
p2386
S'1.64246957032'
p2387
sS'scienza'
p2388
S'2.33172019358'
p2389
sS'regione'
p2390
S'8.08769614313'
p2391
sS'persone'
p2392
S'5.09605514005'
p2393
sS'media'
p2394
S'1.45182578091'
p2395
sS'politica'
p2396
S'3.17495233905'
p2397
sS'spettacolo'
p2398
S'9.4002053087'
p2399
sS'economia'
p2400
S'5.66798650829'
p2401
sS'gallerie'
p2402
S'4.00351957765'
p2403
sS'maltempo'
p2404
S'1.7524563719'
p2405
sS'esteri'
p2406
S'4.45813169086'
p2407
sS'cronaca'
p2408
S'17.891186391'
p2409
sS'sport'
p2410
S'15.2221733392'
p2411
sS'rubriche'
p2412
S'10.4194163367'
p2413
sa(dp2414
S'tecnologia'
p2415
S'2.1254145312'
p2416
sS'scienza'
p2417
S'2.77359059391'
p2418
sS'regione'
p2419
S'5.53964425686'
p2420
sS'persone'
p2421
S'4.2131444076'
p2422
sS'media'
p2423
S'2.15556225505'
p2424
sS'politica'
p2425
S'3.48959903527'
p2426
sS'spettacolo'
p2427
S'10.0165812481'
p2428
sS'economia'
p2429
S'6.45914983419'
p2430
sS'gallerie'
p2431
S'3.43684051854'
p2432
sS'maltempo'
p2433
S'1.29635212541'
p2434
sS'esteri'
p2435
S'4.65028640338'
p2436
sS'cronaca'
p2437
S'14.3427796201'
p2438
sS'sport'
p2439
S'18.4654808562'
p2440
sS'rubriche'
p2441
S'10.8984021706'
p2442
sa(dp2443
S'tecnologia'
p2444
S'2.45398773006'
p2445
sS'scienza'
p2446
S'2.72185258792'
p2447
sS'regione'
p2448
S'3.85379763242'
p2449
sS'persone'
p2450
S'4.88205305452'
p2451
sS'media'
p2452
S'1.39980990236'
p2453
sS'politica'
p2454
S'1.70223796768'
p2455
sS'spettacolo'
p2456
S'11.2416832282'
p2457
sS'economia'
p2458
S'9.68633889225'
p2459
sS'gallerie'
p2460
S'4.64011060226'
p2461
sS'motori'
p2462
S'1.44301391169'
p2463
sS'esteri'
p2464
S'4.54506178173'
p2465
sS'cronaca'
p2466
S'17.0828652899'
p2467
sS'sport'
p2468
S'13.9030502031'
p2469
sS'rubriche'
p2470
S'9.20245398773'
p2471
sa(dp2472
S'tecnologia'
p2473
S'2.72366978666'
p2474
sS'scienza'
p2475
S'3.83674846108'
p2476
sS'regione'
p2477
S'5.68344717093'
p2478
sS'persone'
p2479
S'5.16906990471'
p2480
sS'politica'
p2481
S'2.76583185766'
p2482
sS'spettacolo'
p2483
S'11.5777046969'
p2484
sS'economia'
p2485
S'7.76625347837'
p2486
sS'gallerie'
p2487
S'4.28366641369'
p2488
sS'salute'
p2489
S'3.68496500548'
p2490
sS'motori'
p2491
S'1.34075385783'
p2492
sS'esteri'
p2493
S'4.07285605869'
p2494
sS'cronaca'
p2495
S'14.8663462349'
p2496
sS'sport'
p2497
S'10.9452736318'
p2498
sS'rubriche'
p2499
S'10.4814908508'
p2500
sa(dp2501
S'serata'
p2502
S'3.24660718302'
p2503
sS'scienza'
p2504
S'3.59151233411'
p2505
sS'regione'
p2506
S'4.61872984929'
p2507
sS'persone'
p2508
S'4.96363500037'
p2509
sS'media'
p2510
S'2.60928244733'
p2511
sS'politica'
p2512
S'2.10692059684'
p2513
sS'spettacolo'
p2514
S'17.0503111644'
p2515
sS'economia'
p2516
S'6.57569168479'
p2517
sS'gallerie'
p2518
S'4.68621129189'
p2519
sS'salute'
p2520
S'1.94946389743'
p2521
sS'esteri'
p2522
S'3.23161130689'
p2523
sS'cronaca'
p2524
S'12.9339431656'
p2525
sS'sport'
p2526
S'9.10999475144'
p2527
sS'rubriche'
p2528
S'11.0819524631'
p2529
sa(dp2530
S'serata'
p2531
S'4.19969512195'
p2532
sS'tecnologia'
p2533
S'1.7987804878'
p2534
sS'scienza'
p2535
S'2.91920731707'
p2536
sS'regione'
p2537
S'4.75609756098'
p2538
sS'persone'
p2539
S'4.80945121951'
p2540
sS'media'
p2541
S'1.73018292683'
p2542
sS'politica'
p2543
S'1.98170731707'
p2544
sS'spettacolo'
p2545
S'14.7865853659'
p2546
sS'economia'
p2547
S'7.72865853659'
p2548
sS'gallerie'
p2549
S'4.62652439024'
p2550
sS'esteri'
p2551
S'5.26676829268'
p2552
sS'cronaca'
p2553
S'12.1951219512'
p2554
sS'sport'
p2555
S'7.8506097561'
p2556
sS'rubriche'
p2557
S'14.7179878049'
p2558
sa(dp2559
S'serata'
p2560
S'2.97777777778'
p2561
sS'tecnologia'
p2562
S'2.01777777778'
p2563
sS'scienza'
p2564
S'3.53777777778'
p2565
sS'regione'
p2566
S'4.27555555556'
p2567
sS'persone'
p2568
S'4.93333333333'
p2569
sS'politica'
p2570
S'3.82222222222'
p2571
sS'spettacolo'
p2572
S'14.0444444444'
p2573
sS'economia'
p2574
S'7.85777777778'
p2575
sS'gallerie'
p2576
S'3.64444444444'
p2577
sS'musica'
p2578
S'3.18222222222'
p2579
sS'esteri'
p2580
S'4.24888888889'
p2581
sS'cronaca'
p2582
S'13.0488888889'
p2583
sS'sport'
p2584
S'9.83111111111'
p2585
sS'rubriche'
p2586
S'11.6533333333'
p2587
sa(dp2588
S'tecnologia'
p2589
S'2.27783124799'
p2590
sS'scienza'
p2591
S'3.26435675329'
p2592
sS'regione'
p2593
S'5.33365415464'
p2594
sS'persone'
p2595
S'4.39525184472'
p2596
sS'media'
p2597
S'1.74847609881'
p2598
sS'politica'
p2599
S'4.17067693295'
p2600
sS'spettacolo'
p2601
S'12.9852422201'
p2602
sS'economia'
p2603
S'5.69457811999'
p2604
sS'gallerie'
p2605
S'3.76162977222'
p2606
sS'musica'
p2607
S'1.54796278473'
p2608
sS'esteri'
p2609
S'5.06095604748'
p2610
sS'cronaca'
p2611
S'13.7552133462'
p2612
sS'sport'
p2613
S'13.1536734039'
p2614
sS'rubriche'
p2615
S'10.8598010908'
p2616
sa(dp2617
S'tecnologia'
p2618
S'2.04555437033'
p2619
sS'scienza'
p2620
S'2.86754094246'
p2621
sS'regione'
p2622
S'6.62609023028'
p2623
sS'persone'
p2624
S'3.93424107423'
p2625
sS'media'
p2626
S'2.25261969003'
p2627
sS'politica'
p2628
S'2.05810378365'
p2629
sS'spettacolo'
p2630
S'17.8013427872'
p2631
sS'economia'
p2632
S'6.11156428437'
p2633
sS'gallerie'
p2634
S'3.30677040848'
p2635
sS'salute'
p2636
S'1.19219426492'
p2637
sS'esteri'
p2638
S'6.19313547092'
p2639
sS'cronaca'
p2640
S'11.0623078371'
p2641
sS'sport'
p2642
S'12.2670515153'
p2643
sS'rubriche'
p2644
S'13.8106293531'
p2645
sa(dp2646
S'scienza'
p2647
S'2.37762237762'
p2648
sS'regione'
p2649
S'6.31701631702'
p2650
sS'persone'
p2651
S'3.99378399378'
p2652
sS'media'
p2653
S'1.52292152292'
p2654
sS'politica'
p2655
S'2.89044289044'
p2656
sS'spettacolo'
p2657
S'10.1320901321'
p2658
sS'economia'
p2659
S'7.14840714841'
p2660
sS'gallerie'
p2661
S'3.65967365967'
p2662
sS'salute'
p2663
S'1.554001554'
p2664
sS'motori'
p2665
S'1.46853146853'
p2666
sS'esteri'
p2667
S'7.10955710956'
p2668
sS'cronaca'
p2669
S'13.9393939394'
p2670
sS'sport'
p2671
S'13.209013209'
p2672
sS'rubriche'
p2673
S'13.5897435897'
p2674
sa(dp2675
S'scienza'
p2676
S'2.90598290598'
p2677
sS'regione'
p2678
S'7.57834757835'
p2679
sS'persone'
p2680
S'5.08750508751'
p2681
sS'media'
p2682
S'1.7094017094'
p2683
sS'politica'
p2684
S'2.39316239316'
p2685
sS'spettacolo'
p2686
S'7.30158730159'
p2687
sS'economia'
p2688
S'8.33536833537'
p2689
sS'gallerie'
p2690
S'3.49206349206'
p2691
sS'salute'
p2692
S'1.8722018722'
p2693
sS'motori'
p2694
S'2.442002442'
p2695
sS'esteri'
p2696
S'8.65282865283'
p2697
sS'cronaca'
p2698
S'14.8066748067'
p2699
sS'sport'
p2700
S'11.2739112739'
p2701
sS'rubriche'
p2702
S'11.2576312576'
p2703
sa(dp2704
S'tecnologia'
p2705
S'2.12020325916'
p2706
sS'scienza'
p2707
S'2.90870860347'
p2708
sS'regione'
p2709
S'6.36937094796'
p2710
sS'persone'
p2711
S'5.2829858069'
p2712
sS'politica'
p2713
S'2.66339582968'
p2714
sS'spettacolo'
p2715
S'7.90257578412'
p2716
sS'economia'
p2717
S'8.20045558087'
p2718
sS'gallerie'
p2719
S'2.61958997722'
p2720
sS'salute'
p2721
S'2.63711231821'
p2722
sS'motori'
p2723
S'1.57701068863'
p2724
sS'esteri'
p2725
S'7.10530926932'
p2726
sS'cronaca'
p2727
S'16.6812686175'
p2728
sS'sport'
p2729
S'9.47958647275'
p2730
sS'rubriche'
p2731
S'13.7024706501'
p2732
sa(dp2733
S'tecnologia'
p2734
S'1.53806495962'
p2735
sS'scienza'
p2736
S'2.81835366902'
p2737
sS'regione'
p2738
S'8.47224609039'
p2739
sS'persone'
p2740
S'4.37360371198'
p2741
sS'media'
p2742
S'1.59821275133'
p2743
sS'politica'
p2744
S'2.53479979378'
p2745
sS'spettacolo'
p2746
S'8.36913559031'
p2747
sS'economia'
p2748
S'7.08884688091'
p2749
sS'gallerie'
p2750
S'3.65183021138'
p2751
sS'salute'
p2752
S'1.71850833477'
p2753
sS'esteri'
p2754
S'7.58721429799'
p2755
sS'cronaca'
p2756
S'15.1916136793'
p2757
sS'sport'
p2758
S'13.2153290943'
p2759
sS'rubriche'
p2760
S'12.9403677608'
p2761
sa(dp2762
S'tecnologia'
p2763
S'2.44169403048'
p2764
sS'scienza'
p2765
S'2.60166708765'
p2766
sS'regione'
p2767
S'8.62170581797'
p2768
sS'persone'
p2769
S'4.94232550307'
p2770
sS'media'
p2771
S'1.54921276417'
p2772
sS'politica'
p2773
S'2.49221183801'
p2774
sS'spettacolo'
p2775
S'9.21108023912'
p2776
sS'economia'
p2777
S'10.8697482529'
p2778
sS'gallerie'
p2779
S'4.1592994864'
p2780
sS'motori'
p2781
S'1.62498947546'
p2782
sS'esteri'
p2783
S'4.08352277511'
p2784
sS'cronaca'
p2785
S'15.0543066431'
p2786
sS'sport'
p2787
S'14.7596194325'
p2788
sS'rubriche'
p2789
S'10.154079313'
p2790
sa(dp2791
S'tecnologia'
p2792
S'3.10976634729'
p2793
sS'scienza'
p2794
S'3.20221886031'
p2795
sS'regione'
p2796
S'8.1274163725'
p2797
sS'persone'
p2798
S'3.92502941671'
p2799
sS'politica'
p2800
S'2.15162212136'
p2801
sS'spettacolo'
p2802
S'8.07698772903'
p2803
sS'economia'
p2804
S'11.6322070936'
p2805
sS'gallerie'
p2806
S'3.80736258195'
p2807
sS'salute'
p2808
S'2.6138846865'
p2809
sS'esteri'
p2810
S'4.98403092957'
p2811
sS'viaggi'
p2812
S'1.77340729534'
p2813
sS'cronaca'
p2814
S'15.305093293'
p2815
sS'sport'
p2816
S'13.3972096151'
p2817
sS'rubriche'
p2818
S'8.48041687679'
p2819
sa(dp2820
S'tecnologia'
p2821
S'2.46302076265'
p2822
sS'scienza'
p2823
S'2.39516895101'
p2824
sS'regione'
p2825
S'6.47306283078'
p2826
sS'persone'
p2827
S'3.86755326367'
p2828
sS'politica'
p2829
S'2.89048717601'
p2830
sS'spettacolo'
p2831
S'8.77323924549'
p2832
sS'economia'
p2833
S'7.32121047632'
p2834
sS'gallerie'
p2835
S'4.50536029312'
p2836
sS'salute'
p2837
S'1.87271000136'
p2838
sS'esteri'
p2839
S'4.12539014792'
p2840
sS'cronaca'
p2841
S'15.1241688153'
p2842
sS'sport'
p2843
S'17.6821821143'
p2844
sS'rubriche'
p2845
S'10.4288234496'
p2846
sS'scuola'
p2847
S'1.88628036369'
p2848
sa(dp2849
S'tecnologia'
p2850
S'1.71773782662'
p2851
sS'scienza'
p2852
S'2.97692699614'
p2853
sS'regione'
p2854
S'5.37884853337'
p2855
sS'persone'
p2856
S'4.38896571803'
p2857
sS'politica'
p2858
S'2.18356503385'
p2859
sS'spettacolo'
p2860
S'13.5089890094'
p2861
sS'economia'
p2862
S'7.70798456947'
p2863
sS'gallerie'
p2864
S'14.9719775821'
p2865
sS'salute'
p2866
S'1.17184656816'
p2867
sS'motori'
p2868
S'1.32469612053'
p2869
sS'esteri'
p2870
S'2.98420554626'
p2871
sS'cronaca'
p2872
S'9.76053570129'
p2873
sS'sport'
p2874
S'10.7649756169'
p2875
sS'rubriche'
p2876
S'10.9178251692'
p2877
sa(dp2878
S'tecnologia'
p2879
S'2.71431982807'
p2880
sS'festa'
p2881
S'2.95311629388'
p2882
sS'regione'
p2883
S'6.34402610841'
p2884
sS'persone'
p2885
S'4.33813579559'
p2886
sS'politica'
p2887
S'2.62676112394'
p2888
sS'spettacolo'
p2889
S'9.408580753'
p2890
sS'economia'
p2891
S'7.62556714161'
p2892
sS'gallerie'
p2893
S'6.78181962907'
p2894
sS'salute'
p2895
S'3.57398710499'
p2896
sS'motori'
p2897
S'3.32723075698'
p2898
sS'esteri'
p2899
S'3.21579240627'
p2900
sS'cronaca'
p2901
S'12.0831011701'
p2902
sS'sport'
p2903
S'12.5447743373'
p2904
sS'rubriche'
p2905
S'9.9259730956'
p2906
sa(dp2907
S'tecnologia'
p2908
S'2.29128676762'
p2909
sS'scienza'
p2910
S'1.81558709268'
p2911
sS'regione'
p2912
S'6.16031079045'
p2913
sS'persone'
p2914
S'4.4081503211'
p2915
sS'politica'
p2916
S'5.59739950844'
p2917
sS'spettacolo'
p2918
S'8.03932450646'
p2919
sS'economia'
p2920
S'8.07103781812'
p2921
sS'gallerie'
p2922
S'4.59843019107'
p2923
sS'salute'
p2924
S'1.91072702767'
p2925
sS'motori'
p2926
S'2.51327994926'
p2927
sS'esteri'
p2928
S'4.55878855149'
p2929
sS'cronaca'
p2930
S'12.6615396813'
p2931
sS'sport'
p2932
S'15.1906762864'
p2933
sS'rubriche'
p2934
S'11.4009355427'
p2935
sa(dp2936
S'tecnologia'
p2937
S'1.73738112655'
p2938
sS'scienza'
p2939
S'2.96269202634'
p2940
sS'regione'
p2941
S'5.59619604974'
p2942
sS'persone'
p2943
S'4.04169714704'
p2944
sS'politica'
p2945
S'3.29188002926'
p2946
sS'spettacolo'
p2947
S'10.2048280907'
p2948
sS'economia'
p2949
S'6.7300658376'
p2950
sS'gallerie'
p2951
S'3.51133869788'
p2952
sS'motori'
p2953
S'1.70994879298'
p2954
sS'esteri'
p2955
S'5.62362838332'
p2956
sS'viaggi'
p2957
S'1.67337234821'
p2958
sS'cronaca'
p2959
S'14.3288222385'
p2960
sS'sport'
p2961
S'14.1093635699'
p2962
sS'rubriche'
p2963
S'12.7194586686'
p2964
sa(dp2965
S'tecnologia'
p2966
S'3.16461229128'
p2967
sS'scienza'
p2968
S'4.21365503978'
p2969
sS'regione'
p2970
S'8.24372759857'
p2971
sS'persone'
p2972
S'6.04073782673'
p2973
sS'politica'
p2974
S'2.38657225282'
p2975
sS'spettacolo'
p2976
S'8.42731007955'
p2977
sS'economia'
p2978
S'5.89212343736'
p2979
sS'gallerie'
p2980
S'3.829006032'
p2981
sS'motori'
p2982
S'1.51236996241'
p2983
sS'esteri'
p2984
S'4.40597954367'
p2985
sS'viaggi'
p2986
S'1.50362793951'
p2987
sS'cronaca'
p2988
S'12.8682577148'
p2989
sS'sport'
p2990
S'14.9138910744'
p2991
sS'rubriche'
p2992
S'12.76335344'
p2993
sa(dp2994
S'tecnologia'
p2995
S'3.96159501773'
p2996
sS'scienza'
p2997
S'5.12931407318'
p2998
sS'regione'
p2999
S'6.28838335784'
p3000
sS'persone'
p3001
S'5.3023094888'
p3002
sS'media'
p3003
S'1.54830896981'
p3004
sS'politica'
p3005
S'3.16581610587'
p3006
sS'spettacolo'
p3007
S'8.61517169795'
p3008
sS'economia'
p3009
S'4.28163653663'
p3010
sS'gallerie'
p3011
S'2.71602802526'
p3012
sS'motori'
p3013
S'1.65210621919'
p3014
sS'esteri'
p3015
S'5.27636017646'
p3016
sS'cronaca'
p3017
S'16.3307672347'
p3018
sS'sport'
p3019
S'13.8742323328'
p3020
sS'rubriche'
p3021
S'13.1909004411'
p3022
sasS'5'
p3023
(lp3024
(dp3025
a(dp3026
a(dp3027
a(dp3028
a(dp3029
a(dp3030
a(dp3031
a(dp3032
a(dp3033
a(dp3034
a(dp3035
a(dp3036
a(dp3037
a(dp3038
a(dp3039
a(dp3040
a(dp3041
a(dp3042
a(dp3043
a(dp3044
a(dp3045
a(dp3046
a(dp3047
a(dp3048
a(dp3049
a(dp3050
a(dp3051
a(dp3052
a(dp3053
a(dp3054
a(dp3055
asS'4'
p3056
(lp3057
(dp3058
a(dp3059
a(dp3060
a(dp3061
a(dp3062
a(dp3063
a(dp3064
a(dp3065
a(dp3066
S'tecnologia'
p3067
S'3.5839775123'
p3068
sS'scienza'
p3069
S'2.85111936553'
p3070
sS'regione'
p3071
S'9.74801726734'
p3072
sS'persone'
p3073
S'6.05360907539'
p3074
sS'politica'
p3075
S'4.62804939263'
p3076
sS'spettacolo'
p3077
S'6.36482280895'
p3078
sS'economia'
p3079
S'5.46129906636'
p3080
sS'gallerie'
p3081
S'4.12609175786'
p3082
sS'salute'
p3083
S'1.80704748519'
p3084
sS'motori'
p3085
S'3.07198072483'
p3086
sS'esteri'
p3087
S'3.7947997189'
p3088
sS'cronaca'
p3089
S'19.154703343'
p3090
sS'sport'
p3091
S'10.1596225279'
p3092
sS'rubriche'
p3093
S'10.6314627045'
p3094
sa(dp3095
S'tecnologia'
p3096
S'3.89221556886'
p3097
sS'scienza'
p3098
S'1.49700598802'
p3099
sS'regione'
p3100
S'7.78443113772'
p3101
sS'persone'
p3102
S'10.1796407186'
p3103
sS'media'
p3104
S'3.29341317365'
p3105
sS'politica'
p3106
S'1.19760479042'
p3107
sS'spettacolo'
p3108
S'10.1796407186'
p3109
sS'economia'
p3110
S'5.38922155689'
p3111
sS'gallerie'
p3112
S'5.9880239521'
p3113
sS'motori'
p3114
S'4.19161676647'
p3115
sS'esteri'
p3116
S'4.49101796407'
p3117
sS'cronaca'
p3118
S'17.9640718563'
p3119
sS'sport'
p3120
S'7.48502994012'
p3121
sS'rubriche'
p3122
S'10.7784431138'
p3123
sa(dp3124
a(dp3125
a(dp3126
a(dp3127
a(dp3128
S'tecnologia'
p3129
S'2.46639037703'
p3130
sS'scienza'
p3131
S'3.69958556555'
p3132
sS'regione'
p3133
S'5.91327201051'
p3134
sS'persone'
p3135
S'7.11614272718'
p3136
sS'politica'
p3137
S'4.13423632872'
p3138
sS'spettacolo'
p3139
S'9.90599413727'
p3140
sS'economia'
p3141
S'8.06630951178'
p3142
sS'gallerie'
p3143
S'3.56817952087'
p3144
sS'salute'
p3145
S'1.88011725462'
p3146
sS'motori'
p3147
S'1.51622359244'
p3148
sS'esteri'
p3149
S'4.29596684524'
p3150
sS'cronaca'
p3151
S'14.4243404427'
p3152
sS'sport'
p3153
S'12.3117355706'
p3154
sS'rubriche'
p3155
S'11.7658950773'
p3156
sa(dp3157
S'tecnologia'
p3158
S'1.94598888006'
p3159
sS'scienza'
p3160
S'3.0877680699'
p3161
sS'regione'
p3162
S'7.21803018268'
p3163
sS'persone'
p3164
S'6.32446386021'
p3165
sS'media'
p3166
S'1.28077839555'
p3167
sS'politica'
p3168
S'3.85226370135'
p3169
sS'spettacolo'
p3170
S'7.91302621128'
p3171
sS'economia'
p3172
S'7.80381254964'
p3173
sS'gallerie'
p3174
S'3.64376489277'
p3175
sS'motori'
p3176
S'2.02541699762'
p3177
sS'esteri'
p3178
S'7.65488482923'
p3179
sS'cronaca'
p3180
S'13.3240667196'
p3181
sS'sport'
p3182
S'12.9765687053'
p3183
sS'rubriche'
p3184
S'10.5043685465'
p3185
sa(dp3186
S'tecnologia'
p3187
S'2.45398773006'
p3188
sS'scienza'
p3189
S'1.22699386503'
p3190
sS'regione'
p3191
S'7.36196319018'
p3192
sS'persone'
p3193
S'8.28220858896'
p3194
sS'politica'
p3195
S'2.45398773006'
p3196
sS'spettacolo'
p3197
S'11.3496932515'
p3198
sS'economia'
p3199
S'5.52147239264'
p3200
sS'gallerie'
p3201
S'3.37423312883'
p3202
sS'salute'
p3203
S'1.53374233129'
p3204
sS'esteri'
p3205
S'6.44171779141'
p3206
sS'cronaca'
p3207
S'9.81595092025'
p3208
sS'sport'
p3209
S'19.6319018405'
p3210
sS'rubriche'
p3211
S'15.0306748466'
p3212
sS'scuola'
p3213
S'1.22699386503'
p3214
sa(dp3215
a(dp3216
a(dp3217
a(dp3218
a(dp3219
a(dp3220
a(dp3221
a(dp3222
S'tecnologia'
p3223
S'2.2782152231'
p3224
sS'scienza'
p3225
S'3.89501312336'
p3226
sS'regione'
p3227
S'6.44619422572'
p3228
sS'persone'
p3229
S'4.8188976378'
p3230
sS'politica'
p3231
S'2.97112860892'
p3232
sS'spettacolo'
p3233
S'9.40682414698'
p3234
sS'economia'
p3235
S'4.32545931759'
p3236
sS'gallerie'
p3237
S'3.87401574803'
p3238
sS'salute'
p3239
S'1.74278215223'
p3240
sS'motori'
p3241
S'1.82677165354'
p3242
sS'esteri'
p3243
S'7.10761154856'
p3244
sS'cronaca'
p3245
S'16.9028871391'
p3246
sS'sport'
p3247
S'14.2782152231'
p3248
sS'rubriche'
p3249
S'11.0971128609'
p3250
sa(dp3251
a(dp3252
a(dp3253
a(dp3254
a(dp3255
asS'7'
p3256
(lp3257
(dp3258
a(dp3259
a(dp3260
a(dp3261
a(dp3262
a(dp3263
a(dp3264
a(dp3265
a(dp3266
a(dp3267
a(dp3268
a(dp3269
a(dp3270
a(dp3271
a(dp3272
a(dp3273
a(dp3274
a(dp3275
a(dp3276
a(dp3277
a(dp3278
a(dp3279
a(dp3280
a(dp3281
a(dp3282
a(dp3283
a(dp3284
a(dp3285
a(dp3286
a(dp3287
a(dp3288
asS'6'
p3289
(lp3290
(dp3291
S'tecnologia'
p3292
S'2.78571428571'
p3293
sS'scienza'
p3294
S'1.68253968254'
p3295
sS'regione'
p3296
S'6.01587301587'
p3297
sS'persone'
p3298
S'4.18253968254'
p3299
sS'media'
p3300
S'1.88888888889'
p3301
sS'politica'
p3302
S'15.3015873016'
p3303
sS'spettacolo'
p3304
S'4.81746031746'
p3305
sS'economia'
p3306
S'4.12698412698'
p3307
sS'gallerie'
p3308
S'2.5'
p3309
sS'motori'
p3310
S'1.77777777778'
p3311
sS'esteri'
p3312
S'2.9126984127'
p3313
sS'cronaca'
p3314
S'12.2857142857'
p3315
sS'sport'
p3316
S'13.0476190476'
p3317
sS'rubriche'
p3318
S'19.2380952381'
p3319
sa(dp3320
S'tecnologia'
p3321
S'12.9198966408'
p3322
sS'scienza'
p3323
S'1.03359173127'
p3324
sS'regione'
p3325
S'4.6511627907'
p3326
sS'persone'
p3327
S'2.58397932817'
p3328
sS'media'
p3329
S'1.80878552972'
p3330
sS'politica'
p3331
S'16.0206718346'
p3332
sS'spettacolo'
p3333
S'6.97674418605'
p3334
sS'economia'
p3335
S'2.32558139535'
p3336
sS'gallerie'
p3337
S'3.61757105943'
p3338
sS'motori'
p3339
S'2.32558139535'
p3340
sS'esteri'
p3341
S'2.84237726098'
p3342
sS'cronaca'
p3343
S'8.52713178295'
p3344
sS'sport'
p3345
S'12.1447028424'
p3346
sS'rubriche'
p3347
S'17.5710594315'
p3348
sa(dp3349
a(dp3350
a(dp3351
a(dp3352
a(dp3353
a(dp3354
a(dp3355
a(dp3356
a(dp3357
a(dp3358
a(dp3359
S'scienza'
p3360
S'5.36645962733'
p3361
sS'regione'
p3362
S'8.84472049689'
p3363
sS'persone'
p3364
S'5.39130434783'
p3365
sS'media'
p3366
S'1.6149068323'
p3367
sS'politica'
p3368
S'2.03726708075'
p3369
sS'spettacolo'
p3370
S'8.09937888199'
p3371
sS'economia'
p3372
S'7.37888198758'
p3373
sS'gallerie'
p3374
S'6.18633540373'
p3375
sS'salute'
p3376
S'1.29192546584'
p3377
sS'motori'
p3378
S'1.31677018634'
p3379
sS'esteri'
p3380
S'3.82608695652'
p3381
sS'cronaca'
p3382
S'14.3850931677'
p3383
sS'sport'
p3384
S'19.1552795031'
p3385
sS'rubriche'
p3386
S'7.80124223602'
p3387
sa(dp3388
a(dp3389
S'tecnologia'
p3390
S'1.4366775323'
p3391
sS'scienza'
p3392
S'2.36629240613'
p3393
sS'regione'
p3394
S'12.3264517687'
p3395
sS'persone'
p3396
S'5.30001207292'
p3397
sS'media'
p3398
S'1.54533381625'
p3399
sS'politica'
p3400
S'4.90160569842'
p3401
sS'spettacolo'
p3402
S'6.02438729929'
p3403
sS'economia'
p3404
S'8.95810696608'
p3405
sS'gallerie'
p3406
S'6.10889774236'
p3407
sS'motori'
p3408
S'1.87130266812'
p3409
sS'esteri'
p3410
S'4.41868888084'
p3411
sS'cronaca'
p3412
S'12.7127852227'
p3413
sS'sport'
p3414
S'13.1232645177'
p3415
sS'rubriche'
p3416
S'11.0950138839'
p3417
sa(dp3418
S'tecnologia'
p3419
S'1.73010380623'
p3420
sS'scienza'
p3421
S'5.19031141869'
p3422
sS'regione'
p3423
S'15.9169550173'
p3424
sS'persone'
p3425
S'5.88235294118'
p3426
sS'politica'
p3427
S'2.07612456747'
p3428
sS'spettacolo'
p3429
S'6.57439446367'
p3430
sS'economia'
p3431
S'14.1868512111'
p3432
sS'gallerie'
p3433
S'3.46020761246'
p3434
sS'salute'
p3435
S'2.07612456747'
p3436
sS'motori'
p3437
S'1.03806228374'
p3438
sS'esteri'
p3439
S'5.88235294118'
p3440
sS'cronaca'
p3441
S'12.8027681661'
p3442
sS'sport'
p3443
S'10.3806228374'
p3444
sS'rubriche'
p3445
S'10.0346020761'
p3446
sa(dp3447
a(dp3448
a(dp3449
a(dp3450
a(dp3451
a(dp3452
a(dp3453
a(dp3454
a(dp3455
a(dp3456
a(dp3457
a(dp3458
S'tecnologia'
p3459
S'5.23751522533'
p3460
sS'scienza'
p3461
S'1.94884287454'
p3462
sS'regione'
p3463
S'11.8148599269'
p3464
sS'persone'
p3465
S'2.6796589525'
p3466
sS'spettacolo'
p3467
S'4.99390986602'
p3468
sS'economia'
p3469
S'10.8404384896'
p3470
sS'gallerie'
p3471
S'3.04506699147'
p3472
sS'motori'
p3473
S'7.06455542022'
p3474
sS'esteri'
p3475
S'9.5006090134'
p3476
sS'viaggi'
p3477
S'1.94884287454'
p3478
sS'cronaca'
p3479
S'9.37880633374'
p3480
sS'sport'
p3481
S'15.5907429963'
p3482
sS'rossi'
p3483
S'1.58343483557'
p3484
sS'rubriche'
p3485
S'7.30816077954'
p3486
sa(dp3487
a(dp3488
asS'9'
p3489
(lp3490
(dp3491
a(dp3492
a(dp3493
a(dp3494
a(dp3495
a(dp3496
a(dp3497
a(dp3498
a(dp3499
a(dp3500
a(dp3501
a(dp3502
a(dp3503
a(dp3504
a(dp3505
a(dp3506
a(dp3507
a(dp3508
a(dp3509
a(dp3510
a(dp3511
a(dp3512
a(dp3513
a(dp3514
a(dp3515
a(dp3516
a(dp3517
a(dp3518
a(dp3519
a(dp3520
asS'8'
p3521
(lp3522
(dp3523
a(dp3524
a(dp3525
a(dp3526
a(dp3527
a(dp3528
a(dp3529
a(dp3530
a(dp3531
a(dp3532
a(dp3533
a(dp3534
a(dp3535
a(dp3536
a(dp3537
a(dp3538
a(dp3539
a(dp3540
a(dp3541
a(dp3542
a(dp3543
a(dp3544
a(dp3545
a(dp3546
a(dp3547
a(dp3548
a(dp3549
a(dp3550
a(dp3551
a(dp3552
a(dp3553
as.