(dp0
I1
(dp1
S'tecnologia'
p2
F2.2374665975351973
sS'storia'
p3
F0.09572049615123839
sS'economia'
p4
F7.801220436325929
sS'scienza'
p5
F3.0829976468711364
sS'regione'
p6
F8.85414589398955
sS'persone'
p7
F6.042356319546923
sS'media'
p8
F2.3451521557053403
sS'politica'
p9
F4.191760060622981
sS'curiosita'
p10
F0.17149922227096878
sS'spettacolo'
p11
F8.419415307302677
sS'prodotto'
p12
F0.15554580624576236
sS'gallerie'
p13
F3.9404937582259802
sS'salute'
p14
F1.0688788736888286
sS'motori'
p15
F1.0688788736888286
sS'moda'
p16
F0.1515574522394608
sS'esteri'
p17
F8.447333785346787
sS'viaggi'
p18
F0.07179037211342879
sS'cronaca'
p19
F16.4519602759941
sS'sport'
p20
F12.028875683005625
sS'rubriche'
p21
F13.329079089059945
sS'social'
p22
F0.04387189406931759
ssI2
(dp23
S'tecnologia'
p24
F2.2023533173657848
sS'politica'
p25
F3.3590269429319
sS'economia'
p26
F8.240915254133064
sS'motori'
p27
F1.2021780637861537
sS'esteri'
p28
F5.738171152030943
sS'sport'
p29
F14.503002370535262
sS'rubriche'
p30
F13.348480981911987
sS'scuola'
p31
F0.08547455287277513
sS'regione'
p32
F7.249656410745196
sS'media'
p33
F1.1557512383048982
sS'spettacolo'
p34
F11.45051546074781
sS'gallerie'
p35
F4.85944355451155
sS'musica'
p36
F0.16941179364352194
sS'salute'
p37
F1.1520616892600302
sS'persone'
p38
F5.317255098495586
sS'maltempo'
p39
F0.24750724842656108
sS'viaggi'
p40
F0.1740237299496069
sS'aereo'
p41
F0.17248641784757857
sS'serata'
p42
F0.4055429325150734
sS'scienza'
p43
F3.170552479223227
sS'festa'
p44
F0.11406855797050205
sS'cronaca'
p45
F15.68212075279099
ssI3
(dp46
S'tecnologia'
p47
F3.2861836366808164
sS'politica'
p48
F3.3537826365063674
sS'scienza'
p49
F3.7295749258591617
sS'regione'
p50
F6.332499854625808
sS'persone'
p51
F6.352125370704193
sS'media'
p52
F0.49245507937430943
sS'sole'
p53
F0.18353491888120022
sS'notizia'
p54
F0.08976856428446822
sS'spettacolo'
p55
F9.71063266848869
sS'economia'
p56
F6.786067337326278
sS'gallerie'
p57
F4.348868988777112
sS'salute'
p58
F1.2484008838750944
sS'motori'
p59
F1.2287753677967088
sS'moda'
p60
F0.22605687038436936
sS'esteri'
p61
F6.867476885503286
sS'viaggi'
p62
F0.45356748270047104
sS'cronaca'
p63
F16.3157091353143
sS'sport'
p64
F14.897220445426528
sS'aereo'
p65
F0.24531895097982206
sS'rubriche'
p66
F13.111298482293424
sS'scuola'
p67
F0.7406815142175961
ssI4
(dp68
S'tecnologia'
p69
F2.841143045375937
sS'scienza'
p70
F3.681133163139257
sS'regione'
p71
F8.089708748524526
sS'persone'
p72
F6.763841994015757
sS'media'
p73
F0.3843092042054407
sS'politica'
p74
F4.263087100936067
sS'spettacolo'
p75
F9.272832084328419
sS'economia'
p76
F7.071289357380109
sS'gallerie'
p77
F4.202695654560927
sS'salute'
p78
F1.4741003047022976
sS'motori'
p79
F2.327815751187241
sS'esteri'
p80
F6.277965357270307
sS'cronaca'
p81
F17.510774383046474
sS'sport'
p82
F13.686897801202338
sS'rubriche'
p83
F12.141425787147602
sS'scuola'
p84
F0.010980262977298306
ssI5
(dp85
sI6
(dp86
S'tecnologia'
p87
F2.323773677535491
sS'scienza'
p88
F2.696068404042057
sS'regione'
p89
F9.393282330319519
sS'persone'
p90
F5.040297835781205
sS'media'
p91
F1.7919240682403959
sS'politica'
p92
F10.162418688377041
sS'spettacolo'
p93
F6.214458127071145
sS'economia'
p94
F6.946774127562083
sS'gallerie'
p95
F4.577997790778546
sS'salute'
p96
F0.23728674876242686
sS'motori'
p97
F2.053757722047212
sS'esteri'
p98
F4.062512784846377
sS'viaggi'
p99
F0.06545841345170396
sS'cronaca'
p100
F13.611258847113694
sS'sport'
p101
F15.165896166591663
sS'rossi'
p102
F0.053184960929509466
sS'rubriche'
p103
F15.603649306549933
ssI7
(dp104
sI8
(dp105
sI9
(dp106
sI10
(dp107
S'scienza'
p108
F2.8579559313765346
sS'regione'
p109
F8.97430685421579
sS'persone'
p110
F5.382551426945279
sS'politica'
p111
F2.2908366533864544
sS'spettacolo'
p112
F6.87657533132775
sS'economia'
p113
F6.41515570371575
sS'gallerie'
p114
F3.8133181559476377
sS'salute'
p115
F2.3355557362387187
sS'motori'
p116
F5.587852670948858
sS'esteri'
p117
F3.9373119765834623
sS'viaggi'
p118
F5.091877388405561
sS'cronaca'
p119
F12.555898853565331
sS'sport'
p120
F23.816976989999187
sS'rossi'
p121
F1.8538092527847791
sS'rubriche'
p122
F8.210017074558907
ssI11
(dp123
S'tecnologia'
p124
F1.2705781331759087
sS'storia'
p125
F1.0652999342573088
sS'scienza'
p126
F2.8779198475842915
sS'regione'
p127
F8.195027705848416
sS'persone'
p128
F5.158788724457622
sS'media'
p129
F1.026390994592999
sS'politica'
p130
F2.5277393906055035
sS'norme'
p131
F0.002683375149262743
sS'spettacolo'
p132
F7.999141319952235
sS'economia'
p133
F3.4521621295265184
sS'gallerie'
p134
F4.015670910871695
sS'motori'
p135
F2.3103860035152213
sS'esteri'
p136
F20.797499094360887
sS'viaggi'
p137
F1.8488454778420298
sS'cronaca'
p138
F12.499161445265855
sS'sport'
p139
F15.35024754135752
sS'rubriche'
p140
F9.57830759529336
sS'scuola'
p141
F0.024150376343364685
ssI12
(dp142
S'tecnologia'
p143
F3.05610065797068
sS'sport'
p144
F16.322290199699875
sS'scienza'
p145
F3.2783100542537227
sS'regione'
p146
F8.718111508715227
sS'persone'
p147
F5.840932702297126
sS'media'
p148
F1.3447997229597137
sS'politica'
p149
F3.7458155373427218
sS'curiosita'
p150
F0.008657508946092577
sS'spettacolo'
p151
F9.073069375505021
sS'economia'
p152
F8.758513217130325
sS'gallerie'
p153
F4.784716610873831
sS'motori'
p154
F1.751702643426065
sS'social'
p155
F0.01154334526145677
sS'esteri'
p156
F4.897264227173035
sS'viaggi'
p157
F0.9090384393397207
sS'cronaca'
p158
F18.06244949786448
sS'calendario'
p159
F0.03174419946900612
sS'rubriche'
p160
F9.399168879141175
sS'scuola'
p161
F0.005771672630728385
ss.