(dp0
S'11'
p1
(lp2
(dp3
S'scienza'
p4
S'3.95220588235'
p5
sS'persone'
p6
S'4.6875'
p7
sS'media'
p8
S'1.5625'
p9
sS'politica'
p10
S'5.51470588235'
p11
sS'spettacolo'
p12
S'7.07720588235'
p13
sS'economia'
p14
S'3.90625'
p15
sS'gallerie'
p16
S'3.35477941176'
p17
sS'salute'
p18
S'1.24080882353'
p19
sS'motori'
p20
S'1.79227941176'
p21
sS'esteri'
p22
S'5.69852941176'
p23
sS'viaggi'
p24
S'4.64154411765'
p25
sS'cronaca'
p26
S'12.5919117647'
p27
sS'sport'
p28
S'26.0569852941'
p29
sS'rubriche'
p30
S'10.6158088235'
p31
sa(dp32
S'scienza'
p33
S'2.16924398625'
p34
sS'persone'
p35
S'3.99484536082'
p36
sS'media'
p37
S'1.39604810997'
p38
sS'politica'
p39
S'2.79209621993'
p40
sS'spettacolo'
p41
S'6.72250859107'
p42
sS'economia'
p43
S'8.61254295533'
p44
sS'gallerie'
p45
S'4.08075601375'
p46
sS'motori'
p47
S'2.08333333333'
p48
sS'moda'
p49
S'1.65378006873'
p50
sS'esteri'
p51
S'6.35738831615'
p52
sS'viaggi'
p53
S'1.46048109966'
p54
sS'cronaca'
p55
S'14.926975945'
p56
sS'sport'
p57
S'25.6013745704'
p58
sS'rubriche'
p59
S'9.42869415808'
p60
sa(dp61
S'tecnologia'
p62
S'2.89073983341'
p63
sS'aereo'
p64
S'2.40078392945'
p65
sS'scienza'
p66
S'3.74816266536'
p67
sS'persone'
p68
S'2.44977951984'
p69
sS'politica'
p70
S'4.11562959334'
p71
sS'spettacolo'
p72
S'6.90837824596'
p73
sS'economia'
p74
S'8.62322390985'
p75
sS'gallerie'
p76
S'2.96423321901'
p77
sS'motori'
p78
S'4.26261636453'
p79
sS'moda'
p80
S'1.22488975992'
p81
sS'esteri'
p82
S'6.98187163155'
p83
sS'cronaca'
p84
S'14.5761881431'
p85
sS'sport'
p86
S'20.1861832435'
p87
sS'rubriche'
p88
S'9.18667319941'
p89
sa(dp90
S'canali'
p91
S'1.4331603657'
p92
sS'tecnologia'
p93
S'2.22386953299'
p94
sS'scienza'
p95
S'2.98986903879'
p96
sS'persone'
p97
S'3.95354583642'
p98
sS'politica'
p99
S'2.42154682481'
p100
sS'spettacolo'
p101
S'5.73264146281'
p102
sS'economia'
p103
S'6.57276995305'
p104
sS'gallerie'
p105
S'1.45787002718'
p106
sS'salute'
p107
S'2.22386953299'
p108
sS'motori'
p109
S'2.42154682481'
p110
sS'esteri'
p111
S'13.1702495676'
p112
sS'cronaca'
p113
S'15.3446997776'
p114
sS'sport'
p115
S'22.2139856684'
p116
sS'rubriche'
p117
S'8.89547813195'
p118
sa(dp119
S'tecnologia'
p120
S'1.98423484643'
p121
sS'regione'
p122
S'1.63087795597'
p123
sS'scienza'
p124
S'3.75101929872'
p125
sS'persone'
p126
S'4.37618918184'
p127
sS'media'
p128
S'1.33188366404'
p129
sS'politica'
p130
S'3.39766240826'
p131
sS'spettacolo'
p132
S'7.80103288937'
p133
sS'economia'
p134
S'6.333242729'
p135
sS'gallerie'
p136
S'2.22886653982'
p137
sS'motori'
p138
S'7.47485729818'
p139
sS'esteri'
p140
S'6.36042402827'
p141
sS'cronaca'
p142
S'14.8409893993'
p143
sS'sport'
p144
S'18.7550964936'
p145
sS'rubriche'
p146
S'11.0899701006'
p147
sa(dp148
S'tecnologia'
p149
S'2.86615829608'
p150
sS'scienza'
p151
S'5.04864580594'
p152
sS'persone'
p153
S'3.28687877991'
p154
sS'novembre'
p155
S'1.07809623981'
p156
sS'politica'
p157
S'2.99763344728'
p158
sS'spettacolo'
p159
S'8.30922955561'
p160
sS'economia'
p161
S'7.2311333158'
p162
sS'gallerie'
p163
S'2.78727320536'
p164
sS'salute'
p165
S'1.39363660268'
p166
sS'motori'
p167
S'3.65500920326'
p168
sS'esteri'
p169
S'9.15067052327'
p170
sS'cronaca'
p171
S'16.6184591112'
p172
sS'sport'
p173
S'14.4096765711'
p174
sS'rubriche'
p175
S'13.1475151196'
p176
sa(dp177
S'tecnologia'
p178
S'3.79506641366'
p179
sS'scienza'
p180
S'4.50664136622'
p181
sS'persone'
p182
S'4.03225806452'
p183
sS'politica'
p184
S'2.13472485769'
p185
sS'spettacolo'
p186
S'8.1119544592'
p187
sS'economia'
p188
S'4.03225806452'
p189
sS'gallerie'
p190
S'1.70777988615'
p191
sS'motori'
p192
S'6.59392789374'
p193
sS'moda'
p194
S'2.22960151803'
p195
sS'esteri'
p196
S'5.07590132827'
p197
sS'cronaca'
p198
S'14.6110056926'
p199
sS'sport'
p200
S'21.1574952562'
p201
sS'rossi'
p202
S'1.28083491461'
p203
sS'rubriche'
p204
S'11.954459203'
p205
sa(dp206
S'tecnologia'
p207
S'2.51706484642'
p208
sS'scienza'
p209
S'3.28498293515'
p210
sS'persone'
p211
S'2.17576791809'
p212
sS'media'
p213
S'1.8771331058'
p214
sS'politica'
p215
S'3.15699658703'
p216
sS'spettacolo'
p217
S'5.07679180887'
p218
sS'economia'
p219
S'3.19965870307'
p220
sS'gallerie'
p221
S'2.00511945392'
p222
sS'motori'
p223
S'13.523890785'
p224
sS'esteri'
p225
S'3.45563139932'
p226
sS'cronaca'
p227
S'17.704778157'
p228
sS'sport'
p229
S'24.3600682594'
p230
sS'rossi'
p231
S'2.98634812287'
p232
sS'rubriche'
p233
S'8.78839590444'
p234
sa(dp235
S'tecnologia'
p236
S'1.64609053498'
p237
sS'scienza'
p238
S'3.95518975766'
p239
sS'persone'
p240
S'2.97210791038'
p241
sS'politica'
p242
S'3.42935528121'
p243
sS'spettacolo'
p244
S'7.20164609053'
p245
sS'economia'
p246
S'5.89849108368'
p247
sS'gallerie'
p248
S'3.22359396433'
p249
sS'motori'
p250
S'6.60722450846'
p251
sS'esteri'
p252
S'4.45816186557'
p253
sS'viaggi'
p254
S'1.7146776406'
p255
sS'cronaca'
p256
S'17.7869227252'
p257
sS'sport'
p258
S'22.1764974851'
p259
sS'rossi'
p260
S'1.64609053498'
p261
sS'rubriche'
p262
S'9.57933241884'
p263
sa(dp264
S'tecnologia'
p265
S'2.01224846894'
p266
sS'scienza'
p267
S'4.61504811899'
p268
sS'persone'
p269
S'3.34645669291'
p270
sS'politica'
p271
S'2.07786526684'
p272
sS'spettacolo'
p273
S'5.59930008749'
p274
sS'economia'
p275
S'6.03674540682'
p276
sS'gallerie'
p277
S'2.47156605424'
p278
sS'motori'
p279
S'3.58705161855'
p280
sS'moda'
p281
S'1.77165354331'
p282
sS'esteri'
p283
S'3.56517935258'
p284
sS'viaggi'
p285
S'16.6885389326'
p286
sS'cronaca'
p287
S'17.8915135608'
p288
sS'sport'
p289
S'13.7139107612'
p290
sS'rubriche'
p291
S'6.53980752406'
p292
sa(dp293
S'tecnologia'
p294
S'2.07810002284'
p295
sS'scienza'
p296
S'5.32084950902'
p297
sS'persone'
p298
S'3.42543959808'
p299
sS'politica'
p300
S'2.10093628682'
p301
sS'spettacolo'
p302
S'5.80041105275'
p303
sS'economia'
p304
S'7.28476821192'
p305
sS'gallerie'
p306
S'1.5985384791'
p307
sS'motori'
p308
S'5.48070335693'
p309
sS'moda'
p310
S'2.48915277461'
p311
sS'esteri'
p312
S'4.8184517013'
p313
sS'viaggi'
p314
S'7.42178579584'
p315
sS'cronaca'
p316
S'19.8903859329'
p317
sS'sport'
p318
S'14.5238638959'
p319
sS'rubriche'
p320
S'7.17058689198'
p321
sa(dp322
S'tecnologia'
p323
S'2.34586466165'
p324
sS'scienza'
p325
S'6.28571428571'
p326
sS'persone'
p327
S'3.15789473684'
p328
sS'novembre'
p329
S'2.28571428571'
p330
sS'politica'
p331
S'2.25563909774'
p332
sS'spettacolo'
p333
S'6.61654135338'
p334
sS'economia'
p335
S'7.3984962406'
p336
sS'gallerie'
p337
S'3.78947368421'
p338
sS'salute'
p339
S'2.43609022556'
p340
sS'motori'
p341
S'3.15789473684'
p342
sS'esteri'
p343
S'6.13533834586'
p344
sS'cronaca'
p345
S'22.2255639098'
p346
sS'sport'
p347
S'12.5413533835'
p348
sS'rubriche'
p349
S'9.44360902256'
p350
sa(dp351
S'tecnologia'
p352
S'2.41408690713'
p353
sS'scienza'
p354
S'4.97017892644'
p355
sS'persone'
p356
S'3.89094007384'
p357
sS'politica'
p358
S'1.78926441352'
p359
sS'spettacolo'
p360
S'9.48594149389'
p361
sS'economia'
p362
S'6.04941777904'
p363
sS'gallerie'
p364
S'1.56205623402'
p365
sS'motori'
p366
S'2.81170122124'
p367
sS'moda'
p368
S'1.70406134621'
p369
sS'esteri'
p370
S'10.4799772792'
p371
sS'viaggi'
p372
S'2.27208179494'
p373
sS'cronaca'
p374
S'19.8807157058'
p375
sS'sport'
p376
S'15.0241408691'
p377
sS'rubriche'
p378
S'9.99715989776'
p379
sa(dp380
S'tecnologia'
p381
S'1.36071251856'
p382
sS'scienza'
p383
S'1.28649183572'
p384
sS'persone'
p385
S'2.72142503711'
p386
sS'politica'
p387
S'1.92973775359'
p388
sS'spettacolo'
p389
S'6.43245917862'
p390
sS'economia'
p391
S'3.09252845126'
p392
sS'gallerie'
p393
S'2.05343889164'
p394
sS'attentati'
p395
S'7.47154873825'
p396
sS'moda'
p397
S'2.15239980208'
p398
sS'esteri'
p399
S'39.9554675903'
p400
sS'viaggi'
p401
S'2.17714002969'
p402
sS'cronaca'
p403
S'12.9638792677'
p404
sS'sport'
p405
S'4.60168233548'
p406
sS'rubriche'
p407
S'6.20979713013'
p408
sa(dp409
S'tecnologia'
p410
S'2.16606498195'
p411
sS'storia'
p412
S'0.872442839952'
p413
sS'scienza'
p414
S'3.00842358604'
p415
sS'persone'
p416
S'2.61732851986'
p417
sS'media'
p418
S'1.11311672684'
p419
sS'politica'
p420
S'2.85800240674'
p421
sS'spettacolo'
p422
S'6.82912154031'
p423
sS'economia'
p424
S'2.04572803851'
p425
sS'gallerie'
p426
S'2.19614921781'
p427
sS'attentati'
p428
S'8.42358604091'
p429
sS'esteri'
p430
S'35.4392298436'
p431
sS'cronaca'
p432
S'11.432009627'
p433
sS'sport'
p434
S'6.10709987966'
p435
sS'rubriche'
p436
S'8.6642599278'
p437
sa(dp438
S'tecnologia'
p439
S'2.07889998363'
p440
sS'scienza'
p441
S'1.96431494516'
p442
sS'persone'
p443
S'2.93010312653'
p444
sS'politica'
p445
S'2.24259289573'
p446
sS'spettacolo'
p447
S'6.0730070388'
p448
sS'economia'
p449
S'5.35275822557'
p450
sS'gallerie'
p451
S'1.83336061549'
p452
sS'attentati'
p453
S'8.62661646751'
p454
sS'motori'
p455
S'0.949418890162'
p456
sS'esteri'
p457
S'29.6938942544'
p458
sS'viaggi'
p459
S'2.40628580782'
p460
sS'cronaca'
p461
S'15.845473891'
p462
sS'sport'
p463
S'5.20543460468'
p464
sS'rubriche'
p465
S'9.51055819283'
p466
sa(dp467
S'tecnologia'
p468
S'2.06692913386'
p469
sS'scienza'
p470
S'4.42913385827'
p471
sS'persone'
p472
S'3.34645669291'
p473
sS'politica'
p474
S'2.12598425197'
p475
sS'spettacolo'
p476
S'6.33858267717'
p477
sS'economia'
p478
S'4.82283464567'
p479
sS'gallerie'
p480
S'1.39763779528'
p481
sS'salute'
p482
S'4.31102362205'
p483
sS'motori'
p484
S'2.02755905512'
p485
sS'esteri'
p486
S'25.157480315'
p487
sS'cronaca'
p488
S'14.468503937'
p489
sS'sport'
p490
S'9.68503937008'
p491
sS'rubriche'
p492
S'8.4842519685'
p493
sS'attentati'
p494
S'4.0157480315'
p495
sa(dp496
S'tecnologia'
p497
S'1.17537313433'
p498
sS'scienza'
p499
S'2.53731343284'
p500
sS'persone'
p501
S'1.95895522388'
p502
sS'novembre'
p503
S'0.727611940299'
p504
sS'politica'
p505
S'1.4552238806'
p506
sS'spettacolo'
p507
S'5.13059701493'
p508
sS'economia'
p509
S'4.44029850746'
p510
sS'gallerie'
p511
S'1.60447761194'
p512
sS'attentati'
p513
S'5.27985074627'
p514
sS'motori'
p515
S'3.09701492537'
p516
sS'esteri'
p517
S'29.4776119403'
p518
sS'cronaca'
p519
S'16.1007462687'
p520
sS'sport'
p521
S'10.4104477612'
p522
sS'rubriche'
p523
S'10.0559701493'
p524
sa(dp525
S'tecnologia'
p526
S'1.77719982661'
p527
sS'scienza'
p528
S'3.83615084525'
p529
sS'persone'
p530
S'3.07758994365'
p531
sS'novembre'
p532
S'1.66883398353'
p533
sS'politica'
p534
S'2.16731686173'
p535
sS'spettacolo'
p536
S'5.00650195059'
p537
sS'economia'
p538
S'3.66276549632'
p539
sS'gallerie'
p540
S'2.94755093195'
p541
sS'attentati'
p542
S'3.61941915908'
p543
sS'motori'
p544
S'2.3840485479'
p545
sS'esteri'
p546
S'23.9488513221'
p547
sS'cronaca'
p548
S'19.5058517555'
p549
sS'sport'
p550
S'10.1647160815'
p551
sS'rubriche'
p552
S'6.80537494582'
p553
sa(dp554
S'tecnologia'
p555
S'4.48479544957'
p556
sS'scienza'
p557
S'4.11288558302'
p558
sS'persone'
p559
S'5.03172172391'
p560
sS'politica'
p561
S'2.16582804638'
p562
sS'spettacolo'
p563
S'6.82563990374'
p564
sS'economia'
p565
S'6.01618901772'
p566
sS'gallerie'
p567
S'1.72828702691'
p568
sS'attentati'
p569
S'1.70640997594'
p570
sS'motori'
p571
S'1.66265587399'
p572
sS'esteri'
p573
S'23.7147232553'
p574
sS'cronaca'
p575
S'16.1890177204'
p576
sS'sport'
p577
S'7.19754977029'
p578
sS'rubriche'
p579
S'8.9258367972'
p580
sS'salute'
p581
S'1.1594837016'
p582
sa(dp583
S'tecnologia'
p584
S'5.18742900417'
p585
sS'scienza'
p586
S'3.97576675502'
p587
sS'persone'
p588
S'4.77092010602'
p589
sS'novembre'
p590
S'1.02234002272'
p591
sS'politica'
p592
S'2.30973116244'
p593
sS'spettacolo'
p594
S'10.1476713366'
p595
sS'economia'
p596
S'2.91556228701'
p597
sS'gallerie'
p598
S'2.6883756153'
p599
sS'attentati'
p600
S'2.76410450587'
p601
sS'motori'
p602
S'1.47671336615'
p603
sS'esteri'
p604
S'22.5293449451'
p605
sS'cronaca'
p606
S'12.5709958349'
p607
sS'sport'
p608
S'15.9787959106'
p609
sS'rubriche'
p610
S'6.55054903446'
p611
sa(dp612
S'tecnologia'
p613
S'3.10859911183'
p614
sS'scienza'
p615
S'2.38191360517'
p616
sS'persone'
p617
S'3.14897052887'
p618
sS'media'
p619
S'2.62414210739'
p620
sS'politica'
p621
S'3.47194186516'
p622
sS'spettacolo'
p623
S'7.67056923698'
p624
sS'economia'
p625
S'4.44085587404'
p626
sS'gallerie'
p627
S'1.49374243036'
p628
sS'attentati'
p629
S'1.41299959629'
p630
sS'motori'
p631
S'1.25151392814'
p632
sS'esteri'
p633
S'17.6826806621'
p634
sS'cronaca'
p635
S'17.0771094065'
p636
sS'sport'
p637
S'20.5894226887'
p638
sS'rubriche'
p639
S'8.55874041179'
p640
sa(dp641
S'tecnologia'
p642
S'2.27785295444'
p643
sS'scienza'
p644
S'2.86423094272'
p645
sS'persone'
p646
S'2.48082995038'
p647
sS'politica'
p648
S'1.26296797474'
p649
sS'spettacolo'
p650
S'9.60757780785'
p651
sS'economia'
p652
S'5.3901668922'
p653
sS'gallerie'
p654
S'4.3301759134'
p655
sS'salute'
p656
S'1.64636896707'
p657
sS'esteri'
p658
S'14.8173207037'
p659
sS'viaggi'
p660
S'3.1348669373'
p661
sS'cronaca'
p662
S'14.7045557059'
p663
sS'sport'
p664
S'16.4862426703'
p665
sS'rubriche'
p666
S'11.6599007668'
p667
sS'attentati'
p668
S'1.26296797474'
p669
sa(dp670
S'tecnologia'
p671
S'2.69048643995'
p672
sS'aereo'
p673
S'3.61601377529'
p674
sS'scienza'
p675
S'5.57468790357'
p676
sS'persone'
p677
S'2.13086526044'
p678
sS'media'
p679
S'1.39905294877'
p680
sS'politica'
p681
S'1.59276797245'
p682
sS'spettacolo'
p683
S'8.17907877744'
p684
sS'economia'
p685
S'6.82307361171'
p686
sS'gallerie'
p687
S'2.3030563926'
p688
sS'esteri'
p689
S'21.8897976754'
p690
sS'viaggi'
p691
S'2.47524752475'
p692
sS'cronaca'
p693
S'12.053379251'
p694
sS'sport'
p695
S'10.5897546276'
p696
sS'rubriche'
p697
S'9.47051226862'
p698
sa(dp699
S'tecnologia'
p700
S'1.47832623403'
p701
sS'regione'
p702
S'2.02956652468'
p703
sS'scienza'
p704
S'4.05913304936'
p705
sS'persone'
p706
S'3.5580055124'
p707
sS'media'
p708
S'1.37810072663'
p709
sS'politica'
p710
S'2.53069406164'
p711
sS'prodotto'
p712
S'1.07742420446'
p713
sS'spettacolo'
p714
S'5.98847406665'
p715
sS'economia'
p716
S'8.89501378101'
p717
sS'gallerie'
p718
S'2.53069406164'
p719
sS'esteri'
p720
S'10.9997494362'
p721
sS'cronaca'
p722
S'15.7103482836'
p723
sS'sport'
p724
S'20.5462290153'
p725
sS'rubriche'
p726
S'9.67176146329'
p727
sa(dp728
S'tecnologia'
p729
S'3.39065148946'
p730
sS'scienza'
p731
S'4.94066359893'
p732
sS'persone'
p733
S'4.1656575442'
p734
sS'novembre'
p735
S'1.96173407605'
p736
sS'politica'
p737
S'2.3250181642'
p738
sS'spettacolo'
p739
S'4.96488253814'
p740
sS'economia'
p741
S'7.60474691209'
p742
sS'gallerie'
p743
S'2.93049164447'
p744
sS'motori'
p745
S'2.63986437394'
p746
sS'esteri'
p747
S'15.3305885202'
p748
sS'viaggi'
p749
S'1.42891741342'
p750
sS'cronaca'
p751
S'14.6524582223'
p752
sS'sport'
p753
S'17.4618551707'
p754
sS'rubriche'
p755
S'8.25865827077'
p756
sa(dp757
S'tecnologia'
p758
S'3.3084947839'
p759
sS'scuola'
p760
S'1.31147540984'
p761
sS'scienza'
p762
S'3.45752608048'
p763
sS'persone'
p764
S'3.27868852459'
p765
sS'politica'
p766
S'2.6825633383'
p767
sS'spettacolo'
p768
S'8.61400894188'
p769
sS'economia'
p770
S'6.08047690015'
p771
sS'gallerie'
p772
S'3.36810730253'
p773
sS'salute'
p774
S'2.44411326379'
p775
sS'motori'
p776
S'4.02384500745'
p777
sS'esteri'
p778
S'9.71684053651'
p779
sS'cronaca'
p780
S'18.5991058122'
p781
sS'sport'
p782
S'15.4396423249'
p783
sS'rubriche'
p784
S'9.18032786885'
p785
sa(dp786
S'tecnologia'
p787
S'1.95588847274'
p788
sS'scuola'
p789
S'1.49812734082'
p790
sS'scienza'
p791
S'2.49687890137'
p792
sS'persone'
p793
S'4.53599667083'
p794
sS'politica'
p795
S'2.78818143987'
p796
sS'spettacolo'
p797
S'9.82105701207'
p798
sS'economia'
p799
S'5.95089471494'
p800
sS'gallerie'
p801
S'1.37328339576'
p802
sS'salute'
p803
S'2.62172284644'
p804
sS'motori'
p805
S'2.33042030795'
p806
sS'esteri'
p807
S'11.2359550562'
p808
sS'cronaca'
p809
S'18.9762796504'
p810
sS'sport'
p811
S'19.6421140241'
p812
sS'rubriche'
p813
S'8.11485642946'
p814
sa(dp815
S'tecnologia'
p816
S'2.73119310014'
p817
sS'politica'
p818
S'2.10828941064'
p819
sS'scuola'
p820
S'1.77287973167'
p821
sS'scienza'
p822
S'3.4499281265'
p823
sS'economia'
p824
S'3.21034978438'
p825
sS'persone'
p826
S'3.21034978438'
p827
sS'spettacolo'
p828
S'9.72688068999'
p829
sS'moda'
p830
S'3.59367513177'
p831
sS'gallerie'
p832
S'2.77910876857'
p833
sS'salute'
p834
S'2.20412074748'
p835
sS'esteri'
p836
S'12.3143267849'
p837
sS'cronaca'
p838
S'16.5788212746'
p839
sS'sport'
p840
S'19.0704360326'
p841
sS'rubriche'
p842
S'10.5893627216'
p843
sa(dp844
S'tecnologia'
p845
S'2.08999262356'
p846
sS'scienza'
p847
S'4.1553970986'
p848
sS'persone'
p849
S'3.24563560364'
p850
sS'politica'
p851
S'2.43422670273'
p852
sS'spettacolo'
p853
S'11.4580772068'
p854
sS'economia'
p855
S'6.26997787067'
p856
sS'gallerie'
p857
S'2.3850504057'
p858
sS'salute'
p859
S'1.15564298008'
p860
sS'motori'
p861
S'2.50799114827'
p862
sS'moda'
p863
S'1.13105483157'
p864
sS'esteri'
p865
S'8.16326530612'
p866
sS'cronaca'
p867
S'18.6869928694'
p868
sS'sport'
p869
S'18.2444061962'
p870
sS'rubriche'
p871
S'10.7696090484'
p872
sasS'10'
p873
(lp874
(dp875
S'tecnologia'
p876
S'2.77777777778'
p877
sS'scienza'
p878
S'4.47530864198'
p879
sS'persone'
p880
S'2.36625514403'
p881
sS'politica'
p882
S'2.93209876543'
p883
sS'spettacolo'
p884
S'7.30452674897'
p885
sS'economia'
p886
S'9.41358024691'
p887
sS'gallerie'
p888
S'3.49794238683'
p889
sS'salute'
p890
S'2.10905349794'
p891
sS'motori'
p892
S'2.2633744856'
p893
sS'esteri'
p894
S'4.8353909465'
p895
sS'viaggi'
p896
S'6.17283950617'
p897
sS'cronaca'
p898
S'11.1625514403'
p899
sS'sport'
p900
S'24.6399176955'
p901
sS'rubriche'
p902
S'9.41358024691'
p903
sa(dp904
S'tecnologia'
p905
S'4.90367775832'
p906
sS'regione'
p907
S'1.22591943958'
p908
sS'scienza'
p909
S'4.49503794513'
p910
sS'persone'
p911
S'3.96964389959'
p912
sS'politica'
p913
S'2.97723292469'
p914
sS'spettacolo'
p915
S'8.99007589025'
p916
sS'economia'
p917
S'7.47227086982'
p918
sS'gallerie'
p919
S'1.9848219498'
p920
sS'motori'
p921
S'1.34267367192'
p922
sS'esteri'
p923
S'6.59661412726'
p924
sS'viaggi'
p925
S'7.00525394046'
p926
sS'cronaca'
p927
S'14.711033275'
p928
sS'sport'
p929
S'16.8709865733'
p930
sS'rubriche'
p931
S'10.5078809107'
p932
sa(dp933
S'tecnologia'
p934
S'2.02991452991'
p935
sS'scienza'
p936
S'4.91452991453'
p937
sS'persone'
p938
S'2.45726495726'
p939
sS'ottobre'
p940
S'0.854700854701'
p941
sS'media'
p942
S'0.641025641026'
p943
sS'politica'
p944
S'3.73931623932'
p945
sS'spettacolo'
p946
S'11.1111111111'
p947
sS'economia'
p948
S'4.70085470085'
p949
sS'gallerie'
p950
S'2.99145299145'
p951
sS'motori'
p952
S'1.06837606838'
p953
sS'esteri'
p954
S'11.3247863248'
p955
sS'cronaca'
p956
S'17.5213675214'
p957
sS'sport'
p958
S'21.1538461538'
p959
sS'rubriche'
p960
S'10.3632478632'
p961
sa(dp962
S'tecnologia'
p963
S'1.57154673284'
p964
sS'scienza'
p965
S'2.31596360629'
p966
sS'persone'
p967
S'4.30107526882'
p968
sS'ottobre'
p969
S'1.24069478908'
p970
sS'politica'
p971
S'2.48138957816'
p972
sS'spettacolo'
p973
S'8.02315963606'
p974
sS'economia'
p975
S'4.54921422663'
p976
sS'gallerie'
p977
S'6.28618693135'
p978
sS'motori'
p979
S'1.4888337469'
p980
sS'social'
p981
S'2.15053763441'
p982
sS'esteri'
p983
S'11.9933829611'
p984
sS'cronaca'
p985
S'21.58808933'
p986
sS'sport'
p987
S'16.2944582299'
p988
sS'rubriche'
p989
S'10.4218362283'
p990
sa(dp991
S'tecnologia'
p992
S'1.8172100481'
p993
sS'scienza'
p994
S'5.13094601817'
p995
sS'persone'
p996
S'2.51202565473'
p997
sS'media'
p998
S'1.44307856761'
p999
sS'politica'
p1000
S'2.40513094602'
p1001
sS'norme'
p1002
S'1.17584179583'
p1003
sS'spettacolo'
p1004
S'8.9791555318'
p1005
sS'economia'
p1006
S'9.56707642972'
p1007
sS'gallerie'
p1008
S'3.79476215927'
p1009
sS'motori'
p1010
S'1.97755211117'
p1011
sS'esteri'
p1012
S'7.32228754677'
p1013
sS'cronaca'
p1014
S'18.172100481'
p1015
sS'sport'
p1016
S'21.5927311598'
p1017
sS'rubriche'
p1018
S'7.80331373597'
p1019
sa(dp1020
S'tecnologia'
p1021
S'2.52148997135'
p1022
sS'scienza'
p1023
S'7.16332378223'
p1024
sS'persone'
p1025
S'3.55300859599'
p1026
sS'politica'
p1027
S'2.97994269341'
p1028
sS'spettacolo'
p1029
S'5.73065902579'
p1030
sS'economia'
p1031
S'8.65329512894'
p1032
sS'gallerie'
p1033
S'2.1776504298'
p1034
sS'salute'
p1035
S'1.4899713467'
p1036
sS'motori'
p1037
S'1.20343839542'
p1038
sS'esteri'
p1039
S'7.16332378223'
p1040
sS'viaggi'
p1041
S'4.06876790831'
p1042
sS'cronaca'
p1043
S'18.3381088825'
p1044
sS'sport'
p1045
S'15.7593123209'
p1046
sS'rubriche'
p1047
S'12.5501432665'
p1048
sa(dp1049
S'tecnologia'
p1050
S'2.94968189705'
p1051
sS'scienza'
p1052
S'3.75939849624'
p1053
sS'persone'
p1054
S'3.35454019665'
p1055
sS'politica'
p1056
S'3.23886639676'
p1057
sS'spettacolo'
p1058
S'6.998264893'
p1059
sS'economia'
p1060
S'5.84152689416'
p1061
sS'gallerie'
p1062
S'4.04858299595'
p1063
sS'salute'
p1064
S'1.27241179873'
p1065
sS'motori'
p1066
S'2.89184499711'
p1067
sS'esteri'
p1068
S'7.17177559283'
p1069
sS'viaggi'
p1070
S'3.00751879699'
p1071
sS'cronaca'
p1072
S'23.7709658762'
p1073
sS'sport'
p1074
S'14.6905725853'
p1075
sS'rubriche'
p1076
S'9.71659919028'
p1077
sa(dp1078
S'tecnologia'
p1079
S'1.70610897083'
p1080
sS'scienza'
p1081
S'4.40286186021'
p1082
sS'persone'
p1083
S'4.40286186021'
p1084
sS'ottobre'
p1085
S'1.59603742433'
p1086
sS'politica'
p1087
S'7.81507980187'
p1088
sS'spettacolo'
p1089
S'7.70500825537'
p1090
sS'economia'
p1091
S'9.57622454595'
p1092
sS'gallerie'
p1093
S'1.65107319758'
p1094
sS'salute'
p1095
S'4.73307649972'
p1096
sS'motori'
p1097
S'3.68739680793'
p1098
sS'esteri'
p1099
S'6.05393505779'
p1100
sS'cronaca'
p1101
S'18.3269124931'
p1102
sS'sport'
p1103
S'12.1078701156'
p1104
sS'rubriche'
p1105
S'9.57622454595'
p1106
sa(dp1107
S'tecnologia'
p1108
S'3.35329341317'
p1109
sS'regione'
p1110
S'1.37724550898'
p1111
sS'scienza'
p1112
S'3.53293413174'
p1113
sS'persone'
p1114
S'3.95209580838'
p1115
sS'politica'
p1116
S'5.26946107784'
p1117
sS'spettacolo'
p1118
S'7.24550898204'
p1119
sS'economia'
p1120
S'7.4251497006'
p1121
sS'gallerie'
p1122
S'2.03592814371'
p1123
sS'motori'
p1124
S'3.53293413174'
p1125
sS'moda'
p1126
S'2.15568862275'
p1127
sS'esteri'
p1128
S'8.38323353293'
p1129
sS'cronaca'
p1130
S'18.2035928144'
p1131
sS'sport'
p1132
S'11.5568862275'
p1133
sS'rubriche'
p1134
S'13.2335329341'
p1135
sa(dp1136
S'tecnologia'
p1137
S'3.53591160221'
p1138
sS'scuola'
p1139
S'2.09944751381'
p1140
sS'scienza'
p1141
S'4.75138121547'
p1142
sS'persone'
p1143
S'5.74585635359'
p1144
sS'politica'
p1145
S'4.19889502762'
p1146
sS'spettacolo'
p1147
S'6.51933701657'
p1148
sS'economia'
p1149
S'12.3756906077'
p1150
sS'gallerie'
p1151
S'2.8729281768'
p1152
sS'motori'
p1153
S'2.98342541436'
p1154
sS'moda'
p1155
S'1.54696132597'
p1156
sS'esteri'
p1157
S'9.06077348066'
p1158
sS'cronaca'
p1159
S'12.817679558'
p1160
sS'sport'
p1161
S'16.7955801105'
p1162
sS'rubriche'
p1163
S'10.3867403315'
p1164
sa(dp1165
S'tecnologia'
p1166
S'2.51798561151'
p1167
sS'scienza'
p1168
S'2.27817745803'
p1169
sS'persone'
p1170
S'4.31654676259'
p1171
sS'media'
p1172
S'1.67865707434'
p1173
sS'politica'
p1174
S'4.07673860911'
p1175
sS'spettacolo'
p1176
S'8.87290167866'
p1177
sS'economia'
p1178
S'5.75539568345'
p1179
sS'gallerie'
p1180
S'5.63549160671'
p1181
sS'salute'
p1182
S'1.79856115108'
p1183
sS'motori'
p1184
S'4.19664268585'
p1185
sS'esteri'
p1186
S'7.79376498801'
p1187
sS'cronaca'
p1188
S'16.6666666667'
p1189
sS'sport'
p1190
S'20.8633093525'
p1191
sS'rubriche'
p1192
S'8.15347721823'
p1193
sa(dp1194
S'tecnologia'
p1195
S'1.75438596491'
p1196
sS'regione'
p1197
S'0.852130325815'
p1198
sS'scienza'
p1199
S'3.65914786967'
p1200
sS'persone'
p1201
S'3.20802005013'
p1202
sS'politica'
p1203
S'2.10526315789'
p1204
sS'spettacolo'
p1205
S'8.27067669173'
p1206
sS'economia'
p1207
S'8.27067669173'
p1208
sS'gallerie'
p1209
S'2.15538847118'
p1210
sS'salute'
p1211
S'1.55388471178'
p1212
sS'motori'
p1213
S'6.2656641604'
p1214
sS'esteri'
p1215
S'8.97243107769'
p1216
sS'cronaca'
p1217
S'16.992481203'
p1218
sS'sport'
p1219
S'18.5463659148'
p1220
sS'rubriche'
p1221
S'10.0751879699'
p1222
sa(dp1223
S'tecnologia'
p1224
S'2.93020777837'
p1225
sS'scienza'
p1226
S'4.04901438466'
p1227
sS'persone'
p1228
S'3.88918486947'
p1229
sS'politica'
p1230
S'4.15556739478'
p1231
sS'norme'
p1232
S'1.06553010123'
p1233
sS'spettacolo'
p1234
S'8.2578582845'
p1235
sS'economia'
p1236
S'7.08577517315'
p1237
sS'gallerie'
p1238
S'2.87693127331'
p1239
sS'salute'
p1240
S'1.11880660629'
p1241
sS'motori'
p1242
S'3.09003729355'
p1243
sS'esteri'
p1244
S'10.9216835376'
p1245
sS'cronaca'
p1246
S'17.6877996803'
p1247
sS'sport'
p1248
S'17.421417155'
p1249
sS'rubriche'
p1250
S'8.95045285029'
p1251
sa(dp1252
S'tecnologia'
p1253
S'3.05084745763'
p1254
sS'scienza'
p1255
S'6.72316384181'
p1256
sS'persone'
p1257
S'2.42937853107'
p1258
sS'politica'
p1259
S'6.04519774011'
p1260
sS'spettacolo'
p1261
S'6.61016949153'
p1262
sS'economia'
p1263
S'7.90960451977'
p1264
sS'gallerie'
p1265
S'2.76836158192'
p1266
sS'motori'
p1267
S'1.29943502825'
p1268
sS'riforma'
p1269
S'0.677966101695'
p1270
sS'esteri'
p1271
S'6.61016949153'
p1272
sS'viaggi'
p1273
S'1.80790960452'
p1274
sS'cronaca'
p1275
S'18.9265536723'
p1276
sS'sport'
p1277
S'19.9435028249'
p1278
sS'rubriche'
p1279
S'9.88700564972'
p1280
sa(dp1281
S'legge'
p1282
S'2.69082921472'
p1283
sS'scienza'
p1284
S'4.39319055464'
p1285
sS'persone'
p1286
S'3.62438220758'
p1287
sS'politica'
p1288
S'2.19659527732'
p1289
sS'spettacolo'
p1290
S'6.75453047776'
p1291
sS'economia'
p1292
S'9.50027457441'
p1293
sS'gallerie'
p1294
S'2.47116968699'
p1295
sS'motori'
p1296
S'2.19659527732'
p1297
sS'social'
p1298
S'3.02031850632'
p1299
sS'esteri'
p1300
S'4.8325096101'
p1301
sS'cronaca'
p1302
S'21.1422295442'
p1303
sS'sport'
p1304
S'14.6622734761'
p1305
sS'tecnologia'
p1306
S'2.63591433278'
p1307
sS'rubriche'
p1308
S'9.93959362987'
p1309
sa(dp1310
S'legge'
p1311
S'1.67564332735'
p1312
sS'scienza'
p1313
S'4.9670855775'
p1314
sS'persone'
p1315
S'3.59066427289'
p1316
sS'politica'
p1317
S'3.94973070018'
p1318
sS'spettacolo'
p1319
S'6.82226211849'
p1320
sS'economia'
p1321
S'7.83961699581'
p1322
sS'gallerie'
p1323
S'2.81268701376'
p1324
sS'motori'
p1325
S'1.37642130461'
p1326
sS'social'
p1327
S'2.09455415919'
p1328
sS'esteri'
p1329
S'5.92459605027'
p1330
sS'cronaca'
p1331
S'21.4242968282'
p1332
sS'sport'
p1333
S'16.9359664871'
p1334
sS'tecnologia'
p1335
S'1.6157989228'
p1336
sS'rubriche'
p1337
S'10.5326152005'
p1338
sa(dp1339
S'tecnologia'
p1340
S'2.6026026026'
p1341
sS'persone'
p1342
S'2.4024024024'
p1343
sS'scienza'
p1344
S'3.003003003'
p1345
sS'prodotto'
p1346
S'2.5025025025'
p1347
sS'politica'
p1348
S'4.8048048048'
p1349
sS'spettacolo'
p1350
S'7.90790790791'
p1351
sS'economia'
p1352
S'5.10510510511'
p1353
sS'gallerie'
p1354
S'2.8028028028'
p1355
sS'motori'
p1356
S'3.8038038038'
p1357
sS'social'
p1358
S'1.9019019019'
p1359
sS'esteri'
p1360
S'3.8038038038'
p1361
sS'cronaca'
p1362
S'18.8188188188'
p1363
sS'sport'
p1364
S'17.2172172172'
p1365
sS'rubriche'
p1366
S'11.2112112112'
p1367
sa(dp1368
S'tecnologia'
p1369
S'1.80780209324'
p1370
sS'scienza'
p1371
S'1.80780209324'
p1372
sS'persone'
p1373
S'5.51855375833'
p1374
sS'media'
p1375
S'3.04471931494'
p1376
sS'politica'
p1377
S'2.66412940057'
p1378
sS'prodotto'
p1379
S'1.1417697431'
p1380
sS'spettacolo'
p1381
S'5.51855375833'
p1382
sS'economia'
p1383
S'6.27973358706'
p1384
sS'salute'
p1385
S'1.04662226451'
p1386
sS'motori'
p1387
S'6.18458610847'
p1388
sS'esteri'
p1389
S'3.71075166508'
p1390
sS'cronaca'
p1391
S'17.2216936251'
p1392
sS'sport'
p1393
S'27.6879162702'
p1394
sS'rubriche'
p1395
S'9.51474785918'
p1396
sa(dp1397
S'tecnologia'
p1398
S'3.12825860271'
p1399
sS'politica'
p1400
S'2.9197080292'
p1401
sS'scienza'
p1402
S'3.6496350365'
p1403
sS'moda'
p1404
S'4.64025026069'
p1405
sS'media'
p1406
S'0.886339937435'
p1407
sS'persone'
p1408
S'3.6496350365'
p1409
sS'spettacolo'
p1410
S'7.82064650678'
p1411
sS'economia'
p1412
S'8.86339937435'
p1413
sS'gallerie'
p1414
S'1.30344108446'
p1415
sS'motori'
p1416
S'1.82481751825'
p1417
sS'esteri'
p1418
S'5.00521376434'
p1419
sS'cronaca'
p1420
S'19.4473409802'
p1421
sS'sport'
p1422
S'19.968717414'
p1423
sS'rubriche'
p1424
S'8.75912408759'
p1425
sa(dp1426
S'tecnologia'
p1427
S'1.8337408313'
p1428
sS'scienza'
p1429
S'4.40097799511'
p1430
sS'persone'
p1431
S'3.42298288509'
p1432
sS'ottobre'
p1433
S'1.0391198044'
p1434
sS'politica'
p1435
S'3.85085574572'
p1436
sS'spettacolo'
p1437
S'10.391198044'
p1438
sS'economia'
p1439
S'12.4694376528'
p1440
sS'gallerie'
p1441
S'1.28361858191'
p1442
sS'salute'
p1443
S'1.28361858191'
p1444
sS'motori'
p1445
S'2.0782396088'
p1446
sS'esteri'
p1447
S'5.25672371638'
p1448
sS'cronaca'
p1449
S'21.3325183374'
p1450
sS'sport'
p1451
S'16.1369193154'
p1452
sS'rubriche'
p1453
S'7.70171149144'
p1454
sa(dp1455
S'tecnologia'
p1456
S'2.18940936864'
p1457
sS'scienza'
p1458
S'4.53156822811'
p1459
sS'persone'
p1460
S'3.20773930754'
p1461
sS'politica'
p1462
S'2.49490835031'
p1463
sS'spettacolo'
p1464
S'7.6883910387'
p1465
sS'economia'
p1466
S'8.55397148676'
p1467
sS'gallerie'
p1468
S'2.34215885947'
p1469
sS'motori'
p1470
S'1.73116089613'
p1471
sS'moda'
p1472
S'1.88391038697'
p1473
sS'esteri'
p1474
S'7.38289205703'
p1475
sS'viaggi'
p1476
S'1.5784114053'
p1477
sS'cronaca'
p1478
S'22.5560081466'
p1479
sS'sport'
p1480
S'16.0386965377'
p1481
sS'rubriche'
p1482
S'11.6089613035'
p1483
sa(dp1484
S'tecnologia'
p1485
S'4.2750929368'
p1486
sS'scienza'
p1487
S'3.25278810409'
p1488
sS'persone'
p1489
S'2.60223048327'
p1490
sS'ottobre'
p1491
S'1.02230483271'
p1492
sS'politica'
p1493
S'3.67100371747'
p1494
sS'spettacolo'
p1495
S'5.85501858736'
p1496
sS'economia'
p1497
S'8.41078066914'
p1498
sS'gallerie'
p1499
S'2.5092936803'
p1500
sS'salute'
p1501
S'1.11524163569'
p1502
sS'motori'
p1503
S'1.4405204461'
p1504
sS'esteri'
p1505
S'4.6468401487'
p1506
sS'cronaca'
p1507
S'27.3698884758'
p1508
sS'sport'
p1509
S'15.93866171'
p1510
sS'rubriche'
p1511
S'9.01486988848'
p1512
sa(dp1513
S'tecnologia'
p1514
S'3.44243792325'
p1515
sS'scienza'
p1516
S'3.89390519187'
p1517
sS'persone'
p1518
S'3.21670428894'
p1519
sS'politica'
p1520
S'2.59593679458'
p1521
sS'spettacolo'
p1522
S'8.52144469526'
p1523
sS'economia'
p1524
S'7.95711060948'
p1525
sS'gallerie'
p1526
S'3.10383747178'
p1527
sS'motori'
p1528
S'2.59593679458'
p1529
sS'moda'
p1530
S'2.87810383747'
p1531
sS'esteri'
p1532
S'9.14221218962'
p1533
sS'viaggi'
p1534
S'1.80586907449'
p1535
sS'cronaca'
p1536
S'18.9051918736'
p1537
sS'sport'
p1538
S'16.4221218962'
p1539
sS'rubriche'
p1540
S'7.73137697517'
p1541
sa(dp1542
S'tecnologia'
p1543
S'2.10631895687'
p1544
sS'scienza'
p1545
S'8.02407221665'
p1546
sS'persone'
p1547
S'5.91775325978'
p1548
sS'politica'
p1549
S'1.90571715145'
p1550
sS'spettacolo'
p1551
S'7.32196589769'
p1552
sS'economia'
p1553
S'4.41323971916'
p1554
sS'gallerie'
p1555
S'5.81745235707'
p1556
sS'salute'
p1557
S'1.00300902708'
p1558
sS'motori'
p1559
S'4.81444332999'
p1560
sS'esteri'
p1561
S'6.1183550652'
p1562
sS'viaggi'
p1563
S'2.00601805416'
p1564
sS'cronaca'
p1565
S'17.5526579739'
p1566
sS'sport'
p1567
S'19.7592778335'
p1568
sS'rubriche'
p1569
S'7.12136409228'
p1570
sa(dp1571
S'tecnologia'
p1572
S'2.93066476054'
p1573
sS'scienza'
p1574
S'2.07290922087'
p1575
sS'persone'
p1576
S'3.78842030021'
p1577
sS'media'
p1578
S'1.50107219442'
p1579
sS'politica'
p1580
S'4.07433881344'
p1581
sS'spettacolo'
p1582
S'6.075768406'
p1583
sS'economia'
p1584
S'3.14510364546'
p1585
sS'gallerie'
p1586
S'2.64474624732'
p1587
sS'motori'
p1588
S'10.2215868477'
p1589
sS'esteri'
p1590
S'3.21658327377'
p1591
sS'cronaca'
p1592
S'15.7255182273'
p1593
sS'sport'
p1594
S'26.3045032166'
p1595
sS'rossi'
p1596
S'4.71765546819'
p1597
sS'rubriche'
p1598
S'8.22015725518'
p1599
sa(dp1600
S'tecnologia'
p1601
S'2.23123732252'
p1602
sS'scienza'
p1603
S'3.48884381339'
p1604
sS'persone'
p1605
S'3.00202839757'
p1606
sS'politica'
p1607
S'1.9878296146'
p1608
sS'spettacolo'
p1609
S'5.07099391481'
p1610
sS'economia'
p1611
S'5.19269776876'
p1612
sS'gallerie'
p1613
S'2.96146044625'
p1614
sS'salute'
p1615
S'3.0831643002'
p1616
sS'motori'
p1617
S'8.92494929006'
p1618
sS'esteri'
p1619
S'3.7322515213'
p1620
sS'cronaca'
p1621
S'11.8864097363'
p1622
sS'sport'
p1623
S'28.6409736308'
p1624
sS'rossi'
p1625
S'3.36713995943'
p1626
sS'rubriche'
p1627
S'9.49290060852'
p1628
sa(dp1629
S'tecnologia'
p1630
S'2.91453328082'
p1631
sS'scienza'
p1632
S'3.85978731784'
p1633
sS'politica'
p1634
S'2.75699094132'
p1635
sS'spettacolo'
p1636
S'4.88381252462'
p1637
sS'economia'
p1638
S'8.31035840882'
p1639
sS'gallerie'
p1640
S'3.07207562032'
p1641
sS'salute'
p1642
S'4.29302875148'
p1643
sS'motori'
p1644
S'5.82906656164'
p1645
sS'esteri'
p1646
S'4.21425758173'
p1647
sS'viaggi'
p1648
S'9.3343836156'
p1649
sS'cronaca'
p1650
S'11.736904293'
p1651
sS'sport'
p1652
S'22.4497833793'
p1653
sS'rossi'
p1654
S'1.77235131942'
p1655
sS'rubriche'
p1656
S'6.97124852304'
p1657
sa(dp1658
S'regione'
p1659
S'1.96796338673'
p1660
sS'scienza'
p1661
S'3.79862700229'
p1662
sS'persone'
p1663
S'3.24942791762'
p1664
sS'politica'
p1665
S'3.66132723112'
p1666
sS'spettacolo'
p1667
S'8.05491990847'
p1668
sS'economia'
p1669
S'8.51258581236'
p1670
sS'gallerie'
p1671
S'1.83066361556'
p1672
sS'salute'
p1673
S'2.9290617849'
p1674
sS'motori'
p1675
S'6.08695652174'
p1676
sS'esteri'
p1677
S'5.72082379863'
p1678
sS'cronaca'
p1679
S'11.8077803204'
p1680
sS'sport'
p1681
S'20.5949656751'
p1682
sS'rossi'
p1683
S'2.05949656751'
p1684
sS'rubriche'
p1685
S'8.87871853547'
p1686
sa(dp1687
S'tecnologia'
p1688
S'1.73058933583'
p1689
sS'scienza'
p1690
S'2.71281571562'
p1691
sS'persone'
p1692
S'3.92890551918'
p1693
sS'ottobre'
p1694
S'1.77736202058'
p1695
sS'politica'
p1696
S'3.97567820393'
p1697
sS'spettacolo'
p1698
S'7.99812909261'
p1699
sS'economia'
p1700
S'8.23199251637'
p1701
sS'gallerie'
p1702
S'2.66604303087'
p1703
sS'motori'
p1704
S'3.46117867166'
p1705
sS'moda'
p1706
S'3.08699719364'
p1707
sS'esteri'
p1708
S'4.25631431244'
p1709
sS'cronaca'
p1710
S'13.7511693171'
p1711
sS'sport'
p1712
S'24.9298409729'
p1713
sS'rubriche'
p1714
S'7.34331150608'
p1715
sa(dp1716
S'tecnologia'
p1717
S'1.6354016354'
p1718
sS'regione'
p1719
S'1.7316017316'
p1720
sS'scienza'
p1721
S'3.0784030784'
p1722
sS'persone'
p1723
S'7.02260702261'
p1724
sS'politica'
p1725
S'3.0303030303'
p1726
sS'spettacolo'
p1727
S'7.26310726311'
p1728
sS'economia'
p1729
S'6.39730639731'
p1730
sS'gallerie'
p1731
S'4.7619047619'
p1732
sS'motori'
p1733
S'3.1746031746'
p1734
sS'esteri'
p1735
S'4.0404040404'
p1736
sS'viaggi'
p1737
S'4.0404040404'
p1738
sS'cronaca'
p1739
S'14.6224146224'
p1740
sS'sport'
p1741
S'19.4805194805'
p1742
sS'rubriche'
p1743
S'9.42760942761'
p1744
sa(dp1745
S'tecnologia'
p1746
S'1.19760479042'
p1747
sS'regione'
p1748
S'0.998003992016'
p1749
sS'scienza'
p1750
S'3.69261477046'
p1751
sS'persone'
p1752
S'4.09181636727'
p1753
sS'politica'
p1754
S'3.79241516966'
p1755
sS'spettacolo'
p1756
S'7.18562874251'
p1757
sS'economia'
p1758
S'6.78642714571'
p1759
sS'gallerie'
p1760
S'4.29141716567'
p1761
sS'salute'
p1762
S'1.09780439122'
p1763
sS'motori'
p1764
S'3.09381237525'
p1765
sS'esteri'
p1766
S'8.28343313373'
p1767
sS'cronaca'
p1768
S'14.1716566866'
p1769
sS'sport'
p1770
S'19.9600798403'
p1771
sS'rubriche'
p1772
S'14.4710578842'
p1773
sasS'12'
p1774
(lp1775
(dp1776
S'tecnologia'
p1777
S'2.95874822191'
p1778
sS'scienza'
p1779
S'4.40967283073'
p1780
sS'persone'
p1781
S'2.58890469417'
p1782
sS'media'
p1783
S'0.938833570413'
p1784
sS'politica'
p1785
S'1.73541963016'
p1786
sS'spettacolo'
p1787
S'8.44950213371'
p1788
sS'economia'
p1789
S'12.0056899004'
p1790
sS'gallerie'
p1791
S'5.1493598862'
p1792
sS'motori'
p1793
S'2.90184921764'
p1794
sS'esteri'
p1795
S'7.2546230441'
p1796
sS'cronaca'
p1797
S'18.719772404'
p1798
sS'sport'
p1799
S'16.3015647226'
p1800
sS'natale'
p1801
S'1.13798008535'
p1802
sS'rubriche'
p1803
S'7.88051209104'
p1804
sa(dp1805
a(dp1806
S'tecnologia'
p1807
S'3.14371257485'
p1808
sS'scuola'
p1809
S'1.64670658683'
p1810
sS'scienza'
p1811
S'1.87125748503'
p1812
sS'persone'
p1813
S'2.47005988024'
p1814
sS'dicembre'
p1815
S'1.49700598802'
p1816
sS'politica'
p1817
S'2.17065868263'
p1818
sS'spettacolo'
p1819
S'6.96107784431'
p1820
sS'economia'
p1821
S'15.3443113772'
p1822
sS'gallerie'
p1823
S'1.49700598802'
p1824
sS'motori'
p1825
S'1.94610778443'
p1826
sS'esteri'
p1827
S'14.8203592814'
p1828
sS'cronaca'
p1829
S'15.494011976'
p1830
sS'sport'
p1831
S'11.9011976048'
p1832
sS'rubriche'
p1833
S'12.7994011976'
p1834
sa(dp1835
S'tecnologia'
p1836
S'3.80952380952'
p1837
sS'scienza'
p1838
S'4.94208494208'
p1839
sS'persone'
p1840
S'3.16602316602'
p1841
sS'dicembre'
p1842
S'1.44144144144'
p1843
sS'natale'
p1844
S'1.23552123552'
p1845
sS'spettacolo'
p1846
S'10.3217503218'
p1847
sS'economia'
p1848
S'7.72200772201'
p1849
sS'gallerie'
p1850
S'2.67696267696'
p1851
sS'motori'
p1852
S'1.69884169884'
p1853
sS'social'
p1854
S'1.64736164736'
p1855
sS'esteri'
p1856
S'10.3474903475'
p1857
sS'cronaca'
p1858
S'15.2123552124'
p1859
sS'sport'
p1860
S'18.815958816'
p1861
sS'rubriche'
p1862
S'8.26254826255'
p1863
sa(dp1864
S'tecnologia'
p1865
S'1.91616766467'
p1866
sS'scuola'
p1867
S'1.91616766467'
p1868
sS'scienza'
p1869
S'6.02794411178'
p1870
sS'persone'
p1871
S'1.79640718563'
p1872
sS'media'
p1873
S'1.19760479042'
p1874
sS'politica'
p1875
S'2.31536926148'
p1876
sS'spettacolo'
p1877
S'8.50299401198'
p1878
sS'economia'
p1879
S'5.78842315369'
p1880
sS'gallerie'
p1881
S'3.75249500998'
p1882
sS'social'
p1883
S'1.83632734531'
p1884
sS'esteri'
p1885
S'9.14171656687'
p1886
sS'cronaca'
p1887
S'16.2075848303'
p1888
sS'sport'
p1889
S'24.870259481'
p1890
sS'rubriche'
p1891
S'9.42115768463'
p1892
sa(dp1893
S'tecnologia'
p1894
S'1.49732620321'
p1895
sS'regione'
p1896
S'2.45989304813'
p1897
sS'scienza'
p1898
S'6.47058823529'
p1899
sS'persone'
p1900
S'5.34759358289'
p1901
sS'media'
p1902
S'1.71122994652'
p1903
sS'politica'
p1904
S'3.68983957219'
p1905
sS'spettacolo'
p1906
S'10.8556149733'
p1907
sS'economia'
p1908
S'3.36898395722'
p1909
sS'gallerie'
p1910
S'1.44385026738'
p1911
sS'salute'
p1912
S'1.12299465241'
p1913
sS'esteri'
p1914
S'8.02139037433'
p1915
sS'cronaca'
p1916
S'12.513368984'
p1917
sS'sport'
p1918
S'25.0267379679'
p1919
sS'rubriche'
p1920
S'10.7486631016'
p1921
sa(dp1922
S'natale'
p1923
S'2.63929618768'
p1924
sS'regione'
p1925
S'1.27077223851'
p1926
sS'scienza'
p1927
S'3.9100684262'
p1928
sS'persone'
p1929
S'3.55164548713'
p1930
sS'politica'
p1931
S'2.21570544151'
p1932
sS'spettacolo'
p1933
S'12.642554578'
p1934
sS'economia'
p1935
S'5.40892798957'
p1936
sS'gallerie'
p1937
S'3.45389377647'
p1938
sS'motori'
p1939
S'1.10785272076'
p1940
sS'esteri'
p1941
S'6.22352557836'
p1942
sS'viaggi'
p1943
S'1.9550342131'
p1944
sS'cronaca'
p1945
S'17.5953079179'
p1946
sS'sport'
p1947
S'17.0739654611'
p1948
sS'rubriche'
p1949
S'13.229064842'
p1950
sa(dp1951
S'tecnologia'
p1952
S'3.48796651552'
p1953
sS'politica'
p1954
S'2.09277990931'
p1955
sS'regione'
p1956
S'1.56958493198'
p1957
sS'scienza'
p1958
S'4.88315312173'
p1959
sS'moda'
p1960
S'3.59260551099'
p1961
sS'media'
p1962
S'1.70910359261'
p1963
sS'persone'
p1964
S'2.79037321242'
p1965
sS'spettacolo'
p1966
S'12.6961981165'
p1967
sS'economia'
p1968
S'6.41785838856'
p1969
sS'gallerie'
p1970
S'3.69724450645'
p1971
sS'esteri'
p1972
S'7.08057202651'
p1973
sS'cronaca'
p1974
S'14.0565050576'
p1975
sS'sport'
p1976
S'19.323334496'
p1977
sS'rubriche'
p1978
S'8.26648064179'
p1979
sa(dp1980
S'tecnologia'
p1981
S'4.4696969697'
p1982
sS'regione'
p1983
S'1.33838383838'
p1984
sS'scienza'
p1985
S'5.55555555556'
p1986
sS'persone'
p1987
S'3.08080808081'
p1988
sS'politica'
p1989
S'2.22222222222'
p1990
sS'spettacolo'
p1991
S'9.74747474747'
p1992
sS'economia'
p1993
S'7.34848484848'
p1994
sS'gallerie'
p1995
S'3.56060606061'
p1996
sS'motori'
p1997
S'1.06060606061'
p1998
sS'moda'
p1999
S'1.21212121212'
p2000
sS'esteri'
p2001
S'12.196969697'
p2002
sS'cronaca'
p2003
S'16.4393939394'
p2004
sS'sport'
p2005
S'14.3434343434'
p2006
sS'rubriche'
p2007
S'10.3282828283'
p2008
sa(dp2009
S'tecnologia'
p2010
S'1.84128630705'
p2011
sS'scienza'
p2012
S'4.35684647303'
p2013
sS'persone'
p2014
S'4.33091286307'
p2015
sS'dicembre'
p2016
S'1.94502074689'
p2017
sS'politica'
p2018
S'3.21576763485'
p2019
sS'spettacolo'
p2020
S'9.4398340249'
p2021
sS'economia'
p2022
S'7.20954356846'
p2023
sS'gallerie'
p2024
S'2.17842323651'
p2025
sS'salute'
p2026
S'1.21887966805'
p2027
sS'esteri'
p2028
S'8.2468879668'
p2029
sS'cronaca'
p2030
S'20.7728215768'
p2031
sS'sport'
p2032
S'11.4107883817'
p2033
sS'natale'
p2034
S'1.78941908714'
p2035
sS'rubriche'
p2036
S'13.6670124481'
p2037
sa(dp2038
S'tecnologia'
p2039
S'1.76086339108'
p2040
sS'regione'
p2041
S'0.965634762851'
p2042
sS'scienza'
p2043
S'5.1689860835'
p2044
sS'persone'
p2045
S'2.30048281738'
p2046
sS'politica'
p2047
S'3.89094007384'
p2048
sS'spettacolo'
p2049
S'8.88952002272'
p2050
sS'economia'
p2051
S'6.98665151945'
p2052
sS'gallerie'
p2053
S'1.36324907697'
p2054
sS'salute'
p2055
S'1.81766543596'
p2056
sS'motori'
p2057
S'1.10763987504'
p2058
sS'esteri'
p2059
S'9.94035785288'
p2060
sS'cronaca'
p2061
S'24.5952854303'
p2062
sS'sport'
p2063
S'14.7401306447'
p2064
sS'rubriche'
p2065
S'10.5935813689'
p2066
sa(dp2067
S'tecnologia'
p2068
S'3.17700453858'
p2069
sS'regione'
p2070
S'1.66414523449'
p2071
sS'scienza'
p2072
S'4.68986384266'
p2073
sS'persone'
p2074
S'3.36611195159'
p2075
sS'politica'
p2076
S'5.52193645991'
p2077
sS'spettacolo'
p2078
S'6.42965204236'
p2079
sS'economia'
p2080
S'6.84568835098'
p2081
sS'gallerie'
p2082
S'1.39939485628'
p2083
sS'motori'
p2084
S'0.983358547655'
p2085
sS'esteri'
p2086
S'7.0726172466'
p2087
sS'cronaca'
p2088
S'23.1845688351'
p2089
sS'sport'
p2090
S'14.1452344932'
p2091
sS'natale'
p2092
S'1.96671709531'
p2093
sS'rubriche'
p2094
S'12.2541603631'
p2095
sa(dp2096
S'tecnologia'
p2097
S'1.09170305677'
p2098
sS'regione'
p2099
S'1.15408608858'
p2100
sS'scienza'
p2101
S'5.42732376794'
p2102
sS'persone'
p2103
S'4.02370555209'
p2104
sS'politica'
p2105
S'6.082345602'
p2106
sS'spettacolo'
p2107
S'9.32626325639'
p2108
sS'economia'
p2109
S'4.24204616344'
p2110
sS'gallerie'
p2111
S'2.27698066126'
p2112
sS'moda'
p2113
S'1.49719276357'
p2114
sS'esteri'
p2115
S'5.92638802246'
p2116
sS'cronaca'
p2117
S'20.3992514036'
p2118
sS'sport'
p2119
S'20.0561447286'
p2120
sS'natale'
p2121
S'1.06051154086'
p2122
sS'rubriche'
p2123
S'9.95009357455'
p2124
sa(dp2125
S'tecnologia'
p2126
S'3.66645715483'
p2127
sS'regione'
p2128
S'0.984705635868'
p2129
sS'scienza'
p2130
S'3.39409176618'
p2131
sS'persone'
p2132
S'4.31594385083'
p2133
sS'politica'
p2134
S'1.90655772051'
p2135
sS'spettacolo'
p2136
S'9.38613031636'
p2137
sS'economia'
p2138
S'9.09281374398'
p2139
sS'gallerie'
p2140
S'2.40938613032'
p2141
sS'salute'
p2142
S'1.13136392206'
p2143
sS'motori'
p2144
S'1.21516865703'
p2145
sS'esteri'
p2146
S'7.29101194217'
p2147
sS'cronaca'
p2148
S'15.1267546616'
p2149
sS'sport'
p2150
S'24.7014456317'
p2151
sS'rubriche'
p2152
S'8.31761994553'
p2153
sa(dp2154
S'tecnologia'
p2155
S'1.9995556543'
p2156
sS'scienza'
p2157
S'4.82115085537'
p2158
sS'persone'
p2159
S'5.77649411242'
p2160
sS'politica'
p2161
S'3.31037547212'
p2162
sS'prodotto'
p2163
S'1.37747167296'
p2164
sS'spettacolo'
p2165
S'10.0199955565'
p2166
sS'economia'
p2167
S'7.66496334148'
p2168
sS'gallerie'
p2169
S'3.79915574317'
p2170
sS'esteri'
p2171
S'5.9542323928'
p2172
sS'viaggi'
p2173
S'1.46634081315'
p2174
sS'cronaca'
p2175
S'20.1510775383'
p2176
sS'sport'
p2177
S'16.9740057765'
p2178
sS'natale'
p2179
S'1.68851366363'
p2180
sS'rubriche'
p2181
S'7.35392135081'
p2182
sa(dp2183
S'tecnologia'
p2184
S'2.03974895397'
p2185
sS'scienza'
p2186
S'4.62866108787'
p2187
sS'persone'
p2188
S'3.97489539749'
p2189
sS'dicembre'
p2190
S'1.20292887029'
p2191
sS'politica'
p2192
S'4.83786610879'
p2193
sS'spettacolo'
p2194
S'8.57740585774'
p2195
sS'economia'
p2196
S'7.76673640167'
p2197
sS'gallerie'
p2198
S'1.9089958159'
p2199
sS'motori'
p2200
S'1.5690376569'
p2201
sS'moda'
p2202
S'1.46443514644'
p2203
sS'esteri'
p2204
S'4.23640167364'
p2205
sS'cronaca'
p2206
S'20.3974895397'
p2207
sS'sport'
p2208
S'18.9330543933'
p2209
sS'rubriche'
p2210
S'10.7479079498'
p2211
sa(dp2212
S'tecnologia'
p2213
S'2.94659300184'
p2214
sS'scienza'
p2215
S'5.26177321757'
p2216
sS'persone'
p2217
S'3.78847671665'
p2218
sS'dicembre'
p2219
S'2.23625361747'
p2220
sS'politica'
p2221
S'4.05156537753'
p2222
sS'spettacolo'
p2223
S'7.91896869245'
p2224
sS'economia'
p2225
S'6.97184951329'
p2226
sS'gallerie'
p2227
S'2.57826887661'
p2228
sS'salute'
p2229
S'0.973428045251'
p2230
sS'motori'
p2231
S'1.23651670613'
p2232
sS'esteri'
p2233
S'6.9455406472'
p2234
sS'cronaca'
p2235
S'17.9952644041'
p2236
sS'sport'
p2237
S'18.9160747172'
p2238
sS'rubriche'
p2239
S'9.99736911339'
p2240
sa(dp2241
S'tecnologia'
p2242
S'3.26264274062'
p2243
sS'scienza'
p2244
S'4.48613376835'
p2245
sS'persone'
p2246
S'4.37737901033'
p2247
sS'dicembre'
p2248
S'1.08754758021'
p2249
sS'politica'
p2250
S'4.48613376835'
p2251
sS'spettacolo'
p2252
S'5.95432300163'
p2253
sS'economia'
p2254
S'8.91789015769'
p2255
sS'gallerie'
p2256
S'1.84883088635'
p2257
sS'salute'
p2258
S'1.0603588907'
p2259
sS'esteri'
p2260
S'6.00870038064'
p2261
sS'cronaca'
p2262
S'20.2011963023'
p2263
sS'sport'
p2264
S'17.8357803154'
p2265
sS'natale'
p2266
S'1.41381185427'
p2267
sS'rubriche'
p2268
S'9.21696574225'
p2269
sa(dp2270
S'tecnologia'
p2271
S'3.7576326914'
p2272
sS'regione'
p2273
S'1.92578675434'
p2274
sS'scienza'
p2275
S'4.55612963833'
p2276
sS'persone'
p2277
S'5.91827148896'
p2278
sS'dicembre'
p2279
S'1.36214185063'
p2280
sS'politica'
p2281
S'3.80460310005'
p2282
sS'spettacolo'
p2283
S'5.11977454204'
p2284
sS'economia'
p2285
S'3.52278064819'
p2286
sS'gallerie'
p2287
S'3.99248473462'
p2288
sS'esteri'
p2289
S'7.84405824331'
p2290
sS'cronaca'
p2291
S'14.3729450446'
p2292
sS'sport'
p2293
S'26.6322217003'
p2294
sS'natale'
p2295
S'1.69093471113'
p2296
sS'rubriche'
p2297
S'6.90465007046'
p2298
sa(dp2299
S'natale'
p2300
S'2.86162289298'
p2301
sS'scienza'
p2302
S'3.1752254018'
p2303
sS'persone'
p2304
S'2.97922383379'
p2305
sS'media'
p2306
S'1.01920815367'
p2307
sS'politica'
p2308
S'2.35201881615'
p2309
sS'spettacolo'
p2310
S'7.7616620933'
p2311
sS'economia'
p2312
S'5.25284202274'
p2313
sS'gallerie'
p2314
S'3.1752254018'
p2315
sS'salute'
p2316
S'1.25441003528'
p2317
sS'esteri'
p2318
S'8.15366522932'
p2319
sS'cronaca'
p2320
S'21.7169737358'
p2321
sS'sport'
p2322
S'23.2849862799'
p2323
sS'tecnologia'
p2324
S'1.72481379851'
p2325
sS'rubriche'
p2326
S'9.01607212858'
p2327
sa(dp2328
S'natale'
p2329
S'2.80701754386'
p2330
sS'regione'
p2331
S'0.818713450292'
p2332
sS'scienza'
p2333
S'2.73684210526'
p2334
sS'persone'
p2335
S'4.6783625731'
p2336
sS'media'
p2337
S'0.959064327485'
p2338
sS'politica'
p2339
S'2.31578947368'
p2340
sS'spettacolo'
p2341
S'9.14619883041'
p2342
sS'economia'
p2343
S'5.68421052632'
p2344
sS'gallerie'
p2345
S'4.11695906433'
p2346
sS'esteri'
p2347
S'7.81286549708'
p2348
sS'cronaca'
p2349
S'17.1929824561'
p2350
sS'sport'
p2351
S'22.9473684211'
p2352
sS'tecnologia'
p2353
S'1.23976608187'
p2354
sS'rubriche'
p2355
S'11.2514619883'
p2356
sa(dp2357
S'tecnologia'
p2358
S'2.40807871569'
p2359
sS'migliori'
p2360
S'1.52770585189'
p2361
sS'scienza'
p2362
S'4.86794407043'
p2363
sS'persone'
p2364
S'3.57327809425'
p2365
sS'stabilita'
p2366
S'1.91610564474'
p2367
sS'politica'
p2368
S'3.65095805282'
p2369
sS'spettacolo'
p2370
S'11.0046607975'
p2371
sS'economia'
p2372
S'7.76799585707'
p2373
sS'gallerie'
p2374
S'5.64474365614'
p2375
sS'esteri'
p2376
S'5.30813050233'
p2377
sS'viaggi'
p2378
S'1.06162610047'
p2379
sS'cronaca'
p2380
S'19.3164163646'
p2381
sS'sport'
p2382
S'14.5520455722'
p2383
sS'rubriche'
p2384
S'9.32159502848'
p2385
sa(dp2386
S'tecnologia'
p2387
S'4.73895582329'
p2388
sS'scienza'
p2389
S'4.87282463186'
p2390
sS'persone'
p2391
S'4.49799196787'
p2392
sS'dicembre'
p2393
S'1.60642570281'
p2394
sS'politica'
p2395
S'2.89156626506'
p2396
sS'spettacolo'
p2397
S'7.44310575636'
p2398
sS'economia'
p2399
S'7.46987951807'
p2400
sS'gallerie'
p2401
S'4.89959839357'
p2402
sS'salute'
p2403
S'2.83801874163'
p2404
sS'esteri'
p2405
S'9.5046854083'
p2406
sS'cronaca'
p2407
S'18.7148594378'
p2408
sS'sport'
p2409
S'10.1740294511'
p2410
sS'natale'
p2411
S'2.3828647925'
p2412
sS'rubriche'
p2413
S'8.96921017403'
p2414
sa(dp2415
S'tecnologia'
p2416
S'3.80658436214'
p2417
sS'scienza'
p2418
S'3.44650205761'
p2419
sS'persone'
p2420
S'4.06378600823'
p2421
sS'politica'
p2422
S'2.67489711934'
p2423
sS'spettacolo'
p2424
S'8.74485596708'
p2425
sS'economia'
p2426
S'7.71604938272'
p2427
sS'gallerie'
p2428
S'3.18930041152'
p2429
sS'motori'
p2430
S'1.38888888889'
p2431
sS'esteri'
p2432
S'7.56172839506'
p2433
sS'viaggi'
p2434
S'2.93209876543'
p2435
sS'cronaca'
p2436
S'24.2798353909'
p2437
sS'sport'
p2438
S'10.8024691358'
p2439
sS'natale'
p2440
S'2.46913580247'
p2441
sS'rubriche'
p2442
S'8.53909465021'
p2443
sa(dp2444
S'natale'
p2445
S'3.96600566572'
p2446
sS'scienza'
p2447
S'4.53257790368'
p2448
sS'persone'
p2449
S'4.74504249292'
p2450
sS'dicembre'
p2451
S'1.34560906516'
p2452
sS'politica'
p2453
S'1.27478753541'
p2454
sS'prodotto'
p2455
S'1.34560906516'
p2456
sS'spettacolo'
p2457
S'10.6940509915'
p2458
sS'economia'
p2459
S'10.269121813'
p2460
sS'gallerie'
p2461
S'1.91218130312'
p2462
sS'esteri'
p2463
S'13.8101983003'
p2464
sS'cronaca'
p2465
S'19.2634560907'
p2466
sS'sport'
p2467
S'9.13597733711'
p2468
sS'tecnologia'
p2469
S'1.55807365439'
p2470
sS'rubriche'
p2471
S'10.0566572238'
p2472
sa(dp2473
S'natale'
p2474
S'3.07595731325'
p2475
sS'scienza'
p2476
S'2.69930947897'
p2477
sS'persone'
p2478
S'2.88763339611'
p2479
sS'politica'
p2480
S'1.75768989328'
p2481
sS'spettacolo'
p2482
S'10.6089139987'
p2483
sS'economia'
p2484
S'2.95040803515'
p2485
sS'gallerie'
p2486
S'2.38543628374'
p2487
sS'salute'
p2488
S'2.38543628374'
p2489
sS'motori'
p2490
S'2.95040803515'
p2491
sS'esteri'
p2492
S'10.7972379159'
p2493
sS'cronaca'
p2494
S'22.6616446955'
p2495
sS'sport'
p2496
S'12.0527306968'
p2497
sS'tecnologia'
p2498
S'1.75768989328'
p2499
sS'rubriche'
p2500
S'15.3170119272'
p2501
sa(dp2502
S'tecnologia'
p2503
S'2.24852071006'
p2504
sS'scienza'
p2505
S'3.19526627219'
p2506
sS'persone'
p2507
S'4.49704142012'
p2508
sS'politica'
p2509
S'1.77514792899'
p2510
sS'spettacolo'
p2511
S'7.39644970414'
p2512
sS'economia'
p2513
S'4.37869822485'
p2514
sS'gallerie'
p2515
S'1.83431952663'
p2516
sS'motori'
p2517
S'3.84615384615'
p2518
sS'moda'
p2519
S'1.95266272189'
p2520
sS'esteri'
p2521
S'8.69822485207'
p2522
sS'cronaca'
p2523
S'30.8284023669'
p2524
sS'sport'
p2525
S'13.2544378698'
p2526
sS'natale'
p2527
S'0.94674556213'
p2528
sS'rubriche'
p2529
S'9.58579881657'
p2530
sa(dp2531
S'tecnologia'
p2532
S'1.99676200756'
p2533
sS'affari'
p2534
S'2.0507285483'
p2535
sS'scienza'
p2536
S'2.69832703724'
p2537
sS'persone'
p2538
S'5.3696708041'
p2539
sS'media'
p2540
S'1.43011332974'
p2541
sS'politica'
p2542
S'3.26497571506'
p2543
sS'spettacolo'
p2544
S'6.09821910416'
p2545
sS'economia'
p2546
S'10.8742579601'
p2547
sS'gallerie'
p2548
S'2.07771181867'
p2549
sS'motori'
p2550
S'1.78089584458'
p2551
sS'esteri'
p2552
S'7.23151645979'
p2553
sS'cronaca'
p2554
S'23.5563950351'
p2555
sS'sport'
p2556
S'14.1122504047'
p2557
sS'rubriche'
p2558
S'9.74096060443'
p2559
sa(dp2560
S'tecnologia'
p2561
S'2.88'
p2562
sS'regione'
p2563
S'1.0'
p2564
sS'scienza'
p2565
S'3.16'
p2566
sS'persone'
p2567
S'7.0'
p2568
sS'politica'
p2569
S'3.04'
p2570
sS'norme'
p2571
S'1.0'
p2572
sS'spettacolo'
p2573
S'8.84'
p2574
sS'economia'
p2575
S'8.36'
p2576
sS'gallerie'
p2577
S'2.48'
p2578
sS'moda'
p2579
S'1.24'
p2580
sS'esteri'
p2581
S'8.04'
p2582
sS'cronaca'
p2583
S'20.32'
p2584
sS'sport'
p2585
S'13.2'
p2586
sS'rubriche'
p2587
S'10.96'
p2588
sa(dp2589
S'tecnologia'
p2590
S'2.92001692763'
p2591
sS'regione'
p2592
S'1.26957257723'
p2593
sS'scienza'
p2594
S'2.58146424037'
p2595
sS'persone'
p2596
S'4.52814219213'
p2597
sS'politica'
p2598
S'2.24291155311'
p2599
sS'spettacolo'
p2600
S'7.91366906475'
p2601
sS'economia'
p2602
S'10.9183241642'
p2603
sS'gallerie'
p2604
S'2.15827338129'
p2605
sS'motori'
p2606
S'1.18493440542'
p2607
sS'esteri'
p2608
S'6.47482014388'
p2609
sS'viaggi'
p2610
S'0.761743546339'
p2611
sS'cronaca'
p2612
S'23.6140499365'
p2613
sS'sport'
p2614
S'17.5201015658'
p2615
sS'rubriche'
p2616
S'9.14092255607'
p2617
sa(dp2618
S'tecnologia'
p2619
S'4.33186490455'
p2620
sS'scienza'
p2621
S'4.69897209985'
p2622
sS'persone'
p2623
S'3.45080763583'
p2624
sS'dicembre'
p2625
S'2.27606461087'
p2626
sS'politica'
p2627
S'3.89133627019'
p2628
sS'spettacolo'
p2629
S'11.4537444934'
p2630
sS'economia'
p2631
S'7.9295154185'
p2632
sS'gallerie'
p2633
S'3.89133627019'
p2634
sS'motori'
p2635
S'1.24816446402'
p2636
sS'moda'
p2637
S'0.954478707783'
p2638
sS'esteri'
p2639
S'7.04845814978'
p2640
sS'cronaca'
p2641
S'23.6417033774'
p2642
sS'sport'
p2643
S'7.63582966226'
p2644
sS'rubriche'
p2645
S'10.8663729809'
p2646
sasS'1'
p2647
(lp2648
(dp2649
S'tecnologia'
p2650
S'1.50197628458'
p2651
sS'scienza'
p2652
S'3.55731225296'
p2653
sS'persone'
p2654
S'2.76679841897'
p2655
sS'politica'
p2656
S'6.56126482213'
p2657
sS'norme'
p2658
S'3.32015810277'
p2659
sS'prodotto'
p2660
S'0.948616600791'
p2661
sS'spettacolo'
p2662
S'8.93280632411'
p2663
sS'economia'
p2664
S'8.69565217391'
p2665
sS'gallerie'
p2666
S'7.90513833992'
p2667
sS'motori'
p2668
S'0.948616600791'
p2669
sS'esteri'
p2670
S'8.93280632411'
p2671
sS'cronaca'
p2672
S'20.0'
p2673
sS'sport'
p2674
S'4.34782608696'
p2675
sS'rubriche'
p2676
S'15.0988142292'
p2677
sa(dp2678
S'tecnologia'
p2679
S'2.52263906856'
p2680
sS'regione'
p2681
S'1.81112548512'
p2682
sS'scienza'
p2683
S'4.46313065977'
p2684
sS'persone'
p2685
S'2.32858990944'
p2686
sS'media'
p2687
S'2.00517464424'
p2688
sS'politica'
p2689
S'4.78654592497'
p2690
sS'spettacolo'
p2691
S'10.8667529107'
p2692
sS'economia'
p2693
S'8.92626131953'
p2694
sS'gallerie'
p2695
S'2.65200517464'
p2696
sS'motori'
p2697
S'1.9404915912'
p2698
sS'esteri'
p2699
S'5.75679172057'
p2700
sS'cronaca'
p2701
S'21.5394566624'
p2702
sS'sport'
p2703
S'9.31435963777'
p2704
sS'rubriche'
p2705
S'12.6131953428'
p2706
sa(dp2707
S'tecnologia'
p2708
S'1.18430792006'
p2709
sS'regione'
p2710
S'1.18430792006'
p2711
sS'scienza'
p2712
S'4.44115470022'
p2713
sS'persone'
p2714
S'2.59067357513'
p2715
sS'politica'
p2716
S'6.51369356033'
p2717
sS'spettacolo'
p2718
S'10.5107327905'
p2719
sS'economia'
p2720
S'7.10584752036'
p2721
sS'gallerie'
p2722
S'2.66469282013'
p2723
sS'salute'
p2724
S'1.03626943005'
p2725
sS'esteri'
p2726
S'8.88230940044'
p2727
sS'cronaca'
p2728
S'20.355292376'
p2729
sS'sport'
p2730
S'7.54996299038'
p2731
sS'rossi'
p2732
S'0.962250185048'
p2733
sS'rubriche'
p2734
S'17.2464840859'
p2735
sa(dp2736
S'tecnologia'
p2737
S'2.55863539446'
p2738
sS'scienza'
p2739
S'4.6908315565'
p2740
sS'persone'
p2741
S'2.48756218905'
p2742
sS'media'
p2743
S'2.91400142146'
p2744
sS'dicembre'
p2745
S'0.92395167022'
p2746
sS'politica'
p2747
S'5.47263681592'
p2748
sS'spettacolo'
p2749
S'8.10234541578'
p2750
sS'economia'
p2751
S'7.10732054016'
p2752
sS'gallerie'
p2753
S'1.56361051883'
p2754
sS'salute'
p2755
S'0.852878464819'
p2756
sS'esteri'
p2757
S'6.46766169154'
p2758
sS'cronaca'
p2759
S'25.7995735608'
p2760
sS'sport'
p2761
S'10.092395167'
p2762
sS'rubriche'
p2763
S'15.1385927505'
p2764
sa(dp2765
S'canali'
p2766
S'1.30142737196'
p2767
sS'tecnologia'
p2768
S'1.55331654072'
p2769
sS'scienza'
p2770
S'1.80520570949'
p2771
sS'persone'
p2772
S'4.15617128463'
p2773
sS'politica'
p2774
S'3.82031905961'
p2775
sS'norme'
p2776
S'1.59529806885'
p2777
sS'spettacolo'
p2778
S'14.8194794291'
p2779
sS'economia'
p2780
S'9.48782535684'
p2781
sS'gallerie'
p2782
S'2.81276238455'
p2783
sS'salute'
p2784
S'1.00755667506'
p2785
sS'esteri'
p2786
S'4.91183879093'
p2787
sS'cronaca'
p2788
S'22.4181360202'
p2789
sS'sport'
p2790
S'9.69773299748'
p2791
sS'rubriche'
p2792
S'13.8958858102'
p2793
sa(dp2794
S'tecnologia'
p2795
S'3.38394793926'
p2796
sS'scienza'
p2797
S'5.55314533623'
p2798
sS'persone'
p2799
S'1.64859002169'
p2800
sS'media'
p2801
S'1.04121475054'
p2802
sS'politica'
p2803
S'2.81995661605'
p2804
sS'prodotto'
p2805
S'0.911062906725'
p2806
sS'spettacolo'
p2807
S'12.9718004338'
p2808
sS'economia'
p2809
S'6.55097613883'
p2810
sS'gallerie'
p2811
S'2.60303687636'
p2812
sS'moda'
p2813
S'1.30151843818'
p2814
sS'esteri'
p2815
S'7.76572668113'
p2816
sS'cronaca'
p2817
S'16.3557483731'
p2818
sS'sport'
p2819
S'15.6182212581'
p2820
sS'rubriche'
p2821
S'15.9652928416'
p2822
sa(dp2823
S'tecnologia'
p2824
S'1.50943396226'
p2825
sS'regione'
p2826
S'1.20068610635'
p2827
sS'scienza'
p2828
S'3.29331046312'
p2829
sS'persone'
p2830
S'3.44768439108'
p2831
sS'politica'
p2832
S'2.24699828473'
p2833
sS'norme'
p2834
S'1.18353344768'
p2835
sS'spettacolo'
p2836
S'8.19897084048'
p2837
sS'economia'
p2838
S'7.56432246998'
p2839
sS'gallerie'
p2840
S'3.41337907376'
p2841
sS'motori'
p2842
S'1.25214408233'
p2843
sS'esteri'
p2844
S'17.1526586621'
p2845
sS'cronaca'
p2846
S'18.0445969125'
p2847
sS'sport'
p2848
S'9.62264150943'
p2849
sS'rubriche'
p2850
S'14.5626072041'
p2851
sa(dp2852
S'tecnologia'
p2853
S'2.58382642998'
p2854
sS'festa'
p2855
S'1.02564102564'
p2856
sS'scienza'
p2857
S'3.94477317554'
p2858
sS'persone'
p2859
S'3.8067061144'
p2860
sS'politica'
p2861
S'3.07692307692'
p2862
sS'norme'
p2863
S'2.0315581854'
p2864
sS'spettacolo'
p2865
S'7.51479289941'
p2866
sS'economia'
p2867
S'8.77712031558'
p2868
sS'gallerie'
p2869
S'2.97830374753'
p2870
sS'moda'
p2871
S'0.986193293886'
p2872
sS'esteri'
p2873
S'19.3885601578'
p2874
sS'cronaca'
p2875
S'15.7199211045'
p2876
sS'sport'
p2877
S'6.68639053254'
p2878
sS'rubriche'
p2879
S'13.0966469428'
p2880
sa(dp2881
S'tecnologia'
p2882
S'1.66600555335'
p2883
sS'festa'
p2884
S'0.852836176121'
p2885
sS'scienza'
p2886
S'5.03768345894'
p2887
sS'persone'
p2888
S'3.29234430781'
p2889
sS'media'
p2890
S'1.82467274891'
p2891
sS'politica'
p2892
S'2.6180087267'
p2893
sS'norme'
p2894
S'0.714002380008'
p2895
sS'spettacolo'
p2896
S'6.22768742562'
p2897
sS'economia'
p2898
S'8.01269337564'
p2899
sS'gallerie'
p2900
S'2.89567631892'
p2901
sS'esteri'
p2902
S'27.8064260214'
p2903
sS'cronaca'
p2904
S'12.7330424435'
p2905
sS'sport'
p2906
S'6.84252280841'
p2907
sS'rubriche'
p2908
S'12.9313764379'
p2909
sa(dp2910
S'tecnologia'
p2911
S'1.61364684186'
p2912
sS'scienza'
p2913
S'5.5786076533'
p2914
sS'persone'
p2915
S'2.62793914246'
p2916
sS'guerra'
p2917
S'1.19870908253'
p2918
sS'politica'
p2919
S'2.81235592439'
p2920
sS'spettacolo'
p2921
S'6.5928999539'
p2922
sS'economia'
p2923
S'4.93314891655'
p2924
sS'gallerie'
p2925
S'2.58183494698'
p2926
sS'motori'
p2927
S'2.16689718764'
p2928
sS'social'
p2929
S'1.06039649608'
p2930
sS'esteri'
p2931
S'21.8533886584'
p2932
sS'cronaca'
p2933
S'14.3845089903'
p2934
sS'sport'
p2935
S'11.6643614569'
p2936
sS'rubriche'
p2937
S'14.9377593361'
p2938
sa(dp2939
S'tecnologia'
p2940
S'1.15562403698'
p2941
sS'festa'
p2942
S'1.00154083205'
p2943
sS'scienza'
p2944
S'3.15870570108'
p2945
sS'persone'
p2946
S'1.84899845917'
p2947
sS'media'
p2948
S'2.19568567026'
p2949
sS'politica'
p2950
S'2.50385208012'
p2951
sS'spettacolo'
p2952
S'8.24345146379'
p2953
sS'economia'
p2954
S'4.19876733436'
p2955
sS'gallerie'
p2956
S'1.8875192604'
p2957
sS'salute'
p2958
S'1.7719568567'
p2959
sS'esteri'
p2960
S'20.1848998459'
p2961
sS'cronaca'
p2962
S'15.0231124807'
p2963
sS'sport'
p2964
S'15.1386748844'
p2965
sS'rubriche'
p2966
S'14.406779661'
p2967
sa(dp2968
S'tecnologia'
p2969
S'1.47179067866'
p2970
sS'regione'
p2971
S'1.49223221586'
p2972
sS'scienza'
p2973
S'2.96402289452'
p2974
sS'persone'
p2975
S'3.69991823385'
p2976
sS'media'
p2977
S'1.41046606705'
p2978
sS'politica'
p2979
S'4.5380212592'
p2980
sS'spettacolo'
p2981
S'7.21586263287'
p2982
sS'economia'
p2983
S'6.21422730989'
p2984
sS'gallerie'
p2985
S'4.49713818479'
p2986
sS'motori'
p2987
S'2.41210139002'
p2988
sS'esteri'
p2989
S'10.5069501226'
p2990
sS'cronaca'
p2991
S'16.169255928'
p2992
sS'sport'
p2993
S'18.27473426'
p2994
sS'rubriche'
p2995
S'12.3875715454'
p2996
sa(dp2997
S'tecnologia'
p2998
S'2.38690611503'
p2999
sS'scienza'
p3000
S'4.52375539895'
p3001
sS'persone'
p3002
S'2.90975221641'
p3003
sS'media'
p3004
S'1.34121391225'
p3005
sS'politica'
p3006
S'2.61423050693'
p3007
sS'spettacolo'
p3008
S'6.72880200045'
p3009
sS'economia'
p3010
S'10.0932030007'
p3011
sS'gallerie'
p3012
S'7.72902932485'
p3013
sS'salute'
p3014
S'2.27324391907'
p3015
sS'motori'
p3016
S'4.04637417595'
p3017
sS'esteri'
p3018
S'10.6615139805'
p3019
sS'cronaca'
p3020
S'14.8670152307'
p3021
sS'sport'
p3022
S'11.2980222778'
p3023
sS'rubriche'
p3024
S'12.0709252103'
p3025
sa(dp3026
S'tecnologia'
p3027
S'1.75023651845'
p3028
sS'regione'
p3029
S'1.46641438032'
p3030
sS'scienza'
p3031
S'5.10879848628'
p3032
sS'persone'
p3033
S'7.23746452223'
p3034
sS'politica'
p3035
S'6.62251655629'
p3036
sS'spettacolo'
p3037
S'4.96688741722'
p3038
sS'economia'
p3039
S'8.53831598865'
p3040
sS'gallerie'
p3041
S'2.29422894986'
p3042
sS'salute'
p3043
S'2.24692526017'
p3044
sS'motori'
p3045
S'3.6660359508'
p3046
sS'esteri'
p3047
S'10.6906338694'
p3048
sS'cronaca'
p3049
S'13.3869441816'
p3050
sS'sport'
p3051
S'8.7275307474'
p3052
sS'rubriche'
p3053
S'15.7048249763'
p3054
sa(dp3055
S'tecnologia'
p3056
S'1.50631681244'
p3057
sS'storia'
p3058
S'1.1175898931'
p3059
sS'scienza'
p3060
S'4.90767735666'
p3061
sS'persone'
p3062
S'3.47424684159'
p3063
sS'politica'
p3064
S'4.4703595724'
p3065
sS'spettacolo'
p3066
S'6.80272108844'
p3067
sS'economia'
p3068
S'10.6171039845'
p3069
sS'gallerie'
p3070
S'4.27599611273'
p3071
sS'salute'
p3072
S'1.55490767736'
p3073
sS'motori'
p3074
S'1.72497570457'
p3075
sS'esteri'
p3076
S'9.42662779397'
p3077
sS'cronaca'
p3078
S'14.2614188533'
p3079
sS'sport'
p3080
S'11.0787172012'
p3081
sS'rubriche'
p3082
S'16.8610301263'
p3083
sa(dp3084
S'tecnologia'
p3085
S'2.05066344994'
p3086
sS'scienza'
p3087
S'5.13872135103'
p3088
sS'persone'
p3089
S'3.2328106152'
p3090
sS'media'
p3091
S'1.35102533172'
p3092
sS'volo'
p3093
S'1.49577804584'
p3094
sS'politica'
p3095
S'3.11218335344'
p3096
sS'spettacolo'
p3097
S'5.86248492159'
p3098
sS'economia'
p3099
S'9.2400482509'
p3100
sS'gallerie'
p3101
S'2.31604342581'
p3102
sS'motori'
p3103
S'2.84680337756'
p3104
sS'esteri'
p3105
S'11.2183353438'
p3106
sS'cronaca'
p3107
S'16.0675512666'
p3108
sS'sport'
p3109
S'14.2340168878'
p3110
sS'rubriche'
p3111
S'14.0168878166'
p3112
sa(dp3113
S'tecnologia'
p3114
S'3.63901018923'
p3115
sS'regione'
p3116
S'1.40708393984'
p3117
sS'scienza'
p3118
S'7.13245997089'
p3119
sS'persone'
p3120
S'4.94905385735'
p3121
sS'media'
p3122
S'1.1159631247'
p3123
sS'politica'
p3124
S'2.47452692868'
p3125
sS'prodotto'
p3126
S'1.1159631247'
p3127
sS'spettacolo'
p3128
S'6.25909752547'
p3129
sS'economia'
p3130
S'8.97622513343'
p3131
sS'gallerie'
p3132
S'2.71712760796'
p3133
sS'esteri'
p3134
S'9.121785541'
p3135
sS'cronaca'
p3136
S'19.0198932557'
p3137
sS'sport'
p3138
S'13.3430373605'
p3139
sS'rubriche'
p3140
S'13.6826783115'
p3141
sa(dp3142
S'tecnologia'
p3143
S'2.25776105362'
p3144
sS'scienza'
p3145
S'3.2925682032'
p3146
sS'persone'
p3147
S'4.70366886171'
p3148
sS'media'
p3149
S'1.12888052681'
p3150
sS'politica'
p3151
S'6.11476952023'
p3152
sS'spettacolo'
p3153
S'7.00846660395'
p3154
sS'economia'
p3155
S'7.33772342427'
p3156
sS'gallerie'
p3157
S'2.53998118532'
p3158
sS'salute'
p3159
S'1.41110065851'
p3160
sS'motori'
p3161
S'3.43367826905'
p3162
sS'esteri'
p3163
S'8.18438381938'
p3164
sS'cronaca'
p3165
S'17.5917215428'
p3166
sS'sport'
p3167
S'16.2276575729'
p3168
sS'rubriche'
p3169
S'13.4995296331'
p3170
sa(dp3171
S'tecnologia'
p3172
S'1.62866449511'
p3173
sS'scienza'
p3174
S'3.8157282457'
p3175
sS'persone'
p3176
S'3.74592833876'
p3177
sS'media'
p3178
S'2.16379711494'
p3179
sS'politica'
p3180
S'3.65286179618'
p3181
sS'norme'
p3182
S'1.86133085156'
p3183
sS'spettacolo'
p3184
S'6.56119125174'
p3185
sS'economia'
p3186
S'8.81805490926'
p3187
sS'salute'
p3188
S'1.93113075849'
p3189
sS'motori'
p3190
S'1.6751977664'
p3191
sS'esteri'
p3192
S'6.97999069335'
p3193
sS'cronaca'
p3194
S'19.3578408562'
p3195
sS'sport'
p3196
S'17.1707771056'
p3197
sS'rubriche'
p3198
S'12.7035830619'
p3199
sa(dp3200
S'tecnologia'
p3201
S'1.69618358693'
p3202
sS'scienza'
p3203
S'4.44000997755'
p3204
sS'persone'
p3205
S'4.34023447244'
p3206
sS'media'
p3207
S'1.79595909204'
p3208
sS'politica'
p3209
S'5.66225991519'
p3210
sS'spettacolo'
p3211
S'4.76428036917'
p3212
sS'economia'
p3213
S'10.1022698927'
p3214
sS'gallerie'
p3215
S'2.59416313295'
p3216
sS'salute'
p3217
S'1.22224993764'
p3218
sS'motori'
p3219
S'3.51708655525'
p3220
sS'esteri'
p3221
S'10.0523821402'
p3222
sS'cronaca'
p3223
S'15.41531554'
p3224
sS'sport'
p3225
S'12.3971065104'
p3226
sS'rubriche'
p3227
S'12.6964330257'
p3228
sa(dp3229
S'tecnologia'
p3230
S'2.67940354147'
p3231
sS'scienza'
p3232
S'4.54333643989'
p3233
sS'persone'
p3234
S'5.87138863001'
p3235
sS'media'
p3236
S'1.42124883504'
p3237
sS'politica'
p3238
S'6.52376514445'
p3239
sS'spettacolo'
p3240
S'5.42870456664'
p3241
sS'economia'
p3242
S'11.230195713'
p3243
sS'gallerie'
p3244
S'3.28518173346'
p3245
sS'salute'
p3246
S'1.42124883504'
p3247
sS'moda'
p3248
S'1.98042870457'
p3249
sS'esteri'
p3250
S'5.12581547064'
p3251
sS'cronaca'
p3252
S'16.8219944082'
p3253
sS'sport'
p3254
S'11.6728797763'
p3255
sS'rubriche'
p3256
S'12.1854613234'
p3257
sa(dp3258
S'tecnologia'
p3259
S'4.06504065041'
p3260
sS'regione'
p3261
S'1.24491869919'
p3262
sS'scienza'
p3263
S'6.3262195122'
p3264
sS'persone'
p3265
S'4.16666666667'
p3266
sS'media'
p3267
S'1.24491869919'
p3268
sS'politica'
p3269
S'4.44613821138'
p3270
sS'spettacolo'
p3271
S'5.94512195122'
p3272
sS'economia'
p3273
S'13.3384146341'
p3274
sS'gallerie'
p3275
S'2.59146341463'
p3276
sS'motori'
p3277
S'1.75304878049'
p3278
sS'esteri'
p3279
S'5.28455284553'
p3280
sS'cronaca'
p3281
S'16.1839430894'
p3282
sS'sport'
p3283
S'9.83231707317'
p3284
sS'rubriche'
p3285
S'16.1585365854'
p3286
sa(dp3287
S'tecnologia'
p3288
S'2.26781857451'
p3289
sS'festa'
p3290
S'1.21490280778'
p3291
sS'scienza'
p3292
S'6.31749460043'
p3293
sS'persone'
p3294
S'6.1555075594'
p3295
sS'media'
p3296
S'1.16090712743'
p3297
sS'politica'
p3298
S'3.61771058315'
p3299
sS'spettacolo'
p3300
S'5.72354211663'
p3301
sS'economia'
p3302
S'10.3671706263'
p3303
sS'gallerie'
p3304
S'2.4838012959'
p3305
sS'motori'
p3306
S'1.56587473002'
p3307
sS'esteri'
p3308
S'5.53455723542'
p3309
sS'cronaca'
p3310
S'18.8174946004'
p3311
sS'sport'
p3312
S'13.1479481641'
p3313
sS'rubriche'
p3314
S'12.6079913607'
p3315
sa(dp3316
S'tecnologia'
p3317
S'2.05669816565'
p3318
sS'scienza'
p3319
S'6.94830461367'
p3320
sS'persone'
p3321
S'3.72429127293'
p3322
sS'politica'
p3323
S'4.61367426348'
p3324
sS'prodotto'
p3325
S'1.50083379655'
p3326
sS'spettacolo'
p3327
S'5.22512506948'
p3328
sS'economia'
p3329
S'7.33740967204'
p3330
sS'gallerie'
p3331
S'3.44635908838'
p3332
sS'salute'
p3333
S'0.94496942746'
p3334
sS'motori'
p3335
S'1.7787659811'
p3336
sS'esteri'
p3337
S'7.89327404113'
p3338
sS'cronaca'
p3339
S'19.5664257921'
p3340
sS'sport'
p3341
S'14.6192329072'
p3342
sS'rubriche'
p3343
S'13.7298499166'
p3344
sa(dp3345
S'tecnologia'
p3346
S'1.93610842207'
p3347
sS'scienza'
p3348
S'2.42013552759'
p3349
sS'persone'
p3350
S'5.13068731849'
p3351
sS'politica'
p3352
S'5.90513068732'
p3353
sS'prodotto'
p3354
S'1.01645692159'
p3355
sS'spettacolo'
p3356
S'5.90513068732'
p3357
sS'economia'
p3358
S'6.58276863504'
p3359
sS'gallerie'
p3360
S'1.54888673766'
p3361
sS'salute'
p3362
S'1.16166505324'
p3363
sS'motori'
p3364
S'1.06485963214'
p3365
sS'esteri'
p3366
S'9.3417231365'
p3367
sS'cronaca'
p3368
S'15.5372700871'
p3369
sS'sport'
p3370
S'21.1519845111'
p3371
sS'rubriche'
p3372
S'14.9564375605'
p3373
sa(dp3374
S'tecnologia'
p3375
S'1.05669579354'
p3376
sS'scienza'
p3377
S'3.31233489128'
p3378
sS'persone'
p3379
S'5.46636862426'
p3380
sS'media'
p3381
S'1.70697012802'
p3382
sS'politica'
p3383
S'4.00325137167'
p3384
sS'spettacolo'
p3385
S'6.40113798009'
p3386
sS'economia'
p3387
S'8.75838244259'
p3388
sS'gallerie'
p3389
S'2.90591343223'
p3390
sS'musica'
p3391
S'0.955090428775'
p3392
sS'motori'
p3393
S'1.99146514936'
p3394
sS'esteri'
p3395
S'11.9487908962'
p3396
sS'cronaca'
p3397
S'15.0579150579'
p3398
sS'sport'
p3399
S'13.737045316'
p3400
sS'rubriche'
p3401
S'15.3627311522'
p3402
sa(dp3403
S'tecnologia'
p3404
S'2.12146422629'
p3405
sS'scienza'
p3406
S'2.97420965058'
p3407
sS'persone'
p3408
S'5.22046589018'
p3409
sS'media'
p3410
S'1.62229617304'
p3411
sS'politica'
p3412
S'4.45091514143'
p3413
sS'norme'
p3414
S'1.62229617304'
p3415
sS'spettacolo'
p3416
S'8.02828618968'
p3417
sS'economia'
p3418
S'9.04742096506'
p3419
sS'gallerie'
p3420
S'3.82695507488'
p3421
sS'moda'
p3422
S'2.45424292845'
p3423
sS'esteri'
p3424
S'10.3785357737'
p3425
sS'cronaca'
p3426
S'12.9367720466'
p3427
sS'sport'
p3428
S'10.7321131448'
p3429
sS'rubriche'
p3430
S'17.1381031614'
p3431
sa(dp3432
S'tecnologia'
p3433
S'1.78697390078'
p3434
sS'scienza'
p3435
S'3.73853750294'
p3436
sS'persone'
p3437
S'4.56148600988'
p3438
sS'media'
p3439
S'1.3167176111'
p3440
sS'politica'
p3441
S'4.63202445333'
p3442
sS'spettacolo'
p3443
S'5.78415236304'
p3444
sS'economia'
p3445
S'12.8144838937'
p3446
sS'gallerie'
p3447
S'4.53797319539'
p3448
sS'salute'
p3449
S'1.19915353868'
p3450
sS'motori'
p3451
S'1.19915353868'
p3452
sS'esteri'
p3453
S'8.4646132142'
p3454
sS'cronaca'
p3455
S'19.5861744651'
p3456
sS'sport'
p3457
S'8.51163884317'
p3458
sS'rubriche'
p3459
S'15.4714319304'
p3460
sa(dp3461
S'tecnologia'
p3462
S'1.02982192663'
p3463
sS'scienza'
p3464
S'2.78910105128'
p3465
sS'persone'
p3466
S'4.97747264536'
p3467
sS'media'
p3468
S'2.01673460631'
p3469
sS'politica'
p3470
S'6.09311306587'
p3471
sS'spettacolo'
p3472
S'5.85711220768'
p3473
sS'economia'
p3474
S'9.65458056211'
p3475
sS'gallerie'
p3476
S'2.78910105128'
p3477
sS'salute'
p3478
S'0.94400343274'
p3479
sS'motori'
p3480
S'1.22291353787'
p3481
sS'esteri'
p3482
S'5.72838446685'
p3483
sS'cronaca'
p3484
S'15.9407852392'
p3485
sS'sport'
p3486
S'9.8905814203'
p3487
sS'rubriche'
p3488
S'24.7800901094'
p3489
sa(dp3490
S'tecnologia'
p3491
S'2.8682882056'
p3492
sS'regione'
p3493
S'1.62918770078'
p3494
sS'scienza'
p3495
S'4.77283157412'
p3496
sS'persone'
p3497
S'3.92381826526'
p3498
sS'media'
p3499
S'1.26204681046'
p3500
sS'politica'
p3501
S'5.04818724185'
p3502
sS'spettacolo'
p3503
S'6.12666360716'
p3504
sS'economia'
p3505
S'9.29325378614'
p3506
sS'gallerie'
p3507
S'1.58329508949'
p3508
sS'motori'
p3509
S'2.06516750803'
p3510
sS'esteri'
p3511
S'4.13033501606'
p3512
sS'cronaca'
p3513
S'18.4029371271'
p3514
sS'sport'
p3515
S'10.1652134006'
p3516
sS'rubriche'
p3517
S'21.0188159706'
p3518
sa(dp3519
S'tecnologia'
p3520
S'1.33699005828'
p3521
sS'scienza'
p3522
S'4.62804250943'
p3523
sS'persone'
p3524
S'2.94823448749'
p3525
sS'politica'
p3526
S'10.7987658553'
p3527
sS'prodotto'
p3528
S'0.891326705519'
p3529
sS'spettacolo'
p3530
S'5.75934178951'
p3531
sS'economia'
p3532
S'4.28522454577'
p3533
sS'gallerie'
p3534
S'3.97668837847'
p3535
sS'motori'
p3536
S'1.26842646555'
p3537
sS'moda'
p3538
S'0.959890298252'
p3539
sS'esteri'
p3540
S'3.97668837847'
p3541
sS'cronaca'
p3542
S'11.6558107645'
p3543
sS'sport'
p3544
S'15.0154268084'
p3545
sS'rubriche'
p3546
S'27.1854645183'
p3547
sasS'3'
p3548
(lp3549
(dp3550
S'tecnologia'
p3551
S'5.76596947428'
p3552
sS'regione'
p3553
S'2.76992651215'
p3554
sS'scienza'
p3555
S'3.10910118711'
p3556
sS'festa'
p3557
S'3.90050876201'
p3558
sS'persone'
p3559
S'3.78745053703'
p3560
sS'politica'
p3561
S'4.40927077445'
p3562
sS'spettacolo'
p3563
S'9.49689089881'
p3564
sS'economia'
p3565
S'3.84397964952'
p3566
sS'gallerie'
p3567
S'1.80893159977'
p3568
sS'motori'
p3569
S'1.69587337479'
p3570
sS'esteri'
p3571
S'7.51837196156'
p3572
sS'cronaca'
p3573
S'18.0327868852'
p3574
sS'sport'
p3575
S'11.1927642736'
p3576
sS'rubriche'
p3577
S'14.0757490107'
p3578
sa(dp3579
S'tecnologia'
p3580
S'16.2790697674'
p3581
sS'storia'
p3582
S'2.32558139535'
p3583
sS'scienza'
p3584
S'2.32558139535'
p3585
sS'persone'
p3586
S'4.6511627907'
p3587
sS'politica'
p3588
S'18.6046511628'
p3589
sS'prodotto'
p3590
S'2.32558139535'
p3591
sS'spettacolo'
p3592
S'2.32558139535'
p3593
sS'economia'
p3594
S'6.97674418605'
p3595
sS'intervista'
p3596
S'2.32558139535'
p3597
sS'salute'
p3598
S'2.32558139535'
p3599
sS'esteri'
p3600
S'2.32558139535'
p3601
sS'cronaca'
p3602
S'13.9534883721'
p3603
sS'sport'
p3604
S'11.6279069767'
p3605
sS'rubriche'
p3606
S'11.6279069767'
p3607
sa(dp3608
a(dp3609
a(dp3610
a(dp3611
a(dp3612
a(dp3613
a(dp3614
a(dp3615
a(dp3616
a(dp3617
S'tecnologia'
p3618
S'2.73637918397'
p3619
sS'scuola'
p3620
S'1.95455655998'
p3621
sS'scienza'
p3622
S'5.35059858295'
p3623
sS'persone'
p3624
S'3.71365746396'
p3625
sS'politica'
p3626
S'4.15343268996'
p3627
sS'spettacolo'
p3628
S'7.74493036892'
p3629
sS'economia'
p3630
S'11.3852919619'
p3631
sS'gallerie'
p3632
S'1.71023698998'
p3633
sS'salute'
p3634
S'0.95284632299'
p3635
sS'motori'
p3636
S'1.05057415099'
p3637
sS'esteri'
p3638
S'6.69435621793'
p3639
sS'cronaca'
p3640
S'19.1057903738'
p3641
sS'sport'
p3642
S'13.7551917909'
p3643
sS'rubriche'
p3644
S'13.2176887369'
p3645
sa(dp3646
S'tecnologia'
p3647
S'2.53225035834'
p3648
sS'scuola'
p3649
S'1.88724319159'
p3650
sS'scienza'
p3651
S'5.56617295748'
p3652
sS'persone'
p3653
S'3.22503583373'
p3654
sS'politica'
p3655
S'3.12947921644'
p3656
sS'spettacolo'
p3657
S'6.30673674152'
p3658
sS'economia'
p3659
S'9.10176779742'
p3660
sS'gallerie'
p3661
S'2.22169135213'
p3662
sS'salute'
p3663
S'1.0989010989'
p3664
sS'motori'
p3665
S'2.62780697563'
p3666
sS'esteri'
p3667
S'7.42952699474'
p3668
sS'cronaca'
p3669
S'21.4524605829'
p3670
sS'sport'
p3671
S'13.9512661252'
p3672
sS'rubriche'
p3673
S'13.497372193'
p3674
sa(dp3675
S'tecnologia'
p3676
S'1.6393442623'
p3677
sS'scuola'
p3678
S'3.27868852459'
p3679
sS'scienza'
p3680
S'3.27868852459'
p3681
sS'persone'
p3682
S'1.6393442623'
p3683
sS'politica'
p3684
S'13.1147540984'
p3685
sS'spettacolo'
p3686
S'9.83606557377'
p3687
sS'economia'
p3688
S'4.91803278689'
p3689
sS'gallerie'
p3690
S'31.1475409836'
p3691
sS'motori'
p3692
S'1.6393442623'
p3693
sS'esteri'
p3694
S'3.27868852459'
p3695
sS'cronaca'
p3696
S'22.9508196721'
p3697
sS'sport'
p3698
S'1.6393442623'
p3699
sS'rubriche'
p3700
S'1.6393442623'
p3701
sa(dp3702
a(dp3703
a(dp3704
a(dp3705
a(dp3706
a(dp3707
a(dp3708
a(dp3709
a(dp3710
a(dp3711
a(dp3712
S'tecnologia'
p3713
S'2.02360876897'
p3714
sS'aereo'
p3715
S'1.70741989882'
p3716
sS'scienza'
p3717
S'4.46880269815'
p3718
sS'persone'
p3719
S'2.06576728499'
p3720
sS'politica'
p3721
S'3.16188870152'
p3722
sS'norme'
p3723
S'1.13827993255'
p3724
sS'spettacolo'
p3725
S'6.91399662732'
p3726
sS'economia'
p3727
S'8.66357504216'
p3728
sS'gallerie'
p3729
S'1.05396290051'
p3730
sS'moda'
p3731
S'1.18043844857'
p3732
sS'esteri'
p3733
S'20.0674536256'
p3734
sS'cronaca'
p3735
S'19.4983136594'
p3736
sS'sport'
p3737
S'8.09443507589'
p3738
sS'rubriche'
p3739
S'12.1627318718'
p3740
sa(dp3741
a(dp3742
a(dp3743
a(dp3744
a(dp3745
a(dp3746
asS'2'
p3747
(lp3748
(dp3749
S'tecnologia'
p3750
S'2.1656926779'
p3751
sS'scienza'
p3752
S'2.57820556892'
p3753
sS'persone'
p3754
S'3.7469920935'
p3755
sS'politica'
p3756
S'8.18150567205'
p3757
sS'prodotto'
p3758
S'1.65005156411'
p3759
sS'spettacolo'
p3760
S'10.3471983499'
p3761
sS'economia'
p3762
S'4.84702646958'
p3763
sS'gallerie'
p3764
S'5.43141973187'
p3765
sS'motori'
p3766
S'4.19388105878'
p3767
sS'esteri'
p3768
S'4.36576143004'
p3769
sS'viaggi'
p3770
S'2.20006875215'
p3771
sS'cronaca'
p3772
S'9.83155723616'
p3773
sS'sport'
p3774
S'17.2224132004'
p3775
sS'rubriche'
p3776
S'17.0161567549'
p3777
sa(dp3778
S'tecnologia'
p3779
S'2.41666666667'
p3780
sS'scienza'
p3781
S'3.02083333333'
p3782
sS'persone'
p3783
S'3.27083333333'
p3784
sS'media'
p3785
S'1.83333333333'
p3786
sS'politica'
p3787
S'5.70833333333'
p3788
sS'norme'
p3789
S'1.29166666667'
p3790
sS'spettacolo'
p3791
S'6.27083333333'
p3792
sS'economia'
p3793
S'13.2291666667'
p3794
sS'gallerie'
p3795
S'2.97916666667'
p3796
sS'motori'
p3797
S'2.1875'
p3798
sS'esteri'
p3799
S'5.41666666667'
p3800
sS'cronaca'
p3801
S'14.6875'
p3802
sS'sport'
p3803
S'16.1875'
p3804
sS'rubriche'
p3805
S'14.5208333333'
p3806
sa(dp3807
S'tecnologia'
p3808
S'1.56781261806'
p3809
sS'scienza'
p3810
S'4.36343029845'
p3811
sS'persone'
p3812
S'4.3445409898'
p3813
sS'media'
p3814
S'2.11560256895'
p3815
sS'politica'
p3816
S'5.23233849641'
p3817
sS'spettacolo'
p3818
S'7.93350963355'
p3819
sS'economia'
p3820
S'8.74574990555'
p3821
sS'gallerie'
p3822
S'4.32565168115'
p3823
sS'motori'
p3824
S'1.90782017378'
p3825
sS'moda'
p3826
S'2.26671703816'
p3827
sS'esteri'
p3828
S'6.12013600302'
p3829
sS'cronaca'
p3830
S'12.9202871175'
p3831
sS'sport'
p3832
S'10.8991310918'
p3833
sS'rubriche'
p3834
S'20.1926709482'
p3835
sa(dp3836
S'tecnologia'
p3837
S'1.95063694268'
p3838
sS'aereo'
p3839
S'4.23964968153'
p3840
sS'scienza'
p3841
S'4.41878980892'
p3842
sS'persone'
p3843
S'2.70700636943'
p3844
sS'politica'
p3845
S'4.10031847134'
p3846
sS'norme'
p3847
S'1.5923566879'
p3848
sS'spettacolo'
p3849
S'9.27547770701'
p3850
sS'economia'
p3851
S'7.36464968153'
p3852
sS'gallerie'
p3853
S'2.14968152866'
p3854
sS'motori'
p3855
S'3.1449044586'
p3856
sS'esteri'
p3857
S'12.3407643312'
p3858
sS'cronaca'
p3859
S'12.9179936306'
p3860
sS'sport'
p3861
S'11.8431528662'
p3862
sS'rubriche'
p3863
S'14.2117834395'
p3864
sa(dp3865
S'tecnologia'
p3866
S'1.70090567705'
p3867
sS'aereo'
p3868
S'0.795228628231'
p3869
sS'scienza'
p3870
S'3.31345261763'
p3871
sS'persone'
p3872
S'6.82571239231'
p3873
sS'politica'
p3874
S'4.57256461233'
p3875
sS'norme'
p3876
S'0.640600839408'
p3877
sS'spettacolo'
p3878
S'6.98034018114'
p3879
sS'economia'
p3880
S'11.4866357411'
p3881
sS'gallerie'
p3882
S'1.87762314999'
p3883
sS'motori'
p3884
S'1.96598188646'
p3885
sS'esteri'
p3886
S'6.03048376408'
p3887
sS'cronaca'
p3888
S'19.6598188646'
p3889
sS'sport'
p3890
S'10.8239452176'
p3891
sS'rubriche'
p3892
S'17.1415948752'
p3893
sa(dp3894
S'tecnologia'
p3895
S'1.69373549884'
p3896
sS'scienza'
p3897
S'4.10672853828'
p3898
sS'persone'
p3899
S'3.41067285383'
p3900
sS'politica'
p3901
S'4.82598607889'
p3902
sS'norme'
p3903
S'1.22969837587'
p3904
sS'spettacolo'
p3905
S'9.2343387471'
p3906
sS'economia'
p3907
S'8.14385150812'
p3908
sS'gallerie'
p3909
S'2.04176334107'
p3910
sS'salute'
p3911
S'1.46171693735'
p3912
sS'motori'
p3913
S'1.39211136891'
p3914
sS'esteri'
p3915
S'7.7494199536'
p3916
sS'cronaca'
p3917
S'18.4918793503'
p3918
sS'sport'
p3919
S'13.7122969838'
p3920
sS'rubriche'
p3921
S'16.8213457077'
p3922
sa(dp3923
S'tecnologia'
p3924
S'2.03502129673'
p3925
sS'scienza'
p3926
S'4.30667297681'
p3927
sS'persone'
p3928
S'3.92806436346'
p3929
sS'politica'
p3930
S'4.87458589683'
p3931
sS'prodotto'
p3932
S'1.41978230005'
p3933
sS'spettacolo'
p3934
S'11.5475627071'
p3935
sS'economia'
p3936
S'6.01041173687'
p3937
sS'gallerie'
p3938
S'2.50828206342'
p3939
sS'motori'
p3940
S'0.80454330336'
p3941
sS'esteri'
p3942
S'6.81495504023'
p3943
sS'viaggi'
p3944
S'1.0411736867'
p3945
sS'cronaca'
p3946
S'19.261713204'
p3947
sS'sport'
p3948
S'16.3274964505'
p3949
sS'rubriche'
p3950
S'12.9200189304'
p3951
sa(dp3952
S'tecnologia'
p3953
S'1.9556714472'
p3954
sS'scienza'
p3955
S'2.86831812256'
p3956
sS'persone'
p3957
S'3.60712733594'
p3958
sS'media'
p3959
S'2.08604954368'
p3960
sS'politica'
p3961
S'4.30247718383'
p3962
sS'prodotto'
p3963
S'0.912646675359'
p3964
sS'spettacolo'
p3965
S'7.86614515428'
p3966
sS'economia'
p3967
S'8.17036071273'
p3968
sS'gallerie'
p3969
S'3.2159930465'
p3970
sS'salute'
p3971
S'0.782268578879'
p3972
sS'esteri'
p3973
S'7.34463276836'
p3974
sS'cronaca'
p3975
S'17.2533681008'
p3976
sS'sport'
p3977
S'21.9035202086'
p3978
sS'rubriche'
p3979
S'12.1251629726'
p3980
sa(dp3981
S'tecnologia'
p3982
S'1.74129353234'
p3983
sS'scienza'
p3984
S'3.37893864013'
p3985
sS'persone'
p3986
S'3.75207296849'
p3987
sS'media'
p3988
S'1.16086235489'
p3989
sS'politica'
p3990
S'1.8864013267'
p3991
sS'spettacolo'
p3992
S'10.0124378109'
p3993
sS'economia'
p3994
S'11.8781094527'
p3995
sS'gallerie'
p3996
S'6.44693200663'
p3997
sS'motori'
p3998
S'1.11940298507'
p3999
sS'esteri'
p4000
S'6.75787728027'
p4001
sS'viaggi'
p4002
S'1.1815920398'
p4003
sS'cronaca'
p4004
S'16.6666666667'
p4005
sS'sport'
p4006
S'16.8946932007'
p4007
sS'rubriche'
p4008
S'10.5306799337'
p4009
sa(dp4010
S'tecnologia'
p4011
S'1.77968010813'
p4012
sS'scienza'
p4013
S'4.1000225276'
p4014
sS'persone'
p4015
S'4.21266050912'
p4016
sS'media'
p4017
S'0.923631448524'
p4018
sS'politica'
p4019
S'2.36539761207'
p4020
sS'spettacolo'
p4021
S'9.84455958549'
p4022
sS'economia'
p4023
S'9.52917323722'
p4024
sS'gallerie'
p4025
S'6.69069610273'
p4026
sS'salute'
p4027
S'3.49177742735'
p4028
sS'esteri'
p4029
S'7.47916197342'
p4030
sS'viaggi'
p4031
S'1.75715251183'
p4032
sS'cronaca'
p4033
S'17.4588871367'
p4034
sS'sport'
p4035
S'10.6330254562'
p4036
sS'rubriche'
p4037
S'12.7506195089'
p4038
sa(dp4039
S'tecnologia'
p4040
S'1.19859475098'
p4041
sS'scienza'
p4042
S'4.56705930977'
p4043
sS'persone'
p4044
S'4.02975821451'
p4045
sS'media'
p4046
S'1.30192188469'
p4047
sS'politica'
p4048
S'2.47985120893'
p4049
sS'norme'
p4050
S'1.46724529862'
p4051
sS'spettacolo'
p4052
S'18.6402149204'
p4053
sS'economia'
p4054
S'9.05145691259'
p4055
sS'gallerie'
p4056
S'5.16635668527'
p4057
sS'salute'
p4058
S'1.2605910312'
p4059
sS'esteri'
p4060
S'4.29840876214'
p4061
sS'cronaca'
p4062
S'16.5323413928'
p4063
sS'sport'
p4064
S'11.1386650134'
p4065
sS'rubriche'
p4066
S'13.1225459806'
p4067
sa(dp4068
S'tecnologia'
p4069
S'1.93704600484'
p4070
sS'scienza'
p4071
S'6.71362535769'
p4072
sS'persone'
p4073
S'3.6539731455'
p4074
sS'politica'
p4075
S'2.39929561963'
p4076
sS'norme'
p4077
S'0.814439797491'
p4078
sS'spettacolo'
p4079
S'16.5969623597'
p4080
sS'economia'
p4081
S'11.6662998019'
p4082
sS'gallerie'
p4083
S'6.58155403918'
p4084
sS'salute'
p4085
S'0.946511116003'
p4086
sS'motori'
p4087
S'0.748404138235'
p4088
sS'esteri'
p4089
S'7.24191063174'
p4090
sS'cronaca'
p4091
S'14.1536429672'
p4092
sS'sport'
p4093
S'7.92427911072'
p4094
sS'rubriche'
p4095
S'12.5027514858'
p4096
sa(dp4097
S'tecnologia'
p4098
S'2.12668648525'
p4099
sS'scienza'
p4100
S'5.60256117082'
p4101
sS'persone'
p4102
S'3.27006631603'
p4103
sS'politica'
p4104
S'5.51109078436'
p4105
sS'spettacolo'
p4106
S'16.0301852275'
p4107
sS'economia'
p4108
S'8.52961353762'
p4109
sS'gallerie'
p4110
S'2.53830322433'
p4111
sS'musica'
p4112
S'1.09764463755'
p4113
sS'salute'
p4114
S'1.18911502401'
p4115
sS'motori'
p4116
S'1.25771781386'
p4117
sS'esteri'
p4118
S'5.16807683512'
p4119
sS'cronaca'
p4120
S'16.716213126'
p4121
sS'sport'
p4122
S'9.78733135147'
p4123
sS'rubriche'
p4124
S'13.4918820032'
p4125
sa(dp4126
S'tecnologia'
p4127
S'2.08429828624'
p4128
sS'festa'
p4129
S'0.880037054192'
p4130
sS'scienza'
p4131
S'5.18758684576'
p4132
sS'persone'
p4133
S'2.87169986105'
p4134
sS'politica'
p4135
S'5.74339972209'
p4136
sS'spettacolo'
p4137
S'14.6364057434'
p4138
sS'economia'
p4139
S'9.58777211672'
p4140
sS'gallerie'
p4141
S'2.13061602594'
p4142
sS'musica'
p4143
S'0.97267253358'
p4144
sS'motori'
p4145
S'1.99166280686'
p4146
sS'esteri'
p4147
S'6.20657711904'
p4148
sS'cronaca'
p4149
S'16.7670217693'
p4150
sS'sport'
p4151
S'11.3478462251'
p4152
sS'rubriche'
p4153
S'12.5521074572'
p4154
sa(dp4155
S'tecnologia'
p4156
S'2.43298969072'
p4157
sS'scienza'
p4158
S'4.41237113402'
p4159
sS'persone'
p4160
S'2.96907216495'
p4161
sS'volo'
p4162
S'1.15463917526'
p4163
sS'politica'
p4164
S'2.63917525773'
p4165
sS'prodotto'
p4166
S'0.907216494845'
p4167
sS'spettacolo'
p4168
S'19.4226804124'
p4169
sS'economia'
p4170
S'9.9793814433'
p4171
sS'gallerie'
p4172
S'3.05154639175'
p4173
sS'motori'
p4174
S'0.742268041237'
p4175
sS'esteri'
p4176
S'8.32989690722'
p4177
sS'cronaca'
p4178
S'14.8453608247'
p4179
sS'sport'
p4180
S'10.8865979381'
p4181
sS'rubriche'
p4182
S'12.3711340206'
p4183
sa(dp4184
S'tecnologia'
p4185
S'1.35642737896'
p4186
sS'scienza'
p4187
S'2.46243739566'
p4188
sS'persone'
p4189
S'5.00834724541'
p4190
sS'media'
p4191
S'2.23288814691'
p4192
sS'politica'
p4193
S'3.81886477462'
p4194
sS'spettacolo'
p4195
S'11.2270450751'
p4196
sS'economia'
p4197
S'9.49499165275'
p4198
sS'gallerie'
p4199
S'2.17028380634'
p4200
sS'salute'
p4201
S'1.00166944908'
p4202
sS'motori'
p4203
S'1.27295492487'
p4204
sS'esteri'
p4205
S'8.36811352254'
p4206
sS'cronaca'
p4207
S'17.1953255426'
p4208
sS'sport'
p4209
S'13.3764607679'
p4210
sS'rubriche'
p4211
S'13.1886477462'
p4212
sa(dp4213
S'tecnologia'
p4214
S'1.68634064081'
p4215
sS'scienza'
p4216
S'3.98397976391'
p4217
sS'persone'
p4218
S'3.39376053963'
p4219
sS'media'
p4220
S'1.8760539629'
p4221
sS'politica'
p4222
S'4.15261382799'
p4223
sS'spettacolo'
p4224
S'6.15514333895'
p4225
sS'economia'
p4226
S'10.455311973'
p4227
sS'gallerie'
p4228
S'3.89966273187'
p4229
sS'salute'
p4230
S'1.8760539629'
p4231
sS'motori'
p4232
S'1.43338954469'
p4233
sS'esteri'
p4234
S'9.84401349073'
p4235
sS'cronaca'
p4236
S'19.2242833052'
p4237
sS'sport'
p4238
S'11.5303541315'
p4239
sS'rubriche'
p4240
S'14.2495784148'
p4241
sa(dp4242
S'tecnologia'
p4243
S'2.41672109732'
p4244
sS'scienza'
p4245
S'4.50685826257'
p4246
sS'persone'
p4247
S'2.61267145656'
p4248
sS'politica'
p4249
S'5.16002612671'
p4250
sS'norme'
p4251
S'1.63291966035'
p4252
sS'spettacolo'
p4253
S'4.87698671892'
p4254
sS'economia'
p4255
S'10.9079033312'
p4256
sS'gallerie'
p4257
S'2.61267145656'
p4258
sS'salute'
p4259
S'2.41672109732'
p4260
sS'motori'
p4261
S'1.21924667973'
p4262
sS'esteri'
p4263
S'7.81624210755'
p4264
sS'cronaca'
p4265
S'20.8795993904'
p4266
sS'sport'
p4267
S'9.94992379708'
p4268
sS'rubriche'
p4269
S'16.6993250599'
p4270
sa(dp4271
S'tecnologia'
p4272
S'1.64496230295'
p4273
sS'regione'
p4274
S'3.49554489376'
p4275
sS'scienza'
p4276
S'3.70116518163'
p4277
sS'persone'
p4278
S'3.12999771533'
p4279
sS'politica'
p4280
S'3.60977838702'
p4281
sS'norme'
p4282
S'1.23372172721'
p4283
sS'spettacolo'
p4284
S'7.05962988348'
p4285
sS'economia'
p4286
S'8.15627141878'
p4287
sS'gallerie'
p4288
S'2.65021704364'
p4289
sS'salute'
p4290
S'1.05094813799'
p4291
sS'esteri'
p4292
S'9.18437285812'
p4293
sS'cronaca'
p4294
S'19.2597669637'
p4295
sS'sport'
p4296
S'13.2053918209'
p4297
sS'rubriche'
p4298
S'14.7132739319'
p4299
sa(dp4300
S'tecnologia'
p4301
S'2.70772498009'
p4302
sS'regione'
p4303
S'2.30953013008'
p4304
sS'scienza'
p4305
S'4.8845234935'
p4306
sS'persone'
p4307
S'3.29174409344'
p4308
sS'politica'
p4309
S'3.13246615344'
p4310
sS'norme'
p4311
S'1.35386249005'
p4312
sS'spettacolo'
p4313
S'5.62782054685'
p4314
sS'economia'
p4315
S'10.9370852137'
p4316
sS'gallerie'
p4317
S'2.99973453677'
p4318
sS'salute'
p4319
S'1.27422352004'
p4320
sS'esteri'
p4321
S'3.8757632068'
p4322
sS'cronaca'
p4323
S'20.9450491107'
p4324
sS'sport'
p4325
S'17.2020175206'
p4326
sS'rubriche'
p4327
S'12.9015131404'
p4328
sa(dp4329
S'tecnologia'
p4330
S'1.68970814132'
p4331
sS'migliori'
p4332
S'1.53609831029'
p4333
sS'scuola'
p4334
S'4.96671786994'
p4335
sS'scienza'
p4336
S'5.63236047107'
p4337
sS'persone'
p4338
S'2.71377368152'
p4339
sS'politica'
p4340
S'3.94265232975'
p4341
sS'spettacolo'
p4342
S'6.2980030722'
p4343
sS'economia'
p4344
S'12.7496159754'
p4345
sS'gallerie'
p4346
S'1.89452124936'
p4347
sS'salute'
p4348
S'2.04813108039'
p4349
sS'esteri'
p4350
S'5.7859703021'
p4351
sS'cronaca'
p4352
S'18.4843830005'
p4353
sS'sport'
p4354
S'11.9303635433'
p4355
sS'rubriche'
p4356
S'13.9272913466'
p4357
sa(dp4358
S'tecnologia'
p4359
S'1.24192747144'
p4360
sS'scuola'
p4361
S'2.03676105315'
p4362
sS'scienza'
p4363
S'4.52061599603'
p4364
sS'persone'
p4365
S'2.08643815201'
p4366
sS'politica'
p4367
S'5.06706408346'
p4368
sS'spettacolo'
p4369
S'9.09090909091'
p4370
sS'economia'
p4371
S'6.80576254347'
p4372
sS'gallerie'
p4373
S'1.9870839543'
p4374
sS'salute'
p4375
S'3.12965722802'
p4376
sS'esteri'
p4377
S'7.0044709389'
p4378
sS'viaggi'
p4379
S'1.04321907601'
p4380
sS'cronaca'
p4381
S'20.0695479384'
p4382
sS'sport'
p4383
S'16.8902136115'
p4384
sS'rubriche'
p4385
S'12.3695976155'
p4386
sa(dp4387
S'tecnologia'
p4388
S'1.85185185185'
p4389
sS'festa'
p4390
S'1.7316017316'
p4391
sS'scienza'
p4392
S'3.3189033189'
p4393
sS'persone'
p4394
S'3.72775372775'
p4395
sS'politica'
p4396
S'1.9721019721'
p4397
sS'norme'
p4398
S'1.8759018759'
p4399
sS'spettacolo'
p4400
S'17.3881673882'
p4401
sS'economia'
p4402
S'12.7465127465'
p4403
sS'gallerie'
p4404
S'5.89225589226'
p4405
sS'esteri'
p4406
S'3.92015392015'
p4407
sS'cronaca'
p4408
S'14.2376142376'
p4409
sS'sport'
p4410
S'11.1832611833'
p4411
sS'rubriche'
p4412
S'11.8326118326'
p4413
sS'scuola'
p4414
S'1.51515151515'
p4415
sa(dp4416
S'tecnologia'
p4417
S'3.24675324675'
p4418
sS'scienza'
p4419
S'2.57242757243'
p4420
sS'persone'
p4421
S'5.89410589411'
p4422
sS'politica'
p4423
S'3.82117882118'
p4424
sS'norme'
p4425
S'0.974025974026'
p4426
sS'spettacolo'
p4427
S'7.89210789211'
p4428
sS'economia'
p4429
S'13.0869130869'
p4430
sS'gallerie'
p4431
S'7.29270729271'
p4432
sS'salute'
p4433
S'2.82217782218'
p4434
sS'motori'
p4435
S'1.47352647353'
p4436
sS'esteri'
p4437
S'3.77122877123'
p4438
sS'cronaca'
p4439
S'15.1848151848'
p4440
sS'sport'
p4441
S'11.6383616384'
p4442
sS'rubriche'
p4443
S'13.036963037'
p4444
sa(dp4445
S'tecnologia'
p4446
S'1.81916915558'
p4447
sS'scienza'
p4448
S'2.74232962259'
p4449
sS'persone'
p4450
S'2.2264458322'
p4451
sS'politica'
p4452
S'4.37143632908'
p4453
sS'norme'
p4454
S'2.09068693999'
p4455
sS'spettacolo'
p4456
S'6.13630192778'
p4457
sS'economia'
p4458
S'12.2726038556'
p4459
sS'gallerie'
p4460
S'2.93239207168'
p4461
sS'salute'
p4462
S'1.60195492805'
p4463
sS'motori'
p4464
S'2.79663317947'
p4465
sS'esteri'
p4466
S'7.05946239479'
p4467
sS'cronaca'
p4468
S'14.8791745859'
p4469
sS'sport'
p4470
S'17.8387184361'
p4471
sS'rubriche'
p4472
S'13.3315232148'
p4473
sa(dp4474
S'tecnologia'
p4475
S'3.71672526369'
p4476
sS'scienza'
p4477
S'4.87192365645'
p4478
sS'persone'
p4479
S'4.52034153692'
p4480
sS'politica'
p4481
S'3.54093420392'
p4482
sS'norme'
p4483
S'2.33550979407'
p4484
sS'spettacolo'
p4485
S'9.51783023606'
p4486
sS'economia'
p4487
S'9.29181315922'
p4488
sS'gallerie'
p4489
S'2.58663987946'
p4490
sS'salute'
p4491
S'1.25565042692'
p4492
sS'motori'
p4493
S'1.632345555'
p4494
sS'esteri'
p4495
S'6.68006027122'
p4496
sS'cronaca'
p4497
S'19.7639377197'
p4498
sS'sport'
p4499
S'11.2004018081'
p4500
sS'rubriche'
p4501
S'11.8031140131'
p4502
sa(dp4503
S'tecnologia'
p4504
S'1.4677574591'
p4505
sS'regione'
p4506
S'1.37151106833'
p4507
sS'scienza'
p4508
S'4.49951876805'
p4509
sS'persone'
p4510
S'5.14918190568'
p4511
sS'politica'
p4512
S'3.24831568816'
p4513
sS'norme'
p4514
S'2.16554379211'
p4515
sS'spettacolo'
p4516
S'6.7853705486'
p4517
sS'economia'
p4518
S'9.62463907603'
p4519
sS'gallerie'
p4520
S'4.06641000962'
p4521
sS'esteri'
p4522
S'6.37632338787'
p4523
sS'viaggi'
p4524
S'1.34744947064'
p4525
sS'cronaca'
p4526
S'17.4446583253'
p4527
sS'sport'
p4528
S'18.8883541867'
p4529
sS'rubriche'
p4530
S'11.7901828681'
p4531
sa(dp4532
S'tecnologia'
p4533
S'3.24873096447'
p4534
sS'regione'
p4535
S'1.62436548223'
p4536
sS'scienza'
p4537
S'7.05583756345'
p4538
sS'persone'
p4539
S'8.83248730964'
p4540
sS'politica'
p4541
S'4.16243654822'
p4542
sS'spettacolo'
p4543
S'7.71573604061'
p4544
sS'economia'
p4545
S'3.65482233503'
p4546
sS'gallerie'
p4547
S'1.67512690355'
p4548
sS'motori'
p4549
S'1.0152284264'
p4550
sS'moda'
p4551
S'1.0152284264'
p4552
sS'esteri'
p4553
S'7.71573604061'
p4554
sS'cronaca'
p4555
S'21.8781725888'
p4556
sS'sport'
p4557
S'10.3553299492'
p4558
sS'rubriche'
p4559
S'14.8223350254'
p4560
sasS'5'
p4561
(lp4562
(dp4563
S'tecnologia'
p4564
S'1.97580645161'
p4565
sS'scienza'
p4566
S'3.70967741935'
p4567
sS'regione'
p4568
S'10.9274193548'
p4569
sS'persone'
p4570
S'4.67741935484'
p4571
sS'politica'
p4572
S'1.97580645161'
p4573
sS'spettacolo'
p4574
S'6.16935483871'
p4575
sS'economia'
p4576
S'5.20161290323'
p4577
sS'gallerie'
p4578
S'8.75'
p4579
sS'salute'
p4580
S'1.25'
p4581
sS'motori'
p4582
S'1.89516129032'
p4583
sS'esteri'
p4584
S'3.58870967742'
p4585
sS'cronaca'
p4586
S'18.0241935484'
p4587
sS'sport'
p4588
S'8.66935483871'
p4589
sS'rubriche'
p4590
S'18.9112903226'
p4591
sa(dp4592
S'tecnologia'
p4593
S'1.4612761812'
p4594
sS'scienza'
p4595
S'2.28933268388'
p4596
sS'regione'
p4597
S'8.47540185095'
p4598
sS'persone'
p4599
S'3.99415489528'
p4600
sS'media'
p4601
S'0.730638090599'
p4602
sS'politica'
p4603
S'1.7048222114'
p4604
sS'spettacolo'
p4605
S'5.30930345835'
p4606
sS'economia'
p4607
S'2.6790063322'
p4608
sS'gallerie'
p4609
S'2.48416950804'
p4610
sS'motori'
p4611
S'1.31514856308'
p4612
sS'esteri'
p4613
S'8.91378470531'
p4614
sS'cronaca'
p4615
S'24.9878226985'
p4616
sS'sport'
p4617
S'17.2430589381'
p4618
sS'rubriche'
p4619
S'14.661471018'
p4620
sa(dp4621
S'tecnologia'
p4622
S'2.26795464091'
p4623
sS'scienza'
p4624
S'2.51994960101'
p4625
sS'regione'
p4626
S'4.11591768165'
p4627
sS'persone'
p4628
S'4.2419151617'
p4629
sS'politica'
p4630
S'2.47795044099'
p4631
sS'spettacolo'
p4632
S'4.7459050819'
p4633
sS'economia'
p4634
S'3.7379252415'
p4635
sS'gallerie'
p4636
S'1.72196556069'
p4637
sS'motori'
p4638
S'1.17597648047'
p4639
sS'esteri'
p4640
S'6.42587148257'
p4641
sS'viaggi'
p4642
S'1.46997060059'
p4643
sS'cronaca'
p4644
S'18.4796304074'
p4645
sS'sport'
p4646
S'25.6194876102'
p4647
sS'rubriche'
p4648
S'14.7837043259'
p4649
sa(dp4650
S'tecnologia'
p4651
S'1.99252801993'
p4652
sS'regione'
p4653
S'1.16230801162'
p4654
sS'scienza'
p4655
S'4.1095890411'
p4656
sS'persone'
p4657
S'2.61519302615'
p4658
sS'politica'
p4659
S'4.58696554587'
p4660
sS'spettacolo'
p4661
S'6.95309256953'
p4662
sS'economia'
p4663
S'7.03611457036'
p4664
sS'gallerie'
p4665
S'3.75674553757'
p4666
sS'salute'
p4667
S'1.95101701951'
p4668
sS'esteri'
p4669
S'9.09090909091'
p4670
sS'cronaca'
p4671
S'17.2270651723'
p4672
sS'sport'
p4673
S'15.5873806559'
p4674
sS'rubriche'
p4675
S'13.8854296389'
p4676
sS'scuola'
p4677
S'1.07928601079'
p4678
sa(dp4679
S'tecnologia'
p4680
S'2.8498427673'
p4681
sS'scuola'
p4682
S'4.08805031447'
p4683
sS'scienza'
p4684
S'4.40251572327'
p4685
sS'persone'
p4686
S'4.20597484277'
p4687
sS'politica'
p4688
S'4.71698113208'
p4689
sS'spettacolo'
p4690
S'6.56446540881'
p4691
sS'economia'
p4692
S'7.86163522013'
p4693
sS'gallerie'
p4694
S'4.93317610063'
p4695
sS'motori'
p4696
S'1.10062893082'
p4697
sS'moda'
p4698
S'0.825471698113'
p4699
sS'esteri'
p4700
S'7.29166666667'
p4701
sS'cronaca'
p4702
S'17.590408805'
p4703
sS'sport'
p4704
S'15.1926100629'
p4705
sS'rubriche'
p4706
S'11.4386792453'
p4707
sa(dp4708
S'tecnologia'
p4709
S'1.59100551549'
p4710
sS'servizi'
p4711
S'1.23037759864'
p4712
sS'scuola'
p4713
S'1.23037759864'
p4714
sS'scienza'
p4715
S'4.22146796776'
p4716
sS'persone'
p4717
S'4.0305473059'
p4718
sS'politica'
p4719
S'4.66694951209'
p4720
sS'spettacolo'
p4721
S'6.68222316504'
p4722
sS'economia'
p4723
S'5.685193042'
p4724
sS'gallerie'
p4725
S'3.69113279593'
p4726
sS'salute'
p4727
S'0.933389902418'
p4728
sS'esteri'
p4729
S'8.06109461179'
p4730
sS'cronaca'
p4731
S'12.706830717'
p4732
sS'sport'
p4733
S'28.1501909207'
p4734
sS'rubriche'
p4735
S'10.8824777259'
p4736
sa(dp4737
S'tecnologia'
p4738
S'1.79809358752'
p4739
sS'regione'
p4740
S'1.9280762565'
p4741
sS'scienza'
p4742
S'4.4410745234'
p4743
sS'persone'
p4744
S'3.4445407279'
p4745
sS'politica'
p4746
S'4.48440207972'
p4747
sS'mare'
p4748
S'0.888214904679'
p4749
sS'spettacolo'
p4750
S'6.1308492201'
p4751
sS'economia'
p4752
S'7.84228769497'
p4753
sS'gallerie'
p4754
S'2.31802426343'
p4755
sS'salute'
p4756
S'0.888214904679'
p4757
sS'esteri'
p4758
S'11.1785095321'
p4759
sS'cronaca'
p4760
S'16.7244367418'
p4761
sS'sport'
p4762
S'18.1975736568'
p4763
sS'rubriche'
p4764
S'13.2365684575'
p4765
sa(dp4766
S'tecnologia'
p4767
S'1.08669403526'
p4768
sS'scuola'
p4769
S'0.893503984545'
p4770
sS'scienza'
p4771
S'5.91644530307'
p4772
sS'persone'
p4773
S'3.88794977059'
p4774
sS'politica'
p4775
S'5.57836271432'
p4776
sS'mare'
p4777
S'0.941801497223'
p4778
sS'spettacolo'
p4779
S'7.77589954117'
p4780
sS'economia'
p4781
S'6.39942042985'
p4782
sS'gallerie'
p4783
S'1.52137164936'
p4784
sS'moda'
p4785
S'0.821057715528'
p4786
sS'esteri'
p4787
S'12.2434194639'
p4788
sS'cronaca'
p4789
S'18.5220961121'
p4790
sS'sport'
p4791
S'16.4936005796'
p4792
sS'rubriche'
p4793
S'11.8087418498'
p4794
sa(dp4795
S'regione'
p4796
S'1.58197507191'
p4797
sS'festa'
p4798
S'1.67785234899'
p4799
sS'scienza'
p4800
S'7.861936721'
p4801
sS'persone'
p4802
S'7.09491850431'
p4803
sS'politica'
p4804
S'5.36912751678'
p4805
sS'spettacolo'
p4806
S'6.37583892617'
p4807
sS'economia'
p4808
S'5.56088207095'
p4809
sS'gallerie'
p4810
S'1.39022051774'
p4811
sS'motori'
p4812
S'1.72579098754'
p4813
sS'esteri'
p4814
S'10.4506232023'
p4815
sS'viaggi'
p4816
S'1.67785234899'
p4817
sS'cronaca'
p4818
S'15.723873442'
p4819
sS'sport'
p4820
S'14.7651006711'
p4821
sS'rubriche'
p4822
S'12.0805369128'
p4823
sa(dp4824
S'festa'
p4825
S'2.51540041068'
p4826
sS'scienza'
p4827
S'4.36344969199'
p4828
sS'persone'
p4829
S'4.26078028747'
p4830
sS'media'
p4831
S'1.12936344969'
p4832
sS'politica'
p4833
S'5.85215605749'
p4834
sS'spettacolo'
p4835
S'5.80082135524'
p4836
sS'economia'
p4837
S'5.74948665298'
p4838
sS'gallerie'
p4839
S'3.43942505133'
p4840
sS'motori'
p4841
S'1.07802874743'
p4842
sS'esteri'
p4843
S'10.0616016427'
p4844
sS'cronaca'
p4845
S'16.3757700205'
p4846
sS'sport'
p4847
S'18.2751540041'
p4848
sS'rubriche'
p4849
S'13.501026694'
p4850
sS'scuola'
p4851
S'1.59137577002'
p4852
sa(dp4853
S'tecnologia'
p4854
S'1.64609053498'
p4855
sS'regione'
p4856
S'1.04938271605'
p4857
sS'scuola'
p4858
S'1.25514403292'
p4859
sS'scienza'
p4860
S'2.61316872428'
p4861
sS'persone'
p4862
S'3.31275720165'
p4863
sS'politica'
p4864
S'6.9341563786'
p4865
sS'spettacolo'
p4866
S'7.9012345679'
p4867
sS'economia'
p4868
S'8.45679012346'
p4869
sS'gallerie'
p4870
S'3.25102880658'
p4871
sS'salute'
p4872
S'1.00823045267'
p4873
sS'esteri'
p4874
S'7.16049382716'
p4875
sS'cronaca'
p4876
S'22.8600823045'
p4877
sS'sport'
p4878
S'14.0534979424'
p4879
sS'rubriche'
p4880
S'12.8806584362'
p4881
sa(dp4882
S'regione'
p4883
S'1.74431441819'
p4884
sS'scienza'
p4885
S'4.10686685803'
p4886
sS'persone'
p4887
S'4.94590417311'
p4888
sS'politica'
p4889
S'5.27710311327'
p4890
sS'spettacolo'
p4891
S'5.03422389048'
p4892
sS'economia'
p4893
S'7.48509604769'
p4894
sS'gallerie'
p4895
S'4.17310664606'
p4896
sS'salute'
p4897
S'1.76639434754'
p4898
sS'esteri'
p4899
S'6.77853830868'
p4900
sS'viaggi'
p4901
S'3.81982777655'
p4902
sS'cronaca'
p4903
S'17.575623758'
p4904
sS'sport'
p4905
S'15.1247516008'
p4906
sS'rubriche'
p4907
S'12.2322808567'
p4908
sS'scuola'
p4909
S'1.39103554869'
p4910
sa(dp4911
S'tecnologia'
p4912
S'2.95081967213'
p4913
sS'scienza'
p4914
S'4.14519906323'
p4915
sS'persone'
p4916
S'3.88758782201'
p4917
sS'politica'
p4918
S'3.81733021077'
p4919
sS'norme'
p4920
S'1.6393442623'
p4921
sS'spettacolo'
p4922
S'5.29274004684'
p4923
sS'economia'
p4924
S'10.3044496487'
p4925
sS'gallerie'
p4926
S'3.06791569087'
p4927
sS'salute'
p4928
S'1.47540983607'
p4929
sS'esteri'
p4930
S'10.3278688525'
p4931
sS'viaggi'
p4932
S'1.00702576112'
p4933
sS'cronaca'
p4934
S'16.9320843091'
p4935
sS'sport'
p4936
S'15.5269320843'
p4937
sS'rubriche'
p4938
S'12.8337236534'
p4939
sa(dp4940
S'tecnologia'
p4941
S'2.42907801418'
p4942
sS'scuola'
p4943
S'1.87943262411'
p4944
sS'scienza'
p4945
S'4.66312056738'
p4946
sS'persone'
p4947
S'2.71276595745'
p4948
sS'media'
p4949
S'1.01063829787'
p4950
sS'politica'
p4951
S'2.74822695035'
p4952
sS'spettacolo'
p4953
S'5.99290780142'
p4954
sS'economia'
p4955
S'4.64539007092'
p4956
sS'gallerie'
p4957
S'2.7304964539'
p4958
sS'motori'
p4959
S'1.3475177305'
p4960
sS'esteri'
p4961
S'5.03546099291'
p4962
sS'cronaca'
p4963
S'15.0531914894'
p4964
sS'sport'
p4965
S'31.5425531915'
p4966
sS'rubriche'
p4967
S'12.2163120567'
p4968
sa(dp4969
S'tecnologia'
p4970
S'1.29301355579'
p4971
sS'scuola'
p4972
S'2.00208550574'
p4973
sS'scienza'
p4974
S'6.63190823775'
p4975
sS'persone'
p4976
S'3.96246089677'
p4977
sS'media'
p4978
S'0.896767466111'
p4979
sS'politica'
p4980
S'2.44004171011'
p4981
sS'spettacolo'
p4982
S'8.75912408759'
p4983
sS'economia'
p4984
S'5.00521376434'
p4985
sS'gallerie'
p4986
S'4.67153284672'
p4987
sS'motori'
p4988
S'1.71011470282'
p4989
sS'esteri'
p4990
S'7.09071949948'
p4991
sS'cronaca'
p4992
S'18.8321167883'
p4993
sS'sport'
p4994
S'17.4139728884'
p4995
sS'rubriche'
p4996
S'13.3263816475'
p4997
sa(dp4998
S'tecnologia'
p4999
S'2.2268907563'
p5000
sS'scienza'
p5001
S'5.25210084034'
p5002
sS'persone'
p5003
S'3.02521008403'
p5004
sS'politica'
p5005
S'3.02521008403'
p5006
sS'prodotto'
p5007
S'1.09243697479'
p5008
sS'spettacolo'
p5009
S'8.27731092437'
p5010
sS'economia'
p5011
S'6.80672268908'
p5012
sS'gallerie'
p5013
S'3.52941176471'
p5014
sS'motori'
p5015
S'1.55462184874'
p5016
sS'esteri'
p5017
S'6.21848739496'
p5018
sS'riforma'
p5019
S'1.21848739496'
p5020
sS'cronaca'
p5021
S'21.2605042017'
p5022
sS'sport'
p5023
S'16.218487395'
p5024
sS'rubriche'
p5025
S'13.2773109244'
p5026
sa(dp5027
S'tecnologia'
p5028
S'2.27471566054'
p5029
sS'scienza'
p5030
S'5.38057742782'
p5031
sS'persone'
p5032
S'3.67454068241'
p5033
sS'media'
p5034
S'1.13735783027'
p5035
sS'politica'
p5036
S'2.75590551181'
p5037
sS'spettacolo'
p5038
S'8.79265091864'
p5039
sS'economia'
p5040
S'5.24934383202'
p5041
sS'gallerie'
p5042
S'3.63079615048'
p5043
sS'salute'
p5044
S'1.0498687664'
p5045
sS'motori'
p5046
S'2.23097112861'
p5047
sS'esteri'
p5048
S'6.60542432196'
p5049
sS'cronaca'
p5050
S'18.5914260717'
p5051
sS'sport'
p5052
S'20.4724409449'
p5053
sS'rubriche'
p5054
S'11.5048118985'
p5055
sa(dp5056
S'tecnologia'
p5057
S'2.43096071567'
p5058
sS'scienza'
p5059
S'4.10346168806'
p5060
sS'persone'
p5061
S'4.31738623104'
p5062
sS'politica'
p5063
S'3.46168805912'
p5064
sS'spettacolo'
p5065
S'7.70128354726'
p5066
sS'economia'
p5067
S'8.63477246208'
p5068
sS'gallerie'
p5069
S'3.94788020226'
p5070
sS'impresa'
p5071
S'1.08907040062'
p5072
sS'motori'
p5073
S'0.914041229094'
p5074
sS'esteri'
p5075
S'8.36250486192'
p5076
sS'cronaca'
p5077
S'21.9175418125'
p5078
sS'sport'
p5079
S'14.4690781797'
p5080
sS'rubriche'
p5081
S'12.1742512641'
p5082
sS'salute'
p5083
S'0.914041229094'
p5084
sa(dp5085
S'tecnologia'
p5086
S'2.78172588832'
p5087
sS'scuola'
p5088
S'1.07614213198'
p5089
sS'scienza'
p5090
S'3.06598984772'
p5091
sS'persone'
p5092
S'4.20304568528'
p5093
sS'politica'
p5094
S'2.1116751269'
p5095
sS'norme'
p5096
S'1.36040609137'
p5097
sS'spettacolo'
p5098
S'6.74111675127'
p5099
sS'economia'
p5100
S'10.9644670051'
p5101
sS'gallerie'
p5102
S'2.29441624365'
p5103
sS'salute'
p5104
S'1.34010152284'
p5105
sS'esteri'
p5106
S'8.48730964467'
p5107
sS'cronaca'
p5108
S'22.2335025381'
p5109
sS'sport'
p5110
S'16.6903553299'
p5111
sS'rubriche'
p5112
S'10.6802030457'
p5113
sa(dp5114
S'tecnologia'
p5115
S'2.38268903477'
p5116
sS'scuola'
p5117
S'0.899586676392'
p5118
sS'scienza'
p5119
S'4.42499392171'
p5120
sS'persone'
p5121
S'3.93873085339'
p5122
sS'politica'
p5123
S'3.84147823973'
p5124
sS'spettacolo'
p5125
S'7.31825917822'
p5126
sS'economia'
p5127
S'9.38487721858'
p5128
sS'gallerie'
p5129
S'2.4313153416'
p5130
sS'salute'
p5131
S'1.04546559689'
p5132
sS'motori'
p5133
S'2.47994164843'
p5134
sS'esteri'
p5135
S'6.00534889375'
p5136
sS'cronaca'
p5137
S'21.2496960856'
p5138
sS'sport'
p5139
S'14.9282761974'
p5140
sS'rubriche'
p5141
S'14.028689521'
p5142
sa(dp5143
S'tecnologia'
p5144
S'2.39225712199'
p5145
sS'regione'
p5146
S'1.02264426589'
p5147
sS'scienza'
p5148
S'4.21840759679'
p5149
sS'persone'
p5150
S'1.75310445581'
p5151
sS'politica'
p5152
S'4.54711468225'
p5153
sS'spettacolo'
p5154
S'8.6742147553'
p5155
sS'economia'
p5156
S'5.84368151936'
p5157
sS'gallerie'
p5158
S'4.1088385683'
p5159
sS'motori'
p5160
S'1.77136596056'
p5161
sS'esteri'
p5162
S'6.73849525201'
p5163
sS'cronaca'
p5164
S'19.3937180424'
p5165
sS'sport'
p5166
S'21.0920379839'
p5167
sS'rubriche'
p5168
S'11.8882395909'
p5169
sS'scuola'
p5170
S'0.73046018992'
p5171
sa(dp5172
S'tecnologia'
p5173
S'1.62547316856'
p5174
sS'regione'
p5175
S'0.84613671788'
p5176
sS'scienza'
p5177
S'4.80961923848'
p5178
sS'persone'
p5179
S'3.25094633712'
p5180
sS'politica'
p5181
S'3.40681362725'
p5182
sS'spettacolo'
p5183
S'7.83789801826'
p5184
sS'economia'
p5185
S'6.85816076598'
p5186
sS'gallerie'
p5187
S'3.05054553552'
p5188
sS'motori'
p5189
S'1.42507236696'
p5190
sS'esteri'
p5191
S'9.53017145402'
p5192
sS'viaggi'
p5193
S'1.18013805389'
p5194
sS'cronaca'
p5195
S'17.7688710755'
p5196
sS'sport'
p5197
S'18.2364729459'
p5198
sS'rubriche'
p5199
S'13.7608550434'
p5200
sa(dp5201
S'tecnologia'
p5202
S'3.02904564315'
p5203
sS'scienza'
p5204
S'3.48547717842'
p5205
sS'persone'
p5206
S'2.19917012448'
p5207
sS'politica'
p5208
S'2.61410788382'
p5209
sS'spettacolo'
p5210
S'10.1244813278'
p5211
sS'economia'
p5212
S'5.93360995851'
p5213
sS'gallerie'
p5214
S'2.11618257261'
p5215
sS'salute'
p5216
S'1.70124481328'
p5217
sS'motori'
p5218
S'1.32780082988'
p5219
sS'esteri'
p5220
S'13.112033195'
p5221
sS'viaggi'
p5222
S'1.82572614108'
p5223
sS'cronaca'
p5224
S'17.5933609959'
p5225
sS'sport'
p5226
S'17.9253112033'
p5227
sS'rubriche'
p5228
S'11.5352697095'
p5229
sa(dp5230
S'tecnologia'
p5231
S'3.63703159442'
p5232
sS'scienza'
p5233
S'3.08596620132'
p5234
sS'persone'
p5235
S'2.31447465099'
p5236
sS'media'
p5237
S'0.955180014695'
p5238
sS'politica'
p5239
S'3.71050698016'
p5240
sS'spettacolo'
p5241
S'8.70683321087'
p5242
sS'economia'
p5243
S'5.65760470242'
p5244
sS'gallerie'
p5245
S'3.60029390154'
p5246
sS'motori'
p5247
S'1.72667156503'
p5248
sS'moda'
p5249
S'0.661278471712'
p5250
sS'esteri'
p5251
S'8.52314474651'
p5252
sS'cronaca'
p5253
S'17.4504041146'
p5254
sS'sport'
p5255
S'23.1814842028'
p5256
sS'rubriche'
p5257
S'11.4988978692'
p5258
sa(dp5259
S'tecnologia'
p5260
S'2.38235873203'
p5261
sS'scienza'
p5262
S'2.4611143926'
p5263
sS'persone'
p5264
S'2.38235873203'
p5265
sS'media'
p5266
S'1.24040165387'
p5267
sS'politica'
p5268
S'2.95333727112'
p5269
sS'spettacolo'
p5270
S'7.48178775349'
p5271
sS'economia'
p5272
S'9.39161252215'
p5273
sS'gallerie'
p5274
S'4.29218350069'
p5275
sS'salute'
p5276
S'1.12226816302'
p5277
sS'motori'
p5278
S'2.59893679858'
p5279
sS'esteri'
p5280
S'7.20614294152'
p5281
sS'cronaca'
p5282
S'20.9686946249'
p5283
sS'sport'
p5284
S'18.7241582989'
p5285
sS'rubriche'
p5286
S'11.1439259697'
p5287
sa(dp5288
S'tecnologia'
p5289
S'2.80080663231'
p5290
sS'regione'
p5291
S'1.43401299574'
p5292
sS'scienza'
p5293
S'3.69706475465'
p5294
sS'persone'
p5295
S'2.46470983643'
p5296
sS'politica'
p5297
S'3.76428411382'
p5298
sS'norme'
p5299
S'0.963477481515'
p5300
sS'spettacolo'
p5301
S'5.5568003585'
p5302
sS'economia'
p5303
S'8.69370378669'
p5304
sS'gallerie'
p5305
S'3.76428411382'
p5306
sS'motori'
p5307
S'1.38920008963'
p5308
sS'esteri'
p5309
S'7.23728433789'
p5310
sS'cronaca'
p5311
S'23.6836208828'
p5312
sS'sport'
p5313
S'17.611472104'
p5314
sS'rubriche'
p5315
S'10.6878781089'
p5316
sa(dp5317
S'tecnologia'
p5318
S'2.94834848149'
p5319
sS'regione'
p5320
S'1.4630902239'
p5321
sS'scienza'
p5322
S'5.3203280869'
p5323
sS'persone'
p5324
S'6.34005763689'
p5325
sS'politica'
p5326
S'3.61338949235'
p5327
sS'spettacolo'
p5328
S'4.67745510973'
p5329
sS'economia'
p5330
S'7.89181999557'
p5331
sS'gallerie'
p5332
S'2.30547550432'
p5333
sS'salute'
p5334
S'2.50498780758'
p5335
sS'motori'
p5336
S'0.886721347816'
p5337
sS'esteri'
p5338
S'5.67501662603'
p5339
sS'cronaca'
p5340
S'18.2221236976'
p5341
sS'sport'
p5342
S'17.7344269563'
p5343
sS'rubriche'
p5344
S'13.1456439814'
p5345
sa(dp5346
S'tecnologia'
p5347
S'3.24893569348'
p5348
sS'regione'
p5349
S'1.41160654268'
p5350
sS'scienza'
p5351
S'5.80327134215'
p5352
sS'persone'
p5353
S'3.62984539547'
p5354
sS'politica'
p5355
S'2.77840017925'
p5356
sS'spettacolo'
p5357
S'3.98834864441'
p5358
sS'economia'
p5359
S'6.81156172978'
p5360
sS'gallerie'
p5361
S'3.27134214654'
p5362
sS'salute'
p5363
S'2.35267757114'
p5364
sS'motori'
p5365
S'1.38920008963'
p5366
sS'esteri'
p5367
S'6.04974232579'
p5368
sS'cronaca'
p5369
S'20.0985883935'
p5370
sS'sport'
p5371
S'18.9334528344'
p5372
sS'rubriche'
p5373
S'14.8778848308'
p5374
sa(dp5375
S'tecnologia'
p5376
S'1.42073778664'
p5377
sS'scuola'
p5378
S'1.37088733799'
p5379
sS'scienza'
p5380
S'5.50847457627'
p5381
sS'persone'
p5382
S'3.33998005982'
p5383
sS'politica'
p5384
S'4.56131605184'
p5385
sS'spettacolo'
p5386
S'5.30907278166'
p5387
sS'economia'
p5388
S'7.15353938185'
p5389
sS'gallerie'
p5390
S'3.88833499501'
p5391
sS'salute'
p5392
S'1.76969092722'
p5393
sS'motori'
p5394
S'1.66999002991'
p5395
sS'esteri'
p5396
S'6.50548354935'
p5397
sS'cronaca'
p5398
S'17.5224327019'
p5399
sS'sport'
p5400
S'17.8464606181'
p5401
sS'rubriche'
p5402
S'14.6560319043'
p5403
sa(dp5404
S'tecnologia'
p5405
S'2.6875699888'
p5406
sS'scienza'
p5407
S'5.09518477044'
p5408
sS'persone'
p5409
S'3.07950727884'
p5410
sS'media'
p5411
S'2.1836506159'
p5412
sS'politica'
p5413
S'4.7032474804'
p5414
sS'spettacolo'
p5415
S'5.65509518477'
p5416
sS'economia'
p5417
S'9.01455767077'
p5418
sS'gallerie'
p5419
S'3.07950727884'
p5420
sS'salute'
p5421
S'0.951847704367'
p5422
sS'motori'
p5423
S'2.6875699888'
p5424
sS'esteri'
p5425
S'8.17469204927'
p5426
sS'cronaca'
p5427
S'16.1814109742'
p5428
sS'sport'
p5429
S'18.6450167973'
p5430
sS'rubriche'
p5431
S'13.1019036954'
p5432
sa(dp5433
S'tecnologia'
p5434
S'2.81018027572'
p5435
sS'scuola'
p5436
S'0.742311770944'
p5437
sS'scienza'
p5438
S'4.1887592789'
p5439
sS'persone'
p5440
S'3.02226935313'
p5441
sS'media'
p5442
S'1.74973488865'
p5443
sS'politica'
p5444
S'7.26405090138'
p5445
sS'spettacolo'
p5446
S'5.83244962884'
p5447
sS'economia'
p5448
S'5.0901378579'
p5449
sS'gallerie'
p5450
S'2.12089077413'
p5451
sS'motori'
p5452
S'1.16648992577'
p5453
sS'esteri'
p5454
S'11.0286320255'
p5455
sS'cronaca'
p5456
S'17.9745493107'
p5457
sS'sport'
p5458
S'17.0201484624'
p5459
sS'rubriche'
p5460
S'14.8462354189'
p5461
sasS'4'
p5462
(lp5463
(dp5464
a(dp5465
a(dp5466
a(dp5467
a(dp5468
a(dp5469
a(dp5470
a(dp5471
a(dp5472
S'tecnologia'
p5473
S'8.33333333333'
p5474
sS'storia'
p5475
S'1.04166666667'
p5476
sS'regione'
p5477
S'1.5625'
p5478
sS'scienza'
p5479
S'6.77083333333'
p5480
sS'persone'
p5481
S'5.72916666667'
p5482
sS'politica'
p5483
S'2.60416666667'
p5484
sS'spettacolo'
p5485
S'5.20833333333'
p5486
sS'economia'
p5487
S'21.3541666667'
p5488
sS'gallerie'
p5489
S'3.64583333333'
p5490
sS'motori'
p5491
S'1.5625'
p5492
sS'esteri'
p5493
S'2.08333333333'
p5494
sS'cronaca'
p5495
S'18.75'
p5496
sS'sport'
p5497
S'9.375'
p5498
sS'rubriche'
p5499
S'9.89583333333'
p5500
sa(dp5501
S'tecnologia'
p5502
S'2.91666666667'
p5503
sS'storia'
p5504
S'0.833333333333'
p5505
sS'regione'
p5506
S'1.25'
p5507
sS'scienza'
p5508
S'1.66666666667'
p5509
sS'persone'
p5510
S'21.25'
p5511
sS'media'
p5512
S'0.833333333333'
p5513
sS'politica'
p5514
S'2.08333333333'
p5515
sS'spettacolo'
p5516
S'4.16666666667'
p5517
sS'economia'
p5518
S'5.83333333333'
p5519
sS'esteri'
p5520
S'6.66666666667'
p5521
sS'viaggi'
p5522
S'0.833333333333'
p5523
sS'cronaca'
p5524
S'24.5833333333'
p5525
sS'sport'
p5526
S'9.16666666667'
p5527
sS'rubriche'
p5528
S'13.75'
p5529
sa(dp5530
a(dp5531
S'tecnologia'
p5532
S'1.48514851485'
p5533
sS'scuola'
p5534
S'0.990099009901'
p5535
sS'scienza'
p5536
S'4.9504950495'
p5537
sS'persone'
p5538
S'1.48514851485'
p5539
sS'politica'
p5540
S'1.48514851485'
p5541
sS'spettacolo'
p5542
S'6.43564356436'
p5543
sS'economia'
p5544
S'4.45544554455'
p5545
sS'gallerie'
p5546
S'2.47524752475'
p5547
sS'motori'
p5548
S'1.9801980198'
p5549
sS'esteri'
p5550
S'9.90099009901'
p5551
sS'cronaca'
p5552
S'28.2178217822'
p5553
sS'sport'
p5554
S'20.7920792079'
p5555
sS'rubriche'
p5556
S'12.3762376238'
p5557
sS'aereo'
p5558
S'0.990099009901'
p5559
sa(dp5560
S'tecnologia'
p5561
S'2.67042987408'
p5562
sS'scuola'
p5563
S'1.25922709509'
p5564
sS'scienza'
p5565
S'4.12505427703'
p5566
sS'persone'
p5567
S'4.60269214069'
p5568
sS'politica'
p5569
S'2.34476769431'
p5570
sS'norme'
p5571
S'0.911854103343'
p5572
sS'spettacolo'
p5573
S'9.35735996526'
p5574
sS'economia'
p5575
S'7.62049500651'
p5576
sS'gallerie'
p5577
S'3.86452453322'
p5578
sS'motori'
p5579
S'1.19409465914'
p5580
sS'esteri'
p5581
S'10.6382978723'
p5582
sS'cronaca'
p5583
S'22.7312201476'
p5584
sS'sport'
p5585
S'12.440295267'
p5586
sS'rubriche'
p5587
S'10.5948762484'
p5588
sa(dp5589
S'tecnologia'
p5590
S'3.17422995533'
p5591
sS'scienza'
p5592
S'6.18387020926'
p5593
sS'persone'
p5594
S'5.87820362097'
p5595
sS'politica'
p5596
S'2.60992240771'
p5597
sS'spettacolo'
p5598
S'7.33599811897'
p5599
sS'economia'
p5600
S'9.52268986598'
p5601
sS'gallerie'
p5602
S'4.51446038091'
p5603
sS'testata'
p5604
S'0.940512579356'
p5605
sS'moda'
p5606
S'0.822948506936'
p5607
sS'esteri'
p5608
S'5.61956266165'
p5609
sS'viaggi'
p5610
S'1.78697390078'
p5611
sS'cronaca'
p5612
S'19.7037385375'
p5613
sS'sport'
p5614
S'11.2391253233'
p5615
sS'rubriche'
p5616
S'13.4023042558'
p5617
sa(dp5618
S'tecnologia'
p5619
S'2.12863355459'
p5620
sS'scienza'
p5621
S'5.7907988098'
p5622
sS'persone'
p5623
S'4.09704737926'
p5624
sS'politica'
p5625
S'4.92103456168'
p5626
sS'spettacolo'
p5627
S'6.34012359808'
p5628
sS'economia'
p5629
S'13.0235751888'
p5630
sS'gallerie'
p5631
S'2.22018768597'
p5632
sS'salute'
p5633
S'0.984206912337'
p5634
sS'motori'
p5635
S'1.05287251087'
p5636
sS'social'
p5637
S'1.30464637217'
p5638
sS'esteri'
p5639
S'7.71343556878'
p5640
sS'cronaca'
p5641
S'15.9075303273'
p5642
sS'sport'
p5643
S'14.8088807507'
p5644
sS'rubriche'
p5645
S'13.2295719844'
p5646
sa(dp5647
S'tecnologia'
p5648
S'1.79405259277'
p5649
sS'regione'
p5650
S'0.835586139101'
p5651
sS'scienza'
p5652
S'5.25927746375'
p5653
sS'persone'
p5654
S'5.77537478496'
p5655
sS'politica'
p5656
S'4.59572376505'
p5657
sS'norme'
p5658
S'1.15507495699'
p5659
sS'spettacolo'
p5660
S'5.55419021873'
p5661
sS'economia'
p5662
S'9.0194150897'
p5663
sS'gallerie'
p5664
S'2.6787908577'
p5665
sS'motori'
p5666
S'1.91693290735'
p5667
sS'esteri'
p5668
S'8.74907839764'
p5669
sS'cronaca'
p5670
S'18.9481445072'
p5671
sS'sport'
p5672
S'11.0592283116'
p5673
sS'rubriche'
p5674
S'15.9498648317'
p5675
sa(dp5676
S'tecnologia'
p5677
S'2.65160815124'
p5678
sS'scienza'
p5679
S'6.45715688682'
p5680
sS'persone'
p5681
S'5.47507979376'
p5682
sS'politica'
p5683
S'3.01988706113'
p5684
sS'spettacolo'
p5685
S'6.7272280874'
p5686
sS'economia'
p5687
S'10.2872575497'
p5688
sS'gallerie'
p5689
S'2.18512153204'
p5690
sS'impresa'
p5691
S'1.22759636631'
p5692
sS'motori'
p5693
S'0.85931745642'
p5694
sS'esteri'
p5695
S'5.86791063098'
p5696
sS'cronaca'
p5697
S'21.9003191751'
p5698
sS'sport'
p5699
S'13.0616253376'
p5700
sS'rubriche'
p5701
S'12.0795482445'
p5702
sS'salute'
p5703
S'0.908421311073'
p5704
sa(dp5705
S'tecnologia'
p5706
S'3.96250532595'
p5707
sS'scuola'
p5708
S'0.97997443545'
p5709
sS'scienza'
p5710
S'4.64422667235'
p5711
sS'persone'
p5712
S'6.2207072859'
p5713
sS'politica'
p5714
S'3.5790370686'
p5715
sS'spettacolo'
p5716
S'10.5666808692'
p5717
sS'economia'
p5718
S'3.70685982105'
p5719
sS'gallerie'
p5720
S'5.32594801875'
p5721
sS'salute'
p5722
S'1.23561994035'
p5723
sS'motori'
p5724
S'1.5338730294'
p5725
sS'esteri'
p5726
S'3.96250532595'
p5727
sS'cronaca'
p5728
S'26.1610566681'
p5729
sS'sport'
p5730
S'15.4665530464'
p5731
sS'rubriche'
p5732
S'9.2884533447'
p5733
sa(dp5734
S'tecnologia'
p5735
S'1.22481232714'
p5736
sS'migliori'
p5737
S'0.869221651521'
p5738
sS'scienza'
p5739
S'4.03002765705'
p5740
sS'persone'
p5741
S'3.16080600553'
p5742
sS'politica'
p5743
S'5.64994073489'
p5744
sS'spettacolo'
p5745
S'10.0355590676'
p5746
sS'economia'
p5747
S'3.67443698143'
p5748
sS'gallerie'
p5749
S'2.0545239036'
p5750
sS'salute'
p5751
S'0.829711576452'
p5752
sS'motori'
p5753
S'2.96325563019'
p5754
sS'esteri'
p5755
S'3.95100750691'
p5756
sS'cronaca'
p5757
S'23.7455551166'
p5758
sS'sport'
p5759
S'21.2169103121'
p5760
sS'rubriche'
p5761
S'12.0900829712'
p5762
sa(dp5763
S'tecnologia'
p5764
S'1.82133564614'
p5765
sS'scienza'
p5766
S'2.32003469211'
p5767
sS'persone'
p5768
S'2.88378143972'
p5769
sS'politica'
p5770
S'3.90286209887'
p5771
sS'spettacolo'
p5772
S'7.71899392888'
p5773
sS'economia'
p5774
S'5.33391153513'
p5775
sS'gallerie'
p5776
S'3.92454466609'
p5777
sS'impresa'
p5778
S'0.823937554206'
p5779
sS'motori'
p5780
S'2.4501300954'
p5781
sS'moda'
p5782
S'1.19254119688'
p5783
sS'esteri'
p5784
S'7.50216825672'
p5785
sS'cronaca'
p5786
S'21.682567216'
p5787
sS'sport'
p5788
S'18.8204683435'
p5789
sS'rubriche'
p5790
S'13.0962705984'
p5791
sa(dp5792
S'tecnologia'
p5793
S'2.74841437632'
p5794
sS'scienza'
p5795
S'3.33568240545'
p5796
sS'persone'
p5797
S'4.1108762039'
p5798
sS'politica'
p5799
S'3.26521024195'
p5800
sS'spettacolo'
p5801
S'7.79891942683'
p5802
sS'economia'
p5803
S'9.18487197557'
p5804
sS'gallerie'
p5805
S'3.71153394409'
p5806
sS'salute'
p5807
S'1.33897110641'
p5808
sS'motori'
p5809
S'4.86257928118'
p5810
sS'moda'
p5811
S'1.64435048156'
p5812
sS'esteri'
p5813
S'8.52713178295'
p5814
sS'cronaca'
p5815
S'18.8865398168'
p5816
sS'sport'
p5817
S'9.91308433169'
p5818
sS'rubriche'
p5819
S'12.8964059197'
p5820
sa(dp5821
S'canali'
p5822
S'1.36331021287'
p5823
sS'tecnologia'
p5824
S'2.6309495336'
p5825
sS'scienza'
p5826
S'3.51590528582'
p5827
sS'persone'
p5828
S'4.0181774695'
p5829
sS'politica'
p5830
S'4.40086103803'
p5831
sS'spettacolo'
p5832
S'7.62975364745'
p5833
sS'economia'
p5834
S'8.63429801483'
p5835
sS'gallerie'
p5836
S'4.18560153073'
p5837
sS'motori'
p5838
S'1.55465199713'
p5839
sS'moda'
p5840
S'1.12413298254'
p5841
sS'esteri'
p5842
S'6.26644343459'
p5843
sS'cronaca'
p5844
S'20.5931595312'
p5845
sS'sport'
p5846
S'12.7959818225'
p5847
sS'rubriche'
p5848
S'13.6809375747'
p5849
sa(dp5850
S'tecnologia'
p5851
S'2.45688636901'
p5852
sS'scienza'
p5853
S'2.22064729506'
p5854
sS'persone'
p5855
S'3.42546657217'
p5856
sS'politica'
p5857
S'3.07110796126'
p5858
sS'spettacolo'
p5859
S'7.20529175526'
p5860
sS'economia'
p5861
S'7.70139381054'
p5862
sS'gallerie'
p5863
S'2.40963855422'
p5864
sS'salute'
p5865
S'1.53555398063'
p5866
sS'motori'
p5867
S'2.0552799433'
p5868
sS'esteri'
p5869
S'7.48877864399'
p5870
sS'viaggi'
p5871
S'1.13394755493'
p5872
sS'cronaca'
p5873
S'21.6158752658'
p5874
sS'sport'
p5875
S'17.8124261753'
p5876
sS'rubriche'
p5877
S'13.4183794'
p5878
sa(dp5879
S'tecnologia'
p5880
S'1.27607361963'
p5881
sS'scienza'
p5882
S'3.9754601227'
p5883
sS'persone'
p5884
S'2.13496932515'
p5885
sS'politica'
p5886
S'2.08588957055'
p5887
sS'spettacolo'
p5888
S'7.73006134969'
p5889
sS'economia'
p5890
S'8.88343558282'
p5891
sS'gallerie'
p5892
S'3.58282208589'
p5893
sS'salute'
p5894
S'1.00613496933'
p5895
sS'motori'
p5896
S'1.17791411043'
p5897
sS'esteri'
p5898
S'6.74846625767'
p5899
sS'viaggi'
p5900
S'0.78527607362'
p5901
sS'cronaca'
p5902
S'20.6380368098'
p5903
sS'sport'
p5904
S'18.2576687117'
p5905
sS'rubriche'
p5906
S'15.8036809816'
p5907
sa(dp5908
S'tecnologia'
p5909
S'1.82315405652'
p5910
sS'regione'
p5911
S'0.865998176846'
p5912
sS'scienza'
p5913
S'4.83135824977'
p5914
sS'persone'
p5915
S'3.46399270738'
p5916
sS'politica'
p5917
S'2.91704649043'
p5918
sS'spettacolo'
p5919
S'11.6226071103'
p5920
sS'economia'
p5921
S'6.65451230629'
p5922
sS'gallerie'
p5923
S'1.4129443938'
p5924
sS'salute'
p5925
S'0.729261622607'
p5926
sS'motori'
p5927
S'1.54968094804'
p5928
sS'esteri'
p5929
S'13.0811303555'
p5930
sS'cronaca'
p5931
S'19.5077484047'
p5932
sS'sport'
p5933
S'12.57976299'
p5934
sS'rubriche'
p5935
S'14.129443938'
p5936
sa(dp5937
S'tecnologia'
p5938
S'1.87239944521'
p5939
sS'scienza'
p5940
S'2.14979195562'
p5941
sS'persone'
p5942
S'4.47295423024'
p5943
sS'media'
p5944
S'1.14424410541'
p5945
sS'politica'
p5946
S'2.66990291262'
p5947
sS'spettacolo'
p5948
S'7.24687933426'
p5949
sS'economia'
p5950
S'6.41470180305'
p5951
sS'gallerie'
p5952
S'2.32316227462'
p5953
sS'giochi'
p5954
S'0.693481276006'
p5955
sS'motori'
p5956
S'0.762829403606'
p5957
sS'esteri'
p5958
S'10.6449375867'
p5959
sS'cronaca'
p5960
S'13.8696255201'
p5961
sS'sport'
p5962
S'30.0624133148'
p5963
sS'rubriche'
p5964
S'11.3037447989'
p5965
sa(dp5966
S'tecnologia'
p5967
S'2.74237157204'
p5968
sS'scienza'
p5969
S'3.49555813055'
p5970
sS'persone'
p5971
S'2.5685592893'
p5972
sS'media'
p5973
S'1.79606025492'
p5974
sS'politica'
p5975
S'2.58787176516'
p5976
sS'mare'
p5977
S'1.02356122055'
p5978
sS'spettacolo'
p5979
S'7.49324063345'
p5980
sS'economia'
p5981
S'5.58130552337'
p5982
sS'gallerie'
p5983
S'4.57705677868'
p5984
sS'motori'
p5985
S'0.946311317111'
p5986
sS'esteri'
p5987
S'7.95674005407'
p5988
sS'cronaca'
p5989
S'16.9563538046'
p5990
sS'sport'
p5991
S'23.5612205485'
p5992
sS'rubriche'
p5993
S'10.718424102'
p5994
sa(dp5995
S'tecnologia'
p5996
S'2.53892215569'
p5997
sS'scuola'
p5998
S'0.958083832335'
p5999
sS'scienza'
p6000
S'4.31137724551'
p6001
sS'persone'
p6002
S'3.83233532934'
p6003
sS'media'
p6004
S'0.814371257485'
p6005
sS'politica'
p6006
S'5.84431137725'
p6007
sS'spettacolo'
p6008
S'6.08383233533'
p6009
sS'economia'
p6010
S'8.31137724551'
p6011
sS'gallerie'
p6012
S'5.12574850299'
p6013
sS'motori'
p6014
S'1.53293413174'
p6015
sS'esteri'
p6016
S'11.6167664671'
p6017
sS'cronaca'
p6018
S'14.8023952096'
p6019
sS'sport'
p6020
S'15.7365269461'
p6021
sS'rubriche'
p6022
S'11.2814371257'
p6023
sa(dp6024
S'tecnologia'
p6025
S'3.96659707724'
p6026
sS'migliori'
p6027
S'1.27580607748'
p6028
sS'scienza'
p6029
S'5.52076084435'
p6030
sS'persone'
p6031
S'7.49246114591'
p6032
sS'politica'
p6033
S'6.00788680121'
p6034
sS'spettacolo'
p6035
S'6.75017397356'
p6036
sS'economia'
p6037
S'6.5182092322'
p6038
sS'gallerie'
p6039
S'2.62120157736'
p6040
sS'impresa'
p6041
S'1.97170030155'
p6042
sS'motori'
p6043
S'1.09023428439'
p6044
sS'esteri'
p6045
S'8.16515889585'
p6046
sS'cronaca'
p6047
S'12.5260960334'
p6048
sS'sport'
p6049
S'13.4307585247'
p6050
sS'rubriche'
p6051
S'15.2632799814'
p6052
sa(dp6053
S'tecnologia'
p6054
S'2.67767767768'
p6055
sS'regione'
p6056
S'1.27627627628'
p6057
sS'scienza'
p6058
S'5.83083083083'
p6059
sS'persone'
p6060
S'4.82982982983'
p6061
sS'media'
p6062
S'1.22622622623'
p6063
sS'politica'
p6064
S'5.03003003003'
p6065
sS'spettacolo'
p6066
S'3.92892892893'
p6067
sS'economia'
p6068
S'7.98298298298'
p6069
sS'gallerie'
p6070
S'3.72872872873'
p6071
sS'salute'
p6072
S'1.5015015015'
p6073
sS'esteri'
p6074
S'6.63163163163'
p6075
sS'cronaca'
p6076
S'17.2922922923'
p6077
sS'sport'
p6078
S'15.8408408408'
p6079
sS'rubriche'
p6080
S'14.1891891892'
p6081
sasS'7'
p6082
(lp6083
(dp6084
S'tecnologia'
p6085
S'2.64565156206'
p6086
sS'regione'
p6087
S'1.7168589924'
p6088
sS'scienza'
p6089
S'4.50323670138'
p6090
sS'persone'
p6091
S'2.47678018576'
p6092
sS'media'
p6093
S'1.12580917534'
p6094
sS'politica'
p6095
S'2.67379679144'
p6096
sS'spettacolo'
p6097
S'6.83929074022'
p6098
sS'economia'
p6099
S'15.3110047847'
p6100
sS'gallerie'
p6101
S'3.20855614973'
p6102
sS'esteri'
p6103
S'7.99324514495'
p6104
sS'viaggi'
p6105
S'1.15395440473'
p6106
sS'cronaca'
p6107
S'18.0410920349'
p6108
sS'sport'
p6109
S'14.4385026738'
p6110
sS'rubriche'
p6111
S'10.1322825781'
p6112
sa(dp6113
S'testata'
p6114
S'100.0'
p6115
sa(dp6116
a(dp6117
a(dp6118
a(dp6119
a(dp6120
a(dp6121
a(dp6122
a(dp6123
S'tecnologia'
p6124
S'3.07065217391'
p6125
sS'regione'
p6126
S'1.14130434783'
p6127
sS'scuola'
p6128
S'1.19565217391'
p6129
sS'scienza'
p6130
S'3.58695652174'
p6131
sS'persone'
p6132
S'4.34782608696'
p6133
sS'politica'
p6134
S'3.07065217391'
p6135
sS'spettacolo'
p6136
S'6.27717391304'
p6137
sS'economia'
p6138
S'14.9184782609'
p6139
sS'gallerie'
p6140
S'3.96739130435'
p6141
sS'esteri'
p6142
S'5.35326086957'
p6143
sS'viaggi'
p6144
S'3.20652173913'
p6145
sS'cronaca'
p6146
S'18.3695652174'
p6147
sS'sport'
p6148
S'13.6413043478'
p6149
sS'rubriche'
p6150
S'10.4347826087'
p6151
sa(dp6152
S'tecnologia'
p6153
S'3.20557491289'
p6154
sS'scuola'
p6155
S'1.2543554007'
p6156
sS'scienza'
p6157
S'2.16027874564'
p6158
sS'persone'
p6159
S'2.71777003484'
p6160
sS'media'
p6161
S'1.18466898955'
p6162
sS'politica'
p6163
S'2.99651567944'
p6164
sS'spettacolo'
p6165
S'9.26829268293'
p6166
sS'economia'
p6167
S'10.4529616725'
p6168
sS'gallerie'
p6169
S'1.74216027875'
p6170
sS'motori'
p6171
S'1.5331010453'
p6172
sS'esteri'
p6173
S'7.52613240418'
p6174
sS'cronaca'
p6175
S'15.5400696864'
p6176
sS'sport'
p6177
S'21.4634146341'
p6178
sS'rubriche'
p6179
S'12.7526132404'
p6180
sa(dp6181
S'storia'
p6182
S'7.14285714286'
p6183
sS'aereo'
p6184
S'7.14285714286'
p6185
sS'spettacolo'
p6186
S'35.7142857143'
p6187
sS'motori'
p6188
S'14.2857142857'
p6189
sS'cronaca'
p6190
S'14.2857142857'
p6191
sS'sport'
p6192
S'7.14285714286'
p6193
sS'rubriche'
p6194
S'14.2857142857'
p6195
sa(dp6196
a(dp6197
a(dp6198
a(dp6199
a(dp6200
a(dp6201
a(dp6202
a(dp6203
S'tecnologia'
p6204
S'2.04862059547'
p6205
sS'politica'
p6206
S'2.34908494947'
p6207
sS'scienza'
p6208
S'4.47965036875'
p6209
sS'moda'
p6210
S'3.44168260038'
p6211
sS'media'
p6212
S'1.52963671128'
p6213
sS'persone'
p6214
S'3.08658836384'
p6215
sS'spettacolo'
p6216
S'5.62687790221'
p6217
sS'economia'
p6218
S'8.90467085496'
p6219
sS'gallerie'
p6220
S'2.13056541928'
p6221
sS'esteri'
p6222
S'6.36438131658'
p6223
sS'viaggi'
p6224
S'1.85741600656'
p6225
sS'cronaca'
p6226
S'23.7913138487'
p6227
sS'sport'
p6228
S'18.1371210052'
p6229
sS'rubriche'
p6230
S'9.50559956296'
p6231
sa(dp6232
S'tecnologia'
p6233
S'1.78223336118'
p6234
sS'scienza'
p6235
S'4.81759955444'
p6236
sS'persone'
p6237
S'4.39988861041'
p6238
sS'media'
p6239
S'1.22528543581'
p6240
sS'politica'
p6241
S'2.58980785297'
p6242
sS'spettacolo'
p6243
S'5.31885268727'
p6244
sS'economia'
p6245
S'8.60484544695'
p6246
sS'gallerie'
p6247
S'3.14675577833'
p6248
sS'salute'
p6249
S'1.00250626566'
p6250
sS'esteri'
p6251
S'5.43024227235'
p6252
sS'viaggi'
p6253
S'2.25563909774'
p6254
sS'cronaca'
p6255
S'21.3311055416'
p6256
sS'sport'
p6257
S'21.888053467'
p6258
sS'rubriche'
p6259
S'11.1946532999'
p6260
sa(dp6261
S'cronaca'
p6262
S'26.3157894737'
p6263
sS'politica'
p6264
S'5.26315789474'
p6265
sS'piazza'
p6266
S'5.26315789474'
p6267
sS'rubriche'
p6268
S'57.8947368421'
p6269
sS'persone'
p6270
S'5.26315789474'
p6271
sa(dp6272
a(dp6273
a(dp6274
a(dp6275
a(dp6276
a(dp6277
a(dp6278
a(dp6279
a(dp6280
S'canali'
p6281
S'1.53721682848'
p6282
sS'tecnologia'
p6283
S'3.68122977346'
p6284
sS'scienza'
p6285
S'5.54207119741'
p6286
sS'persone'
p6287
S'4.61165048544'
p6288
sS'media'
p6289
S'1.13268608414'
p6290
sS'politica'
p6291
S'4.24757281553'
p6292
sS'spettacolo'
p6293
S'7.16019417476'
p6294
sS'economia'
p6295
S'7.76699029126'
p6296
sS'gallerie'
p6297
S'3.68122977346'
p6298
sS'motori'
p6299
S'1.21359223301'
p6300
sS'esteri'
p6301
S'6.27022653722'
p6302
sS'cronaca'
p6303
S'16.8689320388'
p6304
sS'sport'
p6305
S'18.6084142395'
p6306
sS'rubriche'
p6307
S'11.7718446602'
p6308
sasS'6'
p6309
(lp6310
(dp6311
S'tecnologia'
p6312
S'2.71812080537'
p6313
sS'scienza'
p6314
S'2.71812080537'
p6315
sS'persone'
p6316
S'2.44966442953'
p6317
sS'media'
p6318
S'1.14093959732'
p6319
sS'politica'
p6320
S'14.5302013423'
p6321
sS'spettacolo'
p6322
S'4.46308724832'
p6323
sS'economia'
p6324
S'5.10067114094'
p6325
sS'gallerie'
p6326
S'2.78523489933'
p6327
sS'motori'
p6328
S'1.71140939597'
p6329
sS'moda'
p6330
S'1.1744966443'
p6331
sS'esteri'
p6332
S'5.5033557047'
p6333
sS'cronaca'
p6334
S'15.7382550336'
p6335
sS'sport'
p6336
S'16.5100671141'
p6337
sS'rubriche'
p6338
S'18.1208053691'
p6339
sa(dp6340
S'cronaca'
p6341
S'80.0'
p6342
sS'sport'
p6343
S'20.0'
p6344
sa(dp6345
a(dp6346
a(dp6347
a(dp6348
a(dp6349
a(dp6350
a(dp6351
a(dp6352
a(dp6353
a(dp6354
a(dp6355
a(dp6356
a(dp6357
S'tecnologia'
p6358
S'1.35811293781'
p6359
sS'scienza'
p6360
S'3.69311412914'
p6361
sS'persone'
p6362
S'3.52632832976'
p6363
sS'media'
p6364
S'5.90898260662'
p6365
sS'politica'
p6366
S'5.21801286633'
p6367
sS'spettacolo'
p6368
S'3.62163450083'
p6369
sS'economia'
p6370
S'10.042887777'
p6371
sS'gallerie'
p6372
S'3.6454610436'
p6373
sS'impresa'
p6374
S'0.857755539671'
p6375
sS'motori'
p6376
S'1.50107219442'
p6377
sS'esteri'
p6378
S'7.64832022873'
p6379
sS'cronaca'
p6380
S'21.5868477484'
p6381
sS'sport'
p6382
S'11.0436025733'
p6383
sS'rubriche'
p6384
S'12.8425065523'
p6385
sa(dp6386
S'tecnologia'
p6387
S'6.25'
p6388
sS'prodotto'
p6389
S'6.25'
p6390
sS'spettacolo'
p6391
S'68.75'
p6392
sS'economia'
p6393
S'6.25'
p6394
sS'gallerie'
p6395
S'6.25'
p6396
sS'cronaca'
p6397
S'6.25'
p6398
sa(dp6399
a(dp6400
a(dp6401
a(dp6402
a(dp6403
a(dp6404
a(dp6405
a(dp6406
a(dp6407
a(dp6408
a(dp6409
a(dp6410
a(dp6411
a(dp6412
S'tecnologia'
p6413
S'2.01305767138'
p6414
sS'regione'
p6415
S'1.22415669206'
p6416
sS'scienza'
p6417
S'5.49510337323'
p6418
sS'persone'
p6419
S'3.01958650707'
p6420
sS'politica'
p6421
S'1.6050054407'
p6422
sS'spettacolo'
p6423
S'4.760609358'
p6424
sS'economia'
p6425
S'17.1926006529'
p6426
sS'gallerie'
p6427
S'4.59738846572'
p6428
sS'salute'
p6429
S'1.14254624592'
p6430
sS'motori'
p6431
S'2.91077257889'
p6432
sS'esteri'
p6433
S'8.92274211099'
p6434
sS'cronaca'
p6435
S'17.274211099'
p6436
sS'sport'
p6437
S'13.3841131665'
p6438
sS'rubriche'
p6439
S'9.33079434168'
p6440
sasS'9'
p6441
(lp6442
(dp6443
a(dp6444
S'tecnologia'
p6445
S'3.46534653465'
p6446
sS'regione'
p6447
S'1.48514851485'
p6448
sS'scuola'
p6449
S'2.47524752475'
p6450
sS'scienza'
p6451
S'5.44554455446'
p6452
sS'persone'
p6453
S'4.9504950495'
p6454
sS'politica'
p6455
S'3.9603960396'
p6456
sS'spettacolo'
p6457
S'8.91089108911'
p6458
sS'economia'
p6459
S'9.90099009901'
p6460
sS'gallerie'
p6461
S'4.9504950495'
p6462
sS'salute'
p6463
S'0.990099009901'
p6464
sS'esteri'
p6465
S'8.41584158416'
p6466
sS'cronaca'
p6467
S'11.3861386139'
p6468
sS'sport'
p6469
S'16.3366336634'
p6470
sS'rubriche'
p6471
S'15.3465346535'
p6472
sa(dp6473
S'tecnologia'
p6474
S'1.5899122807'
p6475
sS'scienza'
p6476
S'6.68859649123'
p6477
sS'persone'
p6478
S'3.61842105263'
p6479
sS'media'
p6480
S'2.71381578947'
p6481
sS'politica'
p6482
S'3.1524122807'
p6483
sS'spettacolo'
p6484
S'7.34649122807'
p6485
sS'economia'
p6486
S'6.44188596491'
p6487
sS'gallerie'
p6488
S'3.83771929825'
p6489
sS'salute'
p6490
S'1.5625'
p6491
sS'motori'
p6492
S'2.49451754386'
p6493
sS'esteri'
p6494
S'8.99122807018'
p6495
sS'cronaca'
p6496
S'18.1195175439'
p6497
sS'sport'
p6498
S'16.8311403509'
p6499
sS'rubriche'
p6500
S'9.18311403509'
p6501
sa(dp6502
S'tecnologia'
p6503
S'4.50505669629'
p6504
sS'scienza'
p6505
S'4.62764327306'
p6506
sS'persone'
p6507
S'2.81949126571'
p6508
sS'politica'
p6509
S'1.93073858413'
p6510
sS'spettacolo'
p6511
S'8.18265399939'
p6512
sS'economia'
p6513
S'8.76494023904'
p6514
sS'gallerie'
p6515
S'3.80018387987'
p6516
sS'motori'
p6517
S'2.26785167024'
p6518
sS'moda'
p6519
S'1.01133925835'
p6520
sS'esteri'
p6521
S'10.3892123812'
p6522
sS'cronaca'
p6523
S'16.9169475942'
p6524
sS'sport'
p6525
S'16.4878945755'
p6526
sS'rubriche'
p6527
S'11.1247318419'
p6528
sS'social'
p6529
S'0.888752681581'
p6530
sa(dp6531
S'tecnologia'
p6532
S'2.32858990944'
p6533
sS'scienza'
p6534
S'6.92108667529'
p6535
sS'persone'
p6536
S'2.52263906856'
p6537
sS'politica'
p6538
S'2.5873221216'
p6539
sS'spettacolo'
p6540
S'14.9417852523'
p6541
sS'economia'
p6542
S'6.66235446313'
p6543
sS'gallerie'
p6544
S'3.29883570505'
p6545
sS'musica'
p6546
S'0.776196636481'
p6547
sS'salute'
p6548
S'1.35834411384'
p6549
sS'motori'
p6550
S'0.905562742561'
p6551
sS'esteri'
p6552
S'7.50323415265'
p6553
sS'cronaca'
p6554
S'13.3893919793'
p6555
sS'sport'
p6556
S'16.8822768435'
p6557
sS'rubriche'
p6558
S'14.553686934'
p6559
sa(dp6560
S'tecnologia'
p6561
S'3.5'
p6562
sS'scienza'
p6563
S'3.33333333333'
p6564
sS'persone'
p6565
S'2.44444444444'
p6566
sS'politica'
p6567
S'3.22222222222'
p6568
sS'spettacolo'
p6569
S'15.2222222222'
p6570
sS'economia'
p6571
S'3.16666666667'
p6572
sS'gallerie'
p6573
S'5.22222222222'
p6574
sS'salute'
p6575
S'2.27777777778'
p6576
sS'motori'
p6577
S'2.11111111111'
p6578
sS'esteri'
p6579
S'7.05555555556'
p6580
sS'viaggi'
p6581
S'2.83333333333'
p6582
sS'cronaca'
p6583
S'12.0'
p6584
sS'sport'
p6585
S'17.7222222222'
p6586
sS'rubriche'
p6587
S'12.4444444444'
p6588
sa(dp6589
S'tecnologia'
p6590
S'1.60402202538'
p6591
sS'scienza'
p6592
S'2.48982523342'
p6593
sS'persone'
p6594
S'1.9391908068'
p6595
sS'media'
p6596
S'3.27986593249'
p6597
sS'politica'
p6598
S'2.27435958822'
p6599
sS'spettacolo'
p6600
S'6.36820684702'
p6601
sS'economia'
p6602
S'4.90782858511'
p6603
sS'gallerie'
p6604
S'4.69236293991'
p6605
sS'salute'
p6606
S'1.67584390711'
p6607
sS'esteri'
p6608
S'10.5099353603'
p6609
sS'viaggi'
p6610
S'5.86545367489'
p6611
sS'cronaca'
p6612
S'16.7823796983'
p6613
sS'sport'
p6614
S'18.9370361503'
p6615
sS'rubriche'
p6616
S'13.2152262389'
p6617
sa(dp6618
S'tecnologia'
p6619
S'2.68419611065'
p6620
sS'scuola'
p6621
S'1.3147082991'
p6622
sS'scienza'
p6623
S'3.58805806628'
p6624
sS'persone'
p6625
S'2.9033141605'
p6626
sS'politica'
p6627
S'2.87592440427'
p6628
sS'spettacolo'
p6629
S'7.88824979458'
p6630
sS'economia'
p6631
S'6.24486442071'
p6632
sS'gallerie'
p6633
S'2.32812927965'
p6634
sS'salute'
p6635
S'2.02684196111'
p6636
sS'motori'
p6637
S'2.87592440427'
p6638
sS'esteri'
p6639
S'10.9559024925'
p6640
sS'cronaca'
p6641
S'15.3930430019'
p6642
sS'sport'
p6643
S'20.1862503424'
p6644
sS'rubriche'
p6645
S'11.4763078609'
p6646
sa(dp6647
S'tecnologia'
p6648
S'4.0991902834'
p6649
sS'scienza'
p6650
S'3.44129554656'
p6651
sS'persone'
p6652
S'2.83400809717'
p6653
sS'volo'
p6654
S'1.69534412955'
p6655
sS'politica'
p6656
S'3.08704453441'
p6657
sS'spettacolo'
p6658
S'8.45141700405'
p6659
sS'economia'
p6660
S'5.28846153846'
p6661
sS'gallerie'
p6662
S'4.2004048583'
p6663
sS'salute'
p6664
S'1.89777327935'
p6665
sS'esteri'
p6666
S'13.2844129555'
p6667
sS'viaggi'
p6668
S'4.45344129555'
p6669
sS'cronaca'
p6670
S'12.8036437247'
p6671
sS'sport'
p6672
S'16.3714574899'
p6673
sS'rubriche'
p6674
S'11.5384615385'
p6675
sa(dp6676
S'tecnologia'
p6677
S'7.82447792757'
p6678
sS'scienza'
p6679
S'6.34417129262'
p6680
sS'persone'
p6681
S'3.62146444621'
p6682
sS'settembre'
p6683
S'1.45387258789'
p6684
sS'politica'
p6685
S'3.03991541105'
p6686
sS'norme'
p6687
S'1.85038329368'
p6688
sS'spettacolo'
p6689
S'9.30478456252'
p6690
sS'economia'
p6691
S'4.49378799894'
p6692
sS'gallerie'
p6693
S'2.43193232884'
p6694
sS'motori'
p6695
S'2.22045995242'
p6696
sS'esteri'
p6697
S'9.93920169178'
p6698
sS'cronaca'
p6699
S'12.3182659265'
p6700
sS'sport'
p6701
S'14.7237642083'
p6702
sS'rubriche'
p6703
S'11.6309807031'
p6704
sa(dp6705
S'tecnologia'
p6706
S'4.33204808347'
p6707
sS'scienza'
p6708
S'6.01043320481'
p6709
sS'persone'
p6710
S'2.10932184169'
p6711
sS'politica'
p6712
S'1.63302336131'
p6713
sS'spettacolo'
p6714
S'8.07439328646'
p6715
sS'economia'
p6716
S'5.19392152416'
p6717
sS'gallerie'
p6718
S'4.1279201633'
p6719
sS'musica'
p6720
S'1.22476752098'
p6721
sS'salute'
p6722
S'3.83306872307'
p6723
sS'esteri'
p6724
S'8.2558403266'
p6725
sS'viaggi'
p6726
S'7.21251984577'
p6727
sS'cronaca'
p6728
S'12.2930369698'
p6729
sS'sport'
p6730
S'16.3302336131'
p6731
sS'rubriche'
p6732
S'11.5445679292'
p6733
sa(dp6734
S'tecnologia'
p6735
S'3.242147923'
p6736
sS'scienza'
p6737
S'3.74873353597'
p6738
sS'persone'
p6739
S'2.27963525836'
p6740
sS'media'
p6741
S'1.92502532928'
p6742
sS'politica'
p6743
S'6.99088145897'
p6744
sS'spettacolo'
p6745
S'7.34549138804'
p6746
sS'economia'
p6747
S'2.98885511651'
p6748
sS'gallerie'
p6749
S'1.5704154002'
p6750
sS'motori'
p6751
S'2.02634245187'
p6752
sS'esteri'
p6753
S'4.8125633232'
p6754
sS'viaggi'
p6755
S'3.34346504559'
p6756
sS'cronaca'
p6757
S'8.40932117528'
p6758
sS'sport'
p6759
S'33.6372847011'
p6760
sS'rubriche'
p6761
S'9.11854103343'
p6762
sa(dp6763
S'tecnologia'
p6764
S'2.32967032967'
p6765
sS'economia'
p6766
S'1.75824175824'
p6767
sS'scienza'
p6768
S'2.98901098901'
p6769
sS'persone'
p6770
S'1.97802197802'
p6771
sS'media'
p6772
S'1.97802197802'
p6773
sS'politica'
p6774
S'3.2967032967'
p6775
sS'spettacolo'
p6776
S'9.18681318681'
p6777
sS'moda'
p6778
S'1.93406593407'
p6779
sS'gallerie'
p6780
S'3.73626373626'
p6781
sS'motori'
p6782
S'2.94505494505'
p6783
sS'esteri'
p6784
S'2.50549450549'
p6785
sS'cronaca'
p6786
S'9.84615384615'
p6787
sS'sport'
p6788
S'38.9450549451'
p6789
sS'rubriche'
p6790
S'10.5494505495'
p6791
sa(dp6792
S'tecnologia'
p6793
S'2.82752120641'
p6794
sS'scienza'
p6795
S'3.01602262017'
p6796
sS'persone'
p6797
S'3.91140433553'
p6798
sS'media'
p6799
S'1.10744580584'
p6800
sS'politica'
p6801
S'2.54476908577'
p6802
sS'spettacolo'
p6803
S'4.75966069746'
p6804
sS'economia'
p6805
S'3.60508953817'
p6806
sS'gallerie'
p6807
S'3.51083883129'
p6808
sS'motori'
p6809
S'1.5315739868'
p6810
sS'esteri'
p6811
S'4.78322337418'
p6812
sS'viaggi'
p6813
S'16.0933081998'
p6814
sS'cronaca'
p6815
S'13.9491046183'
p6816
sS'sport'
p6817
S'23.7040527804'
p6818
sS'rubriche'
p6819
S'8.62393967955'
p6820
sa(dp6821
S'tecnologia'
p6822
S'2.58421781264'
p6823
sS'scienza'
p6824
S'2.6303645593'
p6825
sS'persone'
p6826
S'3.57637286571'
p6827
sS'politica'
p6828
S'2.93031841255'
p6829
sS'spettacolo'
p6830
S'5.67604983849'
p6831
sS'economia'
p6832
S'4.63774803876'
p6833
sS'gallerie'
p6834
S'3.89940009229'
p6835
sS'motori'
p6836
S'8.83710198431'
p6837
sS'moda'
p6838
S'2.51499769266'
p6839
sS'esteri'
p6840
S'7.40655283802'
p6841
sS'viaggi'
p6842
S'11.0982925704'
p6843
sS'cronaca'
p6844
S'9.80618366405'
p6845
sS'sport'
p6846
S'19.7046608214'
p6847
sS'rubriche'
p6848
S'7.66035994462'
p6849
sa(dp6850
S'tecnologia'
p6851
S'3.20018157059'
p6852
sS'scienza'
p6853
S'4.10803449841'
p6854
sS'persone'
p6855
S'2.90512936904'
p6856
sS'politica'
p6857
S'3.99455288243'
p6858
sS'spettacolo'
p6859
S'7.33091239219'
p6860
sS'economia'
p6861
S'5.90104403087'
p6862
sS'gallerie'
p6863
S'2.5873808443'
p6864
sS'salute'
p6865
S'1.42986836133'
p6866
sS'motori'
p6867
S'4.74353154789'
p6868
sS'esteri'
p6869
S'4.72083522469'
p6870
sS'viaggi'
p6871
S'9.62324103495'
p6872
sS'cronaca'
p6873
S'13.1184748071'
p6874
sS'sport'
p6875
S'22.3785746709'
p6876
sS'rubriche'
p6877
S'8.14798002724'
p6878
sa(dp6879
S'tecnologia'
p6880
S'4.62302202917'
p6881
sS'regione'
p6882
S'1.67545764815'
p6883
sS'scienza'
p6884
S'5.02637294446'
p6885
sS'persone'
p6886
S'3.07167235495'
p6887
sS'settembre'
p6888
S'1.33416071983'
p6889
sS'politica'
p6890
S'4.00248215948'
p6891
sS'spettacolo'
p6892
S'5.24356189885'
p6893
sS'economia'
p6894
S'7.35339745579'
p6895
sS'gallerie'
p6896
S'5.11945392491'
p6897
sS'motori'
p6898
S'1.61340366119'
p6899
sS'esteri'
p6900
S'9.09090909091'
p6901
sS'cronaca'
p6902
S'13.9621470679'
p6903
sS'sport'
p6904
S'21.0363015824'
p6905
sS'rubriche'
p6906
S'9.09090909091'
p6907
sa(dp6908
S'canali'
p6909
S'1.20444718962'
p6910
sS'tecnologia'
p6911
S'6.76343421865'
p6912
sS'scienza'
p6913
S'5.18838789376'
p6914
sS'persone'
p6915
S'3.30450895615'
p6916
sS'politica'
p6917
S'4.84867201977'
p6918
sS'mare'
p6919
S'1.17356392835'
p6920
sS'spettacolo'
p6921
S'5.09573810994'
p6922
sS'economia'
p6923
S'6.51636812847'
p6924
sS'gallerie'
p6925
S'3.05744286597'
p6926
sS'motori'
p6927
S'1.51327980235'
p6928
sS'esteri'
p6929
S'5.55898702903'
p6930
sS'cronaca'
p6931
S'17.3563928351'
p6932
sS'sport'
p6933
S'15.6578134651'
p6934
sS'rubriche'
p6935
S'14.3607164917'
p6936
sa(dp6937
S'tecnologia'
p6938
S'2.68965517241'
p6939
sS'scienza'
p6940
S'5.72413793103'
p6941
sS'persone'
p6942
S'2.89655172414'
p6943
sS'settembre'
p6944
S'1.24137931034'
p6945
sS'politica'
p6946
S'2.06896551724'
p6947
sS'mare'
p6948
S'1.58620689655'
p6949
sS'spettacolo'
p6950
S'9.31034482759'
p6951
sS'economia'
p6952
S'4.68965517241'
p6953
sS'gallerie'
p6954
S'3.1724137931'
p6955
sS'motori'
p6956
S'1.93103448276'
p6957
sS'esteri'
p6958
S'4.20689655172'
p6959
sS'cronaca'
p6960
S'20.8965517241'
p6961
sS'sport'
p6962
S'20.0689655172'
p6963
sS'rubriche'
p6964
S'12.4137931034'
p6965
sa(dp6966
S'tecnologia'
p6967
S'3.11995696611'
p6968
sS'scienza'
p6969
S'2.47444862829'
p6970
sS'persone'
p6971
S'2.0979020979'
p6972
sS'media'
p6973
S'1.23722431415'
p6974
sS'politica'
p6975
S'2.20548682087'
p6976
sS'prodotto'
p6977
S'1.45239376009'
p6978
sS'spettacolo'
p6979
S'9.41366325982'
p6980
sS'economia'
p6981
S'4.1958041958'
p6982
sS'gallerie'
p6983
S'2.25927918236'
p6984
sS'moda'
p6985
S'1.07584722969'
p6986
sS'esteri'
p6987
S'4.94889725659'
p6988
sS'cronaca'
p6989
S'17.2673480366'
p6990
sS'sport'
p6991
S'28.187197418'
p6992
sS'rubriche'
p6993
S'14.093598709'
p6994
sa(dp6995
S'tecnologia'
p6996
S'2.44713708719'
p6997
sS'scienza'
p6998
S'2.70848182466'
p6999
sS'persone'
p7000
S'3.04110239962'
p7001
sS'guerra'
p7002
S'1.6155856498'
p7003
sS'media'
p7004
S'0.902827274887'
p7005
sS'politica'
p7006
S'2.80351627465'
p7007
sS'spettacolo'
p7008
S'15.8945117605'
p7009
sS'economia'
p7010
S'10.0498930862'
p7011
sS'gallerie'
p7012
S'5.41696364932'
p7013
sS'motori'
p7014
S'1.35424091233'
p7015
sS'esteri'
p7016
S'3.65882632454'
p7017
sS'cronaca'
p7018
S'12.0693751485'
p7019
sS'sport'
p7020
S'20.5987170349'
p7021
sS'rubriche'
p7022
S'11.0239961986'
p7023
sa(dp7024
S'tecnologia'
p7025
S'4.53975420115'
p7026
sS'scienza'
p7027
S'4.28893905192'
p7028
sS'persone'
p7029
S'4.74040632054'
p7030
sS'politica'
p7031
S'2.53323300727'
p7032
sS'norme'
p7033
S'1.30423877602'
p7034
sS'spettacolo'
p7035
S'9.35540506647'
p7036
sS'economia'
p7037
S'13.0173062453'
p7038
sS'gallerie'
p7039
S'4.66516177577'
p7040
sS'salute'
p7041
S'1.40456483572'
p7042
sS'motori'
p7043
S'1.85603210434'
p7044
sS'esteri'
p7045
S'4.76548783547'
p7046
sS'cronaca'
p7047
S'14.8733383496'
p7048
sS'sport'
p7049
S'14.7730122899'
p7050
sS'rubriche'
p7051
S'9.53097567093'
p7052
sa(dp7053
S'tecnologia'
p7054
S'2.87976961843'
p7055
sS'persone'
p7056
S'2.59179265659'
p7057
sS'scienza'
p7058
S'3.40772738181'
p7059
sS'moda'
p7060
S'3.19174466043'
p7061
sS'politica'
p7062
S'2.59179265659'
p7063
sS'spettacolo'
p7064
S'6.57547396208'
p7065
sS'economia'
p7066
S'9.88720902328'
p7067
sS'gallerie'
p7068
S'7.031437485'
p7069
sS'motori'
p7070
S'2.44780417567'
p7071
sS'esteri'
p7072
S'6.98344132469'
p7073
sS'viaggi'
p7074
S'3.02375809935'
p7075
sS'cronaca'
p7076
S'14.374850012'
p7077
sS'sport'
p7078
S'17.2066234701'
p7079
sS'rubriche'
p7080
S'9.98320134389'
p7081
sa(dp7082
S'tecnologia'
p7083
S'2.61904761905'
p7084
sS'scienza'
p7085
S'4.2619047619'
p7086
sS'persone'
p7087
S'3.11904761905'
p7088
sS'politica'
p7089
S'2.88095238095'
p7090
sS'spettacolo'
p7091
S'3.88095238095'
p7092
sS'economia'
p7093
S'12.0238095238'
p7094
sS'gallerie'
p7095
S'3.95238095238'
p7096
sS'salute'
p7097
S'1.69047619048'
p7098
sS'motori'
p7099
S'2.90476190476'
p7100
sS'esteri'
p7101
S'7.54761904762'
p7102
sS'viaggi'
p7103
S'3.59523809524'
p7104
sS'cronaca'
p7105
S'16.2142857143'
p7106
sS'sport'
p7107
S'19.4761904762'
p7108
sS'rubriche'
p7109
S'7.57142857143'
p7110
sa(dp7111
S'tecnologia'
p7112
S'2.60499734184'
p7113
sS'scienza'
p7114
S'4.51887293993'
p7115
sS'persone'
p7116
S'2.6581605529'
p7117
sS'politica'
p7118
S'1.38224348751'
p7119
sS'spettacolo'
p7120
S'7.07070707071'
p7121
sS'economia'
p7122
S'9.3567251462'
p7123
sS'gallerie'
p7124
S'4.59861775651'
p7125
sS'salute'
p7126
S'1.91387559809'
p7127
sS'motori'
p7128
S'2.44550770867'
p7129
sS'esteri'
p7130
S'10.7123870282'
p7131
sS'viaggi'
p7132
S'5.42264752791'
p7133
sS'cronaca'
p7134
S'18.4476342371'
p7135
sS'sport'
p7136
S'14.5135566188'
p7137
sS'rubriche'
p7138
S'8.82509303562'
p7139
sa(dp7140
S'tecnologia'
p7141
S'2.87769784173'
p7142
sS'scienza'
p7143
S'5.4786939679'
p7144
sS'persone'
p7145
S'2.7116768124'
p7146
sS'politica'
p7147
S'2.87769784173'
p7148
sS'spettacolo'
p7149
S'6.97288323188'
p7150
sS'economia'
p7151
S'8.7437742114'
p7152
sS'gallerie'
p7153
S'2.15827338129'
p7154
sS'motori'
p7155
S'3.54178195905'
p7156
sS'moda'
p7157
S'1.77089097952'
p7158
sS'esteri'
p7159
S'10.570005534'
p7160
sS'viaggi'
p7161
S'4.42722744881'
p7162
sS'cronaca'
p7163
S'13.060320974'
p7164
sS'sport'
p7165
S'18.4836745988'
p7166
sS'rubriche'
p7167
S'10.4039845047'
p7168
sa(dp7169
S'tecnologia'
p7170
S'3.16428261812'
p7171
sS'scienza'
p7172
S'3.59774599046'
p7173
sS'persone'
p7174
S'2.25400953619'
p7175
sS'politica'
p7176
S'3.16428261812'
p7177
sS'prodotto'
p7178
S'0.823580407456'
p7179
sS'spettacolo'
p7180
S'9.57954052883'
p7181
sS'economia'
p7182
S'10.1430429129'
p7183
sS'gallerie'
p7184
S'1.77719982661'
p7185
sS'motori'
p7186
S'2.68747290854'
p7187
sS'moda'
p7188
S'1.95058517555'
p7189
sS'esteri'
p7190
S'7.49891634157'
p7191
sS'cronaca'
p7192
S'12.3970524491'
p7193
sS'sport'
p7194
S'25.7477243173'
p7195
sS'rubriche'
p7196
S'9.53619419159'
p7197
sa(dp7198
S'tecnologia'
p7199
S'3.07652533609'
p7200
sS'scienza'
p7201
S'4.98965873837'
p7202
sS'persone'
p7203
S'2.86970010341'
p7204
sS'politica'
p7205
S'2.7145811789'
p7206
sS'spettacolo'
p7207
S'11.2202688728'
p7208
sS'economia'
p7209
S'10.4446742503'
p7210
sS'gallerie'
p7211
S'3.33505687694'
p7212
sS'salute'
p7213
S'1.29265770424'
p7214
sS'motori'
p7215
S'2.09410548087'
p7216
sS'moda'
p7217
S'0.982419855222'
p7218
sS'esteri'
p7219
S'7.00620475698'
p7220
sS'cronaca'
p7221
S'16.9596690796'
p7222
sS'sport'
p7223
S'17.373319545'
p7224
sS'rubriche'
p7225
S'9.85005170631'
p7226
sa(dp7227
S'tecnologia'
p7228
S'1.99855526126'
p7229
sS'scienza'
p7230
S'5.39369130749'
p7231
sS'persone'
p7232
S'3.03395136046'
p7233
sS'media'
p7234
S'1.51697568023'
p7235
sS'politica'
p7236
S'2.93763544426'
p7237
sS'spettacolo'
p7238
S'7.12737779918'
p7239
sS'economia'
p7240
S'9.39080183'
p7241
sS'gallerie'
p7242
S'2.23934505177'
p7243
sS'salute'
p7244
S'1.08355405731'
p7245
sS'motori'
p7246
S'1.34842282687'
p7247
sS'esteri'
p7248
S'7.15145677823'
p7249
sS'cronaca'
p7250
S'19.8651577173'
p7251
sS'sport'
p7252
S'16.7348904406'
p7253
sS'rubriche'
p7254
S'11.6301468818'
p7255
sa(dp7256
S'tecnologia'
p7257
S'3.11568680574'
p7258
sS'regione'
p7259
S'0.785694933622'
p7260
sS'scienza'
p7261
S'5.36439989163'
p7262
sS'persone'
p7263
S'4.9309130317'
p7264
sS'politica'
p7265
S'2.54673530209'
p7266
sS'spettacolo'
p7267
S'9.53671091845'
p7268
sS'economia'
p7269
S'7.42346247629'
p7270
sS'gallerie'
p7271
S'3.57626659442'
p7272
sS'salute'
p7273
S'0.67732321864'
p7274
sS'motori'
p7275
S'1.27336765104'
p7276
sS'esteri'
p7277
S'9.61798970469'
p7278
sS'cronaca'
p7279
S'15.1720400975'
p7280
sS'sport'
p7281
S'20.4822541317'
p7282
sS'rubriche'
p7283
S'10.0243836359'
p7284
sasS'8'
p7285
(lp7286
(dp7287
S'tecnologia'
p7288
S'2.39190432383'
p7289
sS'regione'
p7290
S'0.919963201472'
p7291
sS'scienza'
p7292
S'6.99172033119'
p7293
sS'persone'
p7294
S'1.47194112236'
p7295
sS'politica'
p7296
S'2.48390064397'
p7297
sS'spettacolo'
p7298
S'7.45170193192'
p7299
sS'economia'
p7300
S'4.8758049678'
p7301
sS'gallerie'
p7302
S'4.69181232751'
p7303
sS'salute'
p7304
S'1.7479300828'
p7305
sS'motori'
p7306
S'0.919963201472'
p7307
sS'esteri'
p7308
S'5.70377184913'
p7309
sS'cronaca'
p7310
S'24.5630174793'
p7311
sS'sport'
p7312
S'20.0551977921'
p7313
sS'rubriche'
p7314
S'10.5795768169'
p7315
sa(dp7316
S'tecnologia'
p7317
S'1.31180625631'
p7318
sS'scienza'
p7319
S'4.84359233098'
p7320
sS'persone'
p7321
S'1.81634712412'
p7322
sS'media'
p7323
S'0.908173562059'
p7324
sS'politica'
p7325
S'4.33905146317'
p7326
sS'spettacolo'
p7327
S'8.17356205853'
p7328
sS'economia'
p7329
S'4.23814328961'
p7330
sS'gallerie'
p7331
S'10.2926337033'
p7332
sS'motori'
p7333
S'0.908173562059'
p7334
sS'moda'
p7335
S'1.10998990918'
p7336
sS'esteri'
p7337
S'4.23814328961'
p7338
sS'cronaca'
p7339
S'18.1634712412'
p7340
sS'sport'
p7341
S'17.961654894'
p7342
sS'rubriche'
p7343
S'16.1453077699'
p7344
sa(dp7345
S'tecnologia'
p7346
S'2.35383447229'
p7347
sS'festa'
p7348
S'1.67046317388'
p7349
sS'scienza'
p7350
S'2.77145026576'
p7351
sS'persone'
p7352
S'4.66970387244'
p7353
sS'politica'
p7354
S'3.22703113136'
p7355
sS'spettacolo'
p7356
S'4.93545937737'
p7357
sS'economia'
p7358
S'8.1245254366'
p7359
sS'gallerie'
p7360
S'4.47987851177'
p7361
sS'salute'
p7362
S'3.03720577069'
p7363
sS'esteri'
p7364
S'6.30220197418'
p7365
sS'viaggi'
p7366
S'1.86028853455'
p7367
sS'cronaca'
p7368
S'14.9962034928'
p7369
sS'sport'
p7370
S'21.5261958998'
p7371
sS'rubriche'
p7372
S'13.2498101746'
p7373
sa(dp7374
S'tecnologia'
p7375
S'4.39189189189'
p7376
sS'scienza'
p7377
S'2.83783783784'
p7378
sS'persone'
p7379
S'2.80405405405'
p7380
sS'politica'
p7381
S'3.81756756757'
p7382
sS'spettacolo'
p7383
S'4.18918918919'
p7384
sS'economia'
p7385
S'7.06081081081'
p7386
sS'gallerie'
p7387
S'3.44594594595'
p7388
sS'salute'
p7389
S'1.25'
p7390
sS'moda'
p7391
S'2.66891891892'
p7392
sS'esteri'
p7393
S'4.86486486486'
p7394
sS'viaggi'
p7395
S'15.8445945946'
p7396
sS'cronaca'
p7397
S'16.1148648649'
p7398
sS'sport'
p7399
S'15.777027027'
p7400
sS'rubriche'
p7401
S'8.58108108108'
p7402
sa(dp7403
S'tecnologia'
p7404
S'2.65734265734'
p7405
sS'scienza'
p7406
S'3.4965034965'
p7407
sS'persone'
p7408
S'3.74125874126'
p7409
sS'politica'
p7410
S'5.87412587413'
p7411
sS'spettacolo'
p7412
S'7.48251748252'
p7413
sS'economia'
p7414
S'4.16083916084'
p7415
sS'gallerie'
p7416
S'6.25874125874'
p7417
sS'salute'
p7418
S'2.9020979021'
p7419
sS'moda'
p7420
S'1.5034965035'
p7421
sS'esteri'
p7422
S'5.0'
p7423
sS'viaggi'
p7424
S'3.39160839161'
p7425
sS'cronaca'
p7426
S'19.8951048951'
p7427
sS'sport'
p7428
S'15.6643356643'
p7429
sS'rubriche'
p7430
S'10.0'
p7431
sa(dp7432
S'tecnologia'
p7433
S'4.98405103668'
p7434
sS'regione'
p7435
S'3.70813397129'
p7436
sS'scienza'
p7437
S'4.02711323764'
p7438
sS'persone'
p7439
S'6.18022328549'
p7440
sS'politica'
p7441
S'2.79106858054'
p7442
sS'spettacolo'
p7443
S'6.29984051037'
p7444
sS'economia'
p7445
S'5.74162679426'
p7446
sS'gallerie'
p7447
S'4.94417862839'
p7448
sS'moda'
p7449
S'5.66188197767'
p7450
sS'esteri'
p7451
S'5.82137161085'
p7452
sS'viaggi'
p7453
S'2.71132376396'
p7454
sS'cronaca'
p7455
S'14.2743221691'
p7456
sS'sport'
p7457
S'15.7496012759'
p7458
sS'rubriche'
p7459
S'8.33333333333'
p7460
sa(dp7461
a(dp7462
a(dp7463
a(dp7464
a(dp7465
a(dp7466
a(dp7467
a(dp7468
a(dp7469
a(dp7470
a(dp7471
a(dp7472
a(dp7473
a(dp7474
a(dp7475
a(dp7476
a(dp7477
a(dp7478
a(dp7479
a(dp7480
a(dp7481
a(dp7482
a(dp7483
a(dp7484
a(dp7485
as.