(dp0
I1
(dp1
S'tecnologia'
p2
F2.1476537135251768
sS'storia'
p3
F0.0463812539071165
sS'guerra'
p4
F0.026215491338804978
sS'volo'
p5
F0.06251386396176571
sS'politica'
p6
F4.778277440561415
sS'economia'
p7
F9.509165339087296
sS'motori'
p8
F1.6152775817217528
sS'esteri'
p9
F11.517675290891125
sS'sport'
p10
F12.661074028514388
sS'rossi'
p11
F0.013107745669402489
sS'rubriche'
p12
F16.513742967190304
sS'regione'
p13
F0.4012986751093992
sS'moda'
p14
F0.31357760793724415
sS'media'
p15
F1.1706225170904838
sS'spettacolo'
p16
F7.463348726532095
sS'gallerie'
p17
F3.361632620137531
sS'musica'
p18
F0.04738954203553208
sS'salute'
p19
F0.7199177236887213
sS'canali'
p20
F0.031256931980882856
sS'persone'
p21
F4.42840146000121
sS'norme'
p22
F0.4496965052733469
sS'dicembre'
p23
F0.013107745669402489
sS'festa'
p24
F0.16737582931698564
sS'scienza'
p25
F4.623001068785417
sS'prodotto'
p26
F0.13107745669402487
sS'social'
p27
F0.02319062695355825
sS'cronaca'
p28
F17.76402024642562
ssI2
(dp29
S'tecnologia'
p30
F2.141505561506963
sS'festa'
p31
F0.09110659471581752
sS'volo'
p32
F0.028032798374097695
sS'politica'
p33
F4.297027522200976
sS'economia'
p34
F10.54834155962476
sS'motori'
p35
F1.289508725208494
sS'esteri'
p36
F7.30254397645245
sS'sport'
p37
F13.98636404593374
sS'rubriche'
p38
F14.966510817656658
sS'scuola'
p39
F0.20123544547120129
sS'regione'
p40
F0.32938538089564795
sS'moda'
p41
F0.14016399187048847
sS'media'
p42
F0.6047075077841074
sS'spettacolo'
p43
F10.66247509586216
sS'gallerie'
p44
F3.995674939679425
sS'musica'
p45
F0.06908082456474075
sS'salute'
p46
F1.060240481363195
sS'migliori'
p47
F0.03003514111510467
sS'persone'
p48
F4.182893985963577
sS'norme'
p49
F0.8900413483776018
sS'viaggi'
p50
F0.2983490684100398
sS'aereo'
p51
F0.2492916712553688
sS'scienza'
p52
F4.420171600772904
sS'prodotto'
p53
F0.12114173583092216
sS'cronaca'
p54
F18.094170179109557
ssI3
(dp55
S'tecnologia'
p56
F3.0593837939245256
sS'storia'
p57
F0.00721552781585973
sS'politica'
p58
F3.932462659643553
sS'economia'
p59
F9.611083050725162
sS'motori'
p60
F1.3276571181181904
sS'esteri'
p61
F12.071578035933328
sS'sport'
p62
F12.518940760516632
sS'rubriche'
p63
F13.983692907136158
sS'scuola'
p64
F1.1616999783534165
sS'regione'
p65
F0.35356086297712674
sS'prodotto'
p66
F0.00721552781585973
sS'spettacolo'
p67
F7.821632152391947
sS'gallerie'
p68
F1.9048993433869688
sS'salute'
p69
F0.6205353921639367
sS'persone'
p70
F3.283065156216177
sS'norme'
p71
F0.3896385020564254
sS'aereo'
p72
F0.5844577530846382
sS'scienza'
p73
F5.209611083050725
sS'festa'
p74
F0.4978714192943214
sS'moda'
p75
F0.4040695576881449
sS'intervista'
p76
F0.00721552781585973
sS'cronaca'
p77
F21.242513889891047
ssI4
(dp78
S'tecnologia'
p79
F2.668416447944007
sS'storia'
p80
F0.006033728542552871
sS'politica'
p81
F4.044106555646061
sS'economia'
p82
F8.459287416659125
sS'motori'
p83
F1.6110055208616165
sS'esteri'
p84
F8.394424834826681
sS'sport'
p85
F16.920083265453886
sS'rubriche'
p86
F13.880592512142877
sS'mare'
p87
F0.07994690318882552
sS'scuola'
p88
F0.18553715268350077
sS'regione'
p89
F0.16592753492020396
sS'media'
p90
F0.3182791806196639
sS'testata'
p91
F0.06033728542552871
sS'spettacolo'
p92
F7.898150662201707
sS'gallerie'
p93
F3.660964793193954
sS'salute'
p94
F0.5566114580505023
sS'canali'
p95
F0.0859806317313784
sS'migliori'
p96
F0.11614927444414276
sS'persone'
p97
F4.694240806106134
sS'norme'
p98
F0.1342504600718014
sS'viaggi'
p99
F0.23833227743083837
sS'impresa'
p100
F0.26095875946541164
sS'aereo'
p101
F0.0030168642712764355
sS'scienza'
p102
F4.635411952816243
sS'moda'
p103
F0.3122454520771111
sS'giochi'
p104
F0.030168642712764353
sS'social'
p105
F0.0859806317313784
sS'cronaca'
p106
F20.493558994780827
ssI5
(dp107
S'tecnologia'
p108
F2.2538734231883537
sS'politica'
p109
F4.182937143474114
sS'economia'
p110
F7.623580644580806
sS'motori'
p111
F1.154379082615033
sS'esteri'
p112
F8.403663781468753
sS'sport'
p113
F19.51107592089399
sS'rubriche'
p114
F13.61051627647514
sS'mare'
p115
F0.07197998956290151
sS'scuola'
p116
F0.819672131147541
sS'regione'
p117
F1.023915351532274
sS'moda'
p118
F0.08457648773640927
sS'media'
p119
F0.2915189577297511
sS'spettacolo'
p120
F7.181803458638498
sS'gallerie'
p121
F3.615194975796728
sS'salute'
p122
F0.8871533713627611
sS'persone'
p123
F3.8725234384841016
sS'norme'
p124
F0.1619549765165284
sS'viaggi'
p125
F0.344604200032391
sS'impresa'
p126
F0.05038599269403106
sS'scienza'
p127
F4.658005074589265
sS'festa'
p128
F0.0755789890410466
sS'prodotto'
p129
F0.023393496607942994
sS'servizi'
p130
F0.052185492433103595
sS'riforma'
p131
F0.026092746216551797
sS'cronaca'
p132
F20.019434597181984
ssI6
(dp133
S'tecnologia'
p134
F1.9307495012824165
sS'economia'
p135
F11.605870618409805
sS'regione'
p136
F0.32060416072955256
sS'scienza'
p137
F4.224850384724993
sS'persone'
p138
F3.419777714448561
sS'media'
p139
F3.776004559703619
sS'politica'
p140
F6.625819321744086
sS'spettacolo'
p141
F4.516956397834141
sS'prodotto'
p142
F0.014249073810202337
sS'gallerie'
p143
F3.9897406668566546
sS'impresa'
p144
F0.5129666571672842
sS'motori'
p145
F2.023368481048732
sS'moda'
p146
F0.24935879167854091
sS'esteri'
p147
F8.079224850384726
sS'cronaca'
p148
F20.817896836705614
sS'sport'
p149
F13.622114562553433
sS'rubriche'
p150
F13.97121687090339
sS'salute'
p151
F0.29923055001424903
ssI7
(dp152
S'tecnologia'
p153
F2.8055297397769516
sS'storia'
p154
F0.005808550185873606
sS'politica'
p155
F3.113382899628253
sS'economia'
p156
F12.023698884758364
sS'motori'
p157
F0.31366171003717475
sS'esteri'
p158
F6.807620817843866
sS'sport'
p159
F18.78485130111524
sS'rubriche'
p160
F11.506737918215613
sS'scuola'
p161
F0.3601301115241636
sS'regione'
p162
F0.5982806691449815
sS'media'
p163
F1.074581784386617
sS'testata'
p164
F0.005808550185873606
sS'spettacolo'
p165
F6.888940520446097
sS'gallerie'
p166
F3.2934479553903344
sS'salute'
p167
F0.2091078066914498
sS'canali'
p168
F0.22072490706319703
sS'persone'
p169
F3.909154275092937
sS'viaggi'
p170
F1.7890334572490705
sS'aereo'
p171
F0.005808550185873606
sS'piazza'
p172
F0.005808550185873606
sS'scienza'
p173
F4.629414498141264
sS'moda'
p174
F0.7318773234200744
sS'cronaca'
p175
F20.916589219330856
ssI8
(dp176
S'tecnologia'
p177
F3.566121842496285
sS'scienza'
p178
F3.97886742611854
sS'festa'
p179
F0.3632161135875846
sS'regione'
p180
F0.8502559022618458
sS'media'
p181
F0.07429420505200594
sS'politica'
p182
F4.176985306257222
sS'spettacolo'
p183
F6.5048703978867435
sS'economia'
p184
F6.447086016179628
sS'gallerie'
p185
F5.5803202905728915
sS'salute'
p186
F1.8078256562654782
sS'motori'
p187
F0.156843321776457
sS'moda'
p188
F2.2701007099224038
sS'esteri'
p189
F5.8032029057289085
sS'viaggi'
p190
F5.638104672280007
sS'persone'
p191
F4.143965659567442
sS'sport'
p192
F18.763414231467724
sS'cronaca'
p193
F18.540531616311707
sS'rubriche'
p194
F11.33399372626713
ssI9
(dp195
S'tecnologia'
p196
F3.5983282814365762
sS'guerra'
p197
F0.0780747680720125
sS'volo'
p198
F0.07692660971801231
sS'politica'
p199
F3.1229907228804996
sS'economia'
p200
F7.7156241388812346
sS'motori'
p201
F2.360613575824378
sS'esteri'
p202
F8.24722145678332
sS'sport'
p203
F20.897630201157344
sS'rubriche'
p204
F11.232433177183797
sS'mare'
p205
F0.0700376595940112
sS'scuola'
p206
F0.06085239276200974
sS'regione'
p207
F0.09874161844401579
sS'prodotto'
p208
F0.05281528428400845
sS'media'
p209
F0.56259759346009
sS'spettacolo'
p210
F8.722559015339396
sS'gallerie'
p211
F4.041517406080647
sS'musica'
p212
F0.07577845136401212
sS'settembre'
p213
F0.13318636906402131
sS'salute'
p214
F1.0230090934141636
sS'canali'
p215
F0.04477817580600717
sS'persone'
p216
F3.269954992192523
sS'norme'
p217
F0.1400753191880224
sS'viaggi'
p218
F3.4502158537705516
sS'scienza'
p219
F4.645448700284743
sS'moda'
p220
F0.5212638927160834
sS'social'
p221
F0.03329659226600533
sS'cronaca'
p222
F15.724028658032516
ssI10
(dp223
S'tecnologia'
p224
F2.649933177413966
sS'politica'
p225
F3.7399766120948885
sS'economia'
p226
F8.37788172402272
sS'motori'
p227
F3.771299699298363
sS'esteri'
p228
F6.855579685933845
sS'sport'
p229
F20.721266288005346
sS'rossi'
p230
F0.49908118944203145
sS'rubriche'
p231
F10.29694286668894
sS'legge'
p232
F0.16079184764450385
sS'scuola'
p233
F0.03967591045773471
sS'regione'
p234
F0.31323087203474775
sS'moda'
p235
F0.6118443033745407
sS'media'
p236
F0.24432008018710322
sS'spettacolo'
p237
F7.968593384563983
sS'gallerie'
p238
F3.078015369194788
sS'salute'
p239
F1.1861009021049114
sS'persone'
p240
F3.775476110925493
sS'norme'
p241
F0.08770464416972937
sS'viaggi'
p242
F1.668476445038423
sS'scienza'
p243
F4.406114266622118
sS'ottobre'
p244
F0.26937854994988303
sS'prodotto'
p245
F0.07726361510190444
sS'social'
p246
F0.281907784831273
sS'riforma'
p247
F0.02505846976277982
sS'cronaca'
p248
F18.894086201135984
ssI11
(dp249
S'tecnologia'
p250
F2.464200250693205
sS'storia'
p251
F0.027538268697534847
sS'politica'
p252
F2.6759600410225244
sS'economia'
p253
F6.278725263037946
sS'motori'
p254
F3.0007216925589697
sS'esteri'
p255
F16.872412352337903
sS'sport'
p256
F16.425152884871043
sS'rossi'
p257
F0.16048163482356517
sS'rubriche'
p258
F9.982147605120218
sS'scuola'
p259
F0.1111026702624682
sS'regione'
p260
F0.1338929615983591
sS'prodotto'
p261
F0.04083260531013788
sS'media'
p262
F0.39313252554411826
sS'spettacolo'
p263
F7.7420518858966085
sS'gallerie'
p264
F2.6484217723249897
sS'attentati'
p265
F1.9039389220192198
sS'salute'
p266
F0.7919626239222091
sS'canali'
p267
F0.055076537395069694
sS'persone'
p268
F3.6208075359896683
sS'novembre'
p269
F0.32381205606411667
sS'viaggi'
p270
F1.8612071257644243
sS'aereo'
p271
F0.25259239563945757
sS'scienza'
p272
F4.0785125536521445
sS'moda'
p273
F0.6001443385117939
sS'cronaca'
p274
F17.555171496942304
ssI12
(dp275
S'tecnologia'
p276
F2.8332391725066417
sS'stabilita'
p277
F0.08895192989626281
sS'politica'
p278
F3.2443413350001804
sS'economia'
p279
F8.066978399105674
sS'motori'
p280
F0.9015398300296906
sS'esteri'
p281
F8.494909305093099
sS'sport'
p282
F18.54527533026409
sS'rubriche'
p283
F10.72832397735332
sS'affari'
p284
F0.09135603610967533
sS'scuola'
p285
F0.0841437174694378
sS'regione'
p286
F0.5721772787921771
sS'prodotto'
p287
F0.09736630164320659
sS'media'
p288
F0.31734202017045116
sS'spettacolo'
p289
F9.66931519034511
sS'gallerie'
p290
F3.2335228570398242
sS'salute'
p291
F0.5264992607373393
sS'migliori'
p292
F0.070921133295669
sS'persone'
p293
F4.322582971715691
sS'norme'
p294
F0.030051327667656356
sS'dicembre'
p295
F0.5541464821915832
sS'viaggi'
p296
F0.2908968518229135
sS'natale'
p297
F1.1287278671971728
sS'scienza'
p298
F4.67598658508733
sS'moda'
p299
F0.3990816314264764
sS'social'
p300
F0.13222584173768798
sS'cronaca'
p301
F20.900097366301644
ss.