(dp0
I1
(dp1
S'tecnologia'
p2
F561.0
sS'storia'
p3
F24.0
sS'moda'
p4
F38.0
sS'scienza'
p5
F773.0
sS'regione'
p6
F2220.0
sS'persone'
p7
F1515.0
sS'media'
p8
F588.0
sS'politica'
p9
F1051.0
sS'curiosita'
p10
F43.0
sS'prodotto'
p11
F39.0
sS'spettacolo'
p12
F2111.0
sS'economia'
p13
F1956.0
sS'gallerie'
p14
F988.0
sS'salute'
p15
F268.0
sS'motori'
p16
F268.0
sS'social'
p17
F11.0
sS'esteri'
p18
F2118.0
sS'viaggi'
p19
F18.0
sS'cronaca'
p20
F4125.0
sS'sport'
p21
F3016.0
sS'rubriche'
p22
F3342.0
ssI2
(dp23
S'tecnologia'
p24
F7163.0
sS'politica'
p25
F10925.0
sS'economia'
p26
F26803.0
sS'motori'
p27
F3910.0
sS'esteri'
p28
F18663.0
sS'sport'
p29
F47170.0
sS'rubriche'
p30
F43415.0
sS'scuola'
p31
F278.0
sS'regione'
p32
F23579.0
sS'media'
p33
F3759.0
sS'spettacolo'
p34
F37242.0
sS'gallerie'
p35
F15805.0
sS'musica'
p36
F551.0
sS'salute'
p37
F3747.0
sS'persone'
p38
F17294.0
sS'maltempo'
p39
F805.0
sS'viaggi'
p40
F566.0
sS'aereo'
p41
F561.0
sS'serata'
p42
F1319.0
sS'festa'
p43
F371.0
sS'scienza'
p44
F10312.0
sS'cronaca'
p45
F51005.0
ssI3
(dp46
S'tecnologia'
p47
F9042.0
sS'notizia'
p48
F247.0
sS'scienza'
p49
F10262.0
sS'regione'
p50
F17424.0
sS'persone'
p51
F17478.0
sS'media'
p52
F1355.0
sS'politica'
p53
F9228.0
sS'sole'
p54
F505.0
sS'spettacolo'
p55
F26719.0
sS'economia'
p56
F18672.0
sS'gallerie'
p57
F11966.0
sS'salute'
p58
F3435.0
sS'motori'
p59
F3381.0
sS'moda'
p60
F622.0
sS'esteri'
p61
F18896.0
sS'viaggi'
p62
F1248.0
sS'cronaca'
p63
F44893.0
sS'sport'
p64
F40990.0
sS'aereo'
p65
F675.0
sS'rubriche'
p66
F36076.0
sS'scuola'
p67
F2038.0
ssI4
(dp68
S'tecnologia'
p69
F1035.0
sS'scienza'
p70
F1341.0
sS'regione'
p71
F2947.0
sS'persone'
p72
F2464.0
sS'media'
p73
F140.0
sS'politica'
p74
F1553.0
sS'spettacolo'
p75
F3378.0
sS'economia'
p76
F2576.0
sS'gallerie'
p77
F1531.0
sS'salute'
p78
F537.0
sS'motori'
p79
F848.0
sS'esteri'
p80
F2287.0
sS'cronaca'
p81
F6379.0
sS'sport'
p82
F4986.0
sS'rubriche'
p83
F4423.0
sS'scuola'
p84
F4.0
ssI5
(dp85
sI6
(dp86
S'tecnologia'
p87
F568.0
sS'scienza'
p88
F659.0
sS'regione'
p89
F2296.0
sS'persone'
p90
F1232.0
sS'media'
p91
F438.0
sS'politica'
p92
F2484.0
sS'spettacolo'
p93
F1519.0
sS'economia'
p94
F1698.0
sS'gallerie'
p95
F1119.0
sS'salute'
p96
F58.0
sS'motori'
p97
F502.0
sS'esteri'
p98
F993.0
sS'viaggi'
p99
F16.0
sS'cronaca'
p100
F3327.0
sS'sport'
p101
F3707.0
sS'rossi'
p102
F13.0
sS'rubriche'
p103
F3814.0
ssI7
(dp104
sI8
(dp105
sI9
(dp106
sI10
(dp107
S'scienza'
p108
F1406.0
sS'regione'
p109
F4415.0
sS'persone'
p110
F2648.0
sS'politica'
p111
F1127.0
sS'spettacolo'
p112
F3383.0
sS'economia'
p113
F3156.0
sS'gallerie'
p114
F1876.0
sS'salute'
p115
F1149.0
sS'motori'
p116
F2749.0
sS'esteri'
p117
F1937.0
sS'viaggi'
p118
F2505.0
sS'cronaca'
p119
F6177.0
sS'sport'
p120
F11717.0
sS'rossi'
p121
F912.0
sS'rubriche'
p122
F4039.0
ssI11
(dp123
S'tecnologia'
p124
F947.0
sS'storia'
p125
F794.0
sS'scienza'
p126
F2145.0
sS'regione'
p127
F6108.0
sS'persone'
p128
F3845.0
sS'media'
p129
F765.0
sS'politica'
p130
F1884.0
sS'norme'
p131
F2.0
sS'spettacolo'
p132
F5962.0
sS'economia'
p133
F2573.0
sS'gallerie'
p134
F2993.0
sS'motori'
p135
F1722.0
sS'esteri'
p136
F15501.0
sS'viaggi'
p137
F1378.0
sS'cronaca'
p138
F9316.0
sS'sport'
p139
F11441.0
sS'rubriche'
p140
F7139.0
sS'scuola'
p141
F18.0
ssI12
(dp142
S'tecnologia'
p143
F1059.0
sS'calendario'
p144
F11.0
sS'scienza'
p145
F1136.0
sS'regione'
p146
F3021.0
sS'persone'
p147
F2024.0
sS'media'
p148
F466.0
sS'politica'
p149
F1298.0
sS'curiosita'
p150
F3.0
sS'spettacolo'
p151
F3144.0
sS'economia'
p152
F3035.0
sS'gallerie'
p153
F1658.0
sS'motori'
p154
F607.0
sS'social'
p155
F4.0
sS'esteri'
p156
F1697.0
sS'viaggi'
p157
F315.0
sS'cronaca'
p158
F6259.0
sS'sport'
p159
F5656.0
sS'rubriche'
p160
F3257.0
sS'scuola'
p161
F2.0
ss.