(dp0
S'11'
p1
(lp2
(dp3
S'scienza'
p4
S'480'
p5
sS'regione'
p6
S'2135'
p7
sS'persone'
p8
S'1281'
p9
sS'media'
p10
S'533'
p11
sS'politica'
p12
S'830'
p13
sS'spettacolo'
p14
S'1763'
p15
sS'economia'
p16
S'883'
p17
sS'gallerie'
p18
S'983'
p19
sS'motori'
p20
S'760'
p21
sS'esteri'
p22
S'1048'
p23
sS'viaggi'
p24
S'1320'
p25
sS'cronaca'
p26
S'2463'
p27
sS'sport'
p28
S'5873'
p29
sS'rubriche'
p30
S'2109'
p31
sa(dp32
S'storia'
p33
S'2'
p34
sS'regione'
p35
S'20'
p36
sS'persone'
p37
S'4'
p38
sS'media'
p39
g38
sS'politica'
p40
S'8'
p41
sS'norme'
p42
g34
sS'spettacolo'
p43
S'22'
p44
sS'economia'
p45
S'6'
p46
sS'gallerie'
p47
g46
sS'esteri'
p48
S'12'
p49
sS'viaggi'
p50
S'58'
p51
sS'cronaca'
p52
S'34'
p53
sS'sport'
p54
S'92'
p55
sS'rubriche'
p56
S'22'
p57
sa(dp58
a(dp59
a(dp60
a(dp61
a(dp62
a(dp63
a(dp64
a(dp65
a(dp66
a(dp67
a(dp68
a(dp69
a(dp70
S'tecnologia'
p71
S'784'
p72
sS'storia'
p73
S'780'
p74
sS'scienza'
p75
S'1433'
p76
sS'regione'
p77
S'3252'
p78
sS'persone'
p79
S'1913'
p80
sS'politica'
p81
S'872'
p82
sS'spettacolo'
p83
S'3243'
p84
sS'economia'
p85
S'1088'
p86
sS'gallerie'
p87
S'1624'
p88
sS'motori'
p89
S'737'
p90
sS'esteri'
p91
S'13620'
p92
sS'cronaca'
p93
S'5602'
p94
sS'sport'
p95
S'3668'
p96
sS'rubriche'
p97
S'4067'
p98
sa(dp99
S'tecnologia'
p100
S'9'
p101
sS'storia'
p102
S'12'
p103
sS'scuola'
p104
S'18'
p105
sS'regione'
p106
S'27'
p107
sS'persone'
p108
S'21'
p109
sS'politica'
p110
S'12'
p111
sS'scienza'
p112
g46
sS'spettacolo'
p113
S'45'
p114
sS'economia'
p115
g41
sS'gallerie'
p116
S'26'
p117
sS'esteri'
p118
S'136'
p119
sS'cronaca'
p120
S'60'
p121
sS'sport'
p122
S'26'
p123
sS'rubriche'
p124
S'58'
p125
sa(dp126
a(dp127
a(dp128
a(dp129
a(dp130
a(dp131
a(dp132
a(dp133
a(dp134
a(dp135
a(dp136
a(dp137
a(dp138
a(dp139
S'tecnologia'
p140
S'154'
p141
sS'scienza'
p142
S'226'
p143
sS'regione'
p144
S'674'
p145
sS'persone'
p146
S'626'
p147
sS'media'
p148
S'228'
p149
sS'politica'
p150
S'162'
p151
sS'spettacolo'
p152
S'889'
p153
sS'economia'
p154
S'588'
p155
sS'gallerie'
p156
S'354'
p157
sS'motori'
p158
S'225'
p159
sS'esteri'
p160
S'685'
p161
sS'cronaca'
p162
S'1157'
p163
sS'sport'
p164
S'1782'
p165
sS'rubriche'
p166
S'883'
p167
sasS'10'
p168
(lp169
(dp170
a(dp171
a(dp172
a(dp173
a(dp174
a(dp175
a(dp176
a(dp177
a(dp178
a(dp179
a(dp180
a(dp181
a(dp182
a(dp183
a(dp184
a(dp185
a(dp186
a(dp187
a(dp188
a(dp189
a(dp190
a(dp191
a(dp192
a(dp193
a(dp194
a(dp195
a(dp196
S'scienza'
p197
S'269'
p198
sS'regione'
p199
S'593'
p200
sS'persone'
p201
S'441'
p202
sS'spettacolo'
p203
S'408'
p204
sS'economia'
p205
S'675'
p206
sS'gallerie'
p207
S'500'
p208
sS'salute'
p209
S'473'
p210
sS'motori'
p211
S'655'
p212
sS'esteri'
p213
S'263'
p214
sS'viaggi'
p215
S'1126'
p216
sS'cronaca'
p217
S'874'
p218
sS'sport'
p219
S'2562'
p220
sS'rossi'
p221
S'290'
p222
sS'rubriche'
p223
S'692'
p224
sa(dp225
S'scienza'
p226
S'380'
p227
sS'regione'
p228
S'1204'
p229
sS'persone'
p230
S'494'
p231
sS'politica'
p232
S'319'
p233
sS'spettacolo'
p234
S'729'
p235
sS'economia'
p236
S'787'
p237
sS'gallerie'
p238
S'340'
p239
sS'motori'
p240
S'742'
p241
sS'esteri'
p242
S'503'
p243
sS'viaggi'
p244
S'609'
p245
sS'cronaca'
p246
S'1146'
p247
sS'sport'
p248
S'2747'
p249
sS'rossi'
p250
S'360'
p251
sS'rubriche'
p252
S'920'
p253
sa(dp254
S'scienza'
p255
S'266'
p256
sS'regione'
p257
S'941'
p258
sS'persone'
p259
S'618'
p260
sS'politica'
p261
S'252'
p262
sS'spettacolo'
p263
S'622'
p264
sS'economia'
p265
S'678'
p266
sS'gallerie'
p267
S'329'
p268
sS'salute'
p269
S'236'
p270
sS'motori'
p271
S'407'
p272
sS'esteri'
p273
S'302'
p274
sS'cronaca'
p275
S'1539'
p276
sS'sport'
p277
S'2402'
p278
sS'rossi'
p279
S'262'
p280
sS'rubriche'
p281
S'768'
p282
sa(dp283
S'scienza'
p284
S'263'
p285
sS'regione'
p286
S'810'
p287
sS'persone'
p288
S'550'
p289
sS'politica'
p290
S'233'
p291
sS'spettacolo'
p292
S'715'
p293
sS'economia'
p294
S'565'
p295
sS'gallerie'
p296
S'331'
p297
sS'salute'
p298
S'235'
p299
sS'motori'
p300
S'453'
p301
sS'esteri'
p302
S'302'
p303
sS'viaggi'
p304
S'410'
p305
sS'cronaca'
p306
S'1349'
p307
sS'sport'
p308
S'1684'
p309
sS'rubriche'
p310
S'786'
p311
sa(dp312
S'scienza'
p313
S'228'
p314
sS'regione'
p315
S'867'
p316
sS'persone'
p317
S'545'
p318
sS'politica'
p319
S'323'
p320
sS'spettacolo'
p321
S'909'
p322
sS'economia'
p323
S'451'
p324
sS'gallerie'
p325
S'376'
p326
sS'salute'
p327
S'205'
p328
sS'motori'
p329
S'492'
p330
sS'esteri'
p331
S'567'
p332
sS'viaggi'
p333
S'360'
p334
sS'cronaca'
p335
S'1269'
p336
sS'sport'
p337
S'2322'
p338
sS'rubriche'
p339
S'873'
p340
sasS'12'
p341
(lp342
(dp343
S'tecnologia'
p344
S'323'
p345
sS'scienza'
p346
S'247'
p347
sS'regione'
p348
S'628'
p349
sS'persone'
p350
S'463'
p351
sS'media'
p352
S'217'
p353
sS'politica'
p354
S'210'
p355
sS'spettacolo'
p356
S'806'
p357
sS'economia'
p358
S'752'
p359
sS'gallerie'
p360
S'471'
p361
sS'motori'
p362
S'201'
p363
sS'esteri'
p364
S'532'
p365
sS'cronaca'
p366
S'1465'
p367
sS'sport'
p368
S'1590'
p369
sS'rubriche'
p370
S'782'
p371
sa(dp372
S'tecnologia'
p373
g101
sS'calendario'
p374
S'11'
p375
sS'scienza'
p376
S'5'
p377
sS'regione'
p378
S'11'
p379
sS'persone'
p380
S'7'
p381
sS'politica'
p382
g377
sS'curiosita'
p383
S'3'
p384
sS'spettacolo'
p385
S'19'
p386
sS'economia'
p387
S'31'
p388
sS'social'
p389
g38
sS'esteri'
p390
S'19'
p391
sS'cronaca'
p392
S'27'
p393
sS'sport'
p394
S'37'
p395
sS'rubriche'
p396
S'14'
p397
sa(dp398
a(dp399
a(dp400
a(dp401
a(dp402
a(dp403
a(dp404
a(dp405
a(dp406
a(dp407
a(dp408
a(dp409
a(dp410
S'tecnologia'
p411
S'216'
p412
sS'scienza'
p413
S'357'
p414
sS'regione'
p415
S'885'
p416
sS'persone'
p417
S'591'
p418
sS'politica'
p419
S'340'
p420
sS'spettacolo'
p421
S'841'
p422
sS'economia'
p423
S'758'
p424
sS'gallerie'
p425
S'462'
p426
sS'motori'
p427
S'158'
p428
sS'esteri'
p429
S'454'
p430
sS'viaggi'
p431
S'315'
p432
sS'cronaca'
p433
S'1968'
p434
sS'sport'
p435
S'1620'
p436
sS'rubriche'
p437
S'921'
p438
sa(dp439
S'tecnologia'
p440
S'229'
p441
sS'scienza'
p442
S'319'
p443
sS'regione'
p444
S'772'
p445
sS'persone'
p446
S'584'
p447
sS'media'
p448
S'127'
p449
sS'politica'
p450
S'513'
p451
sS'spettacolo'
p452
S'803'
p453
sS'economia'
p454
S'882'
p455
sS'gallerie'
p456
S'465'
p457
sS'motori'
p458
S'153'
p459
sS'esteri'
p460
S'336'
p461
sS'cronaca'
p462
S'1454'
p463
sS'sport'
p464
S'1745'
p465
sS'rubriche'
p466
S'777'
p467
sa(dp468
S'tecnologia'
p469
g38
sS'scuola'
p470
g34
sS'regione'
p471
g381
sS'persone'
p472
g377
sS'media'
p473
g381
sS'politica'
p474
g381
sS'spettacolo'
p475
S'11'
p476
sS'economia'
p477
S'12'
p478
sS'gallerie'
p479
S'13'
p480
sS'motori'
p481
S'12'
p482
sS'esteri'
p483
g377
sS'cronaca'
p484
S'14'
p485
sS'sport'
p486
S'49'
p487
sS'rubriche'
p488
g381
sa(dp489
a(dp490
a(dp491
a(dp492
a(dp493
a(dp494
a(dp495
a(dp496
a(dp497
a(dp498
a(dp499
a(dp500
a(dp501
a(dp502
S'tecnologia'
p503
S'278'
p504
sS'scienza'
p505
S'208'
p506
sS'regione'
p507
S'718'
p508
sS'persone'
p509
S'374'
p510
sS'media'
p511
S'115'
p512
sS'politica'
p513
S'223'
p514
sS'spettacolo'
p515
S'664'
p516
sS'economia'
p517
S'600'
p518
sS'gallerie'
p519
S'247'
p520
sS'motori'
p521
S'83'
p522
sS'esteri'
p523
S'351'
p524
sS'cronaca'
p525
S'1331'
p526
sS'sport'
p527
S'615'
p528
sS'rubriche'
p529
S'756'
p530
sasS'1'
p531
(lp532
(dp533
S'tecnologia'
p534
S'12'
p535
sS'scienza'
p536
S'18'
p537
sS'regione'
p538
S'28'
p539
sS'persone'
p540
S'28'
p541
sS'media'
p542
S'15'
p543
sS'politica'
p544
S'29'
p545
sS'spettacolo'
p546
S'64'
p547
sS'economia'
p548
S'51'
p549
sS'gallerie'
p550
S'37'
p551
sS'salute'
p552
S'12'
p553
sS'esteri'
p554
S'36'
p555
sS'cronaca'
p556
S'95'
p557
sS'sport'
p558
S'41'
p559
sS'rubriche'
p560
S'78'
p561
sa(dp562
S'tecnologia'
p563
S'13'
p564
sS'scienza'
p565
g101
sS'regione'
p566
S'78'
p567
sS'persone'
p568
S'24'
p569
sS'media'
p570
S'21'
p571
sS'politica'
p572
S'16'
p573
sS'spettacolo'
p574
S'69'
p575
sS'economia'
p576
S'65'
p577
sS'gallerie'
p578
S'23'
p579
sS'salute'
p580
S'14'
p581
sS'esteri'
p582
S'33'
p583
sS'cronaca'
p584
S'128'
p585
sS'sport'
p586
S'54'
p587
sS'rubriche'
p588
S'91'
p589
sa(dp590
S'storia'
p591
S'11'
p592
sS'scienza'
p593
S'29'
p594
sS'regione'
p595
S'51'
p596
sS'persone'
p597
S'41'
p598
sS'media'
p599
S'11'
p600
sS'politica'
p601
S'35'
p602
sS'spettacolo'
p603
S'72'
p604
sS'economia'
p605
S'41'
p606
sS'gallerie'
p607
S'21'
p608
sS'salute'
p609
S'13'
p610
sS'esteri'
p611
S'41'
p612
sS'cronaca'
p613
S'144'
p614
sS'sport'
p615
S'70'
p616
sS'rubriche'
p617
S'96'
p618
sa(dp619
S'tecnologia'
p620
S'60'
p621
sS'scienza'
p622
S'29'
p623
sS'regione'
p624
S'52'
p625
sS'persone'
p626
S'28'
p627
sS'media'
p628
S'21'
p629
sS'politica'
p630
S'30'
p631
sS'spettacolo'
p632
S'64'
p633
sS'economia'
p634
S'44'
p635
sS'gallerie'
p636
S'18'
p637
sS'motori'
p638
S'11'
p639
sS'esteri'
p640
S'36'
p641
sS'cronaca'
p642
S'132'
p643
sS'sport'
p644
S'95'
p645
sS'rubriche'
p646
S'91'
p647
sa(dp648
S'tecnologia'
p649
S'20'
p650
sS'scienza'
p651
S'30'
p652
sS'regione'
p653
S'74'
p654
sS'persone'
p655
S'45'
p656
sS'media'
p657
S'24'
p658
sS'politica'
p659
S'24'
p660
sS'spettacolo'
p661
S'127'
p662
sS'economia'
p663
S'62'
p664
sS'gallerie'
p665
S'20'
p666
sS'salute'
p667
S'11'
p668
sS'esteri'
p669
S'29'
p670
sS'cronaca'
p671
S'208'
p672
sS'sport'
p673
S'98'
p674
sS'rubriche'
p675
S'102'
p676
sa(dp677
S'tecnologia'
p678
S'21'
p679
sS'scienza'
p680
S'29'
p681
sS'regione'
p682
S'51'
p683
sS'persone'
p684
S'59'
p685
sS'media'
p686
S'15'
p687
sS'politica'
p688
S'25'
p689
sS'prodotto'
p690
S'13'
p691
sS'spettacolo'
p692
S'118'
p693
sS'economia'
p694
S'61'
p695
sS'gallerie'
p696
S'45'
p697
sS'esteri'
p698
S'45'
p699
sS'cronaca'
p700
S'149'
p701
sS'sport'
p702
S'110'
p703
sS'rubriche'
p704
S'113'
p705
sa(dp706
S'tecnologia'
p707
S'25'
p708
sS'scienza'
p709
S'23'
p710
sS'regione'
p711
S'68'
p712
sS'persone'
p713
S'49'
p714
sS'media'
p715
S'26'
p716
sS'politica'
p717
S'29'
p718
sS'curiosita'
p719
S'43'
p720
sS'spettacolo'
p721
S'83'
p722
sS'economia'
p723
S'46'
p724
sS'gallerie'
p725
S'47'
p726
sS'esteri'
p727
S'137'
p728
sS'cronaca'
p729
S'189'
p730
sS'sport'
p731
S'92'
p732
sS'rubriche'
p733
S'120'
p734
sa(dp735
S'tecnologia'
p736
S'19'
p737
sS'scienza'
p738
S'30'
p739
sS'regione'
p740
S'72'
p741
sS'persone'
p742
S'54'
p743
sS'media'
p744
S'18'
p745
sS'politica'
p746
S'39'
p747
sS'spettacolo'
p748
S'54'
p749
sS'economia'
p750
S'53'
p751
sS'gallerie'
p752
S'32'
p753
sS'salute'
p754
S'14'
p755
sS'esteri'
p756
S'151'
p757
sS'cronaca'
p758
S'172'
p759
sS'sport'
p760
S'68'
p761
sS'rubriche'
p762
S'148'
p763
sa(dp764
S'tecnologia'
p765
S'29'
p766
sS'scienza'
p767
S'19'
p768
sS'regione'
p769
S'83'
p770
sS'persone'
p771
S'48'
p772
sS'media'
p773
S'32'
p774
sS'politica'
p775
S'26'
p776
sS'spettacolo'
p777
S'79'
p778
sS'economia'
p779
S'48'
p780
sS'gallerie'
p781
S'37'
p782
sS'salute'
p783
S'19'
p784
sS'esteri'
p785
S'190'
p786
sS'cronaca'
p787
S'131'
p788
sS'sport'
p789
S'93'
p790
sS'rubriche'
p791
S'121'
p792
sa(dp793
S'tecnologia'
p794
S'12'
p795
sS'scienza'
p796
S'37'
p797
sS'regione'
p798
S'91'
p799
sS'persone'
p800
S'44'
p801
sS'media'
p802
S'37'
p803
sS'politica'
p804
S'22'
p805
sS'spettacolo'
p806
S'63'
p807
sS'economia'
p808
S'46'
p809
sS'gallerie'
p810
S'25'
p811
sS'motori'
p812
S'18'
p813
sS'esteri'
p814
S'138'
p815
sS'cronaca'
p816
S'148'
p817
sS'sport'
p818
S'100'
p819
sS'rubriche'
p820
S'106'
p821
sa(dp822
S'scienza'
p823
S'22'
p824
sS'regione'
p825
S'75'
p826
sS'persone'
p827
S'57'
p828
sS'media'
p829
S'26'
p830
sS'politica'
p831
S'16'
p832
sS'spettacolo'
p833
S'92'
p834
sS'economia'
p835
S'64'
p836
sS'gallerie'
p837
S'34'
p838
sS'salute'
p839
S'17'
p840
sS'motori'
p841
S'27'
p842
sS'esteri'
p843
S'155'
p844
sS'cronaca'
p845
S'150'
p846
sS'sport'
p847
S'156'
p848
sS'rubriche'
p849
S'122'
p850
sa(dp851
S'tecnologia'
p852
S'21'
p853
sS'scienza'
p854
S'19'
p855
sS'regione'
p856
S'60'
p857
sS'persone'
p858
S'40'
p859
sS'media'
p860
S'33'
p861
sS'politica'
p862
S'23'
p863
sS'spettacolo'
p864
S'76'
p865
sS'economia'
p866
S'54'
p867
sS'gallerie'
p868
S'52'
p869
sS'salute'
p870
S'18'
p871
sS'esteri'
p872
S'83'
p873
sS'cronaca'
p874
S'108'
p875
sS'sport'
p876
S'153'
p877
sS'rubriche'
p878
S'86'
p879
sa(dp880
S'tecnologia'
p881
S'37'
p882
sS'scienza'
p883
S'21'
p884
sS'regione'
p885
S'73'
p886
sS'persone'
p887
S'39'
p888
sS'politica'
p889
S'21'
p890
sS'spettacolo'
p891
S'77'
p892
sS'economia'
p893
S'51'
p894
sS'gallerie'
p895
S'48'
p896
sS'salute'
p897
S'31'
p898
sS'motori'
p899
S'44'
p900
sS'esteri'
p901
S'91'
p902
sS'cronaca'
p903
S'135'
p904
sS'sport'
p905
S'79'
p906
sS'rubriche'
p907
S'90'
p908
sa(dp909
S'scienza'
p910
S'24'
p911
sS'regione'
p912
S'58'
p913
sS'persone'
p914
S'74'
p915
sS'media'
p916
S'18'
p917
sS'politica'
p918
S'45'
p919
sS'spettacolo'
p920
S'51'
p921
sS'economia'
p922
S'55'
p923
sS'gallerie'
p924
S'26'
p925
sS'salute'
p926
S'18'
p927
sS'motori'
p928
S'31'
p929
sS'esteri'
p930
S'71'
p931
sS'cronaca'
p932
S'107'
p933
sS'sport'
p934
S'77'
p935
sS'rubriche'
p936
S'83'
p937
sa(dp938
S'tecnologia'
p939
S'20'
p940
sS'scienza'
p941
S'32'
p942
sS'regione'
p943
S'70'
p944
sS'persone'
p945
S'52'
p946
sS'politica'
p947
S'38'
p948
sS'spettacolo'
p949
S'54'
p950
sS'economia'
p951
S'90'
p952
sS'gallerie'
p953
S'48'
p954
sS'salute'
p955
S'20'
p956
sS'motori'
p957
S'17'
p958
sS'esteri'
p959
S'66'
p960
sS'cronaca'
p961
S'128'
p962
sS'sport'
p963
S'83'
p964
sS'rubriche'
p965
S'111'
p966
sa(dp967
S'tecnologia'
p968
S'16'
p969
sS'scienza'
p970
S'33'
p971
sS'regione'
p972
S'60'
p973
sS'persone'
p974
S'41'
p975
sS'media'
p976
S'22'
p977
sS'politica'
p978
S'22'
p979
sS'spettacolo'
p980
S'38'
p981
sS'economia'
p982
S'80'
p983
sS'gallerie'
p984
S'44'
p985
sS'salute'
p986
S'19'
p987
sS'esteri'
p988
S'65'
p989
sS'cronaca'
p990
S'123'
p991
sS'sport'
p992
S'81'
p993
sS'rubriche'
p994
S'119'
p995
sa(dp996
S'tecnologia'
p997
S'14'
p998
sS'scienza'
p999
S'33'
p1000
sS'regione'
p1001
S'72'
p1002
sS'persone'
p1003
S'35'
p1004
sS'politica'
p1005
S'24'
p1006
sS'prodotto'
p1007
S'14'
p1008
sS'spettacolo'
p1009
S'55'
p1010
sS'economia'
p1011
S'59'
p1012
sS'gallerie'
p1013
S'18'
p1014
sS'motori'
p1015
S'17'
p1016
sS'esteri'
p1017
S'53'
p1018
sS'cronaca'
p1019
S'143'
p1020
sS'sport'
p1021
S'117'
p1022
sS'rubriche'
p1023
S'85'
p1024
sa(dp1025
S'tecnologia'
p1026
S'32'
p1027
sS'scienza'
p1028
S'29'
p1029
sS'regione'
p1030
S'61'
p1031
sS'persone'
p1032
S'56'
p1033
sS'media'
p1034
S'22'
p1035
sS'politica'
p1036
S'45'
p1037
sS'spettacolo'
p1038
S'94'
p1039
sS'economia'
p1040
S'40'
p1041
sS'gallerie'
p1042
S'30'
p1043
sS'motori'
p1044
S'32'
p1045
sS'esteri'
p1046
S'73'
p1047
sS'cronaca'
p1048
S'180'
p1049
sS'sport'
p1050
S'137'
p1051
sS'rubriche'
p1052
S'111'
p1053
sa(dp1054
S'tecnologia'
p1055
S'19'
p1056
sS'scienza'
p1057
S'26'
p1058
sS'regione'
p1059
S'80'
p1060
sS'persone'
p1061
S'51'
p1062
sS'media'
p1063
S'18'
p1064
sS'politica'
p1065
S'29'
p1066
sS'spettacolo'
p1067
S'57'
p1068
sS'economia'
p1069
S'55'
p1070
sS'gallerie'
p1071
S'25'
p1072
sS'motori'
p1073
S'22'
p1074
sS'esteri'
p1075
S'43'
p1076
sS'cronaca'
p1077
S'170'
p1078
sS'sport'
p1079
S'152'
p1080
sS'rubriche'
p1081
S'88'
p1082
sa(dp1083
S'tecnologia'
p1084
S'18'
p1085
sS'scienza'
p1086
S'26'
p1087
sS'regione'
p1088
S'95'
p1089
sS'persone'
p1090
S'46'
p1091
sS'media'
p1092
S'16'
p1093
sS'politica'
p1094
S'37'
p1095
sS'spettacolo'
p1096
S'53'
p1097
sS'economia'
p1098
S'79'
p1099
sS'gallerie'
p1100
S'17'
p1101
sS'salute'
p1102
S'16'
p1103
sS'esteri'
p1104
S'52'
p1105
sS'cronaca'
p1106
S'122'
p1107
sS'sport'
p1108
S'96'
p1109
sS'rubriche'
p1110
S'94'
p1111
sa(dp1112
S'tecnologia'
p1113
S'35'
p1114
sS'scienza'
p1115
S'32'
p1116
sS'regione'
p1117
S'72'
p1118
sS'persone'
p1119
S'50'
p1120
sS'media'
p1121
S'22'
p1122
sS'politica'
p1123
S'60'
p1124
sS'spettacolo'
p1125
S'64'
p1126
sS'economia'
p1127
S'69'
p1128
sS'gallerie'
p1129
S'45'
p1130
sS'salute'
p1131
S'18'
p1132
sS'esteri'
p1133
S'45'
p1134
sS'cronaca'
p1135
S'86'
p1136
sS'sport'
p1137
S'114'
p1138
sS'rubriche'
p1139
S'96'
p1140
sa(dp1141
S'tecnologia'
p1142
S'29'
p1143
sS'scienza'
p1144
S'34'
p1145
sS'regione'
p1146
S'68'
p1147
sS'persone'
p1148
S'46'
p1149
sS'media'
p1150
S'21'
p1151
sS'politica'
p1152
S'48'
p1153
sS'spettacolo'
p1154
S'64'
p1155
sS'economia'
p1156
S'77'
p1157
sS'gallerie'
p1158
S'35'
p1159
sS'salute'
p1160
S'17'
p1161
sS'esteri'
p1162
S'32'
p1163
sS'cronaca'
p1164
S'107'
p1165
sS'sport'
p1166
S'56'
p1167
sS'rubriche'
p1168
S'121'
p1169
sa(dp1170
S'tecnologia'
p1171
S'10'
p1172
sS'scienza'
p1173
S'18'
p1174
sS'regione'
p1175
S'75'
p1176
sS'persone'
p1177
S'83'
p1178
sS'media'
p1179
S'15'
p1180
sS'politica'
p1181
S'27'
p1182
sS'spettacolo'
p1183
S'68'
p1184
sS'economia'
p1185
S'112'
p1186
sS'gallerie'
p1187
S'29'
p1188
sS'social'
p1189
S'11'
p1190
sS'esteri'
p1191
S'48'
p1192
sS'cronaca'
p1193
S'139'
p1194
sS'sport'
p1195
S'87'
p1196
sS'rubriche'
p1197
S'94'
p1198
sa(dp1199
S'scienza'
p1200
S'17'
p1201
sS'regione'
p1202
S'101'
p1203
sS'persone'
p1204
S'48'
p1205
sS'media'
p1206
S'21'
p1207
sS'politica'
p1208
S'30'
p1209
sS'spettacolo'
p1210
S'65'
p1211
sS'economia'
p1212
S'59'
p1213
sS'gallerie'
p1214
S'27'
p1215
sS'motori'
p1216
S'14'
p1217
sS'esteri'
p1218
S'44'
p1219
sS'viaggi'
p1220
S'18'
p1221
sS'cronaca'
p1222
S'105'
p1223
sS'sport'
p1224
S'145'
p1225
sS'rubriche'
p1226
S'86'
p1227
sa(dp1228
S'tecnologia'
p1229
S'22'
p1230
sS'scienza'
p1231
S'27'
p1232
sS'regione'
p1233
S'78'
p1234
sS'persone'
p1235
S'39'
p1236
sS'media'
p1237
S'25'
p1238
sS'politica'
p1239
S'45'
p1240
sS'spettacolo'
p1241
S'57'
p1242
sS'economia'
p1243
S'47'
p1244
sS'gallerie'
p1245
S'24'
p1246
sS'motori'
p1247
S'13'
p1248
sS'esteri'
p1249
S'62'
p1250
sS'cronaca'
p1251
S'101'
p1252
sS'sport'
p1253
S'156'
p1254
sS'rubriche'
p1255
S'106'
p1256
sa(dp1257
S'tecnologia'
p1258
S'12'
p1259
sS'scienza'
p1260
S'17'
p1261
sS'regione'
p1262
S'84'
p1263
sS'persone'
p1264
S'43'
p1265
sS'media'
p1266
S'17'
p1267
sS'politica'
p1268
S'35'
p1269
sS'spettacolo'
p1270
S'76'
p1271
sS'economia'
p1272
S'78'
p1273
sS'gallerie'
p1274
S'34'
p1275
sS'motori'
p1276
S'10'
p1277
sS'esteri'
p1278
S'97'
p1279
sS'cronaca'
p1280
S'144'
p1281
sS'sport'
p1282
S'101'
p1283
sS'rubriche'
p1284
S'117'
p1285
sa(dp1286
S'storia'
p1287
S'13'
p1288
sS'scienza'
p1289
S'23'
p1290
sS'regione'
p1291
S'96'
p1292
sS'persone'
p1293
S'55'
p1294
sS'media'
p1295
S'15'
p1296
sS'politica'
p1297
S'31'
p1298
sS'spettacolo'
p1299
S'68'
p1300
sS'economia'
p1301
S'59'
p1302
sS'gallerie'
p1303
S'25'
p1304
sS'moda'
p1305
S'24'
p1306
sS'esteri'
p1307
S'63'
p1308
sS'cronaca'
p1309
S'96'
p1310
sS'sport'
p1311
S'85'
p1312
sS'rubriche'
p1313
S'114'
p1314
sa(dp1315
S'tecnologia'
p1316
S'12'
p1317
sS'scienza'
p1318
S'16'
p1319
sS'regione'
p1320
S'83'
p1321
sS'persone'
p1322
S'77'
p1323
sS'media'
p1324
S'31'
p1325
sS'politica'
p1326
S'40'
p1327
sS'spettacolo'
p1328
S'40'
p1329
sS'economia'
p1330
S'105'
p1331
sS'gallerie'
p1332
S'31'
p1333
sS'moda'
p1334
S'14'
p1335
sS'esteri'
p1336
S'43'
p1337
sS'cronaca'
p1338
S'196'
p1339
sS'sport'
p1340
S'52'
p1341
sS'rubriche'
p1342
S'109'
p1343
sa(dp1344
S'tecnologia'
p1345
S'14'
p1346
sS'scienza'
p1347
S'12'
p1348
sS'regione'
p1349
S'67'
p1350
sS'persone'
p1351
S'56'
p1352
sS'media'
p1353
S'12'
p1354
sS'politica'
p1355
S'48'
p1356
sS'spettacolo'
p1357
S'45'
p1358
sS'economia'
p1359
S'74'
p1360
sS'gallerie'
p1361
S'32'
p1362
sS'salute'
p1363
S'11'
p1364
sS'esteri'
p1365
S'38'
p1366
sS'cronaca'
p1367
S'125'
p1368
sS'sport'
p1369
S'79'
p1370
sS'rubriche'
p1371
S'158'
p1372
sa(dp1373
S'tecnologia'
p1374
S'20'
p1375
sS'scienza'
p1376
S'34'
p1377
sS'regione'
p1378
S'61'
p1379
sS'persone'
p1380
S'48'
p1381
sS'media'
p1382
S'19'
p1383
sS'politica'
p1384
S'35'
p1385
sS'prodotto'
p1386
S'12'
p1387
sS'spettacolo'
p1388
S'61'
p1389
sS'economia'
p1390
S'69'
p1391
sS'gallerie'
p1392
S'26'
p1393
sS'esteri'
p1394
S'28'
p1395
sS'cronaca'
p1396
S'90'
p1397
sS'sport'
p1398
S'62'
p1399
sS'rubriche'
p1400
S'111'
p1401
sa(dp1402
S'tecnologia'
p1403
S'19'
p1404
sS'scienza'
p1405
S'25'
p1406
sS'regione'
p1407
S'83'
p1408
sS'persone'
p1409
S'59'
p1410
sS'media'
p1411
S'15'
p1412
sS'politica'
p1413
S'77'
p1414
sS'spettacolo'
p1415
S'63'
p1416
sS'economia'
p1417
S'63'
p1418
sS'gallerie'
p1419
S'33'
p1420
sS'motori'
p1421
S'12'
p1422
sS'esteri'
p1423
S'30'
p1424
sS'cronaca'
p1425
S'74'
p1426
sS'sport'
p1427
S'127'
p1428
sS'rubriche'
p1429
S'175'
p1430
sasg384
(lp1431
(dp1432
S'tecnologia'
p1433
S'751'
p1434
sS'scienza'
p1435
S'378'
p1436
sS'regione'
p1437
S'709'
p1438
sS'persone'
p1439
S'569'
p1440
sS'media'
p1441
S'243'
p1442
sS'politica'
p1443
S'412'
p1444
sS'spettacolo'
p1445
S'1278'
p1446
sS'economia'
p1447
S'455'
p1448
sS'gallerie'
p1449
S'565'
p1450
sS'motori'
p1451
S'205'
p1452
sS'esteri'
p1453
S'574'
p1454
sS'cronaca'
p1455
S'1907'
p1456
sS'sport'
p1457
S'1661'
p1458
sS'rubriche'
p1459
S'1500'
p1460
sa(dp1461
S'tecnologia'
p1462
S'595'
p1463
sS'scienza'
p1464
S'318'
p1465
sS'regione'
p1466
S'683'
p1467
sS'persone'
p1468
S'579'
p1469
sS'media'
p1470
S'276'
p1471
sS'politica'
p1472
S'299'
p1473
sS'spettacolo'
p1474
S'894'
p1475
sS'economia'
p1476
S'715'
p1477
sS'gallerie'
p1478
S'379'
p1479
sS'motori'
p1480
S'169'
p1481
sS'esteri'
p1482
S'584'
p1483
sS'cronaca'
p1484
S'1850'
p1485
sS'sport'
p1486
S'1275'
p1487
sS'rubriche'
p1488
S'1306'
p1489
sa(dp1490
S'tecnologia'
p1491
S'343'
p1492
sS'scienza'
p1493
S'254'
p1494
sS'regione'
p1495
S'863'
p1496
sS'persone'
p1497
S'761'
p1498
sS'politica'
p1499
S'353'
p1500
sS'spettacolo'
p1501
S'852'
p1502
sS'economia'
p1503
S'870'
p1504
sS'gallerie'
p1505
S'597'
p1506
sS'motori'
p1507
S'225'
p1508
sS'esteri'
p1509
S'601'
p1510
sS'cronaca'
p1511
S'1769'
p1512
sS'sport'
p1513
S'1362'
p1514
sS'rubriche'
p1515
S'1644'
p1516
sS'scuola'
p1517
S'201'
p1518
sa(dp1519
S'tecnologia'
p1520
S'252'
p1521
sS'notizia'
p1522
S'247'
p1523
sS'scienza'
p1524
S'295'
p1525
sS'regione'
p1526
S'983'
p1527
sS'persone'
p1528
S'573'
p1529
sS'politica'
p1530
S'370'
p1531
sS'spettacolo'
p1532
S'1537'
p1533
sS'economia'
p1534
S'871'
p1535
sS'gallerie'
p1536
S'582'
p1537
sS'salute'
p1538
S'192'
p1539
sS'esteri'
p1540
S'551'
p1541
sS'cronaca'
p1542
S'2134'
p1543
sS'sport'
p1544
S'1246'
p1545
sS'rubriche'
p1546
S'1463'
p1547
sa(dp1548
S'tecnologia'
p1549
S'395'
p1550
sS'scienza'
p1551
S'269'
p1552
sS'regione'
p1553
S'761'
p1554
sS'persone'
p1555
S'554'
p1556
sS'media'
p1557
S'168'
p1558
sS'politica'
p1559
S'264'
p1560
sS'spettacolo'
p1561
S'1177'
p1562
sS'economia'
p1563
S'677'
p1564
sS'gallerie'
p1565
S'432'
p1566
sS'salute'
p1567
S'169'
p1568
sS'esteri'
p1569
S'611'
p1570
sS'cronaca'
p1571
S'2058'
p1572
sS'sport'
p1573
S'1204'
p1574
sS'rubriche'
p1575
S'1483'
p1576
sa(dp1577
S'tecnologia'
p1578
S'282'
p1579
sS'scienza'
p1580
S'354'
p1581
sS'regione'
p1582
S'556'
p1583
sS'persone'
p1584
S'572'
p1585
sS'media'
p1586
S'164'
p1587
sS'politica'
p1588
S'289'
p1589
sS'spettacolo'
p1590
S'1096'
p1591
sS'economia'
p1592
S'754'
p1593
sS'gallerie'
p1594
S'724'
p1595
sS'esteri'
p1596
S'646'
p1597
sS'viaggi'
p1598
S'244'
p1599
sS'cronaca'
p1600
S'1833'
p1601
sS'sport'
p1602
S'1141'
p1603
sS'rubriche'
p1604
S'1259'
p1605
sa(dp1606
S'tecnologia'
p1607
S'271'
p1608
sS'scienza'
p1609
S'356'
p1610
sS'regione'
p1611
S'583'
p1612
sS'persone'
p1613
S'516'
p1614
sS'politica'
p1615
S'270'
p1616
sS'spettacolo'
p1617
S'925'
p1618
sS'economia'
p1619
S'599'
p1620
sS'gallerie'
p1621
S'559'
p1622
sS'salute'
p1623
S'276'
p1624
sS'esteri'
p1625
S'584'
p1626
sS'viaggi'
p1627
S'209'
p1628
sS'cronaca'
p1629
S'1775'
p1630
sS'sport'
p1631
S'1586'
p1632
sS'rubriche'
p1633
S'1332'
p1634
sa(dp1635
S'tecnologia'
p1636
S'261'
p1637
sS'scienza'
p1638
S'356'
p1639
sS'regione'
p1640
S'701'
p1641
sS'persone'
p1642
S'768'
p1643
sS'politica'
p1644
S'506'
p1645
sS'spettacolo'
p1646
S'1346'
p1647
sS'economia'
p1648
S'588'
p1649
sS'gallerie'
p1650
S'570'
p1651
sS'salute'
p1652
S'261'
p1653
sS'motori'
p1654
S'1160'
p1655
sS'esteri'
p1656
S'492'
p1657
sS'cronaca'
p1658
S'1767'
p1659
sS'sport'
p1660
S'2248'
p1661
sS'rubriche'
p1662
S'1357'
p1663
sa(dp1664
S'tecnologia'
p1665
S'340'
p1666
sS'scienza'
p1667
S'356'
p1668
sS'regione'
p1669
S'470'
p1670
sS'persone'
p1671
S'830'
p1672
sS'politica'
p1673
S'353'
p1674
sS'spettacolo'
p1675
S'1311'
p1676
sS'economia'
p1677
S'528'
p1678
sS'gallerie'
p1679
S'417'
p1680
sS'salute'
p1681
S'223'
p1682
sS'motori'
p1683
S'423'
p1684
sS'esteri'
p1685
S'526'
p1686
sS'cronaca'
p1687
S'1494'
p1688
sS'sport'
p1689
S'1770'
p1690
sS'rubriche'
p1691
S'1373'
p1692
sa(dp1693
S'tecnologia'
p1694
S'551'
p1695
sS'scienza'
p1696
S'341'
p1697
sS'regione'
p1698
S'919'
p1699
sS'persone'
p1700
S'594'
p1701
sS'politica'
p1702
S'467'
p1703
sS'spettacolo'
p1704
S'1563'
p1705
sS'economia'
p1706
S'783'
p1707
sS'gallerie'
p1708
S'428'
p1709
sS'salute'
p1710
S'147'
p1711
sS'motori'
p1712
S'171'
p1713
sS'esteri'
p1714
S'1011'
p1715
sS'cronaca'
p1716
S'1602'
p1717
sS'sport'
p1718
S'1215'
p1719
sS'rubriche'
p1720
S'1237'
p1721
sa(dp1722
S'tecnologia'
p1723
S'396'
p1724
sS'scienza'
p1725
S'400'
p1726
sS'regione'
p1727
S'1049'
p1728
sS'persone'
p1729
S'701'
p1730
sS'politica'
p1731
S'408'
p1732
sS'spettacolo'
p1733
S'900'
p1734
sS'economia'
p1735
S'671'
p1736
sS'gallerie'
p1737
S'405'
p1738
sS'salute'
p1739
S'312'
p1740
sS'esteri'
p1741
S'538'
p1742
sS'cronaca'
p1743
S'1600'
p1744
sS'sport'
p1745
S'1437'
p1746
sS'rubriche'
p1747
S'1153'
p1748
sS'scuola'
p1749
S'268'
p1750
sa(dp1751
S'tecnologia'
p1752
S'302'
p1753
sS'scienza'
p1754
S'414'
p1755
sS'regione'
p1756
S'666'
p1757
sS'persone'
p1758
S'670'
p1759
sS'politica'
p1760
S'412'
p1761
sS'spettacolo'
p1762
S'869'
p1763
sS'economia'
p1764
S'839'
p1765
sS'gallerie'
p1766
S'318'
p1767
sS'salute'
p1768
S'273'
p1769
sS'esteri'
p1770
S'559'
p1771
sS'cronaca'
p1772
S'1592'
p1773
sS'sport'
p1774
S'1742'
p1775
sS'rubriche'
p1776
S'1528'
p1777
sS'scuola'
p1778
S'372'
p1779
sa(dp1780
S'tecnologia'
p1781
S'299'
p1782
sS'scienza'
p1783
S'386'
p1784
sS'regione'
p1785
S'504'
p1786
sS'persone'
p1787
S'712'
p1788
sS'politica'
p1789
S'370'
p1790
sS'spettacolo'
p1791
S'876'
p1792
sS'economia'
p1793
S'702'
p1794
sS'gallerie'
p1795
S'377'
p1796
sS'salute'
p1797
S'181'
p1798
sS'esteri'
p1799
S'727'
p1800
sS'cronaca'
p1801
S'1591'
p1802
sS'sport'
p1803
S'1694'
p1804
sS'rubriche'
p1805
S'1414'
p1806
sS'scuola'
p1807
S'299'
p1808
sa(dp1809
S'tecnologia'
p1810
S'288'
p1811
sS'scienza'
p1812
S'370'
p1813
sS'regione'
p1814
S'595'
p1815
sS'persone'
p1816
S'665'
p1817
sS'politica'
p1818
S'408'
p1819
sS'spettacolo'
p1820
S'885'
p1821
sS'economia'
p1822
S'512'
p1823
sS'gallerie'
p1824
S'400'
p1825
sS'salute'
p1826
S'257'
p1827
sS'motori'
p1828
S'286'
p1829
sS'esteri'
p1830
S'703'
p1831
sS'cronaca'
p1832
S'1726'
p1833
sS'sport'
p1834
S'2226'
p1835
sS'rubriche'
p1836
S'1255'
p1837
sa(dp1838
S'tecnologia'
p1839
S'451'
p1840
sS'scienza'
p1841
S'375'
p1842
sS'regione'
p1843
S'575'
p1844
sS'persone'
p1845
S'670'
p1846
sS'politica'
p1847
S'444'
p1848
sS'spettacolo'
p1849
S'1084'
p1850
sS'economia'
p1851
S'491'
p1852
sS'gallerie'
p1853
S'393'
p1854
sS'salute'
p1855
S'298'
p1856
sS'motori'
p1857
S'319'
p1858
sS'esteri'
p1859
S'668'
p1860
sS'cronaca'
p1861
S'1551'
p1862
sS'sport'
p1863
S'2146'
p1864
sS'rubriche'
p1865
S'1478'
p1866
sa(dp1867
S'tecnologia'
p1868
S'245'
p1869
sS'scienza'
p1870
S'462'
p1871
sS'regione'
p1872
S'497'
p1873
sS'persone'
p1874
S'839'
p1875
sS'politica'
p1876
S'335'
p1877
sS'spettacolo'
p1878
S'1035'
p1879
sS'economia'
p1880
S'1004'
p1881
sS'gallerie'
p1882
S'565'
p1883
sS'salute'
p1884
S'233'
p1885
sS'moda'
p1886
S'306'
p1887
sS'esteri'
p1888
S'487'
p1889
sS'cronaca'
p1890
S'1729'
p1891
sS'sport'
p1892
S'1643'
p1893
sS'rubriche'
p1894
S'1327'
p1895
sa(dp1896
S'tecnologia'
p1897
S'221'
p1898
sS'scienza'
p1899
S'395'
p1900
sS'regione'
p1901
S'741'
p1902
sS'persone'
p1903
S'746'
p1904
sS'politica'
p1905
S'464'
p1906
sS'spettacolo'
p1907
S'962'
p1908
sS'economia'
p1909
S'813'
p1910
sS'gallerie'
p1911
S'387'
p1912
sS'moda'
p1913
S'316'
p1914
sS'esteri'
p1915
S'552'
p1916
sS'viaggi'
p1917
S'614'
p1918
sS'cronaca'
p1919
S'1766'
p1920
sS'sport'
p1921
S'1477'
p1922
sS'rubriche'
p1923
S'1370'
p1924
sa(dp1925
S'tecnologia'
p1926
S'246'
p1927
sS'scienza'
p1928
S'397'
p1929
sS'regione'
p1930
S'541'
p1931
sS'persone'
p1932
S'873'
p1933
sS'politica'
p1934
S'409'
p1935
sS'spettacolo'
p1936
S'1017'
p1937
sS'economia'
p1938
S'1022'
p1939
sS'gallerie'
p1940
S'328'
p1941
sS'salute'
p1942
S'204'
p1943
sS'esteri'
p1944
S'1071'
p1945
sS'viaggi'
p1946
S'181'
p1947
sS'cronaca'
p1948
S'1663'
p1949
sS'sport'
p1950
S'1315'
p1951
sS'rubriche'
p1952
S'1353'
p1953
sa(dp1954
S'tecnologia'
p1955
S'371'
p1956
sS'sole'
p1957
S'142'
p1958
sS'regione'
p1959
S'487'
p1960
sS'scienza'
p1961
S'694'
p1962
sS'persone'
p1963
S'1079'
p1964
sS'politica'
p1965
S'369'
p1966
sS'spettacolo'
p1967
S'866'
p1968
sS'economia'
p1969
S'688'
p1970
sS'gallerie'
p1971
S'455'
p1972
sS'salute'
p1973
S'204'
p1974
sS'esteri'
p1975
S'963'
p1976
sS'cronaca'
p1977
S'1550'
p1978
sS'sport'
p1979
S'2146'
p1980
sS'rubriche'
p1981
S'1792'
p1982
sa(dp1983
S'tecnologia'
p1984
S'550'
p1985
sS'politica'
p1986
S'290'
p1987
sS'regione'
p1988
S'532'
p1989
sS'scienza'
p1990
S'1268'
p1991
sS'persone'
p1992
S'770'
p1993
sS'sole'
p1994
S'363'
p1995
sS'spettacolo'
p1996
S'1003'
p1997
sS'economia'
p1998
S'872'
p1999
sS'gallerie'
p2000
S'373'
p2001
sS'motori'
p2002
S'223'
p2003
sS'esteri'
p2004
S'878'
p2005
sS'cronaca'
p2006
S'1713'
p2007
sS'sport'
p2008
S'1965'
p2009
sS'rubriche'
p2010
S'1661'
p2011
sa(dp2012
S'tecnologia'
p2013
S'524'
p2014
sS'scienza'
p2015
S'368'
p2016
sS'regione'
p2017
S'665'
p2018
sS'persone'
p2019
S'520'
p2020
sS'media'
p2021
S'189'
p2022
sS'politica'
p2023
S'360'
p2024
sS'spettacolo'
p2025
S'909'
p2026
sS'economia'
p2027
S'725'
p2028
sS'gallerie'
p2029
S'411'
p2030
sS'esteri'
p2031
S'855'
p2032
sS'cronaca'
p2033
S'1867'
p2034
sS'sport'
p2035
S'2088'
p2036
sS'rubriche'
p2037
S'1530'
p2038
sS'scuola'
p2039
S'154'
p2040
sa(dp2041
S'tecnologia'
p2042
S'345'
p2043
sS'scienza'
p2044
S'367'
p2045
sS'regione'
p2046
S'835'
p2047
sS'persone'
p2048
S'639'
p2049
sS'media'
p2050
S'315'
p2051
sS'politica'
p2052
S'446'
p2053
sS'spettacolo'
p2054
S'1213'
p2055
sS'economia'
p2056
S'664'
p2057
sS'gallerie'
p2058
S'899'
p2059
sS'esteri'
p2060
S'809'
p2061
sS'cronaca'
p2062
S'1996'
p2063
sS'sport'
p2064
S'2316'
p2065
sS'rubriche'
p2066
S'1746'
p2067
sS'scuola'
p2068
S'234'
p2069
sa(dp2070
S'tecnologia'
p2071
S'290'
p2072
sS'scienza'
p2073
S'318'
p2074
sS'regione'
p2075
S'628'
p2076
sS'persone'
p2077
S'704'
p2078
sS'politica'
p2079
S'308'
p2080
sS'spettacolo'
p2081
S'891'
p2082
sS'economia'
p2083
S'968'
p2084
sS'gallerie'
p2085
S'630'
p2086
sS'motori'
p2087
S'200'
p2088
sS'esteri'
p2089
S'444'
p2090
sS'cronaca'
p2091
S'1810'
p2092
sS'sport'
p2093
S'1792'
p2094
sS'rubriche'
p2095
S'1237'
p2096
sS'scuola'
p2097
S'246'
p2098
sa(dp2099
S'tecnologia'
p2100
S'255'
p2101
sS'scienza'
p2102
S'374'
p2103
sS'regione'
p2104
S'718'
p2105
sS'persone'
p2106
S'750'
p2107
sS'politica'
p2108
S'271'
p2109
sS'spettacolo'
p2110
S'1144'
p2111
sS'economia'
p2112
S'997'
p2113
sS'gallerie'
p2114
S'411'
p2115
sS'salute'
p2116
S'189'
p2117
sS'esteri'
p2118
S'1670'
p2119
sS'cronaca'
p2120
S'1886'
p2121
sS'sport'
p2122
S'1066'
p2123
sS'rubriche'
p2124
S'1661'
p2125
sS'aereo'
p2126
S'359'
p2127
sa(dp2128
S'tecnologia'
p2129
S'202'
p2130
sS'scienza'
p2131
S'381'
p2132
sS'regione'
p2133
S'1127'
p2134
sS'persone'
p2135
S'781'
p2136
sS'politica'
p2137
S'325'
p2138
sS'spettacolo'
p2139
S'959'
p2140
sS'economia'
p2141
S'840'
p2142
sS'gallerie'
p2143
S'361'
p2144
sS'esteri'
p2145
S'1670'
p2146
sS'cronaca'
p2147
S'2526'
p2148
sS'sport'
p2149
S'1151'
p2150
sS'scuola'
p2151
S'246'
p2152
sS'rubriche'
p2153
S'1558'
p2154
sS'aereo'
p2155
S'299'
p2156
sa(dp2157
S'tecnologia'
p2158
S'16'
p2159
sS'scuola'
p2160
S'18'
p2161
sS'regione'
p2162
S'36'
p2163
sS'persone'
p2164
S'43'
p2165
sS'politica'
p2166
S'26'
p2167
sS'scienza'
p2168
S'16'
p2169
sS'spettacolo'
p2170
S'127'
p2171
sS'economia'
p2172
S'24'
p2173
sS'salute'
p2174
S'16'
p2175
sS'esteri'
p2176
S'122'
p2177
sS'cronaca'
p2178
S'138'
p2179
sS'sport'
p2180
S'78'
p2181
sS'rubriche'
p2182
S'59'
p2183
sS'aereo'
p2184
S'17'
p2185
sa(dp2186
a(dp2187
a(dp2188
a(dp2189
a(dp2190
asg34
(lp2191
(dp2192
S'tecnologia'
p2193
S'330'
p2194
sS'scienza'
p2195
S'339'
p2196
sS'regione'
p2197
S'961'
p2198
sS'persone'
p2199
S'756'
p2200
sS'media'
p2201
S'317'
p2202
sS'politica'
p2203
S'854'
p2204
sS'spettacolo'
p2205
S'1136'
p2206
sS'economia'
p2207
S'808'
p2208
sS'gallerie'
p2209
S'485'
p2210
sS'motori'
p2211
S'160'
p2212
sS'esteri'
p2213
S'636'
p2214
sS'cronaca'
p2215
S'1387'
p2216
sS'sport'
p2217
S'2445'
p2218
sS'rubriche'
p2219
S'2054'
p2220
sa(dp2221
S'tecnologia'
p2222
S'325'
p2223
sS'scienza'
p2224
S'325'
p2225
sS'regione'
p2226
S'1171'
p2227
sS'persone'
p2228
S'686'
p2229
sS'media'
p2230
S'516'
p2231
sS'politica'
p2232
S'444'
p2233
sS'spettacolo'
p2234
S'914'
p2235
sS'economia'
p2236
S'1191'
p2237
sS'gallerie'
p2238
S'465'
p2239
sS'salute'
p2240
S'184'
p2241
sS'esteri'
p2242
S'614'
p2243
sS'cronaca'
p2244
S'1657'
p2245
sS'sport'
p2246
S'2015'
p2247
sS'rubriche'
p2248
S'1514'
p2249
sa(dp2250
S'tecnologia'
p2251
S'251'
p2252
sS'scienza'
p2253
S'382'
p2254
sS'regione'
p2255
S'1131'
p2256
sS'persone'
p2257
S'682'
p2258
sS'politica'
p2259
S'481'
p2260
sS'spettacolo'
p2261
S'1065'
p2262
sS'economia'
p2263
S'1159'
p2264
sS'gallerie'
p2265
S'830'
p2266
sS'salute'
p2267
S'307'
p2268
sS'motori'
p2269
S'395'
p2270
sS'esteri'
p2271
S'823'
p2272
sS'cronaca'
p2273
S'1541'
p2274
sS'sport'
p2275
S'1498'
p2276
sS'rubriche'
p2277
S'2142'
p2278
sa(dp2279
S'scienza'
p2280
S'509'
p2281
sS'aereo'
p2282
S'561'
p2283
sS'regione'
p2284
S'797'
p2285
sS'persone'
p2286
S'765'
p2287
sS'politica'
p2288
S'373'
p2289
sS'spettacolo'
p2290
S'1410'
p2291
sS'economia'
p2292
S'894'
p2293
sS'gallerie'
p2294
S'468'
p2295
sS'motori'
p2296
S'274'
p2297
sS'esteri'
p2298
S'1231'
p2299
sS'cronaca'
p2300
S'1844'
p2301
sS'sport'
p2302
S'1751'
p2303
sS'tecnologia'
p2304
S'254'
p2305
sS'rubriche'
p2306
S'1712'
p2307
sa(dp2308
S'tecnologia'
p2309
S'266'
p2310
sS'scienza'
p2311
S'355'
p2312
sS'regione'
p2313
S'731'
p2314
sS'persone'
p2315
S'742'
p2316
sS'media'
p2317
S'173'
p2318
sS'politica'
p2319
S'431'
p2320
sS'spettacolo'
p2321
S'1076'
p2322
sS'economia'
p2323
S'1115'
p2324
sS'gallerie'
p2325
S'470'
p2326
sS'motori'
p2327
S'191'
p2328
sS'esteri'
p2329
S'704'
p2330
sS'cronaca'
p2331
S'2149'
p2332
sS'sport'
p2333
S'1683'
p2334
sS'rubriche'
p2335
S'1911'
p2336
sa(dp2337
S'tecnologia'
p2338
S'231'
p2339
sS'scienza'
p2340
S'419'
p2341
sS'regione'
p2342
S'1391'
p2343
sS'persone'
p2344
S'883'
p2345
sS'politica'
p2346
S'524'
p2347
sS'spettacolo'
p2348
S'1553'
p2349
sS'economia'
p2350
S'1106'
p2351
sS'gallerie'
p2352
S'542'
p2353
sS'motori'
p2354
S'234'
p2355
sS'maltempo'
p2356
S'394'
p2357
sS'esteri'
p2358
S'727'
p2359
sS'cronaca'
p2360
S'3567'
p2361
sS'sport'
p2362
S'1917'
p2363
sS'rubriche'
p2364
S'2117'
p2365
sa(dp2366
S'tecnologia'
p2367
S'224'
p2368
sS'scienza'
p2369
S'318'
p2370
sS'regione'
p2371
S'1103'
p2372
sS'persone'
p2373
S'695'
p2374
sS'media'
p2375
S'198'
p2376
sS'politica'
p2377
S'433'
p2378
sS'spettacolo'
p2379
S'1282'
p2380
sS'economia'
p2381
S'773'
p2382
sS'gallerie'
p2383
S'546'
p2384
sS'maltempo'
p2385
S'239'
p2386
sS'esteri'
p2387
S'608'
p2388
sS'cronaca'
p2389
S'2440'
p2390
sS'sport'
p2391
S'2076'
p2392
sS'rubriche'
p2393
S'1421'
p2394
sa(dp2395
S'tecnologia'
p2396
S'282'
p2397
sS'scienza'
p2398
S'368'
p2399
sS'regione'
p2400
S'735'
p2401
sS'persone'
p2402
S'559'
p2403
sS'media'
p2404
S'286'
p2405
sS'politica'
p2406
S'463'
p2407
sS'spettacolo'
p2408
S'1329'
p2409
sS'economia'
p2410
S'857'
p2411
sS'gallerie'
p2412
S'456'
p2413
sS'maltempo'
p2414
S'172'
p2415
sS'esteri'
p2416
S'617'
p2417
sS'cronaca'
p2418
S'1903'
p2419
sS'sport'
p2420
S'2450'
p2421
sS'rubriche'
p2422
S'1446'
p2423
sa(dp2424
S'tecnologia'
p2425
S'284'
p2426
sS'scienza'
p2427
S'315'
p2428
sS'regione'
p2429
S'446'
p2430
sS'persone'
p2431
S'565'
p2432
sS'media'
p2433
S'162'
p2434
sS'politica'
p2435
S'197'
p2436
sS'spettacolo'
p2437
S'1301'
p2438
sS'economia'
p2439
S'1121'
p2440
sS'gallerie'
p2441
S'537'
p2442
sS'motori'
p2443
S'167'
p2444
sS'esteri'
p2445
S'526'
p2446
sS'cronaca'
p2447
S'1977'
p2448
sS'sport'
p2449
S'1609'
p2450
sS'rubriche'
p2451
S'1065'
p2452
sa(dp2453
S'tecnologia'
p2454
S'323'
p2455
sS'scienza'
p2456
S'455'
p2457
sS'regione'
p2458
S'674'
p2459
sS'persone'
p2460
S'613'
p2461
sS'politica'
p2462
S'328'
p2463
sS'spettacolo'
p2464
S'1373'
p2465
sS'economia'
p2466
S'921'
p2467
sS'gallerie'
p2468
S'508'
p2469
sS'salute'
p2470
S'437'
p2471
sS'motori'
p2472
S'159'
p2473
sS'esteri'
p2474
S'483'
p2475
sS'cronaca'
p2476
S'1763'
p2477
sS'sport'
p2478
S'1298'
p2479
sS'rubriche'
p2480
S'1243'
p2481
sa(dp2482
S'serata'
p2483
S'433'
p2484
sS'scienza'
p2485
S'479'
p2486
sS'regione'
p2487
S'616'
p2488
sS'persone'
p2489
S'662'
p2490
sS'media'
p2491
S'348'
p2492
sS'politica'
p2493
S'281'
p2494
sS'spettacolo'
p2495
S'2274'
p2496
sS'economia'
p2497
S'877'
p2498
sS'gallerie'
p2499
S'625'
p2500
sS'salute'
p2501
S'260'
p2502
sS'esteri'
p2503
S'431'
p2504
sS'cronaca'
p2505
S'1725'
p2506
sS'sport'
p2507
S'1215'
p2508
sS'rubriche'
p2509
S'1478'
p2510
sa(dp2511
S'serata'
p2512
S'551'
p2513
sS'tecnologia'
p2514
S'236'
p2515
sS'scienza'
p2516
S'383'
p2517
sS'regione'
p2518
S'624'
p2519
sS'persone'
p2520
S'631'
p2521
sS'media'
p2522
S'227'
p2523
sS'politica'
p2524
S'260'
p2525
sS'spettacolo'
p2526
S'1940'
p2527
sS'economia'
p2528
S'1014'
p2529
sS'gallerie'
p2530
S'607'
p2531
sS'esteri'
p2532
S'691'
p2533
sS'cronaca'
p2534
S'1600'
p2535
sS'sport'
p2536
S'1030'
p2537
sS'rubriche'
p2538
S'1931'
p2539
sa(dp2540
S'serata'
p2541
S'335'
p2542
sS'tecnologia'
p2543
S'227'
p2544
sS'scienza'
p2545
S'398'
p2546
sS'regione'
p2547
S'481'
p2548
sS'persone'
p2549
S'555'
p2550
sS'politica'
p2551
S'430'
p2552
sS'spettacolo'
p2553
S'1580'
p2554
sS'economia'
p2555
S'884'
p2556
sS'gallerie'
p2557
S'410'
p2558
sS'musica'
p2559
S'358'
p2560
sS'esteri'
p2561
S'478'
p2562
sS'cronaca'
p2563
S'1468'
p2564
sS'sport'
p2565
S'1106'
p2566
sS'rubriche'
p2567
S'1311'
p2568
sa(dp2569
S'tecnologia'
p2570
S'284'
p2571
sS'scienza'
p2572
S'407'
p2573
sS'regione'
p2574
S'665'
p2575
sS'persone'
p2576
S'548'
p2577
sS'media'
p2578
S'218'
p2579
sS'politica'
p2580
S'520'
p2581
sS'spettacolo'
p2582
S'1619'
p2583
sS'economia'
p2584
S'710'
p2585
sS'gallerie'
p2586
S'469'
p2587
sS'musica'
p2588
S'193'
p2589
sS'esteri'
p2590
S'631'
p2591
sS'cronaca'
p2592
S'1715'
p2593
sS'sport'
p2594
S'1640'
p2595
sS'rubriche'
p2596
S'1354'
p2597
sa(dp2598
S'tecnologia'
p2599
S'326'
p2600
sS'scienza'
p2601
S'457'
p2602
sS'regione'
p2603
S'1056'
p2604
sS'persone'
p2605
S'627'
p2606
sS'media'
p2607
S'359'
p2608
sS'politica'
p2609
S'328'
p2610
sS'spettacolo'
p2611
S'2837'
p2612
sS'economia'
p2613
S'974'
p2614
sS'gallerie'
p2615
S'527'
p2616
sS'salute'
p2617
S'190'
p2618
sS'esteri'
p2619
S'987'
p2620
sS'cronaca'
p2621
S'1763'
p2622
sS'sport'
p2623
S'1955'
p2624
sS'rubriche'
p2625
S'2201'
p2626
sa(dp2627
S'scienza'
p2628
S'306'
p2629
sS'regione'
p2630
S'813'
p2631
sS'persone'
p2632
S'514'
p2633
sS'media'
p2634
S'196'
p2635
sS'politica'
p2636
S'372'
p2637
sS'spettacolo'
p2638
S'1304'
p2639
sS'economia'
p2640
S'920'
p2641
sS'gallerie'
p2642
S'471'
p2643
sS'salute'
p2644
S'200'
p2645
sS'motori'
p2646
S'189'
p2647
sS'esteri'
p2648
S'915'
p2649
sS'cronaca'
p2650
S'1794'
p2651
sS'sport'
p2652
S'1700'
p2653
sS'rubriche'
p2654
S'1749'
p2655
sa(dp2656
S'scienza'
p2657
S'357'
p2658
sS'regione'
p2659
S'931'
p2660
sS'persone'
p2661
S'625'
p2662
sS'media'
p2663
S'210'
p2664
sS'politica'
p2665
S'294'
p2666
sS'spettacolo'
p2667
S'897'
p2668
sS'economia'
p2669
S'1024'
p2670
sS'gallerie'
p2671
S'429'
p2672
sS'salute'
p2673
S'230'
p2674
sS'motori'
p2675
S'300'
p2676
sS'esteri'
p2677
S'1063'
p2678
sS'cronaca'
p2679
S'1819'
p2680
sS'sport'
p2681
S'1385'
p2682
sS'rubriche'
p2683
S'1383'
p2684
sa(dp2685
S'tecnologia'
p2686
S'242'
p2687
sS'scienza'
p2688
S'332'
p2689
sS'regione'
p2690
S'727'
p2691
sS'persone'
p2692
S'603'
p2693
sS'politica'
p2694
S'304'
p2695
sS'spettacolo'
p2696
S'902'
p2697
sS'economia'
p2698
S'936'
p2699
sS'gallerie'
p2700
S'299'
p2701
sS'salute'
p2702
S'301'
p2703
sS'motori'
p2704
S'180'
p2705
sS'esteri'
p2706
S'811'
p2707
sS'cronaca'
p2708
S'1904'
p2709
sS'sport'
p2710
S'1082'
p2711
sS'rubriche'
p2712
S'1564'
p2713
sa(dp2714
S'tecnologia'
p2715
S'179'
p2716
sS'scienza'
p2717
S'328'
p2718
sS'regione'
p2719
S'986'
p2720
sS'persone'
p2721
S'509'
p2722
sS'media'
p2723
S'186'
p2724
sS'politica'
p2725
S'295'
p2726
sS'spettacolo'
p2727
S'974'
p2728
sS'economia'
p2729
S'825'
p2730
sS'gallerie'
p2731
S'425'
p2732
sS'salute'
p2733
S'200'
p2734
sS'esteri'
p2735
S'883'
p2736
sS'cronaca'
p2737
S'1768'
p2738
sS'sport'
p2739
S'1538'
p2740
sS'rubriche'
p2741
S'1506'
p2742
sa(dp2743
S'tecnologia'
p2744
S'290'
p2745
sS'scienza'
p2746
S'309'
p2747
sS'regione'
p2748
S'1024'
p2749
sS'persone'
p2750
S'587'
p2751
sS'media'
p2752
S'184'
p2753
sS'politica'
p2754
S'296'
p2755
sS'spettacolo'
p2756
S'1094'
p2757
sS'economia'
p2758
S'1291'
p2759
sS'gallerie'
p2760
S'494'
p2761
sS'motori'
p2762
S'193'
p2763
sS'esteri'
p2764
S'485'
p2765
sS'cronaca'
p2766
S'1788'
p2767
sS'sport'
p2768
S'1753'
p2769
sS'rubriche'
p2770
S'1206'
p2771
sa(dp2772
S'tecnologia'
p2773
S'370'
p2774
sS'scienza'
p2775
S'381'
p2776
sS'regione'
p2777
S'967'
p2778
sS'persone'
p2779
S'467'
p2780
sS'politica'
p2781
S'256'
p2782
sS'spettacolo'
p2783
S'961'
p2784
sS'economia'
p2785
S'1384'
p2786
sS'gallerie'
p2787
S'453'
p2788
sS'salute'
p2789
S'311'
p2790
sS'esteri'
p2791
S'593'
p2792
sS'viaggi'
p2793
S'211'
p2794
sS'cronaca'
p2795
S'1821'
p2796
sS'sport'
p2797
S'1594'
p2798
sS'rubriche'
p2799
S'1009'
p2800
sa(dp2801
S'tecnologia'
p2802
S'363'
p2803
sS'scienza'
p2804
S'353'
p2805
sS'regione'
p2806
S'954'
p2807
sS'persone'
p2808
S'570'
p2809
sS'politica'
p2810
S'426'
p2811
sS'spettacolo'
p2812
S'1293'
p2813
sS'economia'
p2814
S'1079'
p2815
sS'gallerie'
p2816
S'664'
p2817
sS'salute'
p2818
S'276'
p2819
sS'esteri'
p2820
S'608'
p2821
sS'cronaca'
p2822
S'2229'
p2823
sS'sport'
p2824
S'2606'
p2825
sS'rubriche'
p2826
S'1537'
p2827
sS'scuola'
p2828
S'278'
p2829
sa(dp2830
S'tecnologia'
p2831
S'236'
p2832
sS'scienza'
p2833
S'409'
p2834
sS'regione'
p2835
S'739'
p2836
sS'persone'
p2837
S'603'
p2838
sS'politica'
p2839
S'300'
p2840
sS'spettacolo'
p2841
S'1856'
p2842
sS'economia'
p2843
S'1059'
p2844
sS'gallerie'
p2845
S'2057'
p2846
sS'salute'
p2847
S'161'
p2848
sS'motori'
p2849
S'182'
p2850
sS'esteri'
p2851
S'410'
p2852
sS'cronaca'
p2853
S'1341'
p2854
sS'sport'
p2855
S'1479'
p2856
sS'rubriche'
p2857
S'1500'
p2858
sa(dp2859
S'tecnologia'
p2860
S'341'
p2861
sS'festa'
p2862
S'371'
p2863
sS'regione'
p2864
S'797'
p2865
sS'persone'
p2866
S'545'
p2867
sS'politica'
p2868
S'330'
p2869
sS'spettacolo'
p2870
S'1182'
p2871
sS'economia'
p2872
S'958'
p2873
sS'gallerie'
p2874
S'852'
p2875
sS'salute'
p2876
S'449'
p2877
sS'motori'
p2878
S'418'
p2879
sS'esteri'
p2880
S'404'
p2881
sS'cronaca'
p2882
S'1518'
p2883
sS'sport'
p2884
S'1576'
p2885
sS'rubriche'
p2886
S'1247'
p2887
sa(dp2888
S'tecnologia'
p2889
S'289'
p2890
sS'scienza'
p2891
S'229'
p2892
sS'regione'
p2893
S'777'
p2894
sS'persone'
p2895
S'556'
p2896
sS'politica'
p2897
S'706'
p2898
sS'spettacolo'
p2899
S'1014'
p2900
sS'economia'
p2901
S'1018'
p2902
sS'gallerie'
p2903
S'580'
p2904
sS'salute'
p2905
S'241'
p2906
sS'motori'
p2907
S'317'
p2908
sS'esteri'
p2909
S'575'
p2910
sS'cronaca'
p2911
S'1597'
p2912
sS'sport'
p2913
S'1916'
p2914
sS'rubriche'
p2915
S'1438'
p2916
sa(dp2917
S'tecnologia'
p2918
S'190'
p2919
sS'scienza'
p2920
S'324'
p2921
sS'regione'
p2922
S'612'
p2923
sS'persone'
p2924
S'442'
p2925
sS'politica'
p2926
S'360'
p2927
sS'spettacolo'
p2928
S'1116'
p2929
sS'economia'
p2930
S'736'
p2931
sS'gallerie'
p2932
S'384'
p2933
sS'motori'
p2934
S'187'
p2935
sS'esteri'
p2936
S'615'
p2937
sS'viaggi'
p2938
S'183'
p2939
sS'cronaca'
p2940
S'1567'
p2941
sS'sport'
p2942
S'1543'
p2943
sS'rubriche'
p2944
S'1391'
p2945
sa(dp2946
S'tecnologia'
p2947
S'362'
p2948
sS'scienza'
p2949
S'482'
p2950
sS'regione'
p2951
S'943'
p2952
sS'persone'
p2953
S'691'
p2954
sS'politica'
p2955
S'273'
p2956
sS'spettacolo'
p2957
S'964'
p2958
sS'economia'
p2959
S'674'
p2960
sS'gallerie'
p2961
S'438'
p2962
sS'motori'
p2963
S'173'
p2964
sS'esteri'
p2965
S'504'
p2966
sS'viaggi'
p2967
S'172'
p2968
sS'cronaca'
p2969
S'1472'
p2970
sS'sport'
p2971
S'1706'
p2972
sS'rubriche'
p2973
S'1460'
p2974
sa(dp2975
S'tecnologia'
p2976
S'458'
p2977
sS'scienza'
p2978
S'593'
p2979
sS'regione'
p2980
S'727'
p2981
sS'persone'
p2982
S'613'
p2983
sS'media'
p2984
S'179'
p2985
sS'politica'
p2986
S'366'
p2987
sS'spettacolo'
p2988
S'996'
p2989
sS'economia'
p2990
S'495'
p2991
sS'gallerie'
p2992
S'314'
p2993
sS'motori'
p2994
S'191'
p2995
sS'esteri'
p2996
S'610'
p2997
sS'cronaca'
p2998
S'1888'
p2999
sS'sport'
p3000
S'1604'
p3001
sS'rubriche'
p3002
S'1525'
p3003
sasg377
(lp3004
(dp3005
a(dp3006
a(dp3007
a(dp3008
a(dp3009
a(dp3010
a(dp3011
a(dp3012
a(dp3013
a(dp3014
a(dp3015
a(dp3016
a(dp3017
a(dp3018
a(dp3019
a(dp3020
a(dp3021
a(dp3022
a(dp3023
a(dp3024
a(dp3025
a(dp3026
a(dp3027
a(dp3028
a(dp3029
a(dp3030
a(dp3031
a(dp3032
a(dp3033
a(dp3034
a(dp3035
asg38
(lp3036
(dp3037
a(dp3038
a(dp3039
a(dp3040
a(dp3041
a(dp3042
a(dp3043
a(dp3044
a(dp3045
S'tecnologia'
p3046
S'357'
p3047
sS'scienza'
p3048
S'284'
p3049
sS'regione'
p3050
S'971'
p3051
sS'persone'
p3052
S'603'
p3053
sS'politica'
p3054
S'461'
p3055
sS'spettacolo'
p3056
S'634'
p3057
sS'economia'
p3058
S'544'
p3059
sS'gallerie'
p3060
S'411'
p3061
sS'salute'
p3062
S'180'
p3063
sS'motori'
p3064
S'306'
p3065
sS'esteri'
p3066
S'378'
p3067
sS'cronaca'
p3068
S'1908'
p3069
sS'sport'
p3070
S'1012'
p3071
sS'rubriche'
p3072
S'1059'
p3073
sa(dp3074
S'tecnologia'
p3075
S'13'
p3076
sS'scienza'
p3077
g377
sS'regione'
p3078
S'26'
p3079
sS'persone'
p3080
S'34'
p3081
sS'media'
p3082
S'11'
p3083
sS'politica'
p3084
g38
sS'spettacolo'
p3085
S'34'
p3086
sS'economia'
p3087
S'18'
p3088
sS'gallerie'
p3089
S'20'
p3090
sS'motori'
p3091
S'14'
p3092
sS'esteri'
p3093
S'15'
p3094
sS'cronaca'
p3095
S'60'
p3096
sS'sport'
p3097
S'25'
p3098
sS'rubriche'
p3099
S'36'
p3100
sa(dp3101
a(dp3102
a(dp3103
a(dp3104
a(dp3105
S'tecnologia'
p3106
S'244'
p3107
sS'scienza'
p3108
S'366'
p3109
sS'regione'
p3110
S'585'
p3111
sS'persone'
p3112
S'704'
p3113
sS'politica'
p3114
S'409'
p3115
sS'spettacolo'
p3116
S'980'
p3117
sS'economia'
p3118
S'798'
p3119
sS'gallerie'
p3120
S'353'
p3121
sS'salute'
p3122
S'186'
p3123
sS'motori'
p3124
S'150'
p3125
sS'esteri'
p3126
S'425'
p3127
sS'cronaca'
p3128
S'1427'
p3129
sS'sport'
p3130
S'1218'
p3131
sS'rubriche'
p3132
S'1164'
p3133
sa(dp3134
S'tecnologia'
p3135
S'196'
p3136
sS'scienza'
p3137
S'311'
p3138
sS'regione'
p3139
S'727'
p3140
sS'persone'
p3141
S'637'
p3142
sS'media'
p3143
S'129'
p3144
sS'politica'
p3145
S'388'
p3146
sS'spettacolo'
p3147
S'797'
p3148
sS'economia'
p3149
S'786'
p3150
sS'gallerie'
p3151
S'367'
p3152
sS'motori'
p3153
S'204'
p3154
sS'esteri'
p3155
S'771'
p3156
sS'cronaca'
p3157
S'1342'
p3158
sS'sport'
p3159
S'1307'
p3160
sS'rubriche'
p3161
S'1058'
p3162
sa(dp3163
S'tecnologia'
p3164
g41
sS'scienza'
p3165
g38
sS'regione'
p3166
S'24'
p3167
sS'persone'
p3168
S'27'
p3169
sS'politica'
p3170
g41
sS'spettacolo'
p3171
S'37'
p3172
sS'economia'
p3173
S'18'
p3174
sS'gallerie'
p3175
S'11'
p3176
sS'salute'
p3177
g377
sS'esteri'
p3178
S'21'
p3179
sS'cronaca'
p3180
S'32'
p3181
sS'sport'
p3182
S'64'
p3183
sS'rubriche'
p3184
S'49'
p3185
sS'scuola'
p3186
g38
sa(dp3187
a(dp3188
a(dp3189
a(dp3190
a(dp3191
a(dp3192
a(dp3193
a(dp3194
S'tecnologia'
p3195
S'217'
p3196
sS'scienza'
p3197
S'371'
p3198
sS'regione'
p3199
S'614'
p3200
sS'persone'
p3201
S'459'
p3202
sS'politica'
p3203
S'283'
p3204
sS'spettacolo'
p3205
S'896'
p3206
sS'economia'
p3207
S'412'
p3208
sS'gallerie'
p3209
S'369'
p3210
sS'salute'
p3211
S'166'
p3212
sS'motori'
p3213
S'174'
p3214
sS'esteri'
p3215
S'677'
p3216
sS'cronaca'
p3217
S'1610'
p3218
sS'sport'
p3219
S'1360'
p3220
sS'rubriche'
p3221
S'1057'
p3222
sa(dp3223
a(dp3224
a(dp3225
a(dp3226
a(dp3227
asg381
(lp3228
(dp3229
a(dp3230
a(dp3231
a(dp3232
a(dp3233
a(dp3234
a(dp3235
a(dp3236
a(dp3237
a(dp3238
a(dp3239
a(dp3240
a(dp3241
a(dp3242
a(dp3243
a(dp3244
a(dp3245
a(dp3246
a(dp3247
a(dp3248
a(dp3249
a(dp3250
a(dp3251
a(dp3252
a(dp3253
a(dp3254
a(dp3255
a(dp3256
a(dp3257
a(dp3258
a(dp3259
asg46
(lp3260
(dp3261
S'tecnologia'
p3262
S'351'
p3263
sS'scienza'
p3264
S'212'
p3265
sS'regione'
p3266
S'758'
p3267
sS'persone'
p3268
S'527'
p3269
sS'media'
p3270
S'238'
p3271
sS'politica'
p3272
S'1928'
p3273
sS'spettacolo'
p3274
S'607'
p3275
sS'economia'
p3276
S'520'
p3277
sS'gallerie'
p3278
S'315'
p3279
sS'motori'
p3280
S'224'
p3281
sS'esteri'
p3282
S'367'
p3283
sS'cronaca'
p3284
S'1548'
p3285
sS'sport'
p3286
S'1644'
p3287
sS'rubriche'
p3288
S'2424'
p3289
sa(dp3290
S'tecnologia'
p3291
S'50'
p3292
sS'scienza'
p3293
g38
sS'regione'
p3294
S'18'
p3295
sS'persone'
p3296
S'10'
p3297
sS'media'
p3298
g381
sS'politica'
p3299
S'62'
p3300
sS'spettacolo'
p3301
S'27'
p3302
sS'economia'
p3303
g101
sS'gallerie'
p3304
S'14'
p3305
sS'motori'
p3306
g101
sS'esteri'
p3307
S'11'
p3308
sS'cronaca'
p3309
S'33'
p3310
sS'sport'
p3311
S'47'
p3312
sS'rubriche'
p3313
S'68'
p3314
sa(dp3315
a(dp3316
a(dp3317
a(dp3318
a(dp3319
a(dp3320
a(dp3321
a(dp3322
a(dp3323
a(dp3324
a(dp3325
S'scienza'
p3326
S'216'
p3327
sS'regione'
p3328
S'356'
p3329
sS'persone'
p3330
S'217'
p3331
sS'media'
p3332
S'65'
p3333
sS'politica'
p3334
S'82'
p3335
sS'spettacolo'
p3336
S'326'
p3337
sS'economia'
p3338
S'297'
p3339
sS'gallerie'
p3340
S'249'
p3341
sS'salute'
p3342
S'52'
p3343
sS'motori'
p3344
S'53'
p3345
sS'esteri'
p3346
S'154'
p3347
sS'cronaca'
p3348
S'579'
p3349
sS'sport'
p3350
S'771'
p3351
sS'rubriche'
p3352
S'314'
p3353
sa(dp3354
a(dp3355
S'tecnologia'
p3356
S'119'
p3357
sS'scienza'
p3358
S'196'
p3359
sS'regione'
p3360
S'1021'
p3361
sS'persone'
p3362
S'439'
p3363
sS'media'
p3364
S'128'
p3365
sS'politica'
p3366
S'406'
p3367
sS'spettacolo'
p3368
S'499'
p3369
sS'economia'
p3370
S'742'
p3371
sS'gallerie'
p3372
S'506'
p3373
sS'motori'
p3374
S'155'
p3375
sS'esteri'
p3376
S'366'
p3377
sS'cronaca'
p3378
S'1053'
p3379
sS'sport'
p3380
S'1087'
p3381
sS'rubriche'
p3382
S'919'
p3383
sa(dp3384
S'tecnologia'
p3385
g377
sS'scienza'
p3386
S'15'
p3387
sS'regione'
p3388
S'46'
p3389
sS'persone'
p3390
S'17'
p3391
sS'politica'
p3392
g46
sS'spettacolo'
p3393
S'19'
p3394
sS'economia'
p3395
S'41'
p3396
sS'gallerie'
p3397
S'10'
p3398
sS'salute'
p3399
g46
sS'motori'
p3400
g384
sS'esteri'
p3401
S'17'
p3402
sS'cronaca'
p3403
S'37'
p3404
sS'sport'
p3405
S'30'
p3406
sS'rubriche'
p3407
S'29'
p3408
sa(dp3409
a(dp3410
a(dp3411
a(dp3412
a(dp3413
a(dp3414
a(dp3415
a(dp3416
a(dp3417
a(dp3418
a(dp3419
a(dp3420
S'tecnologia'
p3421
S'43'
p3422
sS'scienza'
p3423
S'16'
p3424
sS'regione'
p3425
S'97'
p3426
sS'persone'
p3427
S'22'
p3428
sS'spettacolo'
p3429
S'41'
p3430
sS'economia'
p3431
S'89'
p3432
sS'gallerie'
p3433
S'25'
p3434
sS'motori'
p3435
S'58'
p3436
sS'esteri'
p3437
S'78'
p3438
sS'viaggi'
p3439
S'16'
p3440
sS'cronaca'
p3441
S'77'
p3442
sS'sport'
p3443
S'128'
p3444
sS'rossi'
p3445
S'13'
p3446
sS'rubriche'
p3447
S'60'
p3448
sa(dp3449
a(dp3450
asg101
(lp3451
(dp3452
a(dp3453
a(dp3454
a(dp3455
a(dp3456
a(dp3457
a(dp3458
a(dp3459
a(dp3460
a(dp3461
a(dp3462
a(dp3463
a(dp3464
a(dp3465
a(dp3466
a(dp3467
a(dp3468
a(dp3469
a(dp3470
a(dp3471
a(dp3472
a(dp3473
a(dp3474
a(dp3475
a(dp3476
a(dp3477
a(dp3478
a(dp3479
a(dp3480
a(dp3481
asg41
(lp3482
(dp3483
a(dp3484
a(dp3485
a(dp3486
a(dp3487
a(dp3488
a(dp3489
a(dp3490
a(dp3491
a(dp3492
a(dp3493
a(dp3494
a(dp3495
a(dp3496
a(dp3497
a(dp3498
a(dp3499
a(dp3500
a(dp3501
a(dp3502
a(dp3503
a(dp3504
a(dp3505
a(dp3506
a(dp3507
a(dp3508
a(dp3509
a(dp3510
a(dp3511
a(dp3512
a(dp3513
as.