(dp0
I1
(dp1
S'tecnologia'
p2
I151
sS'storia'
p3
I11
sS'scienza'
p4
I167
sS'regione'
p5
I402
sS'persone'
p6
I274
sS'media'
p7
I133
sS'politica'
p8
I188
sS'curiosita'
p9
I43
sS'prodotto'
p10
I13
sS'spettacolo'
p11
I597
sS'economia'
p12
I370
sS'gallerie'
p13
I211
sS'salute'
p14
I50
sS'motori'
p15
I11
sS'esteri'
p16
I357
sS'cronaca'
p17
I1045
sS'sport'
p18
I560
sS'rubriche'
p19
I691
ssI2
(dp20
S'tecnologia'
p21
I118
sS'scienza'
p22
I172
sS'regione'
p23
I512
sS'persone'
p24
I356
sS'media'
p25
I164
sS'politica'
p26
I192
sS'spettacolo'
p27
I492
sS'economia'
p28
I371
sS'gallerie'
p29
I254
sS'salute'
p30
I117
sS'motori'
p31
I120
sS'esteri'
p32
I879
sS'cronaca'
p33
I951
sS'sport'
p34
I726
sS'rubriche'
p35
I756
ssI3
(dp36
S'tecnologia'
p37
I154
sS'scienza'
p38
I211
sS'regione'
p39
I510
sS'persone'
p40
I331
sS'media'
p41
I100
sS'politica'
p42
I255
sS'prodotto'
p43
I14
sS'spettacolo'
p44
I415
sS'economia'
p45
I472
sS'gallerie'
p46
I227
sS'salute'
p47
I73
sS'motori'
p48
I88
sS'esteri'
p49
I397
sS'cronaca'
p50
I952
sS'sport'
p51
I780
sS'rubriche'
p52
I704
ssI4
(dp53
S'tecnologia'
p54
I85
sS'moda'
p55
I38
sS'scienza'
p56
I152
sS'regione'
p57
I585
sS'persone'
p58
I391
sS'media'
p59
I145
sS'politica'
p60
I256
sS'storia'
p61
I13
sS'spettacolo'
p62
I438
sS'economia'
p63
I537
sS'gallerie'
p64
I205
sS'salute'
p65
I17
sS'motori'
p66
I37
sS'social'
p67
I11
sS'esteri'
p68
I389
sS'viaggi'
p69
I18
sS'cronaca'
p70
I888
sS'sport'
p71
I682
sS'rubriche'
p72
I747
ssI5
(dp73
S'tecnologia'
p74
I1213
sS'scienza'
p75
I1626
sS'regione'
p76
I4271
sS'persone'
p77
I3052
sS'media'
p78
I879
sS'politica'
p79
I2312
sS'prodotto'
p80
I12
sS'spettacolo'
p81
I4694
sS'economia'
p82
I4258
sS'gallerie'
p83
I2339
sS'salute'
p84
I502
sS'motori'
p85
I841
sS'esteri'
p86
I3400
sS'cronaca'
p87
I6718
sS'sport'
p88
I7977
sS'rubriche'
p89
I7866
sS'aereo'
p90
I561
ssI6
(dp91
S'serata'
p92
I433
sS'tecnologia'
p93
I1610
sS'scienza'
p94
I2709
sS'regione'
p95
I5696
sS'persone'
p96
I4719
sS'media'
p97
I1167
sS'politica'
p98
I2657
sS'spettacolo'
p99
I10188
sS'economia'
p100
I6770
sS'gallerie'
p101
I3684
sS'salute'
p102
I697
sS'motori'
p103
I751
sS'maltempo'
p104
I805
sS'esteri'
p105
I4096
sS'cronaca'
p106
I15524
sS'sport'
p107
I12248
sS'rubriche'
p108
I10681
ssI7
(dp109
S'serata'
p110
I886
sS'tecnologia'
p111
I1315
sS'scienza'
p112
I2640
sS'regione'
p113
I5297
sS'persone'
p114
I4103
sS'media'
p115
I1210
sS'politica'
p116
I2508
sS'spettacolo'
p117
I11079
sS'economia'
p118
I6462
sS'gallerie'
p119
I3212
sS'musica'
p120
I551
sS'salute'
p121
I921
sS'motori'
p122
I669
sS'esteri'
p123
I5576
sS'cronaca'
p124
I12063
sS'sport'
p125
I9898
sS'rubriche'
p126
I11493
ssI8
(dp127
S'tecnologia'
p128
I2068
sS'scienza'
p129
I2009
sS'regione'
p130
I6244
sS'persone'
p131
I3837
sS'media'
p132
I370
sS'festa'
p133
I371
sS'politica'
p134
I2609
sS'spettacolo'
p135
I8374
sS'economia'
p136
I7614
sS'gallerie'
p137
I5525
sS'salute'
p138
I1638
sS'motori'
p139
I1110
sS'esteri'
p140
I3958
sS'viaggi'
p141
I211
sS'cronaca'
p142
I12062
sS'sport'
p143
I12462
sS'rubriche'
p144
I9443
sS'scuola'
p145
I278
ssI9
(dp146
S'tecnologia'
p147
I2951
sS'notizia'
p148
I247
sS'scienza'
p149
I2644
sS'regione'
p150
I5520
sS'persone'
p151
I4228
sS'media'
p152
I698
sS'politica'
p153
I2433
sS'spettacolo'
p154
I7637
sS'economia'
p155
I4816
sS'gallerie'
p156
I3259
sS'salute'
p157
I192
sS'motori'
p158
I1150
sS'esteri'
p159
I4039
sS'viaggi'
p160
I355
sS'cronaca'
p161
I12587
sS'sport'
p162
I10397
sS'rubriche'
p163
I10289
sS'scuola'
p164
I201
ssI10
(dp165
S'tecnologia'
p166
I2496
sS'scienza'
p167
I2432
sS'regione'
p168
I5039
sS'persone'
p169
I4535
sS'media'
p170
I332
sS'politica'
p171
I2557
sS'spettacolo'
p172
I8318
sS'economia'
p173
I4600
sS'gallerie'
p174
I3535
sS'salute'
p175
I1388
sS'motori'
p176
I1754
sS'esteri'
p177
I4408
sS'viaggi'
p178
I453
sS'cronaca'
p179
I12129
sS'sport'
p180
I10601
sS'rubriche'
p181
I9194
sS'scuola'
p182
I268
ssI11
(dp183
S'tecnologia'
p184
I2052
sS'scienza'
p185
I2799
sS'regione'
p186
I4119
sS'persone'
p187
I5175
sS'politica'
p188
I2842
sS'spettacolo'
p189
I6728
sS'economia'
p190
I5383
sS'gallerie'
p191
I2768
sS'salute'
p192
I1446
sS'motori'
p193
I605
sS'moda'
p194
I622
sS'esteri'
p195
I4767
sS'viaggi'
p196
I795
sS'cronaca'
p197
I11618
sS'sport'
p198
I12243
sS'rubriche'
p199
I9725
sS'scuola'
p200
I671
ssI12
(dp201
S'tecnologia'
p202
I2537
sS'sole'
p203
I505
sS'regione'
p204
I4992
sS'scienza'
p205
I3770
sS'persone'
p206
I5243
sS'media'
p207
I504
sS'politica'
p208
I2369
sS'spettacolo'
p209
I6985
sS'economia'
p210
I5754
sS'gallerie'
p211
I3540
sS'salute'
p212
I393
sS'motori'
p213
I423
sS'aereo'
p214
I658
sS'esteri'
p215
I7289
sS'cronaca'
p216
I13348
sS'sport'
p217
I12524
sS'rubriche'
p218
I11185
sS'scuola'
p219
I880
ssI13
(dp220
S'tecnologia'
p221
I16
sS'scuola'
p222
I18
sS'regione'
p223
I36
sS'persone'
p224
I43
sS'politica'
p225
I26
sS'scienza'
p226
I16
sS'spettacolo'
p227
I127
sS'economia'
p228
I24
sS'salute'
p229
I16
sS'esteri'
p230
I122
sS'cronaca'
p231
I138
sS'sport'
p232
I78
sS'rubriche'
p233
I59
sS'aereo'
p234
I17
ssI14
(dp235
sI15
(dp236
S'tecnologia'
p237
I614
sS'scienza'
p238
I655
sS'regione'
p239
I1582
sS'persone'
p240
I1341
sS'media'
p241
I11
sS'politica'
p242
I874
sS'spettacolo'
p243
I1648
sS'economia'
p244
I1360
sS'gallerie'
p245
I784
sS'salute'
p246
I366
sS'motori'
p247
I470
sS'esteri'
p248
I818
sS'cronaca'
p249
I3395
sS'sport'
p250
I2255
sS'rubriche'
p251
I2259
ssI16
(dp252
S'tecnologia'
p253
I204
sS'scienza'
p254
I315
sS'regione'
p255
I751
sS'persone'
p256
I664
sS'media'
p257
I129
sS'politica'
p258
I396
sS'spettacolo'
p259
I834
sS'economia'
p260
I804
sS'gallerie'
p261
I378
sS'salute'
p262
I5
sS'motori'
p263
I204
sS'esteri'
p264
I792
sS'cronaca'
p265
I1374
sS'sport'
p266
I1371
sS'rubriche'
p267
I1107
sS'scuola'
p268
I4
ssI17
(dp269
S'tecnologia'
p270
I217
sS'scienza'
p271
I371
sS'regione'
p272
I614
sS'persone'
p273
I459
sS'politica'
p274
I283
sS'spettacolo'
p275
I896
sS'economia'
p276
I412
sS'gallerie'
p277
I369
sS'salute'
p278
I166
sS'motori'
p279
I174
sS'esteri'
p280
I677
sS'cronaca'
p281
I1610
sS'sport'
p282
I1360
sS'rubriche'
p283
I1057
ssI18
(dp284
sI19
(dp285
sI20
(dp286
sI21
(dp287
sI22
(dp288
S'tecnologia'
p289
I401
sS'scienza'
p290
I216
sS'regione'
p291
I776
sS'persone'
p292
I537
sS'media'
p293
I245
sS'politica'
p294
I1990
sS'spettacolo'
p295
I634
sS'economia'
p296
I529
sS'gallerie'
p297
I329
sS'motori'
p298
I233
sS'esteri'
p299
I378
sS'cronaca'
p300
I1581
sS'sport'
p301
I1691
sS'rubriche'
p302
I2492
ssI23
(dp303
sI24
(dp304
S'tecnologia'
p305
I124
sS'scienza'
p306
I427
sS'regione'
p307
I1423
sS'persone'
p308
I673
sS'media'
p309
I193
sS'politica'
p310
I494
sS'spettacolo'
p311
I844
sS'economia'
p312
I1080
sS'gallerie'
p313
I765
sS'salute'
p314
I58
sS'motori'
p315
I211
sS'esteri'
p316
I537
sS'cronaca'
p317
I1669
sS'sport'
p318
I1888
sS'rubriche'
p319
I1262
ssI25
(dp320
sI26
(dp321
S'tecnologia'
p322
I43
sS'scienza'
p323
I16
sS'regione'
p324
I97
sS'persone'
p325
I22
sS'spettacolo'
p326
I41
sS'economia'
p327
I89
sS'gallerie'
p328
I25
sS'motori'
p329
I58
sS'esteri'
p330
I78
sS'viaggi'
p331
I16
sS'cronaca'
p332
I77
sS'sport'
p333
I128
sS'rossi'
p334
I13
sS'rubriche'
p335
I60
ssI27
(dp336
sI28
(dp337
sI29
(dp338
sI30
(dp339
sI31
(dp340
sI32
(dp341
sI33
(dp342
sI34
(dp343
sI35
(dp344
sI36
(dp345
sI37
(dp346
sI38
(dp347
sI39
(dp348
sI40
(dp349
sI41
(dp350
sI42
(dp351
sI43
(dp352
S'scienza'
p353
I649
sS'regione'
p354
I1797
sS'persone'
p355
I935
sS'politica'
p356
I319
sS'spettacolo'
p357
I1137
sS'economia'
p358
I1462
sS'gallerie'
p359
I840
sS'salute'
p360
I473
sS'motori'
p361
I1397
sS'esteri'
p362
I766
sS'viaggi'
p363
I1735
sS'cronaca'
p364
I2020
sS'sport'
p365
I5309
sS'rossi'
p366
I650
sS'rubriche'
p367
I1612
ssI44
(dp368
S'storia'
p369
I2
sS'scienza'
p370
I1237
sS'regione'
p371
I4773
sS'persone'
p372
I2998
sS'media'
p373
I537
sS'politica'
p374
I1646
sS'norme'
p375
I2
sS'spettacolo'
p376
I4031
sS'economia'
p377
I2583
sS'gallerie'
p378
I2025
sS'salute'
p379
I676
sS'motori'
p380
I2112
sS'esteri'
p381
I2231
sS'viaggi'
p382
I2148
sS'cronaca'
p383
I6654
sS'sport'
p384
I12373
sS'rossi'
p385
I262
sS'rubriche'
p386
I4558
ssI45
(dp387
sI46
(dp388
S'tecnologia'
p389
I793
sS'storia'
p390
I792
sS'scienza'
p391
I1439
sS'regione'
p392
I3279
sS'persone'
p393
I1934
sS'politica'
p394
I884
sS'spettacolo'
p395
I3288
sS'economia'
p396
I1096
sS'gallerie'
p397
I1650
sS'motori'
p398
I737
sS'esteri'
p399
I13756
sS'cronaca'
p400
I5662
sS'sport'
p401
I3694
sS'rubriche'
p402
I4125
sS'scuola'
p403
I18
ssI47
(dp404
sI48
(dp405
S'tecnologia'
p406
I486
sS'calendario'
p407
I11
sS'scienza'
p408
I478
sS'regione'
p409
I1313
sS'persone'
p410
I1096
sS'media'
p411
I445
sS'politica'
p412
I377
sS'curiosita'
p413
I3
sS'spettacolo'
p414
I1714
sS'economia'
p415
I1371
sS'gallerie'
p416
I825
sS'motori'
p417
I426
sS'social'
p418
I4
sS'esteri'
p419
I1236
sS'cronaca'
p420
I2649
sS'sport'
p421
I3409
sS'rubriche'
p422
I1679
ssI49
(dp423
sI50
(dp424
S'tecnologia'
p425
I445
sS'scienza'
p426
I676
sS'regione'
p427
I1657
sS'persone'
p428
I1175
sS'media'
p429
I127
sS'politica'
p430
I853
sS'spettacolo'
p431
I1644
sS'economia'
p432
I1640
sS'gallerie'
p433
I927
sS'motori'
p434
I311
sS'esteri'
p435
I790
sS'viaggi'
p436
I315
sS'cronaca'
p437
I3422
sS'sport'
p438
I3365
sS'rubriche'
p439
I1698
ssI51
(dp440
S'tecnologia'
p441
I4
sS'scuola'
p442
I2
sS'regione'
p443
I7
sS'persone'
p444
I5
sS'media'
p445
I7
sS'politica'
p446
I7
sS'spettacolo'
p447
I11
sS'economia'
p448
I12
sS'gallerie'
p449
I13
sS'motori'
p450
I12
sS'esteri'
p451
I5
sS'cronaca'
p452
I14
sS'sport'
p453
I49
sS'rubriche'
p454
I7
ssI52
(dp455
s.