ccollections
defaultdict
p0
(c__builtin__
list
p1
tp2
Rp3
S'motivazioni'
p4
(lp5
I0
aI1
asS'takotsubo'
p6
(lp7
I5
aI0
asS'policarbonato'
p8
(lp9
I0
aI1
asS'sergei'
p10
(lp11
I0
aI1
asS'aeroporto'
p12
(lp13
I0
aI1
asS'dovrebbe'
p14
(lp15
I4
aI0
asS'aiden'
p16
(lp17
I1
aI0
asS'stampante'
p18
(lp19
I0
aI1
asS'unico'
p20
(lp21
I0
aI7
asS'utilizzato'
p22
(lp23
I0
aI1
asS'matteucci'
p24
(lp25
I0
aI1
asS'qualsiasi'
p26
(lp27
I0
aI2
asS'libert\xc3'
p28
(lp29
I1
aI0
asS'controversial'
p30
(lp31
I0
aI2
asS'francesco'
p32
(lp33
I3
aI3
asS'assemblea'
p34
(lp35
I2
aI3
asS'inps'
p36
(lp37
I5
aI0
asS'restylane'
p38
(lp39
I0
aI1
asS'attimo'
p40
(lp41
I0
aI2
asS'roubaix'
p42
(lp43
I0
aI2
asS'lapresse'
p44
(lp45
I1
aI0
asS'presente'
p46
(lp47
I0
aI1
asS'voluto'
p48
(lp49
I2
aI0
asS'paris'
p50
(lp51
I0
aI2
asS'perimetro'
p52
(lp53
I1
aI0
asS'\xab'
p54
(lp55
I76
aI0
asS'benitez'
p56
(lp57
I0
aI1
asS'abilit'
p58
(lp59
I0
aI1
asS'firmato'
p60
(lp61
I0
aI1
asS'bastonate'
p62
(lp63
I1
aI0
asS'bike'
p64
(lp65
I0
aI1
asS'fronte'
p66
(lp67
I1
aI0
asS'popolo'
p68
(lp69
I0
aI1
asS'kidman'
p70
(lp71
I0
aI2
asS'pensioni'
p72
(lp73
I6
aI1
asS'rogna'
p74
(lp75
I0
aI1
asS'pensione'
p76
(lp77
I4
aI1
asS'tassisti'
p78
(lp79
I0
aI1
asS'attentati'
p80
(lp81
I3
aI0
asS'riso'
p82
(lp83
I0
aI1
asS'galiuto'
p84
(lp85
I1
aI0
asS'alluminio'
p86
(lp87
I0
aI4
asS'vaso'
p88
(lp89
I0
aI1
asS'risi'
p90
(lp91
I0
aI1
asS'aurora'
p92
(lp93
I0
aI1
asS'dell'
p94
(lp95
I0
aI46
asS'oceani'
p96
(lp97
I0
aI1
asS'buche'
p98
(lp99
I0
aI1
asS'rappresentano'
p100
(lp101
I1
aI0
asS'calcio'
p102
(lp103
I2
aI1
asS'gravellona'
p104
(lp105
I1
aI0
asS'adige'
p106
(lp107
I0
aI1
asS'reggiseno'
p108
(lp109
I0
aI1
asS'reggiseni'
p110
(lp111
I0
aI1
asS'quantit'
p112
(lp113
I0
aI1
asS'trascrizione'
p114
(lp115
I0
aI1
asS'eleonora'
p116
(lp117
I0
aI1
asS'zonin'
p118
(lp119
I1
aI0
asS'terapie'
p120
(lp121
I0
aI1
asS'manzoli'
p122
(lp123
I4
aI0
asS'albanesi'
p124
(lp125
I0
aI1
asS'fraudolenta'
p126
(lp127
I1
aI0
asS'bizzarre'
p128
(lp129
I0
aI1
asS'girolamo'
p130
(lp131
I0
aI3
asS'vainqueur'
p132
(lp133
I4
aI0
asS'sconfitte'
p134
(lp135
I2
aI0
asS'uccidendo'
p136
(lp137
I0
aI1
asS'pene'
p138
(lp139
I0
aI1
asS'sconfitto'
p140
(lp141
I1
aI2
asS'globuli'
p142
(lp143
I0
aI1
asS'vincenzo'
p144
(lp145
I1
aI0
asS'jeff'
p146
(lp147
I0
aI1
asS'\x80'
p148
(lp149
I8
aI0
asS'testaccio'
p150
(lp151
I1
aI0
asS'parigi'
p152
(lp153
I0
aI2
asS'raccomandazioni'
p154
(lp155
I0
aI2
asS'iturbe'
p156
(lp157
I2
aI0
asS'enti'
p158
(lp159
I1
aI1
asS'valgono'
p160
(lp161
I2
aI0
asS'miur'
p162
(lp163
I1
aI0
asS'pescara'
p164
(lp165
I1
aI0
asS'vegetariani'
p166
(lp167
I0
aI2
asS'losail'
p168
(lp169
I0
aI1
asS'tevere'
p170
(lp171
I11
aI0
asS'street'
p172
(lp173
I0
aI1
asS'berlino'
p174
(lp175
I0
aI2
asS'pattinson'
p176
(lp177
I0
aI1
asS'posizioni'
p178
(lp179
I0
aI3
asS'panda'
p180
(lp181
I0
aI1
asS'glossip'
p182
(lp183
I1
aI0
asS'tipi'
p184
(lp185
I0
aI2
asS'sonda'
p186
(lp187
I2
aI1
asS'tipo'
p188
(lp189
I2
aI3
asS'quizzone'
p190
(lp191
I0
aI1
asS'dacca'
p192
(lp193
I14
aI0
asS'funzionale'
p194
(lp195
I2
aI0
asS'lartigue'
p196
(lp197
I0
aI1
asS'viviamo'
p198
(lp199
I0
aI1
asS'sosta'
p200
(lp201
I0
aI1
asS'daesh'
p202
(lp203
I1
aI0
asS'fuga'
p204
(lp205
I1
aI3
asS'errore'
p206
(lp207
I1
aI3
asS'propri'
p208
(lp209
I1
aI1
asS'sogno'
p210
(lp211
I1
aI1
asS'calendario'
p212
(lp213
I1
aI1
asS'banche'
p214
(lp215
I0
aI1
asS'organismo'
p216
(lp217
I1
aI0
asS'carpet'
p218
(lp219
I0
aI2
asS'lorella'
p220
(lp221
I0
aI1
asS'coraggio'
p222
(lp223
I1
aI0
asS'romanzo'
p224
(lp225
I0
aI1
asS'alquanto'
p226
(lp227
I0
aI1
asS'zach'
p228
(lp229
I1
aI0
asS'sisde'
p230
(lp231
I0
aI1
asS'istanze'
p232
(lp233
I0
aI1
asS'nerazzurro'
p234
(lp235
I0
aI1
asS'prodotti'
p236
(lp237
I0
aI5
asS'nerazzurri'
p238
(lp239
I0
aI1
asS'realta'
p240
(lp241
I0
aI1
asS'fisica'
p242
(lp243
I0
aI1
asS'cranio'
p244
(lp245
I0
aI1
asS'ucraino'
p246
(lp247
I3
aI0
asS'porno'
p248
(lp249
I0
aI4
asS'studio'
p250
(lp251
I13
aI6
asS'dossena'
p252
(lp253
I0
aI3
asS'cordoglio'
p254
(lp255
I1
aI0
asS'conigli'
p256
(lp257
I0
aI1
asS'ucraina'
p258
(lp259
I1
aI0
asS'schiantato'
p260
(lp261
I0
aI1
asS'riequilibrio'
p262
(lp263
I1
aI0
asS'caprotti'
p264
(lp265
I0
aI1
asS'condizioni'
p266
(lp267
I1
aI2
asS'telefonata'
p268
(lp269
I2
aI0
asS'liquida'
p270
(lp271
I2
aI1
asS'maiolo'
p272
(lp273
I0
aI1
asS'robin'
p274
(lp275
I0
aI1
asS'itunes'
p276
(lp277
I1
aI0
asS'napoletani'
p278
(lp279
I0
aI1
asS'resti'
p280
(lp281
I3
aI2
asS'scoprire'
p282
(lp283
I0
aI1
asS'generale'
p284
(lp285
I5
aI0
asS'economica'
p286
(lp287
I1
aI0
asS'resta'
p288
(lp289
I1
aI1
asS'marotta'
p290
(lp291
I0
aI3
asS'tweet'
p292
(lp293
I0
aI1
asS'lavoratori'
p294
(lp295
I0
aI2
asS'raffaele'
p296
(lp297
I2
aI1
asS'golden'
p298
(lp299
I0
aI1
asS'ricetta'
p300
(lp301
I0
aI1
asS'divide'
p302
(lp303
I0
aI5
asS'verdura'
p304
(lp305
I0
aI1
asS'mobility'
p306
(lp307
I0
aI1
asS'tacere'
p308
(lp309
I0
aI1
asS'maurizio'
p310
(lp311
I0
aI1
asS'morpheus'
p312
(lp313
I0
aI1
asS'\x80\x93'
p314
(lp315
I60
aI0
asS'svizzere'
p316
(lp317
I0
aI1
asS'pulizia'
p318
(lp319
I0
aI1
asS'\x80\x94'
p320
(lp321
I2
aI0
asS'svizzero'
p322
(lp323
I1
aI0
asS'aprire'
p324
(lp325
I0
aI1
asS'\x80\x98'
p326
(lp327
I12
aI0
asS'\x80\x99'
p328
(lp329
I403
aI0
asS'prese'
p330
(lp331
I0
aI2
asS'\x80\x9c'
p332
(lp333
I114
aI0
asS'\x80\x9d'
p334
(lp335
I83
aI0
asS'\x80\xa2'
p336
(lp337
I1
aI0
asS'nessun'
p338
(lp339
I1
aI0
asS'gulnaz'
p340
(lp341
I0
aI1
asS'timori'
p342
(lp343
I4
aI0
asS'vietato'
p344
(lp345
I1
aI0
asS'scroto'
p346
(lp347
I0
aI1
asS'negativa'
p348
(lp349
I0
aI1
asS'ivrea'
p350
(lp351
I0
aI1
asS'piemonte'
p352
(lp353
I4
aI5
asS'gratteri'
p354
(lp355
I0
aI3
asS'genomica'
p356
(lp357
I1
aI0
asS'30enne'
p358
(lp359
I1
aI0
asS'giallo'
p360
(lp361
I0
aI2
asS'calo'
p362
(lp363
I1
aI0
asS'latour'
p364
(lp365
I0
aI1
asS'affidandosi'
p366
(lp367
I0
aI1
asS'uitwaaien'
p368
(lp369
I0
aI1
asS'turin'
p370
(lp371
I0
aI3
asS'telo'
p372
(lp373
I0
aI1
asS'arma'
p374
(lp375
I2
aI0
asS'relax'
p376
(lp377
I1
aI0
asS'successful'
p378
(lp379
I0
aI1
asS'oscar'
p380
(lp381
I9
aI0
asS'liguria'
p382
(lp383
I0
aI2
asS'alitalia'
p384
(lp385
I5
aI0
asS'sollecitazione'
p386
(lp387
I0
aI2
asS'glass'
p388
(lp389
I0
aI1
asS'musy'
p390
(lp391
I0
aI1
asS'salvagente'
p392
(lp393
I0
aI1
asS'manifestazione'
p394
(lp395
I0
aI1
asS'abbiamo'
p396
(lp397
I17
aI9
asS'verranno'
p398
(lp399
I3
aI1
asS'lungi'
p400
(lp401
I0
aI1
asS'giunta'
p402
(lp403
I1
aI0
asS'sammichele'
p404
(lp405
I0
aI1
asS'piero'
p406
(lp407
I0
aI1
asS'henri'
p408
(lp409
I0
aI1
asS'collaborazione'
p410
(lp411
I1
aI0
asS'napoli'
p412
(lp413
I14
aI18
asS'speranze'
p414
(lp415
I0
aI1
asS'mq'
p416
(lp417
I1
aI0
asS'pedone'
p418
(lp419
I0
aI1
asS'mette'
p420
(lp421
I0
aI2
asS'heysel'
p422
(lp423
I0
aI1
asS'supermodella'
p424
(lp425
I0
aI1
asS'primavalle'
p426
(lp427
I1
aI0
asS'estate'
p428
(lp429
I2
aI2
asS'candidatura'
p430
(lp431
I0
aI1
asS'india'
p432
(lp433
I1
aI1
asS'svedese'
p434
(lp435
I0
aI2
asS'riguarda'
p436
(lp437
I2
aI0
asS'gianni'
p438
(lp439
I0
aI1
asS'redazione'
p440
(lp441
I1
aI0
asS'fichi'
p442
(lp443
I0
aI1
asS'novit'
p444
(lp445
I0
aI1
asS'ferie'
p446
(lp447
I0
aI1
asS'vaghe'
p448
(lp449
I0
aI1
asS'ultra'
p450
(lp451
I0
aI2
asS'ninfee'
p452
(lp453
I0
aI1
asS'bund'
p454
(lp455
I1
aI0
asS'imbucato'
p456
(lp457
I1
aI0
asS'eni'
p458
(lp459
I2
aI0
asS'ibrahimovic'
p460
(lp461
I0
aI5
asS'principe'
p462
(lp463
I0
aI1
asS'ordigno'
p464
(lp465
I0
aI1
asS'trecento'
p466
(lp467
I1
aI0
asS'provvedi'
p468
(lp469
I1
aI0
asS'uffici'
p470
(lp471
I0
aI7
asS'carriera'
p472
(lp473
I1
aI0
asS'bandiera'
p474
(lp475
I1
aI5
asS'mobilit\xc3'
p476
(lp477
I1
aI0
asS'mueller'
p478
(lp479
I5
aI0
asS'erogazioni'
p480
(lp481
I10
aI0
asS'fastidiosa'
p482
(lp483
I1
aI0
asS'orologio'
p484
(lp485
I0
aI1
asS'mantenimento'
p486
(lp487
I1
aI1
asS'vegani'
p488
(lp489
I0
aI1
asS'stefano'
p490
(lp491
I1
aI1
asS'sede'
p492
(lp493
I2
aI1
asS'diritto'
p494
(lp495
I4
aI0
asS'manutenzione'
p496
(lp497
I0
aI1
asS'diritti'
p498
(lp499
I7
aI1
asS'applicazione'
p500
(lp501
I1
aI1
asS'curiosity'
p502
(lp503
I0
aI3
asS'stravolger'
p504
(lp505
I0
aI1
asS'applicazioni'
p506
(lp507
I0
aI1
asS'vallon'
p508
(lp509
I0
aI1
asS'digiuno'
p510
(lp511
I0
aI1
asS'sedi'
p512
(lp513
I1
aI0
asS'mese'
p514
(lp515
I5
aI2
asS'royce'
p516
(lp517
I0
aI1
asS'tetri'
p518
(lp519
I0
aI1
asS'padre'
p520
(lp521
I1
aI7
asS'trucchi'
p522
(lp523
I0
aI1
asS'padri'
p524
(lp525
I0
aI1
asS'sblocca'
p526
(lp527
I1
aI0
asS'fiamme'
p528
(lp529
I0
aI1
asS'operato'
p530
(lp531
I2
aI0
asS'fiorita'
p532
(lp533
I1
aI0
asS'green'
p534
(lp535
I0
aI1
asS'richetto'
p536
(lp537
I0
aI1
asS'inaccessibile'
p538
(lp539
I1
aI0
asS'tagli'
p540
(lp541
I3
aI6
asS'tessitura'
p542
(lp543
I1
aI0
asS'organizzativo'
p544
(lp545
I0
aI5
asS'trovarlo'
p546
(lp547
I0
aI1
asS'danneggiano'
p548
(lp549
I1
aI0
asS'monde'
p550
(lp551
I0
aI2
asS'decide'
p552
(lp553
I0
aI1
asS'office'
p554
(lp555
I1
aI1
asS'soddisfino'
p556
(lp557
I0
aI1
asS'oceano'
p558
(lp559
I1
aI0
asS'teatro'
p560
(lp561
I1
aI1
asS'principale'
p562
(lp563
I1
aI0
asS'calchi'
p564
(lp565
I2
aI0
asS'ridotte'
p566
(lp567
I0
aI1
asS'senatore'
p568
(lp569
I1
aI0
asS'vivono'
p570
(lp571
I2
aI6
asS'senatori'
p572
(lp573
I2
aI0
asS'ridotto'
p574
(lp575
I0
aI1
asS'elena'
p576
(lp577
I0
aI1
asS'vite'
p578
(lp579
I0
aI2
asS'ormai'
p580
(lp581
I3
aI1
asS'scajola'
p582
(lp583
I0
aI1
asS'venti'
p584
(lp585
I3
aI3
asS'genti'
p586
(lp587
I0
aI1
asS'edith'
p588
(lp589
I3
aI0
asS'fady'
p590
(lp591
I0
aI4
asS'vigilanza'
p592
(lp593
I1
aI1
asS'msci'
p594
(lp595
I0
aI2
asS'qualcosa'
p596
(lp597
I0
aI2
asS'buffon'
p598
(lp599
I4
aI1
asS'valor'
p600
(lp601
I1
aI0
asS'inaf'
p602
(lp603
I0
aI1
asS'schmidt'
p604
(lp605
I0
aI1
asS'cardiovascolari'
p606
(lp607
I3
aI0
asS'uccisi'
p608
(lp609
I0
aI2
asS'elenco'
p610
(lp611
I1
aI0
asS'docenti'
p612
(lp613
I0
aI2
asS'cattivo\xe2'
p614
(lp615
I1
aI0
asS'salone'
p616
(lp617
I0
aI2
asS'violazione'
p618
(lp619
I1
aI0
asS'siderno'
p620
(lp621
I1
aI0
asS'romeno'
p622
(lp623
I2
aI0
asS'esercito'
p624
(lp625
I1
aI0
asS'strategia'
p626
(lp627
I1
aI1
asS'infarto'
p628
(lp629
I12
aI0
asS'scesa'
p630
(lp631
I0
aI1
asS'dirigenti'
p632
(lp633
I1
aI0
asS'riesce'
p634
(lp635
I1
aI2
asS'pianezza'
p636
(lp637
I1
aI0
asS'raccomanda'
p638
(lp639
I1
aI0
asS'dirigente'
p640
(lp641
I0
aI1
asS'messico'
p642
(lp643
I0
aI2
asS'germania'
p644
(lp645
I3
aI1
asS'intraprendere'
p646
(lp647
I0
aI1
asS'cattivo\xc2'
p648
(lp649
I1
aI0
asS'vidal'
p650
(lp651
I1
aI0
asS'alex'
p652
(lp653
I0
aI1
asS'borsano'
p654
(lp655
I0
aI1
asS'rione'
p656
(lp657
I0
aI1
asS'lorena'
p658
(lp659
I3
aI0
asS'dismaland'
p660
(lp661
I1
aI0
asS'curator'
p662
(lp663
I0
aI1
asS'detroit'
p664
(lp665
I0
aI1
asS'luce'
p666
(lp667
I1
aI0
asS'bono'
p668
(lp669
I2
aI0
asS'internazionale'
p670
(lp671
I5
aI0
asS'estremo'
p672
(lp673
I1
aI0
asS'verifiche'
p674
(lp675
I1
aI0
asS'fonte'
p676
(lp677
I1
aI0
asS'polunin'
p678
(lp679
I0
aI1
asS'bond'
p680
(lp681
I1
aI2
asS'girardi'
p682
(lp683
I0
aI1
asS'lapidi'
p684
(lp685
I0
aI1
asS'revisione'
p686
(lp687
I0
aI2
asS'braccialetti'
p688
(lp689
I0
aI1
asS'vengono'
p690
(lp691
I0
aI1
asS'milan'
p692
(lp693
I14
aI2
asS'novara'
p694
(lp695
I4
aI0
asS'saitta'
p696
(lp697
I0
aI1
asS'sanfilippo'
p698
(lp699
I4
aI0
asS'torosidis'
p700
(lp701
I3
aI0
asS'logo'
p702
(lp703
I0
aI1
asS'gol'
p704
(lp705
I10
aI0
asS'vada'
p706
(lp707
I1
aI0
asS'tolta'
p708
(lp709
I1
aI0
asS'morise'
p710
(lp711
I0
aI1
asS'immagine'
p712
(lp713
I2
aI1
asS'cimitero'
p714
(lp715
I0
aI1
asS'bilaterale'
p716
(lp717
I3
aI0
asS'diesel'
p718
(lp719
I1
aI1
asS'\xac'
p720
(lp721
I32
aI0
asS'segnali'
p722
(lp723
I1
aI1
asS'urbane'
p724
(lp725
I0
aI1
asS'tennista'
p726
(lp727
I0
aI1
asS'forte'
p728
(lp729
I0
aI1
asS'raffreddore'
p730
(lp731
I1
aI0
asS'gutierrez'
p732
(lp733
I0
aI1
asS'rotola'
p734
(lp735
I0
aI1
asS'ricavi'
p736
(lp737
I5
aI1
asS'ciccarella'
p738
(lp739
I1
aI0
asS'reja'
p740
(lp741
I2
aI0
asS'villetta'
p742
(lp743
I2
aI0
asS'cant\xf9'
p744
(lp745
I0
aI1
asS'foto'
p746
(lp747
I8
aI14
asS'strato'
p748
(lp749
I0
aI1
asS'pazzesco'
p750
(lp751
I0
aI1
asS'minoranza'
p752
(lp753
I2
aI0
asS'descalzi'
p754
(lp755
I1
aI0
asS'stilista'
p756
(lp757
I3
aI0
asS'cibo'
p758
(lp759
I0
aI2
asS'sanremo'
p760
(lp761
I0
aI2
asS'standard'
p762
(lp763
I2
aI0
asS'etfs'
p764
(lp765
I0
aI1
asS'anziani'
p766
(lp767
I4
aI0
asS'anziano'
p768
(lp769
I0
aI1
asS'valsusa'
p770
(lp771
I0
aI1
asS'ragusa'
p772
(lp773
I2
aI0
asS'portogallo'
p774
(lp775
I1
aI0
asS'rigo'
p776
(lp777
I0
aI1
asS'investita'
p778
(lp779
I0
aI1
asS'sicari'
p780
(lp781
I1
aI0
asS'scolastico'
p782
(lp783
I3
aI0
asS'chiaro'
p784
(lp785
I1
aI0
asS'informazione'
p786
(lp787
I0
aI2
asS'sauze'
p788
(lp789
I0
aI1
asS'dischi'
p790
(lp791
I0
aI1
asS'informazioni'
p792
(lp793
I0
aI12
asS'chiara'
p794
(lp795
I0
aI1
asS'balena'
p796
(lp797
I0
aI1
asS'settimese'
p798
(lp799
I0
aI1
asS'investito'
p800
(lp801
I0
aI2
asS'silicon'
p802
(lp803
I0
aI2
asS'trasporti'
p804
(lp805
I0
aI1
asS'biologico'
p806
(lp807
I0
aI2
asS'biologici'
p808
(lp809
I0
aI1
asS'triumph'
p810
(lp811
I1
aI0
asS'trasporto'
p812
(lp813
I5
aI2
asS'moltissime'
p814
(lp815
I1
aI0
asS'stewart'
p816
(lp817
I0
aI2
asS'grado'
p818
(lp819
I9
aI3
asS'vittorio'
p820
(lp821
I4
aI1
asS'ambasciata'
p822
(lp823
I0
aI2
asS'>>'
p824
(lp825
I2
aI0
asS'avrebbe'
p826
(lp827
I1
aI3
asS'wasp'
p828
(lp829
I0
aI1
asS'vittoria'
p830
(lp831
I8
aI5
asS'sicurezza'
p832
(lp833
I7
aI13
asS'vittorie'
p834
(lp835
I0
aI2
asS'vivere'
p836
(lp837
I4
aI2
asS'venezia'
p838
(lp839
I4
aI2
asS'volturno'
p840
(lp841
I1
aI0
asS'accaduto'
p842
(lp843
I0
aI1
asS'bruchi'
p844
(lp845
I0
aI1
asS'genova'
p846
(lp847
I0
aI8
asS'pomeriggio'
p848
(lp849
I0
aI1
asS'movida'
p850
(lp851
I0
aI1
asS'movimenti'
p852
(lp853
I3
aI0
asS'indeterminato'
p854
(lp855
I0
aI2
asS'movimento'
p856
(lp857
I0
aI1
asS'natale'
p858
(lp859
I0
aI1
asS'lega'
p860
(lp861
I4
aI3
asS'dipartimento'
p862
(lp863
I2
aI0
asS'antiossidanti'
p864
(lp865
I0
aI1
asS'girls'
p866
(lp867
I0
aI1
asS'bitcoin'
p868
(lp869
I0
aI1
asS'fiction'
p870
(lp871
I0
aI1
asS'scoprirlo'
p872
(lp873
I0
aI1
asS'irricevibili'
p874
(lp875
I2
aI0
asS'tom'
p876
(lp877
I8
aI0
asS'vinovo'
p878
(lp879
I0
aI1
asS'cavani'
p880
(lp881
I0
aI1
asS'carrey'
p882
(lp883
I2
aI0
asS'maggio'
p884
(lp885
I0
aI3
asS'allevamento'
p886
(lp887
I0
aI1
asS'kiwi'
p888
(lp889
I0
aI1
asS'serata'
p890
(lp891
I1
aI1
asS'caniggia'
p892
(lp893
I0
aI1
asS'cestaro'
p894
(lp895
I0
aI3
asS'boldrini'
p896
(lp897
I2
aI0
asS'quotidiano'
p898
(lp899
I0
aI10
asS'relative'
p900
(lp901
I0
aI1
asS'ungheresi'
p902
(lp903
I0
aI1
asS'albert'
p904
(lp905
I0
aI1
asS'intestino'
p906
(lp907
I3
aI0
asS'doppia'
p908
(lp909
I0
aI1
asS'atalanta'
p910
(lp911
I8
aI0
asS'intervistati'
p912
(lp913
I0
aI1
asS'responsabilit'
p914
(lp915
I0
aI16
asS'mattino'
p916
(lp917
I0
aI2
asS'requisiti'
p918
(lp919
I1
aI0
asS'comau'
p920
(lp921
I0
aI1
asS'mattina'
p922
(lp923
I2
aI1
asS'primavera'
p924
(lp925
I2
aI1
asS'venerd'
p926
(lp927
I0
aI3
asS'cisterna'
p928
(lp929
I1
aI0
asS'spoiler'
p930
(lp931
I0
aI1
asS'abbandonati'
p932
(lp933
I0
aI1
asS'aerei'
p934
(lp935
I1
aI0
asS'aereo'
p936
(lp937
I5
aI4
asS'burger'
p938
(lp939
I0
aI3
asS'mercato'
p940
(lp941
I6
aI2
asS'germanwings'
p942
(lp943
I0
aI1
asS'to1'
p944
(lp945
I3
aI0
asS'matteo'
p946
(lp947
I0
aI3
asS'rolex'
p948
(lp949
I0
aI1
asS'mercati'
p950
(lp951
I2
aI1
asS'coalizione'
p952
(lp953
I4
aI0
asS'sabato'
p954
(lp955
I3
aI2
asS'expo'
p956
(lp957
I1
aI12
asS'williams'
p958
(lp959
I0
aI1
asS'acquisizioni'
p960
(lp961
I1
aI0
asS'spaventata'
p962
(lp963
I0
aI1
asS'digitale'
p964
(lp965
I0
aI1
asS'negozio'
p966
(lp967
I1
aI1
asS'mini'
p968
(lp969
I1
aI0
asS'truffa'
p970
(lp971
I4
aI0
asS'\x82'
p972
(lp973
I2
aI0
asS'talmente'
p974
(lp975
I0
aI1
asS'truffe'
p976
(lp977
I0
aI1
asS'uccisione'
p978
(lp979
I3
aI0
asS'pistons'
p980
(lp981
I0
aI1
asS'ram'
p982
(lp983
I1
aI0
asS'sollevare'
p984
(lp985
I0
aI2
asS'rai'
p986
(lp987
I15
aI0
asS'scherbitski'
p988
(lp989
I1
aI0
asS'spiaggia'
p990
(lp991
I5
aI4
asS'trovano'
p992
(lp993
I1
aI1
asS'interno'
p994
(lp995
I0
aI1
asS'spada'
p996
(lp997
I1
aI0
asS'onlive'
p998
(lp999
I0
aI1
asS'imperia'
p1000
(lp1001
I0
aI2
asS'perino'
p1002
(lp1003
I0
aI1
asS'vicinanza'
p1004
(lp1005
I1
aI0
asS'bonolis'
p1006
(lp1007
I1
aI0
asS'vicinanze'
p1008
(lp1009
I1
aI0
asS'chigi'
p1010
(lp1011
I0
aI1
asS'pianeta'
p1012
(lp1013
I20
aI2
asS'usigrai'
p1014
(lp1015
I2
aI0
asS'reale'
p1016
(lp1017
I0
aI1
asS'diretta'
p1018
(lp1019
I9
aI2
asS'visualizzare'
p1020
(lp1021
I1
aI0
asS'transazioni'
p1022
(lp1023
I0
aI1
asS'edge'
p1024
(lp1025
I0
aI1
asS'sfogliate'
p1026
(lp1027
I0
aI1
asS'mediaset'
p1028
(lp1029
I1
aI1
asS'immobiliare'
p1030
(lp1031
I0
aI4
asS'diretto'
p1032
(lp1033
I2
aI0
asS'klose'
p1034
(lp1035
I0
aI1
asS'\xc2'
p1036
(lp1037
I87
aI0
asS'alloggi'
p1038
(lp1039
I0
aI3
asS'salvatore'
p1040
(lp1041
I1
aI1
asS'aspetto'
p1042
(lp1043
I0
aI1
asS'accesso'
p1044
(lp1045
I1
aI1
asS'podere'
p1046
(lp1047
I1
aI0
asS'lucro'
p1048
(lp1049
I0
aI1
asS'sportando'
p1050
(lp1051
I0
aI1
asS'sondaggipoliticoelettorali'
p1052
(lp1053
I0
aI1
asS'precompilato'
p1054
(lp1055
I0
aI1
asS'translator'
p1056
(lp1057
I0
aI2
asS'mario'
p1058
(lp1059
I0
aI3
asS'ritirare'
p1060
(lp1061
I0
aI1
asS'visionare'
p1062
(lp1063
I1
aI0
asS'vinciamo'
p1064
(lp1065
I0
aI1
asS'supermercato'
p1066
(lp1067
I3
aI0
asS'marie'
p1068
(lp1069
I0
aI4
asS'nagaoka'
p1070
(lp1071
I0
aI1
asS'grave'
p1072
(lp1073
I1
aI0
asS'prostitute'
p1074
(lp1075
I0
aI3
asS'alimenti'
p1076
(lp1077
I3
aI1
asS'giardino'
p1078
(lp1079
I0
aI1
asS'somma'
p1080
(lp1081
I5
aI0
asS'rinunciare'
p1082
(lp1083
I1
aI0
asS'coppa'
p1084
(lp1085
I0
aI4
asS'episodi'
p1086
(lp1087
I0
aI1
asS'borsa'
p1088
(lp1089
I3
aI4
asS'metal'
p1090
(lp1091
I0
aI1
asS'marchese'
p1092
(lp1093
I1
aI0
asS'lpm'
p1094
(lp1095
I1
aI0
asS'reputation'
p1096
(lp1097
I0
aI1
asS'tech'
p1098
(lp1099
I1
aI0
asS'leone'
p1100
(lp1101
I1
aI0
asS'abusi'
p1102
(lp1103
I1
aI0
asS'thunder'
p1104
(lp1105
I0
aI1
asS'screensaver'
p1106
(lp1107
I0
aI1
asS'rivista'
p1108
(lp1109
I0
aI2
asS'televisiva'
p1110
(lp1111
I0
aI2
asS'esclusive'
p1112
(lp1113
I0
aI1
asS'riviste'
p1114
(lp1115
I0
aI1
asS'radiazioni'
p1116
(lp1117
I0
aI1
asS'kristen'
p1118
(lp1119
I0
aI2
asS'bimba'
p1120
(lp1121
I1
aI0
asS'musicale'
p1122
(lp1123
I0
aI1
asS'polemica'
p1124
(lp1125
I0
aI1
asS'shely'
p1126
(lp1127
I1
aI0
asS'vicini'
p1128
(lp1129
I2
aI0
asS'saga'
p1130
(lp1131
I1
aI1
asS'immagini'
p1132
(lp1133
I0
aI3
asS'bimbo'
p1134
(lp1135
I4
aI0
asS'dybala'
p1136
(lp1137
I0
aI2
asS'sentiva'
p1138
(lp1139
I0
aI1
asS'iniziato'
p1140
(lp1141
I0
aI1
asS'radio'
p1142
(lp1143
I0
aI1
asS'solutions'
p1144
(lp1145
I0
aI1
asS'squalificato'
p1146
(lp1147
I0
aI1
asS'sorveglianza'
p1148
(lp1149
I1
aI0
asS'immaginarsi'
p1150
(lp1151
I0
aI1
asS'virtuali'
p1152
(lp1153
I1
aI0
asS'ricarica'
p1154
(lp1155
I1
aI4
asS'venezuela'
p1156
(lp1157
I0
aI1
asS'ment'
p1158
(lp1159
I0
aI1
asS'lista'
p1160
(lp1161
I1
aI1
asS'fumata'
p1162
(lp1163
I0
aI1
asS'stesse'
p1164
(lp1165
I0
aI2
asS'pubblicit\xc3'
p1166
(lp1167
I2
aI0
asS'stanza'
p1168
(lp1169
I0
aI1
asS'dolore'
p1170
(lp1171
I2
aI1
asS'dolori'
p1172
(lp1173
I0
aI1
asS'quadrati'
p1174
(lp1175
I1
aI0
asS'badia'
p1176
(lp1177
I0
aI1
asS'tulipano'
p1178
(lp1179
I0
aI2
asS'sottosegretario'
p1180
(lp1181
I7
aI0
asS'\xc3'
p1182
(lp1183
I638
aI0
asS'uscite'
p1184
(lp1185
I0
aI1
asS'pallavolo'
p1186
(lp1187
I1
aI0
asS'uscita'
p1188
(lp1189
I3
aI5
asS'cervello'
p1190
(lp1191
I0
aI2
asS'ulissegio'
p1192
(lp1193
I0
aI1
asS'inghilterra'
p1194
(lp1195
I0
aI2
asS'sardegna'
p1196
(lp1197
I1
aI0
asS'bankitalia'
p1198
(lp1199
I9
aI0
asS'migliaia'
p1200
(lp1201
I0
aI1
asS'amazon'
p1202
(lp1203
I0
aI1
asS'pasoliniano'
p1204
(lp1205
I1
aI0
asS'considerato'
p1206
(lp1207
I2
aI0
asS'report'
p1208
(lp1209
I3
aI0
asS'ebagua'
p1210
(lp1211
I1
aI0
asS'positivit'
p1212
(lp1213
I0
aI1
asS'contrastare'
p1214
(lp1215
I0
aI1
asS'deconsolidare'
p1216
(lp1217
I1
aI0
asS'situazione'
p1218
(lp1219
I2
aI1
asS'quest\xe2'
p1220
(lp1221
I1
aI0
asS'vestito'
p1222
(lp1223
I0
aI5
asS'situazioni'
p1224
(lp1225
I0
aI1
asS'bielsa'
p1226
(lp1227
I0
aI1
asS'stiamo'
p1228
(lp1229
I1
aI0
asS'razzismo'
p1230
(lp1231
I0
aI1
asS'un\xe2'
p1232
(lp1233
I11
aI0
asS'entrare'
p1234
(lp1235
I0
aI2
asS'schembri'
p1236
(lp1237
I0
aI1
asS'ban'
p1238
(lp1239
I1
aI0
asS'ordine'
p1240
(lp1241
I1
aI0
asS'vittorio84'
p1242
(lp1243
I0
aI1
asS'vedremo'
p1244
(lp1245
I1
aI1
asS'agrigento'
p1246
(lp1247
I0
aI1
asS'silvagni'
p1248
(lp1249
I0
aI1
asS'traversa'
p1250
(lp1251
I4
aI0
asS'guerra'
p1252
(lp1253
I1
aI1
asS'scansione'
p1254
(lp1255
I0
aI1
asS'attese'
p1256
(lp1257
I1
aI0
asS'ragazzine'
p1258
(lp1259
I0
aI2
asS'prete'
p1260
(lp1261
I1
aI0
asS'ragazzino'
p1262
(lp1263
I1
aI1
asS'ferito'
p1264
(lp1265
I2
aI1
asS'preti'
p1266
(lp1267
I1
aI0
asS'inquinate'
p1268
(lp1269
I1
aI0
asS'stampa'
p1270
(lp1271
I1
aI7
asS'miani'
p1272
(lp1273
I0
aI1
asS'scomparsa'
p1274
(lp1275
I2
aI1
asS'sassari'
p1276
(lp1277
I0
aI1
asS'men\xf9'
p1278
(lp1279
I0
aI1
asS'radiocor'
p1280
(lp1281
I2
aI0
asS'rebrab'
p1282
(lp1283
I0
aI1
asS'europeo'
p1284
(lp1285
I0
aI1
asS'gentleman'
p1286
(lp1287
I2
aI0
asS'scrigno'
p1288
(lp1289
I0
aI1
asS'raccoglie'
p1290
(lp1291
I1
aI0
asS'accedi'
p1292
(lp1293
I2
aI0
asS'xvi'
p1294
(lp1295
I1
aI0
asS'soluzione'
p1296
(lp1297
I2
aI1
asS'melissa'
p1298
(lp1299
I0
aI1
asS'dichiarazione'
p1300
(lp1301
I4
aI1
asS'\x80\x9d,'
p1302
(lp1303
I16
aI0
asS'ges\xf9'
p1304
(lp1305
I0
aI2
asS'esplosione'
p1306
(lp1307
I0
aI1
asS'vende'
p1308
(lp1309
I0
aI2
asS'sapere'
p1310
(lp1311
I1
aI6
asS'soluzioni'
p1312
(lp1313
I0
aI1
asS'vendite'
p1314
(lp1315
I5
aI0
asS'credo'
p1316
(lp1317
I1
aI1
asS'vendita'
p1318
(lp1319
I2
aI3
asS'montagna'
p1320
(lp1321
I0
aI1
asS'scudetto'
p1322
(lp1323
I1
aI0
asS'herrera'
p1324
(lp1325
I0
aI1
asS'rappresenta'
p1326
(lp1327
I1
aI4
asS'parente'
p1328
(lp1329
I0
aI1
asS'boss'
p1330
(lp1331
I0
aI2
asS'costretta'
p1332
(lp1333
I0
aI1
asS'sperimentando'
p1334
(lp1335
I0
aI1
asS'harvard'
p1336
(lp1337
I0
aI2
asS'anarchici'
p1338
(lp1339
I0
aI2
asS'spagna'
p1340
(lp1341
I3
aI1
asS'news'
p1342
(lp1343
I16
aI2
asS'gratis'
p1344
(lp1345
I4
aI1
asS'venturi'
p1346
(lp1347
I1
aI0
asS'palco'
p1348
(lp1349
I2
aI0
asS'undicenne'
p1350
(lp1351
I0
aI1
asS'terreno'
p1352
(lp1353
I4
aI2
asS'ferroviaria'
p1354
(lp1355
I2
aI0
asS'trasferita'
p1356
(lp1357
I0
aI1
asS'meredith'
p1358
(lp1359
I0
aI1
asS'ferroviario'
p1360
(lp1361
I1
aI2
asS'interni'
p1362
(lp1363
I4
aI0
asS'spalle'
p1364
(lp1365
I0
aI1
asS'inflazione'
p1366
(lp1367
I1
aI0
asS'strage'
p1368
(lp1369
I1
aI2
asS'spurs'
p1370
(lp1371
I0
aI2
asS'ospita'
p1372
(lp1373
I1
aI0
asS'irriverente'
p1374
(lp1375
I0
aI1
asS'enzo'
p1376
(lp1377
I0
aI2
asS'pianto'
p1378
(lp1379
I0
aI1
asS'candidato'
p1380
(lp1381
I1
aI2
asS'rivelando'
p1382
(lp1383
I0
aI1
asS'impianti'
p1384
(lp1385
I0
aI1
asS'enogastronomico'
p1386
(lp1387
I1
aI0
asS'periscope'
p1388
(lp1389
I0
aI3
asS'mihajlovic'
p1390
(lp1391
I1
aI2
asS'soffriva'
p1392
(lp1393
I0
aI1
asS'quinta'
p1394
(lp1395
I0
aI1
asS'inghiottito'
p1396
(lp1397
I2
aI0
asS'glucorafanina'
p1398
(lp1399
I0
aI1
asS'dichiarato'
p1400
(lp1401
I1
aI2
asS'alfano'
p1402
(lp1403
I5
aI5
asS'immobile'
p1404
(lp1405
I2
aI0
asS'puts'
p1406
(lp1407
I0
aI1
asS'wright'
p1408
(lp1409
I0
aI1
asS'immobili'
p1410
(lp1411
I1
aI1
asS'ospiti'
p1412
(lp1413
I0
aI1
asS'referendum'
p1414
(lp1415
I3
aI0
asS'risorse'
p1416
(lp1417
I1
aI0
asS'fiorentina'
p1418
(lp1419
I0
aI2
asS'spagnolo'
p1420
(lp1421
I0
aI1
asS'incidenti'
p1422
(lp1423
I0
aI1
asS'stadium'
p1424
(lp1425
I2
aI1
asS'tonino'
p1426
(lp1427
I0
aI1
asS'frise'
p1428
(lp1429
I0
aI1
asS'cesare'
p1430
(lp1431
I9
aI0
asS'per\xc3\xb2'
p1432
(lp1433
I6
aI0
asS'piccolo'
p1434
(lp1435
I4
aI0
asS'tentazione'
p1436
(lp1437
I0
aI1
asS'rischia'
p1438
(lp1439
I1
aI0
asS'sappiamo'
p1440
(lp1441
I0
aI1
asS'thirlwall'
p1442
(lp1443
I1
aI0
asS'saragozza'
p1444
(lp1445
I0
aI1
asS'smartwatch'
p1446
(lp1447
I0
aI1
asS'saponara'
p1448
(lp1449
I3
aI0
asS'pista'
p1450
(lp1451
I0
aI3
asS'rischio'
p1452
(lp1453
I13
aI1
asS'ricadute'
p1454
(lp1455
I0
aI1
asS'peak\xe2'
p1456
(lp1457
I1
aI0
asS'cucina'
p1458
(lp1459
I0
aI1
asS'fabri'
p1460
(lp1461
I0
aI1
asS'quartier'
p1462
(lp1463
I1
aI0
asS'ndrangheta'
p1464
(lp1465
I1
aI0
asS'rinvio'
p1466
(lp1467
I1
aI0
asS'fidanzato'
p1468
(lp1469
I1
aI3
asS'stellone'
p1470
(lp1471
I1
aI0
asS'sanitario'
p1472
(lp1473
I1
aI1
asS'opportunit\xc3'
p1474
(lp1475
I2
aI0
asS'siccit'
p1476
(lp1477
I0
aI1
asS'trovate'
p1478
(lp1479
I0
aI1
asS'indirizzo'
p1480
(lp1481
I0
aI1
asS'ciclismo'
p1482
(lp1483
I0
aI1
asS'fidanzata'
p1484
(lp1485
I1
aI0
asS'batterie'
p1486
(lp1487
I1
aI4
asS'acquedotto'
p1488
(lp1489
I0
aI1
asS'politiche'
p1490
(lp1491
I1
aI1
asS'batteria'
p1492
(lp1493
I0
aI2
asS'depp'
p1494
(lp1495
I0
aI1
asS'togliere'
p1496
(lp1497
I1
aI1
asS'attraverso'
p1498
(lp1499
I1
aI2
asS'batterio'
p1500
(lp1501
I1
aI0
asS'servir'
p1502
(lp1503
I0
aI1
asS'sla'
p1504
(lp1505
I6
aI0
asS'procedure'
p1506
(lp1507
I0
aI1
asS'recuperato'
p1508
(lp1509
I2
aI0
asS'faremmo'
p1510
(lp1511
I0
aI1
asS'ritorno'
p1512
(lp1513
I1
aI2
asS'disobbedienza'
p1514
(lp1515
I2
aI0
asS'brewer'
p1516
(lp1517
I0
aI1
asS'ip'
p1518
(lp1519
I1
aI0
asS'paglia'
p1520
(lp1521
I9
aI0
asS'governativi'
p1522
(lp1523
I1
aI0
asS'amiche'
p1524
(lp1525
I0
aI1
asS'ii'
p1526
(lp1527
I1
aI0
asS'player'
p1528
(lp1529
I0
aI1
asS'rai3'
p1530
(lp1531
I2
aI0
asS'merola'
p1532
(lp1533
I1
aI0
asS'xyzprinting'
p1534
(lp1535
I0
aI1
asS'risoluzione'
p1536
(lp1537
I1
aI0
asS'seattle'
p1538
(lp1539
I0
aI2
asS'inaugurazione'
p1540
(lp1541
I0
aI1
asS'universitario'
p1542
(lp1543
I0
aI1
asS'chernik'
p1544
(lp1545
I1
aI0
asS'cooperante'
p1546
(lp1547
I9
aI0
asS'principali'
p1548
(lp1549
I2
aI0
asS'assolto'
p1550
(lp1551
I2
aI1
asS'lavorare'
p1552
(lp1553
I1
aI0
asS'belli'
p1554
(lp1555
I0
aI2
asS'turbativa'
p1556
(lp1557
I1
aI0
asS'copie'
p1558
(lp1559
I0
aI1
asS'giampaolo'
p1560
(lp1561
I1
aI0
asS'bella'
p1562
(lp1563
I1
aI0
asS'coinvolti'
p1564
(lp1565
I1
aI0
asS'esatto'
p1566
(lp1567
I1
aI0
asS'nanismo'
p1568
(lp1569
I0
aI1
asS'coinvolte'
p1570
(lp1571
I1
aI0
asS'perfetto'
p1572
(lp1573
I0
aI2
asS'satellite'
p1574
(lp1575
I1
aI0
asS'responsabili'
p1576
(lp1577
I0
aI1
asS'raid'
p1578
(lp1579
I11
aI0
asS'memoria'
p1580
(lp1581
I2
aI4
asS'",'
p1582
(lp1583
I36
aI0
asS'platino'
p1584
(lp1585
I1
aI0
asS'blue'
p1586
(lp1587
I0
aI1
asS'indetto'
p1588
(lp1589
I0
aI1
asS'ribadisce'
p1590
(lp1591
I1
aI0
asS'topo'
p1592
(lp1593
I0
aI1
asS'incremento'
p1594
(lp1595
I8
aI0
asS'passata'
p1596
(lp1597
I1
aI0
asS'costruttori'
p1598
(lp1599
I2
aI0
asS'caceres'
p1600
(lp1601
I13
aI0
asS'sviluppatori'
p1602
(lp1603
I0
aI2
asS'mobbing'
p1604
(lp1605
I3
aI0
asS'passato'
p1606
(lp1607
I0
aI3
asS'pestato'
p1608
(lp1609
I1
aI0
asS'traffico'
p1610
(lp1611
I2
aI0
asS'miglioramenti'
p1612
(lp1613
I1
aI0
asS'siviglia'
p1614
(lp1615
I10
aI1
asS'piazze'
p1616
(lp1617
I1
aI0
asS'serate'
p1618
(lp1619
I0
aI1
asS'materiale'
p1620
(lp1621
I1
aI0
asS'vercellese'
p1622
(lp1623
I1
aI0
asS'campo'
p1624
(lp1625
I5
aI2
asS'filippi'
p1626
(lp1627
I0
aI2
asS'materiali'
p1628
(lp1629
I3
aI0
asS'episodio'
p1630
(lp1631
I1
aI0
asS'pilota'
p1632
(lp1633
I0
aI3
asS'zoccarato'
p1634
(lp1635
I0
aI1
asS'commozione'
p1636
(lp1637
I1
aI0
asS'scritto'
p1638
(lp1639
I0
aI3
asS'roma'
p1640
(lp1641
I68
aI24
asS'jean'
p1642
(lp1643
I0
aI4
asS'oneplus'
p1644
(lp1645
I0
aI2
asS'dell\xe2'
p1646
(lp1647
I54
aI0
asS'pubblicit'
p1648
(lp1649
I0
aI1
asS'ordinario'
p1650
(lp1651
I1
aI0
asS'etica'
p1652
(lp1653
I0
aI1
asS'emergenza'
p1654
(lp1655
I1
aI2
asS'autorita'
p1656
(lp1657
I0
aI1
asS'spiegando'
p1658
(lp1659
I1
aI0
asS'vr'
p1660
(lp1661
I2
aI0
asS'disegna'
p1662
(lp1663
I0
aI1
asS'prostituzione'
p1664
(lp1665
I0
aI6
asS'scoperto'
p1666
(lp1667
I0
aI2
asS'talebano'
p1668
(lp1669
I1
aI0
asS'scoperta'
p1670
(lp1671
I5
aI2
asS'talebani'
p1672
(lp1673
I5
aI0
asS'bit'
p1674
(lp1675
I1
aI0
asS'disegno'
p1676
(lp1677
I0
aI1
asS'scoperte'
p1678
(lp1679
I1
aI0
asS'voglia'
p1680
(lp1681
I1
aI1
asS'opportunit'
p1682
(lp1683
I0
aI1
asS'5x'
p1684
(lp1685
I3
aI0
asS'yamaha'
p1686
(lp1687
I0
aI2
asS'farlo'
p1688
(lp1689
I0
aI1
asS'142mila'
p1690
(lp1691
I0
aI1
asS'sfida'
p1692
(lp1693
I4
aI1
asS'zor'
p1694
(lp1695
I1
aI0
asS'voglio'
p1696
(lp1697
I1
aI0
asS'boston'
p1698
(lp1699
I0
aI1
asS'glencore'
p1700
(lp1701
I1
aI0
asS'vuoti'
p1702
(lp1703
I1
aI0
asS'\xb2'
p1704
(lp1705
I5
aI0
asS'vuoto'
p1706
(lp1707
I0
aI2
asS'tipizzazione'
p1708
(lp1709
I1
aI0
asS'nota'
p1710
(lp1711
I4
aI0
asS'cancro'
p1712
(lp1713
I10
aI1
asS'save'
p1714
(lp1715
I0
aI1
asS'cucine'
p1716
(lp1717
I0
aI1
asS'trino'
p1718
(lp1719
I5
aI0
asS'sanit'
p1720
(lp1721
I0
aI1
asS'campagna'
p1722
(lp1723
I0
aI2
asS'romano'
p1724
(lp1725
I0
aI1
asS'ghiaccio'
p1726
(lp1727
I1
aI0
asS'vanessa'
p1728
(lp1729
I0
aI2
asS'potenziali'
p1730
(lp1731
I0
aI1
asS'ripulire'
p1732
(lp1733
I0
aI1
asS'scatti'
p1734
(lp1735
I0
aI1
asS'capo'
p1736
(lp1737
I3
aI4
asS'scatto'
p1738
(lp1739
I1
aI1
asS'bando'
p1740
(lp1741
I0
aI1
asS'stessi'
p1742
(lp1743
I0
aI2
asS'spiga'
p1744
(lp1745
I0
aI1
asS'gianluca'
p1746
(lp1747
I1
aI0
asS'|,'
p1748
(lp1749
I1
aI0
asS'banda'
p1750
(lp1751
I3
aI0
asS'personalized'
p1752
(lp1753
I1
aI0
asS'istat'
p1754
(lp1755
I6
aI0
asS'vanity'
p1756
(lp1757
I0
aI1
asS'scarpa'
p1758
(lp1759
I0
aI1
asS'palermo'
p1760
(lp1761
I13
aI2
asS'scarpe'
p1762
(lp1763
I0
aI1
asS'codice'
p1764
(lp1765
I0
aI2
asS'nudi'
p1766
(lp1767
I0
aI1
asS'cassino'
p1768
(lp1769
I2
aI0
asS'promette'
p1770
(lp1771
I0
aI2
asS'mischa'
p1772
(lp1773
I0
aI1
asS'ditta'
p1774
(lp1775
I2
aI0
asS'potrebbero'
p1776
(lp1777
I1
aI2
asS'giustiziata'
p1778
(lp1779
I1
aI0
asS'rizzoli'
p1780
(lp1781
I2
aI0
asS'tossinfezione'
p1782
(lp1783
I0
aI1
asS'trovarne'
p1784
(lp1785
I0
aI1
asS'sezione'
p1786
(lp1787
I0
aI1
asS'ossuari'
p1788
(lp1789
I0
aI1
asS'omofobia'
p1790
(lp1791
I1
aI0
asS'esitare'
p1792
(lp1793
I1
aI0
asS'falque'
p1794
(lp1795
I1
aI0
asS'webb'
p1796
(lp1797
I0
aI1
asS'portuguese'
p1798
(lp1799
I0
aI2
asS'crocetta'
p1800
(lp1801
I1
aI0
asS'dean'
p1802
(lp1803
I7
aI0
asS'svizzera'
p1804
(lp1805
I0
aI1
asS'people'
p1806
(lp1807
I0
aI1
asS'orlando'
p1808
(lp1809
I0
aI1
asS'realizzazione'
p1810
(lp1811
I2
aI1
asS'neve'
p1812
(lp1813
I0
aI1
asS'eastwood'
p1814
(lp1815
I0
aI1
asS'azienda'
p1816
(lp1817
I3
aI6
asS'validazione'
p1818
(lp1819
I0
aI1
asS'nevi'
p1820
(lp1821
I0
aI2
asS'intera'
p1822
(lp1823
I2
aI0
asS'sondaggio'
p1824
(lp1825
I0
aI1
asS'densa'
p1826
(lp1827
I0
aI1
asS'virano'
p1828
(lp1829
I0
aI2
asS'cnr'
p1830
(lp1831
I3
aI0
asS'caccia'
p1832
(lp1833
I0
aI1
asS'autorit\xc3'
p1834
(lp1835
I2
aI0
asS'resistenza'
p1836
(lp1837
I0
aI5
asS'vede'
p1838
(lp1839
I0
aI5
asS'sotu'
p1840
(lp1841
I1
aI0
asS'totali'
p1842
(lp1843
I0
aI1
asS'parla'
p1844
(lp1845
I0
aI1
asS'vedo'
p1846
(lp1847
I0
aI1
asS'totale'
p1848
(lp1849
I3
aI3
asS'consumatori'
p1850
(lp1851
I1
aI0
asS'tentare'
p1852
(lp1853
I0
aI1
asS'giamaica'
p1854
(lp1855
I0
aI2
asS'strada'
p1856
(lp1857
I1
aI2
asS'carte'
p1858
(lp1859
I13
aI0
asS'fratello'
p1860
(lp1861
I4
aI0
asS'estiva'
p1862
(lp1863
I0
aI1
asS'dolce'
p1864
(lp1865
I1
aI0
asS'\xc4'
p1866
(lp1867
I3
aI0
asS'bevono'
p1868
(lp1869
I1
aI0
asS'lampo'
p1870
(lp1871
I1
aI0
asS'lucille'
p1872
(lp1873
I1
aI0
asS'aumento'
p1874
(lp1875
I8
aI0
asS'aumenti'
p1876
(lp1877
I1
aI0
asS'cori'
p1878
(lp1879
I0
aI1
asS'sessione'
p1880
(lp1881
I0
aI1
asS'procure'
p1882
(lp1883
I1
aI0
asS'marquez'
p1884
(lp1885
I0
aI1
asS'cancellato'
p1886
(lp1887
I1
aI0
asS'varese'
p1888
(lp1889
I2
aI0
asS'frate'
p1890
(lp1891
I0
aI1
asS'parrucca'
p1892
(lp1893
I0
aI1
asS'dna'
p1894
(lp1895
I1
aI0
asS'post'
p1896
(lp1897
I0
aI1
asS'super'
p1898
(lp1899
I1
aI1
asS'gartner'
p1900
(lp1901
I1
aI0
asS'meyer'
p1902
(lp1903
I4
aI0
asS'arbitro'
p1904
(lp1905
I0
aI1
asS'nairobi'
p1906
(lp1907
I0
aI2
asS'analisi'
p1908
(lp1909
I2
aI0
asS'anima'
p1910
(lp1911
I0
aI1
asS'abiti'
p1912
(lp1913
I3
aI0
asS'preferiti'
p1914
(lp1915
I0
aI1
asS'abito'
p1916
(lp1917
I0
aI1
asS'paradenti'
p1918
(lp1919
I0
aI1
asS'governative'
p1920
(lp1921
I1
aI0
asS'impianto'
p1922
(lp1923
I0
aI1
asS'segnare'
p1924
(lp1925
I0
aI1
asS'emilia'
p1926
(lp1927
I2
aI0
asS'bisogno'
p1928
(lp1929
I0
aI1
asS'litio'
p1930
(lp1931
I0
aI4
asS'giornalista'
p1932
(lp1933
I1
aI1
asS'jacques'
p1934
(lp1935
I0
aI1
asS'tecnologia'
p1936
(lp1937
I1
aI3
asS'bate'
p1938
(lp1939
I24
aI0
asS'uccide'
p1940
(lp1941
I1
aI0
asS'umana'
p1942
(lp1943
I1
aI0
asS'stagioni'
p1944
(lp1945
I0
aI1
asS'facility'
p1946
(lp1947
I0
aI1
asS'protezione'
p1948
(lp1949
I0
aI3
asS'selfie'
p1950
(lp1951
I1
aI2
asS'n\xc3'
p1952
(lp1953
I3
aI0
asS'umani'
p1954
(lp1955
I4
aI0
asS'pilotaggio'
p1956
(lp1957
I0
aI1
asS'interpretazione'
p1958
(lp1959
I0
aI1
asS'smantellamento'
p1960
(lp1961
I2
aI0
asS'anaerobico'
p1962
(lp1963
I0
aI1
asS'legambiente'
p1964
(lp1965
I1
aI0
asS'venegono'
p1966
(lp1967
I1
aI0
asS'triplete'
p1968
(lp1969
I0
aI1
asS'guardia'
p1970
(lp1971
I2
aI0
asS'accordo'
p1972
(lp1973
I1
aI4
asS'novi'
p1974
(lp1975
I0
aI1
asS'tiratura'
p1976
(lp1977
I1
aI0
asS'pacquiao'
p1978
(lp1979
I0
aI1
asS'rispondo'
p1980
(lp1981
I1
aI0
asS'class'
p1982
(lp1983
I2
aI0
asS'stipendio'
p1984
(lp1985
I1
aI0
asS'lago'
p1986
(lp1987
I0
aI2
asS'enrique'
p1988
(lp1989
I0
aI1
asS'aurelia'
p1990
(lp1991
I0
aI1
asS'franciosi'
p1992
(lp1993
I0
aI2
asS'marilla'
p1994
(lp1995
I0
aI1
asS'aderire'
p1996
(lp1997
I1
aI0
asS'ricorda'
p1998
(lp1999
I0
aI1
asS'anci'
p2000
(lp2001
I0
aI1
asS'facchinetti'
p2002
(lp2003
I1
aI1
asS'talento'
p2004
(lp2005
I0
aI1
asS'sagan'
p2006
(lp2007
I0
aI1
asS'wireless'
p2008
(lp2009
I1
aI0
asS'mantiene'
p2010
(lp2011
I1
aI0
asS'maturazione'
p2012
(lp2013
I0
aI1
asS'verde'
p2014
(lp2015
I3
aI3
asS'clinico'
p2016
(lp2017
I3
aI0
asS'lingotto'
p2018
(lp2019
I0
aI1
asS'diventare'
p2020
(lp2021
I1
aI0
asS'baci'
p2022
(lp2023
I0
aI1
asS'ripercuote'
p2024
(lp2025
I1
aI0
asS'crepacuore'
p2026
(lp2027
I2
aI0
asS'verdi'
p2028
(lp2029
I0
aI2
asS'car2go'
p2030
(lp2031
I0
aI2
asS'contenuti'
p2032
(lp2033
I1
aI0
asS'inzaghi'
p2034
(lp2035
I0
aI1
asS'contenuto'
p2036
(lp2037
I1
aI10
asS'economia'
p2038
(lp2039
I3
aI0
asS'umanit'
p2040
(lp2041
I0
aI1
asS'vivo'
p2042
(lp2043
I1
aI1
asS'peso'
p2044
(lp2045
I0
aI1
asS'pagine'
p2046
(lp2047
I1
aI0
asS'supercar'
p2048
(lp2049
I4
aI0
asS'fermi'
p2050
(lp2051
I1
aI0
asS'pugliesi'
p2052
(lp2053
I0
aI1
asS'mtb'
p2054
(lp2055
I1
aI0
asS'accise'
p2056
(lp2057
I3
aI0
asS'gaal'
p2058
(lp2059
I0
aI1
asS'korol'
p2060
(lp2061
I2
aI0
asS'pontificato'
p2062
(lp2063
I0
aI1
asS'atti'
p2064
(lp2065
I2
aI1
asS'fisso'
p2066
(lp2067
I0
aI1
asS'veloce'
p2068
(lp2069
I0
aI2
asS'trio'
p2070
(lp2071
I1
aI0
asS'cinecitt'
p2072
(lp2073
I0
aI1
asS'stabilizzazione'
p2074
(lp2075
I1
aI0
asS'avviso'
p2076
(lp2077
I1
aI0
asS'recupero'
p2078
(lp2079
I1
aI1
asS'febbraio'
p2080
(lp2081
I1
aI0
asS'request'
p2082
(lp2083
I0
aI7
asS'giardiello'
p2084
(lp2085
I0
aI33
asS'diagnosi'
p2086
(lp2087
I1
aI0
asS'sale'
p2088
(lp2089
I0
aI1
asS"''"
p2090
(lp2091
I9
aI0
asS'conversazioni'
p2092
(lp2093
I1
aI0
asS'gi\xc3'
p2094
(lp2095
I10
aI0
asS'\'"'
p2096
(lp2097
I1
aI0
asS'strutto'
p2098
(lp2099
I0
aI1
asS'maglia'
p2100
(lp2101
I0
aI2
asS'campora'
p2102
(lp2103
I0
aI1
asS"',"
p2104
(lp2105
I5
aI0
asS'tris'
p2106
(lp2107
I1
aI0
asS'prudenza'
p2108
(lp2109
I1
aI1
asS'machine'
p2110
(lp2111
I0
aI1
asS'popolare'
p2112
(lp2113
I3
aI0
asS'melanoma'
p2114
(lp2115
I1
aI0
asS'nm'
p2116
(lp2117
I1
aI0
asS'ravenna'
p2118
(lp2119
I0
aI1
asS'reality'
p2120
(lp2121
I1
aI0
asS'tim'
p2122
(lp2123
I1
aI0
asS'uomini'
p2124
(lp2125
I17
aI5
asS'digital'
p2126
(lp2127
I0
aI1
asS'test'
p2128
(lp2129
I7
aI9
asS'transgender'
p2130
(lp2131
I0
aI1
asS'commerciale'
p2132
(lp2133
I0
aI2
asS'tess'
p2134
(lp2135
I0
aI1
asS'multato'
p2136
(lp2137
I1
aI0
asS'assieme'
p2138
(lp2139
I0
aI1
asS'tifone'
p2140
(lp2141
I2
aI0
asS'autonomia'
p2142
(lp2143
I0
aI1
asS'passare'
p2144
(lp2145
I0
aI1
asS'tappa'
p2146
(lp2147
I1
aI1
asS'dobbiamo'
p2148
(lp2149
I1
aI3
asS'tappe'
p2150
(lp2151
I1
aI0
asS'diplomatici'
p2152
(lp2153
I3
aI0
asS'rodas'
p2154
(lp2155
I1
aI0
asS'russa'
p2156
(lp2157
I0
aI1
asS'chiuse'
p2158
(lp2159
I0
aI1
asS'acqua'
p2160
(lp2161
I31
aI8
asS'iscritti'
p2162
(lp2163
I1
aI0
asS'troupe'
p2164
(lp2165
I0
aI1
asS'piccola'
p2166
(lp2167
I0
aI1
asS'russi'
p2168
(lp2169
I1
aI1
asS'weekend'
p2170
(lp2171
I0
aI3
asS'russo'
p2172
(lp2173
I2
aI1
asS'chiuso'
p2174
(lp2175
I1
aI0
asS'sconosciute'
p2176
(lp2177
I0
aI1
asS'rolls'
p2178
(lp2179
I0
aI1
asS'societ'
p2180
(lp2181
I0
aI18
asS'regime'
p2182
(lp2183
I0
aI1
asS'aggiornamento'
p2184
(lp2185
I0
aI2
asS'phone'
p2186
(lp2187
I0
aI2
asS'biopsia'
p2188
(lp2189
I0
aI1
asS'attivisti'
p2190
(lp2191
I0
aI1
asS'uefa'
p2192
(lp2193
I0
aI1
asS'denunciato'
p2194
(lp2195
I0
aI1
asS'sampdoria'
p2196
(lp2197
I3
aI1
asS'vestitino'
p2198
(lp2199
I0
aI1
asS'isoardi'
p2200
(lp2201
I0
aI4
asS'vorrebbero'
p2202
(lp2203
I1
aI2
asS'svezia'
p2204
(lp2205
I0
aI5
asS'travolta'
p2206
(lp2207
I0
aI1
asS'radioterapia'
p2208
(lp2209
I1
aI0
asS'navigava'
p2210
(lp2211
I1
aI0
asS'sfiora'
p2212
(lp2213
I1
aI0
asS'perch'
p2214
(lp2215
I0
aI21
asS'ventidue'
p2216
(lp2217
I0
aI1
asS'violasse'
p2218
(lp2219
I0
aI1
asS'vacanze'
p2220
(lp2221
I0
aI2
asS'focus'
p2222
(lp2223
I0
aI1
asS'specie'
p2224
(lp2225
I0
aI1
asS'difensore'
p2226
(lp2227
I2
aI0
asS'manager'
p2228
(lp2229
I0
aI3
asS'spiridonov'
p2230
(lp2231
I1
aI0
asS'tribunale'
p2232
(lp2233
I3
aI34
asS'corpo'
p2234
(lp2235
I4
aI2
asS'ros'
p2236
(lp2237
I1
aI0
asS'tradito'
p2238
(lp2239
I0
aI2
asS'sanno'
p2240
(lp2241
I0
aI3
asS'zona'
p2242
(lp2243
I5
aI6
asS'ware'
p2244
(lp2245
I0
aI1
asS'cos\xc3'
p2246
(lp2247
I3
aI0
asS'zone'
p2248
(lp2249
I2
aI6
asS'suicida'
p2250
(lp2251
I1
aI0
asS'incendio'
p2252
(lp2253
I0
aI1
asS'torna'
p2254
(lp2255
I3
aI2
asS'telt'
p2256
(lp2257
I0
aI1
asS'puoi'
p2258
(lp2259
I0
aI1
asS'furch'
p2260
(lp2261
I0
aI1
asS'cronache'
p2262
(lp2263
I4
aI0
asS'foursquare'
p2264
(lp2265
I0
aI1
asS'gigi'
p2266
(lp2267
I0
aI1
asS'taisha'
p2268
(lp2269
I0
aI2
asS'libia'
p2270
(lp2271
I4
aI0
asS'indifferenza'
p2272
(lp2273
I1
aI0
asS'taleban'
p2274
(lp2275
I1
aI0
asS'soggetti'
p2276
(lp2277
I0
aI1
asS'trecate'
p2278
(lp2279
I0
aI3
asS'zingari'
p2280
(lp2281
I0
aI2
asS'pompei'
p2282
(lp2283
I2
aI0
asS'brown'
p2284
(lp2285
I0
aI1
asS'smartphone'
p2286
(lp2287
I5
aI15
asS'squalificati'
p2288
(lp2289
I1
aI1
asS'vagge'
p2290
(lp2291
I0
aI1
asS'pugno'
p2292
(lp2293
I0
aI1
asS'sapevate'
p2294
(lp2295
I0
aI1
asS'votare'
p2296
(lp2297
I1
aI0
asS'pugni'
p2298
(lp2299
I3
aI0
asS'minuti'
p2300
(lp2301
I6
aI5
asS'vegas'
p2302
(lp2303
I1
aI2
asS'minuto'
p2304
(lp2305
I2
aI4
asS'tg24'
p2306
(lp2307
I2
aI0
asS'mladenovic'
p2308
(lp2309
I1
aI0
asS'vimercate'
p2310
(lp2311
I0
aI7
asS'sanzio'
p2312
(lp2313
I0
aI1
asS'rovina'
p2314
(lp2315
I0
aI1
asS'saviano'
p2316
(lp2317
I0
aI1
asS'trarre'
p2318
(lp2319
I0
aI1
asS'cintura'
p2320
(lp2321
I0
aI1
asS'scandinavia'
p2322
(lp2323
I0
aI1
asS'eden'
p2324
(lp2325
I2
aI0
asS'speciale'
p2326
(lp2327
I1
aI0
asS'insigne'
p2328
(lp2329
I1
aI0
asS'valley'
p2330
(lp2331
I0
aI2
asS'necessit'
p2332
(lp2333
I0
aI1
asS'gatto'
p2334
(lp2335
I0
aI7
asS'aula'
p2336
(lp2337
I6
aI6
asS'posto'
p2338
(lp2339
I2
aI7
asS'turni'
p2340
(lp2341
I1
aI1
asS'vedi'
p2342
(lp2343
I0
aI1
asS'team'
p2344
(lp2345
I2
aI3
asS'strasburgo'
p2346
(lp2347
I0
aI3
asS'inchiesta'
p2348
(lp2349
I1
aI1
asS'aperto'
p2350
(lp2351
I1
aI1
asS'valsenio'
p2352
(lp2353
I2
aI0
asS'tedesca'
p2354
(lp2355
I2
aI1
asS'cose'
p2356
(lp2357
I1
aI2
asS'gorilla'
p2358
(lp2359
I0
aI1
asS'alfa'
p2360
(lp2361
I0
aI1
asS'treni'
p2362
(lp2363
I0
aI4
asS'bock'
p2364
(lp2365
I0
aI1
asS'funziona'
p2366
(lp2367
I0
aI2
asS'formello'
p2368
(lp2369
I0
aI1
asS'sign'
p2370
(lp2371
I1
aI0
asS'utilissima'
p2372
(lp2373
I0
aI1
asS'cost'
p2374
(lp2375
I0
aI1
asS'manette'
p2376
(lp2377
I1
aI0
asS'cathriona'
p2378
(lp2379
I2
aI0
asS'verificare'
p2380
(lp2381
I1
aI0
asS'norris'
p2382
(lp2383
I0
aI2
asS'filler'
p2384
(lp2385
I0
aI3
asS'previsti'
p2386
(lp2387
I0
aI5
asS'premio'
p2388
(lp2389
I0
aI2
asS'previsto'
p2390
(lp2391
I2
aI0
asS'siriani'
p2392
(lp2393
I1
aI0
asS'\xb0'
p2394
(lp2395
I3
aI0
asS'tommaso'
p2396
(lp2397
I0
aI1
asS'lennon'
p2398
(lp2399
I0
aI1
asS'siriano'
p2400
(lp2401
I2
aI0
asS'marketing'
p2402
(lp2403
I1
aI0
asS'stando'
p2404
(lp2405
I1
aI2
asS'cranston'
p2406
(lp2407
I0
aI1
asS'barton'
p2408
(lp2409
I0
aI1
asS'alina'
p2410
(lp2411
I0
aI1
asS'juventino'
p2412
(lp2413
I0
aI1
asS'valida'
p2414
(lp2415
I0
aI1
asS'agosto'
p2416
(lp2417
I3
aI1
asS'kant'
p2418
(lp2419
I0
aI1
asS'valido'
p2420
(lp2421
I0
aI1
asS'messer'
p2422
(lp2423
I0
aI2
asS'zelanda'
p2424
(lp2425
I1
aI0
asS'prendere'
p2426
(lp2427
I0
aI1
asS'buccino'
p2428
(lp2429
I0
aI1
asS'baseball'
p2430
(lp2431
I0
aI2
asS'sbloccare'
p2432
(lp2433
I0
aI2
asS'alto'
p2434
(lp2435
I1
aI1
asS'probabilmente'
p2436
(lp2437
I1
aI1
asS'tutelare'
p2438
(lp2439
I0
aI1
asS'buco'
p2440
(lp2441
I1
aI0
asS'disattivate'
p2442
(lp2443
I1
aI0
asS'marrone'
p2444
(lp2445
I0
aI1
asS'lakers'
p2446
(lp2447
I0
aI2
asS'fenomeno'
p2448
(lp2449
I1
aI0
asS'renzi'
p2450
(lp2451
I28
aI7
asS'fabrizio'
p2452
(lp2453
I1
aI1
asS'potrebbe'
p2454
(lp2455
I7
aI3
asS'littizzetto'
p2456
(lp2457
I0
aI1
asS'renzo'
p2458
(lp2459
I0
aI2
asS'risultati'
p2460
(lp2461
I4
aI2
asS'rajoy'
p2462
(lp2463
I2
aI0
asS'sentinella'
p2464
(lp2465
I0
aI1
asS'invio'
p2466
(lp2467
I0
aI1
asS'effetto'
p2468
(lp2469
I6
aI0
asS'richiamer\xc3'
p2470
(lp2471
I1
aI0
asS'ovetti'
p2472
(lp2473
I0
aI1
asS'votano'
p2474
(lp2475
I0
aI1
asS'italiane'
p2476
(lp2477
I1
aI0
asS'riflettori'
p2478
(lp2479
I0
aI1
asS'riguardo'
p2480
(lp2481
I0
aI1
asS'italiani'
p2482
(lp2483
I3
aI9
asS'parma'
p2484
(lp2485
I1
aI1
asS'italiano'
p2486
(lp2487
I14
aI1
asS'sviluppo'
p2488
(lp2489
I10
aI2
asS'balletto'
p2490
(lp2491
I0
aI1
asS'passeggeri'
p2492
(lp2493
I0
aI1
asS'lasciato'
p2494
(lp2495
I1
aI0
asS'sindaci'
p2496
(lp2497
I0
aI1
asS'nonno'
p2498
(lp2499
I3
aI0
asS'terrile'
p2500
(lp2501
I0
aI1
asS'rossotto'
p2502
(lp2503
I6
aI0
asS'sindaco'
p2504
(lp2505
I15
aI11
asS'ucits'
p2506
(lp2507
I0
aI4
asS'positivo'
p2508
(lp2509
I2
aI1
asS'franco'
p2510
(lp2511
I2
aI0
asS'pere'
p2512
(lp2513
I1
aI0
asS'prove'
p2514
(lp2515
I0
aI2
asS'torcicollo'
p2516
(lp2517
I0
aI1
asS'ponte'
p2518
(lp2519
I36
aI0
asS'calais'
p2520
(lp2521
I1
aI0
asS'\xb1'
p2522
(lp2523
I1
aI0
asS'tecnologica'
p2524
(lp2525
I0
aI1
asS'live'
p2526
(lp2527
I2
aI0
asS'bulgaro'
p2528
(lp2529
I1
aI0
asS'iphone'
p2530
(lp2531
I23
aI7
asS'gabbana'
p2532
(lp2533
I1
aI0
asS'segnalazioni'
p2534
(lp2535
I1
aI0
asS'usato'
p2536
(lp2537
I0
aI3
asS'annunciato'
p2538
(lp2539
I1
aI0
asS'tecnologico'
p2540
(lp2541
I0
aI1
asS'propriet'
p2542
(lp2543
I0
aI3
asS'divenne'
p2544
(lp2545
I0
aI1
asS'club'
p2546
(lp2547
I2
aI4
asS'realt'
p2548
(lp2549
I0
aI3
asS'propriet\xc3'
p2550
(lp2551
I1
aI0
asS'ignorano'
p2552
(lp2553
I1
aI0
asS'venduti'
p2554
(lp2555
I1
aI0
asS'borisov'
p2556
(lp2557
I11
aI0
asS'tifosi'
p2558
(lp2559
I1
aI8
asS'libera'
p2560
(lp2561
I0
aI1
asS'tifoso'
p2562
(lp2563
I0
aI7
asS'siate'
p2564
(lp2565
I1
aI0
asS'venduto'
p2566
(lp2567
I0
aI1
asS'stranezze'
p2568
(lp2569
I0
aI1
asS's\xc3'
p2570
(lp2571
I2
aI0
asS'amelia'
p2572
(lp2573
I2
aI1
asS'intesa'
p2574
(lp2575
I0
aI5
asS'ridurre'
p2576
(lp2577
I1
aI0
asS'saipem'
p2578
(lp2579
I2
aI0
asS'tecniche'
p2580
(lp2581
I0
aI2
asS'incidente'
p2582
(lp2583
I12
aI7
asS'malore'
p2584
(lp2585
I0
aI1
asS'tokyo'
p2586
(lp2587
I5
aI0
asS'biteg'
p2588
(lp2589
I2
aI0
asS'valle'
p2590
(lp2591
I3
aI2
asS'spregevole'
p2592
(lp2593
I1
aI0
asS'orion'
p2594
(lp2595
I0
aI1
asS'decennale'
p2596
(lp2597
I1
aI0
asS'ferro'
p2598
(lp2599
I0
aI1
asS'valutare'
p2600
(lp2601
I12
aI0
asS'fuggire'
p2602
(lp2603
I0
aI1
asS'mascherina'
p2604
(lp2605
I0
aI1
asS'brescia'
p2606
(lp2607
I0
aI1
asS'giovanardi'
p2608
(lp2609
I0
aI3
asS'visitate'
p2610
(lp2611
I0
aI2
asS'uruguay'
p2612
(lp2613
I0
aI1
asS'nexus'
p2614
(lp2615
I6
aI0
asS'chip'
p2616
(lp2617
I1
aI1
asS'vulcanica'
p2618
(lp2619
I0
aI2
asS'vecchiaia'
p2620
(lp2621
I1
aI0
asS'visitati'
p2622
(lp2623
I0
aI2
asS'grasso'
p2624
(lp2625
I19
aI0
asS'spa'
p2626
(lp2627
I4
aI0
asS'uccidere'
p2628
(lp2629
I0
aI3
asS'uncorrect'
p2630
(lp2631
I0
aI1
asS'magenta'
p2632
(lp2633
I0
aI1
asS'regalo'
p2634
(lp2635
I1
aI3
asS'dollari'
p2636
(lp2637
I18
aI5
asS'bigot'
p2638
(lp2639
I0
aI1
asS'ioni'
p2640
(lp2641
I0
aI1
asS'domenico'
p2642
(lp2643
I1
aI0
asS'winter'
p2644
(lp2645
I1
aI0
asS'tilt'
p2646
(lp2647
I2
aI0
asS'unitamente'
p2648
(lp2649
I1
aI0
asS'istante'
p2650
(lp2651
I0
aI2
asS'cimabue'
p2652
(lp2653
I0
aI1
asS'senso'
p2654
(lp2655
I1
aI0
asS'per\xf2'
p2656
(lp2657
I0
aI4
asS'specifico'
p2658
(lp2659
I0
aI1
asS'boomdabash'
p2660
(lp2661
I1
aI0
asS'vitae'
p2662
(lp2663
I0
aI1
asS'vodafone'
p2664
(lp2665
I2
aI1
asS'divo'
p2666
(lp2667
I1
aI0
asS'mas'
p2668
(lp2669
I13
aI0
asS'salewa'
p2670
(lp2671
I0
aI1
asS'tabellino'
p2672
(lp2673
I1
aI0
asS'sbagliando'
p2674
(lp2675
I0
aI1
asS'atac'
p2676
(lp2677
I2
aI0
asS'latte'
p2678
(lp2679
I2
aI0
asS'dato'
p2680
(lp2681
I2
aI1
asS'dati'
p2682
(lp2683
I2
aI5
asS'cech'
p2684
(lp2685
I0
aI1
asS'gros'
p2686
(lp2687
I0
aI2
asS'incendiario'
p2688
(lp2689
I0
aI1
asS'nomination'
p2690
(lp2691
I1
aI0
asS'massimo'
p2692
(lp2693
I1
aI3
asS'chaco'
p2694
(lp2695
I0
aI1
asS'voci'
p2696
(lp2697
I0
aI2
asS'stress'
p2698
(lp2699
I0
aI2
asS'stasera'
p2700
(lp2701
I2
aI0
asS'commodity'
p2702
(lp2703
I1
aI0
asS'oculus'
p2704
(lp2705
I1
aI1
asS'risparmio'
p2706
(lp2707
I2
aI2
asS'corona'
p2708
(lp2709
I1
aI0
asS'st'
p2710
(lp2711
I1
aI0
asS'intercity'
p2712
(lp2713
I0
aI1
asS'ossuario'
p2714
(lp2715
I0
aI1
asS'switch'
p2716
(lp2717
I1
aI0
asS'vetri'
p2718
(lp2719
I0
aI2
asS'kurt'
p2720
(lp2721
I0
aI3
asS'londra'
p2722
(lp2723
I0
aI2
asS'gesture'
p2724
(lp2725
I0
aI2
asS'sd'
p2726
(lp2727
I1
aI0
asS'stabiliti'
p2728
(lp2729
I0
aI1
asS'principio'
p2730
(lp2731
I0
aI1
asS'stabilito'
p2732
(lp2733
I0
aI2
asS'duke'
p2734
(lp2735
I0
aI1
asS'seizing'
p2736
(lp2737
I0
aI1
asS'e\xe2'
p2738
(lp2739
I6
aI0
asS'pellicola'
p2740
(lp2741
I2
aI0
asS'stile'
p2742
(lp2743
I0
aI5
asS'aquila'
p2744
(lp2745
I0
aI1
asS'squadra'
p2746
(lp2747
I29
aI19
asS'vergogna'
p2748
(lp2749
I1
aI0
asS'esteri'
p2750
(lp2751
I1
aI0
asS'spogliarelliste'
p2752
(lp2753
I0
aI1
asS'auguri'
p2754
(lp2755
I2
aI0
asS'servono'
p2756
(lp2757
I0
aI1
asS'estero'
p2758
(lp2759
I2
aI1
asS'tecnologie'
p2760
(lp2761
I1
aI2
asS'legge'
p2762
(lp2763
I8
aI8
asS'forma'
p2764
(lp2765
I0
aI3
asS'police'
p2766
(lp2767
I1
aI0
asS'forme'
p2768
(lp2769
I0
aI2
asS'votazioni'
p2770
(lp2771
I2
aI0
asS'soltanto'
p2772
(lp2773
I0
aI2
asS'toro'
p2774
(lp2775
I7
aI2
asS'jim'
p2776
(lp2777
I1
aI0
asS'chiude'
p2778
(lp2779
I1
aI0
asS'ventina'
p2780
(lp2781
I0
aI1
asS'yorkshire'
p2782
(lp2783
I0
aI1
asS'spettacolo'
p2784
(lp2785
I0
aI2
asS'musei'
p2786
(lp2787
I0
aI1
asS'registrazione'
p2788
(lp2789
I0
aI1
asS'museo'
p2790
(lp2791
I0
aI5
asS'fermato'
p2792
(lp2793
I1
aI1
asS'spacciatore'
p2794
(lp2795
I0
aI1
asS'mail'
p2796
(lp2797
I0
aI1
asS'fermata'
p2798
(lp2799
I1
aI0
asS'vagliarli'
p2800
(lp2801
I1
aI0
asS'udinese'
p2802
(lp2803
I0
aI2
asS'baite'
p2804
(lp2805
I1
aI0
asS'umano'
p2806
(lp2807
I1
aI0
asS'marzo'
p2808
(lp2809
I0
aI1
asS'schittulli'
p2810
(lp2811
I0
aI2
asS'sicuramente'
p2812
(lp2813
I0
aI2
asS'killer'
p2814
(lp2815
I0
aI3
asS'cesio'
p2816
(lp2817
I0
aI1
asS'tsipras'
p2818
(lp2819
I0
aI3
asS'attuali'
p2820
(lp2821
I0
aI1
asS'sorriso'
p2822
(lp2823
I1
aI0
asS'safari'
p2824
(lp2825
I0
aI1
asS'nomadi'
p2826
(lp2827
I0
aI1
asS'gemella'
p2828
(lp2829
I0
aI1
asS'ciampi'
p2830
(lp2831
I0
aI3
asS'concerti'
p2832
(lp2833
I0
aI1
asS'opera'
p2834
(lp2835
I7
aI2
asS'james'
p2836
(lp2837
I7
aI0
asS'mondov\xc3'
p2838
(lp2839
I1
aI0
asS'gravidanza'
p2840
(lp2841
I2
aI0
asS'tera'
p2842
(lp2843
I0
aI1
asS'convinto'
p2844
(lp2845
I1
aI0
asS'possibilit\xc3'
p2846
(lp2847
I2
aI0
asS'olio'
p2848
(lp2849
I0
aI1
asS'rock'
p2850
(lp2851
I0
aI1
asS'crupi'
p2852
(lp2853
I1
aI0
asS'esami'
p2854
(lp2855
I3
aI0
asS'tirato'
p2856
(lp2857
I1
aI0
asS'settimo'
p2858
(lp2859
I0
aI1
asS'trattamento'
p2860
(lp2861
I6
aI0
asS'ei'
p2862
(lp2863
I1
aI0
asS'lotto'
p2864
(lp2865
I0
aI1
asS'gaming'
p2866
(lp2867
I0
aI1
asS'ricasca'
p2868
(lp2869
I0
aI1
asS'lettere'
p2870
(lp2871
I0
aI1
asS'yeah'
p2872
(lp2873
I0
aI1
asS'riuniti'
p2874
(lp2875
I1
aI0
asS'manifesto'
p2876
(lp2877
I2
aI1
asS'stranieri'
p2878
(lp2879
I4
aI1
asS'sturaro'
p2880
(lp2881
I1
aI2
asS'oxygenos'
p2882
(lp2883
I0
aI1
asS'giro'
p2884
(lp2885
I2
aI1
asS'thohir'
p2886
(lp2887
I1
aI2
asS'trilocale'
p2888
(lp2889
I0
aI2
asS'riunione'
p2890
(lp2891
I0
aI3
asS'favorevole'
p2892
(lp2893
I0
aI1
asS'trattamenti'
p2894
(lp2895
I1
aI1
asS'scintillanti'
p2896
(lp2897
I1
aI0
asS'canoni'
p2898
(lp2899
I0
aI1
asS'blu'
p2900
(lp2901
I1
aI0
asS'stabilit\xc3'
p2902
(lp2903
I3
aI0
asS'riattivato'
p2904
(lp2905
I2
aI0
asS'riuscito'
p2906
(lp2907
I1
aI3
asS'dovizioso'
p2908
(lp2909
I0
aI2
asS'sessuali'
p2910
(lp2911
I1
aI1
asS'prognosi'
p2912
(lp2913
I0
aI1
asS'assessore'
p2914
(lp2915
I0
aI1
asS'orari'
p2916
(lp2917
I0
aI2
asS'afghane'
p2918
(lp2919
I1
aI0
asS'internet'
p2920
(lp2921
I8
aI3
asS'formula'
p2922
(lp2923
I0
aI3
asS'sessuale'
p2924
(lp2925
I0
aI1
asS'tensione'
p2926
(lp2927
I0
aI1
asS'simile'
p2928
(lp2929
I0
aI1
asS'ribelle'
p2930
(lp2931
I2
aI1
asS'depuranti'
p2932
(lp2933
I0
aI1
asS'risale'
p2934
(lp2935
I1
aI0
asS'theory'
p2936
(lp2937
I0
aI1
asS'stretto'
p2938
(lp2939
I29
aI0
asS'irraggiato'
p2940
(lp2941
I3
aI0
asS'sconfigge'
p2942
(lp2943
I1
aI0
asS'settimana'
p2944
(lp2945
I4
aI0
asS'vegetariana'
p2946
(lp2947
I0
aI1
asS'disoccupato'
p2948
(lp2949
I0
aI1
asS'spiegarmi'
p2950
(lp2951
I0
aI1
asS'settimane'
p2952
(lp2953
I0
aI2
asS'ribelli'
p2954
(lp2955
I1
aI0
asS'excelsior'
p2956
(lp2957
I0
aI1
asS'zuckerberg'
p2958
(lp2959
I6
aI3
asS'oro'
p2960
(lp2961
I3
aI0
asS'preoccupazioni'
p2962
(lp2963
I1
aI0
asS'california'
p2964
(lp2965
I0
aI1
asS'marino'
p2966
(lp2967
I11
aI7
asS'superiore'
p2968
(lp2969
I2
aI1
asS'marina'
p2970
(lp2971
I1
aI0
asS'reddito'
p2972
(lp2973
I0
aI1
asS'cara'
p2974
(lp2975
I1
aI0
asS'marine'
p2976
(lp2977
I0
aI4
asS'inviati'
p2978
(lp2979
I0
aI1
asS'discesa'
p2980
(lp2981
I1
aI1
asS'starebbe'
p2982
(lp2983
I1
aI0
asS'dinamo'
p2984
(lp2985
I1
aI1
asS'basso'
p2986
(lp2987
I0
aI2
asS'monsignor'
p2988
(lp2989
I2
aI0
asS'edificio'
p2990
(lp2991
I0
aI3
asS'pu\xc3\xb2'
p2992
(lp2993
I2
aI0
asS'volantinaggio'
p2994
(lp2995
I0
aI1
asS'taralli'
p2996
(lp2997
I0
aI1
asS'ministri'
p2998
(lp2999
I2
aI0
asS'risolto'
p3000
(lp3001
I0
aI3
asS'lascia'
p3002
(lp3003
I1
aI0
asS'centrale'
p3004
(lp3005
I3
aI0
asS'americana'
p3006
(lp3007
I0
aI1
asS'albertini'
p3008
(lp3009
I0
aI1
asS'americano'
p3010
(lp3011
I1
aI0
asS'gchq'
p3012
(lp3013
I1
aI0
asS'lascio'
p3014
(lp3015
I1
aI0
asS'americani'
p3016
(lp3017
I1
aI0
asS'placanica'
p3018
(lp3019
I0
aI1
asS'voto'
p3020
(lp3021
I1
aI0
asS'voti'
p3022
(lp3023
I1
aI1
asS'eclissi'
p3024
(lp3025
I1
aI0
asS'ring'
p3026
(lp3027
I0
aI1
asS'open'
p3028
(lp3029
I1
aI0
asS'george'
p3030
(lp3031
I0
aI1
asS'danneggiare'
p3032
(lp3033
I1
aI0
asS'onu'
p3034
(lp3035
I17
aI0
asS'city'
p3036
(lp3037
I2
aI2
asS'tattiche'
p3038
(lp3039
I0
aI1
asS'esonera'
p3040
(lp3041
I1
aI0
asS'\xac,'
p3042
(lp3043
I1
aI0
asS'molecole'
p3044
(lp3045
I0
aI1
asS'insalata'
p3046
(lp3047
I0
aI2
asS'fiera'
p3048
(lp3049
I1
aI0
asS'spears'
p3050
(lp3051
I0
aI1
asS'stoccarda'
p3052
(lp3053
I0
aI1
asS'lichtsteiner'
p3054
(lp3055
I5
aI0
asS'scarlattina'
p3056
(lp3057
I0
aI1
asS'savona'
p3058
(lp3059
I0
aI1
asS'parcheggiare'
p3060
(lp3061
I0
aI1
asS'\x88'
p3062
(lp3063
I8
aI0
asS'white'
p3064
(lp3065
I3
aI0
asS'campionato'
p3066
(lp3067
I1
aI1
asS'rosario'
p3068
(lp3069
I0
aI1
asS'giocava'
p3070
(lp3071
I1
aI0
asS'tommasi'
p3072
(lp3073
I0
aI1
asS'provini'
p3074
(lp3075
I1
aI0
asS'investimenti'
p3076
(lp3077
I2
aI1
asS'antimafia'
p3078
(lp3079
I1
aI0
asS'comandante'
p3080
(lp3081
I0
aI1
asS'sospeso'
p3082
(lp3083
I1
aI6
asS'sente'
p3084
(lp3085
I0
aI1
asS'vegan'
p3086
(lp3087
I0
aI1
asS'qual'
p3088
(lp3089
I0
aI4
asS'prometheus'
p3090
(lp3091
I1
aI0
asS'mostrano'
p3092
(lp3093
I0
aI1
asS'tecnica'
p3094
(lp3095
I1
aI1
asS'vedete'
p3096
(lp3097
I0
aI5
asS'tecnici'
p3098
(lp3099
I0
aI2
asS'insicuri'
p3100
(lp3101
I0
aI1
asS'tentato'
p3102
(lp3103
I0
aI2
asS'tecnico'
p3104
(lp3105
I1
aI4
asS'magazzini'
p3106
(lp3107
I0
aI1
asS'ventura'
p3108
(lp3109
I1
aI1
asS'folla'
p3110
(lp3111
I0
aI1
asS'ignoranti'
p3112
(lp3113
I0
aI1
asS'futuro'
p3114
(lp3115
I1
aI2
asS'stradale'
p3116
(lp3117
I4
aI2
asS'fase'
p3118
(lp3119
I5
aI1
asS'russia'
p3120
(lp3121
I13
aI1
asS'sean'
p3122
(lp3123
I0
aI1
asS'piccole'
p3124
(lp3125
I1
aI0
asS'televisivi'
p3126
(lp3127
I0
aI1
asS'berrino'
p3128
(lp3129
I0
aI1
asS'territorio'
p3130
(lp3131
I2
aI1
asS'invitato'
p3132
(lp3133
I3
aI0
asS'san'
p3134
(lp3135
I3
aI0
asS'grotta'
p3136
(lp3137
I0
aI1
asS'michele'
p3138
(lp3139
I3
aI0
asS'mostrare'
p3140
(lp3141
I0
aI1
asS'sanzioni'
p3142
(lp3143
I1
aI3
asS'sull'
p3144
(lp3145
I0
aI3
asS'nuovamente'
p3146
(lp3147
I0
aI1
asS'urticanti'
p3148
(lp3149
I0
aI1
asS'loki'
p3150
(lp3151
I0
aI1
asS'motorshow'
p3152
(lp3153
I1
aI0
asS'ribasso'
p3154
(lp3155
I1
aI0
asS'affari'
p3156
(lp3157
I0
aI1
asS'risulterebbe'
p3158
(lp3159
I1
aI0
asS'esemplari'
p3160
(lp3161
I1
aI0
asS'scatola'
p3162
(lp3163
I1
aI2
asS'linux'
p3164
(lp3165
I0
aI1
asS'tenere'
p3166
(lp3167
I0
aI1
asS'usava'
p3168
(lp3169
I1
aI0
asS'note'
p3170
(lp3171
I0
aI1
asS'gennaio'
p3172
(lp3173
I3
aI0
asS'flessibilit\xc3'
p3174
(lp3175
I1
aI0
asS'giovane'
p3176
(lp3177
I8
aI0
asS'assassinio'
p3178
(lp3179
I1
aI0
asS'online'
p3180
(lp3181
I2
aI4
asS'giovani'
p3182
(lp3183
I3
aI2
asS'seriali'
p3184
(lp3185
I1
aI0
asS'terrorismo'
p3186
(lp3187
I3
aI0
asS'trebbia'
p3188
(lp3189
I0
aI1
asS'torinese'
p3190
(lp3191
I1
aI2
asS'paio'
p3192
(lp3193
I0
aI1
asS'numeri'
p3194
(lp3195
I1
aI0
asS'controffensiva'
p3196
(lp3197
I2
aI0
asS'friedman'
p3198
(lp3199
I2
aI0
asS'singoli'
p3200
(lp3201
I1
aI0
asS'numero'
p3202
(lp3203
I5
aI1
asS'bossi'
p3204
(lp3205
I0
aI1
asS'fca'
p3206
(lp3207
I1
aI0
asS'vidoe'
p3208
(lp3209
I0
aI1
asS'scrivono'
p3210
(lp3211
I1
aI0
asS'cevital'
p3212
(lp3213
I0
aI1
asS'sali'
p3214
(lp3215
I5
aI0
asS'carbonio'
p3216
(lp3217
I0
aI2
asS'camping'
p3218
(lp3219
I0
aI1
asS'rilasciato'
p3220
(lp3221
I0
aI1
asS'moggi'
p3222
(lp3223
I0
aI1
asS'sala'
p3224
(lp3225
I0
aI2
asS'vasta'
p3226
(lp3227
I1
aI0
asS'alleva'
p3228
(lp3229
I2
aI0
asS'femminile'
p3230
(lp3231
I1
aI0
asS'mro'
p3232
(lp3233
I3
aI0
asS'ferrari'
p3234
(lp3235
I3
aI9
asS'piattaforma'
p3236
(lp3237
I1
aI1
asS'troveranno'
p3238
(lp3239
I0
aI1
asS'fermare'
p3240
(lp3241
I1
aI0
asS'rilasciata'
p3242
(lp3243
I1
aI0
asS'erba'
p3244
(lp3245
I0
aI1
asS'aiuta'
p3246
(lp3247
I0
aI1
asS'fifa'
p3248
(lp3249
I0
aI2
asS'fuorisalone'
p3250
(lp3251
I0
aI1
asS'ticinonews'
p3252
(lp3253
I1
aI0
asS'squalifica'
p3254
(lp3255
I0
aI1
asS'chieri'
p3256
(lp3257
I0
aI4
asS'varcare'
p3258
(lp3259
I0
aI1
asS'vescovi'
p3260
(lp3261
I1
aI0
asS'rivelazione'
p3262
(lp3263
I0
aI1
asS'vettel'
p3264
(lp3265
I0
aI3
asS'arnaldo'
p3266
(lp3267
I0
aI1
asS'vescovo'
p3268
(lp3269
I0
aI3
asS'preservare'
p3270
(lp3271
I1
aI0
asS'sottoposta'
p3272
(lp3273
I0
aI1
asS'agenzia'
p3274
(lp3275
I2
aI0
asS'colori'
p3276
(lp3277
I1
aI0
asS'ruggire'
p3278
(lp3279
I0
aI1
asS'possa'
p3280
(lp3281
I0
aI1
asS'mister'
p3282
(lp3283
I1
aI2
asS'discriminazione'
p3284
(lp3285
I1
aI0
asS'carrai'
p3286
(lp3287
I0
aI1
asS'ispezioni'
p3288
(lp3289
I1
aI0
asS'fibra'
p3290
(lp3291
I0
aI2
asS'roby'
p3292
(lp3293
I3
aI0
asS'maggioranza'
p3294
(lp3295
I7
aI2
asS'fornero'
p3296
(lp3297
I1
aI0
asS'tragiche'
p3298
(lp3299
I0
aI1
asS'ricche'
p3300
(lp3301
I0
aI1
asS'provvedimento'
p3302
(lp3303
I1
aI0
asS'realmente'
p3304
(lp3305
I1
aI0
asS'provvedimenti'
p3306
(lp3307
I1
aI2
asS'impressionanti'
p3308
(lp3309
I1
aI0
asS'divisi'
p3310
(lp3311
I1
aI0
asS'civili'
p3312
(lp3313
I1
aI0
asS'ambientale'
p3314
(lp3315
I0
aI1
asS'utilizza'
p3316
(lp3317
I1
aI0
asS'utilizzo'
p3318
(lp3319
I7
aI1
asS'formazione'
p3320
(lp3321
I1
aI0
asS'spezia'
p3322
(lp3323
I3
aI0
asS'presso'
p3324
(lp3325
I1
aI2
asS'cattivo'
p3326
(lp3327
I5
aI4
asS'viva'
p3328
(lp3329
I0
aI1
asS'familiare'
p3330
(lp3331
I0
aI1
asS'nell'
p3332
(lp3333
I0
aI1
asS'vergognare'
p3334
(lp3335
I0
aI1
asS'portieri'
p3336
(lp3337
I1
aI0
asS'baghdad'
p3338
(lp3339
I3
aI0
asS'marcoli'
p3340
(lp3341
I0
aI1
asS'raccolti'
p3342
(lp3343
I1
aI0
asS'monda'
p3344
(lp3345
I7
aI0
asS'esodati'
p3346
(lp3347
I1
aI0
asS'energetica'
p3348
(lp3349
I0
aI1
asS'portiere'
p3350
(lp3351
I3
aI1
asS'muschio'
p3352
(lp3353
I0
aI1
asS'prime'
p3354
(lp3355
I3
aI1
asS'vantaggi'
p3356
(lp3357
I0
aI3
asS'bomba'
p3358
(lp3359
I0
aI3
asS'resina'
p3360
(lp3361
I0
aI2
asS'settings'
p3362
(lp3363
I1
aI0
asS'giuria'
p3364
(lp3365
I0
aI1
asS'curiosit'
p3366
(lp3367
I0
aI1
asS'torner\xf2'
p3368
(lp3369
I0
aI1
asS'primi'
p3370
(lp3371
I14
aI1
asS'segno'
p3372
(lp3373
I1
aI1
asS'giornata'
p3374
(lp3375
I3
aI0
asS'roger'
p3376
(lp3377
I1
aI1
asS'giornate'
p3378
(lp3379
I1
aI2
asS'netto'
p3380
(lp3381
I1
aI0
asS'scott'
p3382
(lp3383
I1
aI2
asS'tesoro'
p3384
(lp3385
I0
aI1
asS'urbanisticheabruzzo'
p3386
(lp3387
I0
aI1
asS'pubblica'
p3388
(lp3389
I0
aI2
asS'kernel'
p3390
(lp3391
I0
aI1
asS'comunale'
p3392
(lp3393
I0
aI1
asS'satta'
p3394
(lp3395
I0
aI1
asS'pubblici'
p3396
(lp3397
I1
aI1
asS'siria'
p3398
(lp3399
I24
aI1
asS'segretaria'
p3400
(lp3401
I0
aI1
asS'pubblico'
p3402
(lp3403
I3
aI3
asS'collega'
p3404
(lp3405
I3
aI0
asS'criticit'
p3406
(lp3407
I0
aI1
asS'ascelle'
p3408
(lp3409
I0
aI1
asS'japan'
p3410
(lp3411
I0
aI1
asS'sport'
p3412
(lp3413
I1
aI6
asS'visibile'
p3414
(lp3415
I2
aI0
asS'prototipo'
p3416
(lp3417
I0
aI3
asS'legale'
p3418
(lp3419
I1
aI1
asS'settore'
p3420
(lp3421
I12
aI2
asS'rimbalzo'
p3422
(lp3423
I2
aI0
asS'voluntary'
p3424
(lp3425
I11
aI1
asS'efficienza'
p3426
(lp3427
I0
aI2
asS'versione'
p3428
(lp3429
I3
aI6
asS'giulia'
p3430
(lp3431
I0
aI3
asS'israele'
p3432
(lp3433
I0
aI1
asS'proposte'
p3434
(lp3435
I2
aI4
asS'proposta'
p3436
(lp3437
I1
aI4
asS'gian'
p3438
(lp3439
I0
aI1
asS'spostare'
p3440
(lp3441
I1
aI0
asS'orario'
p3442
(lp3443
I0
aI1
asS'pagina'
p3444
(lp3445
I5
aI0
asS'spiegano'
p3446
(lp3447
I0
aI1
asS'vanno'
p3448
(lp3449
I0
aI2
asS'veramente'
p3450
(lp3451
I0
aI1
asS'urban'
p3452
(lp3453
I0
aI1
asS'moralez'
p3454
(lp3455
I3
aI0
asS'quadri'
p3456
(lp3457
I1
aI0
asS'punta'
p3458
(lp3459
I2
aI0
asS'jobs'
p3460
(lp3461
I0
aI1
asS'topolina'
p3462
(lp3463
I0
aI1
asS'succede'
p3464
(lp3465
I0
aI1
asS'topolino'
p3466
(lp3467
I0
aI1
asS'punti'
p3468
(lp3469
I8
aI11
asS'centrodestra'
p3470
(lp3471
I1
aI0
asS'punto'
p3472
(lp3473
I1
aI4
asS'stima'
p3474
(lp3475
I4
aI0
asS'velina'
p3476
(lp3477
I0
aI1
asS'stime'
p3478
(lp3479
I3
aI0
asS'como'
p3480
(lp3481
I2
aI0
asS'amore'
p3482
(lp3483
I1
aI4
asS'spari'
p3484
(lp3485
I0
aI5
asS'afferma'
p3486
(lp3487
I2
aI0
asS'misteriosa'
p3488
(lp3489
I1
aI0
asS'ambiente'
p3490
(lp3491
I3
aI1
asS'salmone'
p3492
(lp3493
I0
aI1
asS'viveva'
p3494
(lp3495
I1
aI0
asS'dedicato'
p3496
(lp3497
I1
aI0
asS'messaggi'
p3498
(lp3499
I0
aI1
asS'bastianello'
p3500
(lp3501
I0
aI1
asS'agess'
p3502
(lp3503
I0
aI1
asS'versioni'
p3504
(lp3505
I0
aI1
asS'sicilia'
p3506
(lp3507
I2
aI2
asS'tour'
p3508
(lp3509
I1
aI2
asS'missione'
p3510
(lp3511
I4
aI2
asS'mons'
p3512
(lp3513
I2
aI0
asS'rivincita'
p3514
(lp3515
I0
aI1
asS'yarmouk'
p3516
(lp3517
I0
aI1
asS'storico'
p3518
(lp3519
I0
aI1
asS'calciomercato'
p3520
(lp3521
I0
aI1
asS'disposizione'
p3522
(lp3523
I0
aI1
asS'presenteremo'
p3524
(lp3525
I0
aI1
asS'portavoce'
p3526
(lp3527
I3
aI0
asS'contraente'
p3528
(lp3529
I1
aI0
asS'colorazione'
p3530
(lp3531
I1
aI0
asS'uber'
p3532
(lp3533
I0
aI1
asS'whatsapp'
p3534
(lp3535
I0
aI5
asS'marchionne'
p3536
(lp3537
I1
aI0
asS'sbagliare'
p3538
(lp3539
I0
aI1
asS'professore'
p3540
(lp3541
I0
aI1
asS'fossano'
p3542
(lp3543
I1
aI0
asS'telefilm'
p3544
(lp3545
I0
aI1
asS'maurizia'
p3546
(lp3547
I0
aI1
asS'pole'
p3548
(lp3549
I0
aI1
asS'tenda'
p3550
(lp3551
I0
aI1
asS'anti'
p3552
(lp3553
I1
aI0
asS'scherzo'
p3554
(lp3555
I0
aI1
asS'learning'
p3556
(lp3557
I0
aI1
asS'sentire'
p3558
(lp3559
I1
aI1
asS'sentinel'
p3560
(lp3561
I0
aI1
asS'nicola'
p3562
(lp3563
I0
aI1
asS'nicole'
p3564
(lp3565
I0
aI1
asS'controsoffitto'
p3566
(lp3567
I1
aI0
asS'mare'
p3568
(lp3569
I1
aI1
asS'prestiti'
p3570
(lp3571
I1
aI0
asS'prestito'
p3572
(lp3573
I0
aI2
asS'mensa'
p3574
(lp3575
I0
aI1
asS'annuncia'
p3576
(lp3577
I2
aI0
asS'digos'
p3578
(lp3579
I0
aI2
asS'rifiuti'
p3580
(lp3581
I6
aI1
asS'sapone'
p3582
(lp3583
I0
aI1
asS'pixels'
p3584
(lp3585
I1
aI0
asS'barra'
p3586
(lp3587
I1
aI1
asS'arte'
p3588
(lp3589
I0
aI1
asS'autovelox'
p3590
(lp3591
I0
aI1
asS'claris'
p3592
(lp3593
I0
aI1
asS'mars'
p3594
(lp3595
I3
aI0
asS'eros'
p3596
(lp3597
I0
aI1
asS'riuniscono'
p3598
(lp3599
I1
aI0
asS'fedez'
p3600
(lp3601
I0
aI2
asS'direction'
p3602
(lp3603
I3
aI0
asS'ossigeno'
p3604
(lp3605
I0
aI1
asS'tecnicamente'
p3606
(lp3607
I1
aI0
asS'lontana'
p3608
(lp3609
I0
aI1
asS'cobain'
p3610
(lp3611
I0
aI3
asS'tsarnaev'
p3612
(lp3613
I0
aI2
asS'tiguan'
p3614
(lp3615
I0
aI1
asS'veterinario'
p3616
(lp3617
I3
aI1
asS'parroco'
p3618
(lp3619
I0
aI1
asS'6p'
p3620
(lp3621
I3
aI0
asS'6s'
p3622
(lp3623
I22
aI0
asS'wake'
p3624
(lp3625
I0
aI1
asS'attentato'
p3626
(lp3627
I0
aI2
asS'tognazzi'
p3628
(lp3629
I0
aI1
asS'breve'
p3630
(lp3631
I1
aI0
asS'viaggi'
p3632
(lp3633
I0
aI1
asS'vomito'
p3634
(lp3635
I0
aI1
asS'andrea'
p3636
(lp3637
I0
aI2
asS'suicidati'
p3638
(lp3639
I3
aI0
asS'champions'
p3640
(lp3641
I14
aI2
asS'naspi'
p3642
(lp3643
I0
aI1
asS'\xbb,'
p3644
(lp3645
I7
aI0
asS'case'
p3646
(lp3647
I0
aI1
asS'juniores'
p3648
(lp3649
I1
aI0
asS'casi'
p3650
(lp3651
I3
aI3
asS'single'
p3652
(lp3653
I0
aI1
asS'vecchi'
p3654
(lp3655
I0
aI1
asS'bufala'
p3656
(lp3657
I0
aI1
asS'cast'
p3658
(lp3659
I1
aI0
asS'disponibile'
p3660
(lp3661
I0
aI1
asS'macias'
p3662
(lp3663
I1
aI0
asS'zenga'
p3664
(lp3665
I2
aI0
asS'rubare'
p3666
(lp3667
I0
aI2
asS'ilaria'
p3668
(lp3669
I0
aI1
asS'scelgano'
p3670
(lp3671
I1
aI0
asS'occupata'
p3672
(lp3673
I1
aI0
asS'iva'
p3674
(lp3675
I2
aI0
asS'soldi'
p3676
(lp3677
I1
aI0
asS'occupati'
p3678
(lp3679
I0
aI1
asS'ftse'
p3680
(lp3681
I0
aI1
asS'indipendentisti'
p3682
(lp3683
I1
aI0
asS'middle'
p3684
(lp3685
I0
aI1
asS'diuretico'
p3686
(lp3687
I0
aI1
asS'fallimentare'
p3688
(lp3689
I0
aI1
asS'varela'
p3690
(lp3691
I0
aI2
asS'indipendentista'
p3692
(lp3693
I1
aI0
asS'kenya'
p3694
(lp3695
I0
aI4
asS'panchina'
p3696
(lp3697
I1
aI3
asS'utile'
p3698
(lp3699
I4
aI1
asS'everyday'
p3700
(lp3701
I0
aI1
asS'carabiniere'
p3702
(lp3703
I0
aI1
asS'evento'
p3704
(lp3705
I1
aI1
asS'slager'
p3706
(lp3707
I0
aI2
asS'esposizione'
p3708
(lp3709
I0
aI1
asS'aerobica'
p3710
(lp3711
I0
aI2
asS'thrones'
p3712
(lp3713
I0
aI1
asS'medio'
p3714
(lp3715
I1
aI1
asS'media'
p3716
(lp3717
I1
aI1
asS'fiesole'
p3718
(lp3719
I0
aI1
asS'inizier'
p3720
(lp3721
I0
aI1
asS'carabinieri'
p3722
(lp3723
I1
aI9
asS'mezz\xe2'
p3724
(lp3725
I1
aI0
asS'data'
p3726
(lp3727
I0
aI2
asS'food'
p3728
(lp3729
I0
aI3
asS'sindacati'
p3730
(lp3731
I0
aI6
asS'stanco'
p3732
(lp3733
I0
aI1
asS'governatore'
p3734
(lp3735
I2
aI1
asS'mar\xf2'
p3736
(lp3737
I0
aI1
asS'usare'
p3738
(lp3739
I0
aI1
asS'lite'
p3740
(lp3741
I1
aI0
asS'allerta'
p3742
(lp3743
I1
aI0
asS'samp'
p3744
(lp3745
I2
aI2
asS'incontro'
p3746
(lp3747
I2
aI2
asS'status'
p3748
(lp3749
I0
aI1
asS'nirvana'
p3750
(lp3751
I0
aI1
asS'putin'
p3752
(lp3753
I25
aI1
asS'tavella'
p3754
(lp3755
I28
aI0
asS'ritiro'
p3756
(lp3757
I1
aI8
asS'studiato'
p3758
(lp3759
I0
aI1
asS'braccia'
p3760
(lp3761
I0
aI2
asS'perch\xc3'
p3762
(lp3763
I19
aI0
asS'assist'
p3764
(lp3765
I0
aI1
asS'risponde'
p3766
(lp3767
I0
aI1
asS'vista'
p3768
(lp3769
I3
aI8
asS'comuni'
p3770
(lp3771
I0
aI2
asS'validato'
p3772
(lp3773
I0
aI1
asS'modelle'
p3774
(lp3775
I1
aI0
asS'running'
p3776
(lp3777
I0
aI1
asS'wired'
p3778
(lp3779
I0
aI3
asS'assegnazione'
p3780
(lp3781
I1
aI0
asS'clicca'
p3782
(lp3783
I0
aI1
asS'riceverlo'
p3784
(lp3785
I0
aI2
asS'virtualit\xc3'
p3786
(lp3787
I1
aI0
asS'modelli'
p3788
(lp3789
I4
aI2
asS'costa'
p3790
(lp3791
I4
aI3
asS'hashfast'
p3792
(lp3793
I0
aI1
asS'spiegare'
p3794
(lp3795
I0
aI1
asS'materie'
p3796
(lp3797
I1
aI0
asS'fantasmi'
p3798
(lp3799
I2
aI0
asS'costi'
p3800
(lp3801
I3
aI0
asS'fantascienza'
p3802
(lp3803
I1
aI0
asS'coniugi'
p3804
(lp3805
I3
aI0
asS'assenze'
p3806
(lp3807
I2
aI0
asS'sinkhole'
p3808
(lp3809
I1
aI0
asS'piante'
p3810
(lp3811
I0
aI1
asS'connazionale'
p3812
(lp3813
I1
aI0
asS'novit\xc3'
p3814
(lp3815
I3
aI0
asS'tilke'
p3816
(lp3817
I0
aI2
asS'ufficiale'
p3818
(lp3819
I1
aI2
asS'contador'
p3820
(lp3821
I0
aI1
asS'model'
p3822
(lp3823
I0
aI1
asS'ufficiali'
p3824
(lp3825
I2
aI1
asS'facebookdown'
p3826
(lp3827
I6
aI0
asS'trasparenza'
p3828
(lp3829
I0
aI1
asS'personali'
p3830
(lp3831
I1
aI1
asS'teleborsa'
p3832
(lp3833
I1
aI0
asS'tornano'
p3834
(lp3835
I1
aI0
asS'processo'
p3836
(lp3837
I3
aI19
asS'piazza'
p3838
(lp3839
I0
aI2
asS'personale'
p3840
(lp3841
I0
aI4
asS'telefonino'
p3842
(lp3843
I0
aI2
asS'actions'
p3844
(lp3845
I0
aI1
asS'scelto'
p3846
(lp3847
I0
aI4
asS'reso'
p3848
(lp3849
I0
aI1
asS'gdf'
p3850
(lp3851
I1
aI0
asS'denuncia'
p3852
(lp3853
I1
aI0
asS'scelte'
p3854
(lp3855
I3
aI0
asS'pubbliche'
p3856
(lp3857
I1
aI1
asS'paradis'
p3858
(lp3859
I0
aI2
asS'scelta'
p3860
(lp3861
I4
aI2
asS'prepensionamento'
p3862
(lp3863
I1
aI0
asS'perdere'
p3864
(lp3865
I1
aI0
asS'vicinato'
p3866
(lp3867
I1
aI0
asS'centesimo'
p3868
(lp3869
I0
aI1
asS'lezioni'
p3870
(lp3871
I0
aI1
asS'smurata'
p3872
(lp3873
I1
aI0
asS'rose'
p3874
(lp3875
I0
aI1
asS'rosa'
p3876
(lp3877
I2
aI1
asS'clonate'
p3878
(lp3879
I12
aI0
asS'urologia'
p3880
(lp3881
I1
aI0
asS'wall'
p3882
(lp3883
I0
aI1
asS'vecchia'
p3884
(lp3885
I0
aI1
asS'pensilina'
p3886
(lp3887
I1
aI0
asS'vaglio'
p3888
(lp3889
I0
aI4
asS'(@'
p3890
(lp3891
I1
aI0
asS'redditi'
p3892
(lp3893
I0
aI1
asS'ricciardo'
p3894
(lp3895
I0
aI1
asS'styles'
p3896
(lp3897
I2
aI0
asS'abbattuto'
p3898
(lp3899
I0
aI3
asS'sforzo'
p3900
(lp3901
I0
aI1
asS'terpstra'
p3902
(lp3903
I0
aI1
asS'imprenditori'
p3904
(lp3905
I2
aI4
asS'losanna'
p3906
(lp3907
I0
aI2
asS'ricerca'
p3908
(lp3909
I6
aI7
asS'virginia'
p3910
(lp3911
I1
aI0
asS'mano'
p3912
(lp3913
I0
aI2
asS'(+'
p3914
(lp3915
I2
aI0
asS'pazze'
p3916
(lp3917
I0
aI1
asS'passaporto'
p3918
(lp3919
I0
aI4
asS'zayn'
p3920
(lp3921
I6
aI0
asS'(-'
p3922
(lp3923
I1
aI0
asS'parlato'
p3924
(lp3925
I2
aI0
asS'tanta'
p3926
(lp3927
I0
aI1
asS'tante'
p3928
(lp3929
I0
aI1
asS'rossignolo'
p3930
(lp3931
I3
aI0
asS'fortuna'
p3932
(lp3933
I2
aI0
asS'discorso'
p3934
(lp3935
I1
aI0
asS'mourinho'
p3936
(lp3937
I2
aI2
asS'aida'
p3938
(lp3939
I0
aI1
asS'socio'
p3940
(lp3941
I0
aI2
asS'rubacuori'
p3942
(lp3943
I1
aI0
asS'robson'
p3944
(lp3945
I0
aI1
asS'server'
p3946
(lp3947
I0
aI7
asS'proprie'
p3948
(lp3949
I0
aI1
asS'propria'
p3950
(lp3951
I1
aI0
asS'trombamico'
p3952
(lp3953
I0
aI1
asS'danza'
p3954
(lp3955
I0
aI2
asS'vena'
p3956
(lp3957
I0
aI1
asS'ultimissime'
p3958
(lp3959
I0
aI1
asS'inter'
p3960
(lp3961
I4
aI4
asS'higuain'
p3962
(lp3963
I0
aI1
asS'vitolo'
p3964
(lp3965
I1
aI0
asS'broadchurch'
p3966
(lp3967
I0
aI1
asS'winterkorn'
p3968
(lp3969
I3
aI0
asS'turco'
p3970
(lp3971
I0
aI2
asS'madrid'
p3972
(lp3973
I3
aI6
asS'savater'
p3974
(lp3975
I1
aI0
asS'tessera'
p3976
(lp3977
I0
aI1
asS'mattarella'
p3978
(lp3979
I8
aI0
asS'guillermo'
p3980
(lp3981
I7
aI0
asS'teorie'
p3982
(lp3983
I0
aI1
asS'garnett'
p3984
(lp3985
I0
aI1
asS'rapporto'
p3986
(lp3987
I3
aI4
asS'repubblica'
p3988
(lp3989
I2
aI2
asS'lotta'
p3990
(lp3991
I2
aI0
asS'cittadini'
p3992
(lp3993
I1
aI3
asS'maremma'
p3994
(lp3995
I0
aI1
asS'patrimonio'
p3996
(lp3997
I0
aI1
asS'regini'
p3998
(lp3999
I0
aI1
asS'nipote'
p4000
(lp4001
I1
aI2
asS'moderato'
p4002
(lp4003
I4
aI0
asS'passione'
p4004
(lp4005
I0
aI1
asS'scuffet'
p4006
(lp4007
I3
aI0
asS'brividi'
p4008
(lp4009
I0
aI1
asS'variabile'
p4010
(lp4011
I0
aI1
asS'scandalo'
p4012
(lp4013
I17
aI0
asS'potremmo'
p4014
(lp4015
I1
aI0
asS'interdizione'
p4016
(lp4017
I0
aI3
asS'volevo'
p4018
(lp4019
I0
aI6
asS'maresciallo'
p4020
(lp4021
I0
aI1
asS'minaccia'
p4022
(lp4023
I0
aI1
asS'tessuti'
p4024
(lp4025
I0
aI1
asS'francia'
p4026
(lp4027
I5
aI3
asS'sanit\xc3'
p4028
(lp4029
I4
aI0
asS'crediti'
p4030
(lp4031
I0
aI1
asS'triennio'
p4032
(lp4033
I1
aI0
asS'broker'
p4034
(lp4035
I1
aI0
asS'trimestre'
p4036
(lp4037
I6
aI0
asS'volkswagen'
p4038
(lp4039
I28
aI1
asS'secondi'
p4040
(lp4041
I0
aI1
asS'squalo'
p4042
(lp4043
I0
aI1
asS'immigrati'
p4044
(lp4045
I2
aI0
asS'marchio'
p4046
(lp4047
I0
aI1
asS'copilota'
p4048
(lp4049
I0
aI1
asS'trenitalia'
p4050
(lp4051
I0
aI5
asS'durata'
p4052
(lp4053
I1
aI1
asS'seconda'
p4054
(lp4055
I2
aI2
asS'ricchi'
p4056
(lp4057
I0
aI1
asS'luoghi'
p4058
(lp4059
I1
aI1
asS'sbaglia'
p4060
(lp4061
I1
aI0
asS'stone'
p4062
(lp4063
I0
aI1
asS'choc'
p4064
(lp4065
I0
aI1
asS'panni'
p4066
(lp4067
I0
aI1
asS'garante'
p4068
(lp4069
I1
aI0
asS'entrate'
p4070
(lp4071
I3
aI0
asS'testimone'
p4072
(lp4073
I1
aI4
asS'favorite'
p4074
(lp4075
I1
aI0
asS'luci'
p4076
(lp4077
I0
aI2
asS'origine'
p4078
(lp4079
I0
aI1
asS'trailer'
p4080
(lp4081
I0
aI1
asS'previsioni'
p4082
(lp4083
I1
aI1
asS'west'
p4084
(lp4085
I0
aI1
asS'origini'
p4086
(lp4087
I1
aI0
asS'anomalo'
p4088
(lp4089
I0
aI1
asS'condanna'
p4090
(lp4091
I1
aI1
asS'porsche'
p4092
(lp4093
I7
aI0
asS'seduta'
p4094
(lp4095
I2
aI0
asS'condanne'
p4096
(lp4097
I1
aI0
asS'castori'
p4098
(lp4099
I3
aI0
asS'gare'
p4100
(lp4101
I1
aI0
asS'potranno'
p4102
(lp4103
I0
aI1
asS'attivit\xc3'
p4104
(lp4105
I2
aI0
asS'gara'
p4106
(lp4107
I4
aI1
asS'volti'
p4108
(lp4109
I0
aI1
asS'rosse'
p4110
(lp4111
I0
aI2
asS'autismo'
p4112
(lp4113
I0
aI1
asS'protesta'
p4114
(lp4115
I0
aI1
asS'artur'
p4116
(lp4117
I1
aI0
asS'operator'
p4118
(lp4119
I1
aI0
asS'rosso'
p4120
(lp4121
I8
aI1
asS'rossi'
p4122
(lp4123
I2
aI5
asS'reclusione'
p4124
(lp4125
I1
aI0
asS'stare'
p4126
(lp4127
I0
aI1
asS'bruti'
p4128
(lp4129
I0
aI2
asS'progetto'
p4130
(lp4131
I17
aI3
asS'corriere'
p4132
(lp4133
I2
aI0
asS'condivisione'
p4134
(lp4135
I1
aI0
asS'barca'
p4136
(lp4137
I4
aI0
asS'area'
p4138
(lp4139
I0
aI1
asS'procuratore'
p4140
(lp4141
I2
aI3
asS'philadelphia'
p4142
(lp4143
I3
aI0
asS'organiche'
p4144
(lp4145
I0
aI1
asS'saper'
p4146
(lp4147
I1
aI0
asS'brevetto'
p4148
(lp4149
I0
aI1
asS'giocatori'
p4150
(lp4151
I1
aI2
asS'matrimonio'
p4152
(lp4153
I2
aI3
asS'italia'
p4154
(lp4155
I57
aI27
asS'venendo'
p4156
(lp4157
I1
aI0
asS'ipv6'
p4158
(lp4159
I1
aI0
asS'riusciva'
p4160
(lp4161
I1
aI0
asS'verdesca'
p4162
(lp4163
I0
aI1
asS'fastweb'
p4164
(lp4165
I0
aI1
asS'fascia'
p4166
(lp4167
I1
aI1
asS'giocatore'
p4168
(lp4169
I4
aI4
asS'wars'
p4170
(lp4171
I0
aI1
asS'vettura'
p4172
(lp4173
I2
aI0
asS'calabria'
p4174
(lp4175
I3
aI1
asS'vetture'
p4176
(lp4177
I4
aI0
asS'troviamo'
p4178
(lp4179
I0
aI1
asS'botte'
p4180
(lp4181
I1
aI0
asS'corso'
p4182
(lp4183
I2
aI6
asS'sovietniko'
p4184
(lp4185
I0
aI1
asS'vulcano'
p4186
(lp4187
I0
aI2
asS'castello'
p4188
(lp4189
I0
aI3
asS'medaglia'
p4190
(lp4191
I2
aI0
asS'football'
p4192
(lp4193
I0
aI1
asS'pareggio'
p4194
(lp4195
I1
aI0
asS'richiesta'
p4196
(lp4197
I1
aI0
asS'ronaldo'
p4198
(lp4199
I0
aI5
asS'udienza'
p4200
(lp4201
I0
aI2
asS'mackenzie'
p4202
(lp4203
I0
aI1
asS'emissioni'
p4204
(lp4205
I9
aI1
asS'offerta'
p4206
(lp4207
I1
aI1
asS'preside'
p4208
(lp4209
I6
aI0
asS'lippi'
p4210
(lp4211
I2
aI0
asS'utente'
p4212
(lp4213
I2
aI2
asS'utenti'
p4214
(lp4215
I4
aI8
asS'notai'
p4216
(lp4217
I0
aI3
asS'salata'
p4218
(lp4219
I2
aI0
asS'orso'
p4220
(lp4221
I1
aI0
asS'scanner'
p4222
(lp4223
I0
aI1
asS'carpi'
p4224
(lp4225
I3
aI0
asS'cinema'
p4226
(lp4227
I14
aI2
asS'voleva'
p4228
(lp4229
I1
aI1
asS'politica'
p4230
(lp4231
I3
aI2
asS'venzi'
p4232
(lp4233
I3
aI0
asS'bresciaoggi'
p4234
(lp4235
I1
aI0
asS'rapida'
p4236
(lp4237
I1
aI0
asS'nero'
p4238
(lp4239
I2
aI0
asS'nera'
p4240
(lp4241
I0
aI3
asS'ax'
p4242
(lp4243
I2
aI0
asS'poich\xc3'
p4244
(lp4245
I1
aI0
asS'goebbels'
p4246
(lp4247
I2
aI0
asS'chiavetta'
p4248
(lp4249
I0
aI1
asS'turchia'
p4250
(lp4251
I1
aI1
asS'film'
p4252
(lp4253
I43
aI12
asS'zamparini'
p4254
(lp4255
I0
aI2
asS'mosca'
p4256
(lp4257
I1
aI2
asS'maserati'
p4258
(lp4259
I1
aI0
asS'lanier'
p4260
(lp4261
I0
aI1
asS'istanbul'
p4262
(lp4263
I0
aI4
asS'audiofili'
p4264
(lp4265
I0
aI1
asS'\x82\xac'
p4266
(lp4267
I3
aI0
asS'storage'
p4268
(lp4269
I1
aI0
asS'soccorritori'
p4270
(lp4271
I0
aI1
asS'tornate'
p4272
(lp4273
I0
aI1
asS'summit'
p4274
(lp4275
I2
aI2
asS'tornata'
p4276
(lp4277
I1
aI0
asS'tornato'
p4278
(lp4279
I2
aI0
asS'vitagliano'
p4280
(lp4281
I0
aI1
asS'shag'
p4282
(lp4283
I0
aI1
asS'limongelli'
p4284
(lp4285
I0
aI1
asS'volpicella'
p4286
(lp4287
I0
aI1
asS'colombo'
p4288
(lp4289
I0
aI1
asS'bersani'
p4290
(lp4291
I2
aI0
asS'buona'
p4292
(lp4293
I1
aI0
asS'gasdotto'
p4294
(lp4295
I0
aI1
asS'mercoled\xc3'
p4296
(lp4297
I1
aI0
asS'covo'
p4298
(lp4299
I0
aI1
asS'finale'
p4300
(lp4301
I1
aI6
asS'illustrazione'
p4302
(lp4303
I1
aI0
asS'terra'
p4304
(lp4305
I2
aI3
asS'walker'
p4306
(lp4307
I8
aI3
asS'studenti'
p4308
(lp4309
I1
aI5
asS'peak'
p4310
(lp4311
I6
aI0
asS'\xa8,'
p4312
(lp4313
I1
aI0
asS'queensland'
p4314
(lp4315
I1
aI0
asS'realizzati'
p4316
(lp4317
I0
aI1
asS'pooh'
p4318
(lp4319
I5
aI0
asS'tamerlan'
p4320
(lp4321
I0
aI1
asS'network'
p4322
(lp4323
I8
aI2
asS'taranto'
p4324
(lp4325
I0
aI1
asS'booked'
p4326
(lp4327
I0
aI1
asS'rilevate'
p4328
(lp4329
I0
aI1
asS'fermano'
p4330
(lp4331
I1
aI0
asS'sembrano'
p4332
(lp4333
I1
aI0
asS'spostamenti'
p4334
(lp4335
I1
aI1
asS'strisce'
p4336
(lp4337
I0
aI4
asS'oumar'
p4338
(lp4339
I0
aI1
asS'famosi'
p4340
(lp4341
I1
aI0
asS'arianna'
p4342
(lp4343
I0
aI1
asS'varco'
p4344
(lp4345
I0
aI1
asS'parassiti'
p4346
(lp4347
I0
aI1
asS'robert'
p4348
(lp4349
I0
aI3
asS'8mila'
p4350
(lp4351
I2
aI0
asS'assassino'
p4352
(lp4353
I0
aI1
asS'giorgio'
p4354
(lp4355
I4
aI1
asS'influenza'
p4356
(lp4357
I2
aI0
asS'dist'
p4358
(lp4359
I0
aI2
asS'figli'
p4360
(lp4361
I2
aI4
asS'messi'
p4362
(lp4363
I0
aI2
asS'supertifone'
p4364
(lp4365
I1
aI0
asS'decisione'
p4366
(lp4367
I3
aI1
asS'coldiretti'
p4368
(lp4369
I1
aI1
asS'buoninconti'
p4370
(lp4371
I0
aI1
asS'arrestato'
p4372
(lp4373
I1
aI1
asS'meningite'
p4374
(lp4375
I0
aI1
asS'gt'
p4376
(lp4377
I1
aI0
asS'bollente'
p4378
(lp4379
I0
aI1
asS'jason'
p4380
(lp4381
I0
aI1
asS'sottolineato'
p4382
(lp4383
I1
aI3
asS'fiducia'
p4384
(lp4385
I4
aI2
asS'asteroide'
p4386
(lp4387
I0
aI1
asS'rialzo'
p4388
(lp4389
I4
aI0
asS'ritenute'
p4390
(lp4391
I0
aI2
asS'trappi'
p4392
(lp4393
I0
aI1
asS'tv'
p4394
(lp4395
I7
aI0
asS'bisaccia'
p4396
(lp4397
I1
aI0
asS'ritenuti'
p4398
(lp4399
I0
aI1
asS'correggere'
p4400
(lp4401
I0
aI1
asS'opportunities'
p4402
(lp4403
I0
aI1
asS'terapia'
p4404
(lp4405
I5
aI0
asS'daniella'
p4406
(lp4407
I0
aI2
asS'finto'
p4408
(lp4409
I4
aI0
asS'daniel'
p4410
(lp4411
I0
aI4
asS'calderoli'
p4412
(lp4413
I4
aI0
asS'lavori'
p4414
(lp4415
I3
aI1
asS'nord'
p4416
(lp4417
I0
aI1
asS'crimson'
p4418
(lp4419
I7
aI0
asS'fortini'
p4420
(lp4421
I1
aI0
asS'squarciagola'
p4422
(lp4423
I0
aI1
asS'verr'
p4424
(lp4425
I0
aI1
asS'premium'
p4426
(lp4427
I2
aI0
asS'horror'
p4428
(lp4429
I1
aI1
asS'suor'
p4430
(lp4431
I0
aI1
asS'nipotina'
p4432
(lp4433
I1
aI0
asS'vera'
p4434
(lp4435
I3
aI4
asS'bestia'
p4436
(lp4437
I0
aI2
asS'verr\xc3'
p4438
(lp4439
I1
aI0
asS'relazioni'
p4440
(lp4441
I1
aI1
asS'sony'
p4442
(lp4443
I0
aI1
asS'appassionati'
p4444
(lp4445
I0
aI1
asS'supplenza'
p4446
(lp4447
I0
aI1
asS'stoccafisso'
p4448
(lp4449
I0
aI1
asS'vero'
p4450
(lp4451
I3
aI9
asS'strane'
p4452
(lp4453
I0
aI1
asS'gg'
p4454
(lp4455
I1
aI0
asS'sant'
p4456
(lp4457
I1
aI0
asS'clausura'
p4458
(lp4459
I0
aI1
asS'lazio'
p4460
(lp4461
I0
aI7
asS'medicina'
p4462
(lp4463
I2
aI0
asS'ignazio'
p4464
(lp4465
I1
aI0
asS'piscaglia'
p4466
(lp4467
I0
aI1
asS'chiamata'
p4468
(lp4469
I0
aI1
asS'forti'
p4470
(lp4471
I0
aI1
asS'large'
p4472
(lp4473
I0
aI1
asS'intervista'
p4474
(lp4475
I1
aI1
asS'squadrone'
p4476
(lp4477
I2
aI1
asS'appare'
p4478
(lp4479
I1
aI0
asS'appalti'
p4480
(lp4481
I3
aI0
asS'programma'
p4482
(lp4483
I4
aI1
asS'sudore'
p4484
(lp4485
I0
aI1
asS'riserbo'
p4486
(lp4487
I1
aI0
asS'bianconero'
p4488
(lp4489
I1
aI0
asS'sicure'
p4490
(lp4491
I0
aI1
asS'sanremese'
p4492
(lp4493
I0
aI1
asS'instagram'
p4494
(lp4495
I1
aI1
asS'marquinhos'
p4496
(lp4497
I0
aI1
asS'italicum'
p4498
(lp4499
I0
aI1
asS'sicuro'
p4500
(lp4501
I1
aI2
asS'motoslitta'
p4502
(lp4503
I0
aI2
asS'ospedale'
p4504
(lp4505
I0
aI11
asS'riprocessamento'
p4506
(lp4507
I1
aI0
asS'sepoltura'
p4508
(lp4509
I0
aI1
asS'design'
p4510
(lp4511
I0
aI3
asS'spinge'
p4512
(lp4513
I0
aI1
asS'studia'
p4514
(lp4515
I0
aI1
asS'errordocument'
p4516
(lp4517
I0
aI7
asS'forestale'
p4518
(lp4519
I0
aI2
asS'hashtag'
p4520
(lp4521
I2
aI0
asS'villanova'
p4522
(lp4523
I1
aI0
asS'emendamenti'
p4524
(lp4525
I24
aI0
asS'trasferta'
p4526
(lp4527
I1
aI0
asS'abi'
p4528
(lp4529
I1
aI0
asS'fatti'
p4530
(lp4531
I0
aI1
asS'volodko'
p4532
(lp4533
I2
aI0
asS'traguardo'
p4534
(lp4535
I0
aI1
asS'effettivamente'
p4536
(lp4537
I1
aI0
asS'rientro'
p4538
(lp4539
I1
aI0
asS'diaz'
p4540
(lp4541
I0
aI8
asS'palestra'
p4542
(lp4543
I0
aI1
asS'leggere'
p4544
(lp4545
I1
aI1
asS'mengozzi'
p4546
(lp4547
I1
aI0
asS'prestazionali'
p4548
(lp4549
I0
aI1
asS'candreva'
p4550
(lp4551
I0
aI1
asS'iran'
p4552
(lp4553
I1
aI1
asS'boutique'
p4554
(lp4555
I0
aI1
asS'sciopero'
p4556
(lp4557
I0
aI9
asS'scorie'
p4558
(lp4559
I1
aI0
asS'ruolo'
p4560
(lp4561
I7
aI4
asS'seguito'
p4562
(lp4563
I3
aI1
asS'carcere'
p4564
(lp4565
I0
aI2
asS'superficie'
p4566
(lp4567
I7
aI0
asS'iraq'
p4568
(lp4569
I1
aI1
asS'toretto'
p4570
(lp4571
I0
aI1
asS'venaus'
p4572
(lp4573
I1
aI0
asS'donatella'
p4574
(lp4575
I1
aI0
asS'conte'
p4576
(lp4577
I0
aI1
asS'medico'
p4578
(lp4579
I4
aI0
asS'ricercatori'
p4580
(lp4581
I4
aI2
asS'medici'
p4582
(lp4583
I3
aI4
asS'riviera'
p4584
(lp4585
I0
aI1
asS'storia'
p4586
(lp4587
I6
aI7
asS'pereyra'
p4588
(lp4589
I0
aI1
asS'conti'
p4590
(lp4591
I1
aI0
asS'avesse'
p4592
(lp4593
I1
aI0
asS'verra'
p4594
(lp4595
I1
aI0
asS'minsk'
p4596
(lp4597
I1
aI0
asS'parentesi'
p4598
(lp4599
I1
aI0
asS'advertising'
p4600
(lp4601
I1
aI0
asS'perso'
p4602
(lp4603
I0
aI1
asS'social'
p4604
(lp4605
I15
aI5
asS'salito'
p4606
(lp4607
I1
aI0
asS'pochi'
p4608
(lp4609
I1
aI1
asS'perfetta'
p4610
(lp4611
I0
aI1
asS'avvenuto'
p4612
(lp4613
I0
aI1
asS'gestione'
p4614
(lp4615
I0
aI1
asS'profughi'
p4616
(lp4617
I1
aI0
asS'enac'
p4618
(lp4619
I0
aI1
asS'shanghai'
p4620
(lp4621
I0
aI2
asS'ipotesi'
p4622
(lp4623
I3
aI4
asS'servizio'
p4624
(lp4625
I6
aI10
asS'siti'
p4626
(lp4627
I0
aI3
asS'salento'
p4628
(lp4629
I1
aI0
asS'settembre'
p4630
(lp4631
I21
aI1
asS'primis'
p4632
(lp4633
I0
aI1
asS'volontario'
p4634
(lp4635
I0
aI2
asS'niro'
p4636
(lp4637
I0
aI2
asS'corte'
p4638
(lp4639
I1
aI11
asS'emoji'
p4640
(lp4641
I0
aI1
asS'\xa1'
p4642
(lp4643
I2
aI0
asS'asti'
p4644
(lp4645
I1
aI1
asS'appello'
p4646
(lp4647
I4
aI4
asS'asilo'
p4648
(lp4649
I0
aI1
asS'contenute'
p4650
(lp4651
I0
aI7
asS'asta'
p4652
(lp4653
I3
aI1
asS'mafie\xe2'
p4654
(lp4655
I1
aI0
asS'fondo'
p4656
(lp4657
I0
aI2
asS'rafa'
p4658
(lp4659
I0
aI1
asS'esuberi'
p4660
(lp4661
I1
aI0
asS'lollipop'
p4662
(lp4663
I0
aI1
asS'partite'
p4664
(lp4665
I5
aI0
asS'rinviati'
p4666
(lp4667
I1
aI0
asS'torri'
p4668
(lp4669
I6
aI0
asS'partita'
p4670
(lp4671
I11
aI7
asS'ocsana'
p4672
(lp4673
I1
aI0
asS'partito'
p4674
(lp4675
I5
aI3
asS'torre'
p4676
(lp4677
I0
aI1
asS'scivolone'
p4678
(lp4679
I0
aI1
asS'apertura'
p4680
(lp4681
I2
aI0
asS'partiti'
p4682
(lp4683
I2
aI0
asS'turisti'
p4684
(lp4685
I0
aI3
asS'etihad'
p4686
(lp4687
I0
aI2
asS'permanente'
p4688
(lp4689
I7
aI0
asS'galleria'
p4690
(lp4691
I0
aI1
asS'internazionali'
p4692
(lp4693
I0
aI1
asS'antibiotici'
p4694
(lp4695
I0
aI1
asS'pendii'
p4696
(lp4697
I1
aI0
asS'esperti'
p4698
(lp4699
I0
aI1
asS'floyd'
p4700
(lp4701
I0
aI1
asS'stick'
p4702
(lp4703
I0
aI1
asS'riservatezza'
p4704
(lp4705
I1
aI0
asS'gold'
p4706
(lp4707
I2
aI0
asS'kendra'
p4708
(lp4709
I0
aI1
asS'utili'
p4710
(lp4711
I0
aI3
asS'inwit'
p4712
(lp4713
I3
aI0
asS'vladimir'
p4714
(lp4715
I5
aI1
asS'simone'
p4716
(lp4717
I0
aI2
asS'delrio'
p4718
(lp4719
I5
aI0
asS'prestazioni'
p4720
(lp4721
I3
aI0
asS'sociale'
p4722
(lp4723
I0
aI2
asS'bancarotta'
p4724
(lp4725
I1
aI0
asS'uscir\xc3'
p4726
(lp4727
I1
aI0
asS'vittima'
p4728
(lp4729
I5
aI3
asS'yemen'
p4730
(lp4731
I3
aI0
asS'vittime'
p4732
(lp4733
I4
aI4
asS'def'
p4734
(lp4735
I6
aI0
asS'simona'
p4736
(lp4737
I1
aI0
asS'renato'
p4738
(lp4739
I0
aI1
asS'boschi'
p4740
(lp4741
I2
aI2
asS'signorini'
p4742
(lp4743
I8
aI0
asS'allegri'
p4744
(lp4745
I7
aI3
asS'atene'
p4746
(lp4747
I0
aI2
asS'tortura'
p4748
(lp4749
I0
aI8
asS'morti'
p4750
(lp4751
I2
aI3
asS'coop'
p4752
(lp4753
I0
aI1
asS'morto'
p4754
(lp4755
I2
aI2
asS'scegli'
p4756
(lp4757
I1
aI0
asS'mirtilli'
p4758
(lp4759
I0
aI1
asS'regista'
p4760
(lp4761
I4
aI3
asS'sharp'
p4762
(lp4763
I1
aI0
asS'morta'
p4764
(lp4765
I2
aI1
asS'sensi'
p4766
(lp4767
I0
aI1
asS'toccati'
p4768
(lp4769
I0
aI1
asS'action'
p4770
(lp4771
I1
aI0
asS'morte'
p4772
(lp4773
I5
aI1
asS'truccati'
p4774
(lp4775
I1
aI0
asS'telespettatori'
p4776
(lp4777
I0
aI1
asS'bacche'
p4778
(lp4779
I0
aI2
asS'tigullio'
p4780
(lp4781
I0
aI1
asS'juve'
p4782
(lp4783
I13
aI9
asS'goal'
p4784
(lp4785
I2
aI3
asS'eataly'
p4786
(lp4787
I0
aI1
asS'scontro'
p4788
(lp4789
I2
aI0
asS'scolmatore'
p4790
(lp4791
I0
aI1
asS'fame'
p4792
(lp4793
I0
aI1
asS'dorsale'
p4794
(lp4795
I0
aI1
asS'compagni'
p4796
(lp4797
I2
aI1
asS'musica'
p4798
(lp4799
I1
aI1
asS'finestra'
p4800
(lp4801
I0
aI1
asS'aosta'
p4802
(lp4803
I0
aI1
asS'compagna'
p4804
(lp4805
I0
aI1
asS'consigliere'
p4806
(lp4807
I0
aI1
asS'cisternino'
p4808
(lp4809
I0
aI1
asS'trovava'
p4810
(lp4811
I1
aI2
asS'dionisi'
p4812
(lp4813
I2
aI0
asS'perrie'
p4814
(lp4815
I3
aI0
asS'minerale'
p4816
(lp4817
I0
aI1
asS'viene'
p4818
(lp4819
I5
aI8
asS'raggiungere'
p4820
(lp4821
I0
aI1
asS'rifiutato'
p4822
(lp4823
I0
aI1
asS'prestigioso'
p4824
(lp4825
I0
aI1
asS'uscire'
p4826
(lp4827
I0
aI1
asS'manital'
p4828
(lp4829
I0
aI1
asS'moncalieri'
p4830
(lp4831
I0
aI1
asS'naturali'
p4832
(lp4833
I0
aI1
asS'sistema'
p4834
(lp4835
I4
aI15
asS'decine'
p4836
(lp4837
I1
aI0
asS'viareggio'
p4838
(lp4839
I0
aI1
asS'sistemi'
p4840
(lp4841
I1
aI2
asS'statica'
p4842
(lp4843
I0
aI1
asS'feste'
p4844
(lp4845
I0
aI1
asS'short'
p4846
(lp4847
I1
aI0
asS'festa'
p4848
(lp4849
I11
aI0
asS'mediterraneo'
p4850
(lp4851
I1
aI0
asS'refuso'
p4852
(lp4853
I0
aI1
asS'esseri'
p4854
(lp4855
I0
aI1
asS'aggiunto'
p4856
(lp4857
I1
aI2
asS'eventi'
p4858
(lp4859
I0
aI2
asS'cliccare'
p4860
(lp4861
I0
aI1
asS'ultr'
p4862
(lp4863
I0
aI4
asS'capogruppo'
p4864
(lp4865
I1
aI3
asS'telefono'
p4866
(lp4867
I0
aI2
asS'conto'
p4868
(lp4869
I0
aI1
asS'invenzioni'
p4870
(lp4871
I0
aI1
asS'volume'
p4872
(lp4873
I0
aI2
asS'photoshop'
p4874
(lp4875
I0
aI1
asS'zanetti'
p4876
(lp4877
I1
aI0
asS'poliziotti'
p4878
(lp4879
I0
aI1
asS'civile'
p4880
(lp4881
I1
aI0
asS'discarica'
p4882
(lp4883
I2
aI0
asS'bici'
p4884
(lp4885
I0
aI2
asS'urina'
p4886
(lp4887
I1
aI0
asS'eroe'
p4888
(lp4889
I1
aI0
asS'santo'
p4890
(lp4891
I0
aI2
asS'thermas'
p4892
(lp4893
I0
aI1
asS'poliziotto'
p4894
(lp4895
I2
aI2
asS'vercelli'
p4896
(lp4897
I3
aI1
asS'raccontato'
p4898
(lp4899
I0
aI1
asS'cina'
p4900
(lp4901
I0
aI2
asS'canavese'
p4902
(lp4903
I1
aI0
asS'suicidio'
p4904
(lp4905
I4
aI0
asS'shock'
p4906
(lp4907
I0
aI1
asS'albergo'
p4908
(lp4909
I2
aI0
asS'pronta'
p4910
(lp4911
I3
aI0
asS'agnelli'
p4912
(lp4913
I1
aI0
asS'solista'
p4914
(lp4915
I1
aI0
asS'amato'
p4916
(lp4917
I0
aI1
asS'pubblicitari'
p4918
(lp4919
I1
aI0
asS'rohani'
p4920
(lp4921
I0
aI1
asS'tesoretto'
p4922
(lp4923
I2
aI0
asS'gonfiabili'
p4924
(lp4925
I0
aI1
asS'dino'
p4926
(lp4927
I0
aI1
asS'valuter\xc3'
p4928
(lp4929
I1
aI0
asS'reuters'
p4930
(lp4931
I8
aI1
asS'pena'
p4932
(lp4933
I2
aI0
asS'vaticano'
p4934
(lp4935
I1
aI1
asS'veterinaria'
p4936
(lp4937
I0
aI1
asS'argentina'
p4938
(lp4939
I0
aI1
asS'etienne'
p4940
(lp4941
I0
aI1
asS'lontani'
p4942
(lp4943
I0
aI1
asS'comune'
p4944
(lp4945
I1
aI9
asS'vigilantes'
p4946
(lp4947
I0
aI1
asS'finmeccanica'
p4948
(lp4949
I0
aI5
asS'ya'
p4950
(lp4951
I2
aI0
asS'gadget'
p4952
(lp4953
I1
aI0
asS'convocati'
p4954
(lp4955
I1
aI0
asS'terre'
p4956
(lp4957
I0
aI1
asS'zhen'
p4958
(lp4959
I0
aI1
asS'vecchio'
p4960
(lp4961
I1
aI1
asS'troveremo'
p4962
(lp4963
I0
aI1
asS'nanofarmaco'
p4964
(lp4965
I1
aI0
asS'troverete'
p4966
(lp4967
I0
aI2
asS'serre'
p4968
(lp4969
I0
aI1
asS'ninja'
p4970
(lp4971
I1
aI0
asS'titolo'
p4972
(lp4973
I1
aI3
asS'titoli'
p4974
(lp4975
I2
aI2
asS'finalizzata'
p4976
(lp4977
I1
aI0
asS'epoca'
p4978
(lp4979
I1
aI0
asS'vandalico'
p4980
(lp4981
I0
aI1
asS'pierelli'
p4982
(lp4983
I0
aI1
asS'cellule'
p4984
(lp4985
I4
aI1
asS'spiegato'
p4986
(lp4987
I1
aI3
asS'facciuto'
p4988
(lp4989
I0
aI1
asS'colpevole'
p4990
(lp4991
I0
aI1
asS'porte'
p4992
(lp4993
I0
aI1
asS'porta'
p4994
(lp4995
I1
aI4
asS'proposito'
p4996
(lp4997
I0
aI1
asS'micro'
p4998
(lp4999
I1
aI0
asS'pazienti'
p5000
(lp5001
I10
aI1
asS'calciopoli'
p5002
(lp5003
I0
aI1
asS'copertine'
p5004
(lp5005
I0
aI1
asS'gambe'
p5006
(lp5007
I0
aI2
asS'universit'
p5008
(lp5009
I0
aI9
asS'indennit'
p5010
(lp5011
I0
aI1
asS'copertina'
p5012
(lp5013
I0
aI2
asS'presentati'
p5014
(lp5015
I1
aI0
asS'paziente'
p5016
(lp5017
I2
aI0
asS'mostra'
p5018
(lp5019
I0
aI4
asS'foggia'
p5020
(lp5021
I0
aI1
asS'rating'
p5022
(lp5023
I0
aI1
asS'responsabilit\xc3'
p5024
(lp5025
I1
aI0
asS'idea'
p5026
(lp5027
I0
aI2
asS'riconosce'
p5028
(lp5029
I1
aI0
asS'wasikowska'
p5030
(lp5031
I6
aI0
asS'persona'
p5032
(lp5033
I1
aI3
asS'minnie'
p5034
(lp5035
I0
aI4
asS'personalization'
p5036
(lp5037
I1
aI0
asS'blues'
p5038
(lp5039
I0
aI1
asS'maggiore'
p5040
(lp5041
I1
aI0
asS'nuove'
p5042
(lp5043
I8
aI2
asS'nuova'
p5044
(lp5045
I2
aI7
asS'all\xe2'
p5046
(lp5047
I12
aI0
asS'significa'
p5048
(lp5049
I0
aI1
asS'vediamo'
p5050
(lp5051
I1
aI0
asS'spezza'
p5052
(lp5053
I0
aI1
asS'correzioni'
p5054
(lp5055
I0
aI1
asS'nuvole'
p5056
(lp5057
I0
aI1
asS'gup'
p5058
(lp5059
I1
aI0
asS'cadavere'
p5060
(lp5061
I4
aI0
asS'utilizzare'
p5062
(lp5063
I2
aI2
asS'piatta'
p5064
(lp5065
I2
aI0
asS'offline'
p5066
(lp5067
I1
aI0
asS'giorgetto'
p5068
(lp5069
I0
aI1
asS'ospite'
p5070
(lp5071
I0
aI1
asS'salute'
p5072
(lp5073
I2
aI6
asS'terminale'
p5074
(lp5075
I0
aI1
asS'timothy'
p5076
(lp5077
I0
aI1
asS'terminali'
p5078
(lp5079
I1
aI0
asS'mesbah'
p5080
(lp5081
I0
aI1
asS'defunti'
p5082
(lp5083
I0
aI1
asS'venissero'
p5084
(lp5085
I0
aI1
asS'subalpina'
p5086
(lp5087
I0
aI1
asS'bulls'
p5088
(lp5089
I0
aI1
asS'darius'
p5090
(lp5091
I0
aI1
asS'pasolini'
p5092
(lp5093
I1
aI0
asS'base'
p5094
(lp5095
I1
aI0
asS'cookie'
p5096
(lp5097
I2
aI0
asS'romeo'
p5098
(lp5099
I0
aI1
asS'plastica'
p5100
(lp5101
I0
aI1
asS'ispa'
p5102
(lp5103
I1
aI0
asS'asl'
p5104
(lp5105
I7
aI0
asS'fiat'
p5106
(lp5107
I0
aI2
asS'piloti'
p5108
(lp5109
I1
aI0
asS'veloci'
p5110
(lp5111
I0
aI1
asS'schianta'
p5112
(lp5113
I1
aI1
asS'lavoriamo'
p5114
(lp5115
I0
aI1
asS'schianto'
p5116
(lp5117
I1
aI0
asS'lumia'
p5118
(lp5119
I0
aI3
asS'proprietaria'
p5120
(lp5121
I0
aI1
asS'contiene'
p5122
(lp5123
I0
aI1
asS'collaborare'
p5124
(lp5125
I1
aI0
asS'velocit'
p5126
(lp5127
I0
aI4
asS'superato'
p5128
(lp5129
I1
aI0
asS'belgio'
p5130
(lp5131
I0
aI1
asS'interessare'
p5132
(lp5133
I0
aI2
asS'proprietario'
p5134
(lp5135
I3
aI0
asS'modella'
p5136
(lp5137
I0
aI2
asS'restituisce'
p5138
(lp5139
I2
aI0
asS'valentino'
p5140
(lp5141
I0
aI1
asS'dina'
p5142
(lp5143
I0
aI1
asS'sintomi'
p5144
(lp5145
I14
aI2
asS'visione'
p5146
(lp5147
I0
aI1
asS'convenzioni'
p5148
(lp5149
I0
aI1
asS'\x8d'
p5150
(lp5151
I1
aI0
asS'gratta'
p5152
(lp5153
I0
aI1
asS'colombia'
p5154
(lp5155
I0
aI1
asS'narcissus'
p5156
(lp5157
I0
aI1
asS'kobe'
p5158
(lp5159
I0
aI1
asS'giuliani'
p5160
(lp5161
I0
aI1
asS'rovegno'
p5162
(lp5163
I0
aI1
asS'recente'
p5164
(lp5165
I0
aI1
asS'modello'
p5166
(lp5167
I5
aI0
asS'cifra'
p5168
(lp5169
I0
aI1
asS'temperature'
p5170
(lp5171
I1
aI0
asS'gennaro'
p5172
(lp5173
I0
aI7
asS'nomi'
p5174
(lp5175
I0
aI1
asS'impediva'
p5176
(lp5177
I0
aI1
asS'operativo'
p5178
(lp5179
I0
aI1
asS'vicende'
p5180
(lp5181
I0
aI1
asS'molesta'
p5182
(lp5183
I1
aI0
asS'vicenda'
p5184
(lp5185
I3
aI4
asS'schemi'
p5186
(lp5187
I0
aI1
asS'store'
p5188
(lp5189
I1
aI1
asS'vincere'
p5190
(lp5191
I3
aI1
asS'clausola'
p5192
(lp5193
I2
aI0
asS'obbligazione'
p5194
(lp5195
I0
aI1
asS'wolfsburg'
p5196
(lp5197
I5
aI0
asS'usuranti'
p5198
(lp5199
I1
aI0
asS'presto'
p5200
(lp5201
I0
aI1
asS'segui'
p5202
(lp5203
I1
aI0
asS'nainggolan'
p5204
(lp5205
I3
aI0
asS'hotel'
p5206
(lp5207
I1
aI2
asS'moglie'
p5208
(lp5209
I4
aI3
asS'pari'
p5210
(lp5211
I2
aI0
asS'wenger'
p5212
(lp5213
I1
aI1
asS'berlinguer'
p5214
(lp5215
I0
aI1
asS'wiggins'
p5216
(lp5217
I0
aI1
asS'regole'
p5218
(lp5219
I0
aI1
asS'ncd'
p5220
(lp5221
I8
aI0
asS'hayleigh'
p5222
(lp5223
I0
aI1
asS'obama'
p5224
(lp5225
I28
aI3
asS'king'
p5226
(lp5227
I0
aI3
asS'giudice'
p5228
(lp5229
I3
aI9
asS'dossier'
p5230
(lp5231
I5
aI0
asS'sbaragliato'
p5232
(lp5233
I1
aI0
asS'rendimento'
p5234
(lp5235
I1
aI0
asS'italiana'
p5236
(lp5237
I0
aI12
asS'rendimenti'
p5238
(lp5239
I1
aI0
asS'giudizio'
p5240
(lp5241
I2
aI0
asS'youth'
p5242
(lp5243
I1
aI0
asS'skytg24'
p5244
(lp5245
I1
aI0
asS'utopia'
p5246
(lp5247
I0
aI1
asS'tossico'
p5248
(lp5249
I2
aI0
asS'ecuador'
p5250
(lp5251
I0
aI1
asS'rischi'
p5252
(lp5253
I2
aI0
asS'ingegneria'
p5254
(lp5255
I0
aI1
asS'puglia'
p5256
(lp5257
I2
aI1
asS'"."'
p5258
(lp5259
I1
aI0
asS'sognare'
p5260
(lp5261
I1
aI0
asS'ingresso'
p5262
(lp5263
I0
aI2
asS'lewandowski'
p5264
(lp5265
I1
aI0
asS'tosse'
p5266
(lp5267
I2
aI0
asS'odore'
p5268
(lp5269
I0
aI2
asS'giancarlo'
p5270
(lp5271
I1
aI0
asS'invernali'
p5272
(lp5273
I0
aI1
asS'qualificato'
p5274
(lp5275
I0
aI5
asS'ishares'
p5276
(lp5277
I0
aI3
asS'derthona'
p5278
(lp5279
I0
aI1
asS'graffiti'
p5280
(lp5281
I0
aI1
asS'segue'
p5282
(lp5283
I0
aI1
asS'antonio'
p5284
(lp5285
I4
aI0
asS'inglese'
p5286
(lp5287
I0
aI1
asS'cavo'
p5288
(lp5289
I0
aI1
asS'\xa2'
p5290
(lp5291
I2
aI0
asS'sostegno'
p5292
(lp5293
I0
aI1
asS'autunno'
p5294
(lp5295
I1
aI0
asS'birra'
p5296
(lp5297
I6
aI0
asS'cave'
p5298
(lp5299
I0
aI1
asS'faccia'
p5300
(lp5301
I6
aI0
asS'cava'
p5302
(lp5303
I0
aI1
asS'polmone'
p5304
(lp5305
I4
aI0
asS'offrono'
p5306
(lp5307
I0
aI1
asS'polmoni'
p5308
(lp5309
I1
aI0
asS'province'
p5310
(lp5311
I0
aI1
asS'play'
p5312
(lp5313
I0
aI2
asS'venerdi'
p5314
(lp5315
I0
aI1
asS'electric'
p5316
(lp5317
I0
aI1
asS'afghanistan'
p5318
(lp5319
I2
aI0
asS'quote'
p5320
(lp5321
I1
aI0
asS'fondazione'
p5322
(lp5323
I1
aI1
asS'insegnanti'
p5324
(lp5325
I0
aI2
asS'francesconi'
p5326
(lp5327
I0
aI1
asS'powertrain'
p5328
(lp5329
I0
aI1
asS'virus'
p5330
(lp5331
I2
aI2
asS'impegno'
p5332
(lp5333
I1
aI1
asS'norme'
p5334
(lp5335
I0
aI1
asS'prescrizione'
p5336
(lp5337
I0
aI1
asS'soriano'
p5338
(lp5339
I4
aI1
asS'cinese'
p5340
(lp5341
I1
aI0
asS'decision'
p5342
(lp5343
I0
aI2
asS'modena'
p5344
(lp5345
I0
aI1
asS'\xe2'
p5346
(lp5347
I203
aI0
asS'mobile'
p5348
(lp5349
I1
aI5
asS'pavia'
p5350
(lp5351
I0
aI1
asS'sentimentalmente'
p5352
(lp5353
I1
aI0
asS'liberati'
p5354
(lp5355
I0
aI1
asS'clean'
p5356
(lp5357
I0
aI1
asS'pornostar'
p5358
(lp5359
I0
aI1
asS'asus'
p5360
(lp5361
I0
aI1
asS'terzi'
p5362
(lp5363
I0
aI1
asS'albama'
p5364
(lp5365
I0
aI1
asS'microsoft'
p5366
(lp5367
I2
aI2
asS'vincitore'
p5368
(lp5369
I0
aI1
asS'fereggiano'
p5370
(lp5371
I0
aI1
asS'thomas'
p5372
(lp5373
I3
aI1
asS'spogliatoi'
p5374
(lp5375
I0
aI1
asS'torvati'
p5376
(lp5377
I1
aI0
asS'giocare'
p5378
(lp5379
I2
aI1
asS'scavalca'
p5380
(lp5381
I0
aI1
asS'stonex'
p5382
(lp5383
I0
aI2
asS'carne'
p5384
(lp5385
I0
aI3
asS'harrods'
p5386
(lp5387
I0
aI1
asS'casola'
p5388
(lp5389
I4
aI0
asS'llorente'
p5390
(lp5391
I3
aI0
asS'classifica'
p5392
(lp5393
I1
aI1
asS'headlines'
p5394
(lp5395
I12
aI0
asS'ramondetti'
p5396
(lp5397
I0
aI1
asS'commissione'
p5398
(lp5399
I1
aI3
asS'provincia'
p5400
(lp5401
I4
aI4
asS'quei'
p5402
(lp5403
I0
aI1
asS'scooter'
p5404
(lp5405
I2
aI1
asS'questura'
p5406
(lp5407
I1
aI0
asS'concessioni'
p5408
(lp5409
I0
aI1
asS'riporti'
p5410
(lp5411
I1
aI0
asS'dieselgate'
p5412
(lp5413
I1
aI0
asS'competenze'
p5414
(lp5415
I0
aI1
asS'grecia'
p5416
(lp5417
I1
aI7
asS'riporta'
p5418
(lp5419
I1
aI1
asS'luis'
p5420
(lp5421
I0
aI1
asS'fieno'
p5422
(lp5423
I0
aI1
asS'gentiloni'
p5424
(lp5425
I1
aI0
asS'xylella'
p5426
(lp5427
I1
aI2
asS'bambina'
p5428
(lp5429
I2
aI0
asS'bambino'
p5430
(lp5431
I7
aI1
asS'william'
p5432
(lp5433
I0
aI1
asS'rallentamento'
p5434
(lp5435
I2
aI0
asS'ultron'
p5436
(lp5437
I0
aI1
asS'laurea'
p5438
(lp5439
I0
aI3
asS'bambini'
p5440
(lp5441
I1
aI5
asS'articolo'
p5442
(lp5443
I8
aI0
asS'amici'
p5444
(lp5445
I2
aI3
asS'amico'
p5446
(lp5447
I1
aI2
asS'guyverhofstadt'
p5448
(lp5449
I0
aI1
asS'eurostat'
p5450
(lp5451
I1
aI0
asS'amica'
p5452
(lp5453
I0
aI2
asS'rocco'
p5454
(lp5455
I0
aI1
asS'difesa'
p5456
(lp5457
I2
aI0
asS'dimenticare'
p5458
(lp5459
I0
aI1
asS'ultras'
p5460
(lp5461
I0
aI1
asS'suggerisce'
p5462
(lp5463
I0
aI1
asS'm5s'
p5464
(lp5465
I3
aI0
asS'mayweather'
p5466
(lp5467
I0
aI1
asS'passoni'
p5468
(lp5469
I0
aI1
asS'timone'
p5470
(lp5471
I1
aI0
asS'tumori'
p5472
(lp5473
I3
aI4
asS'gela'
p5474
(lp5475
I1
aI0
asS'montella'
p5476
(lp5477
I0
aI1
asS'boeri'
p5478
(lp5479
I3
aI0
asS'ammonizione'
p5480
(lp5481
I1
aI0
asS'interruzione'
p5482
(lp5483
I1
aI0
asS'voler'
p5484
(lp5485
I1
aI0
asS'tumore'
p5486
(lp5487
I12
aI1
asS'spiega'
p5488
(lp5489
I0
aI2
asS'virologo'
p5490
(lp5491
I1
aI0
asS'progetti'
p5492
(lp5493
I0
aI2
asS'sto'
p5494
(lp5495
I2
aI0
asS'locali'
p5496
(lp5497
I1
aI1
asS'vino'
p5498
(lp5499
I2
aI0
asS'locale'
p5500
(lp5501
I0
aI1
asS'gemelli'
p5502
(lp5503
I0
aI1
asS'controlli'
p5504
(lp5505
I1
aI0
asS'monza'
p5506
(lp5507
I5
aI6
asS'fuoco'
p5508
(lp5509
I4
aI2
asS'giugno'
p5510
(lp5511
I0
aI1
asS'gervinho'
p5512
(lp5513
I6
aI0
asS'sondaggi'
p5514
(lp5515
I0
aI1
asS'cultura'
p5516
(lp5517
I1
aI2
asS'handicappato'
p5518
(lp5519
I0
aI2
asS'bari'
p5520
(lp5521
I3
aI0
asS'fassino'
p5522
(lp5523
I0
aI2
asS'riduzione'
p5524
(lp5525
I2
aI1
asS'sel'
p5526
(lp5527
I1
aI0
asS'rivolto'
p5528
(lp5529
I1
aI0
asS'possibilit'
p5530
(lp5531
I0
aI4
asS'ventosa'
p5532
(lp5533
I0
aI1
asS'prevenzione'
p5534
(lp5535
I2
aI1
asS'miglior'
p5536
(lp5537
I0
aI1
asS'unione'
p5538
(lp5539
I2
aI1
asS'unioni'
p5540
(lp5541
I1
aI0
asS'aeham'
p5542
(lp5543
I0
aI1
asS'mayim'
p5544
(lp5545
I0
aI1
asS'illecito'
p5546
(lp5547
I2
aI0
asS'specializzata'
p5548
(lp5549
I1
aI0
asS'illeciti'
p5550
(lp5551
I1
aI0
asS'riconquistare'
p5552
(lp5553
I2
aI0
asS'\xb8'
p5554
(lp5555
I2
aI0
asS'specializzato'
p5556
(lp5557
I0
aI1
asS'catena'
p5558
(lp5559
I0
aI1
asS'cuneo'
p5560
(lp5561
I0
aI1
asS'europa'
p5562
(lp5563
I8
aI8
asS'girone'
p5564
(lp5565
I2
aI0
asS'poverta'
p5566
(lp5567
I1
aI0
asS'graduatorie'
p5568
(lp5569
I1
aI1
asS'allarme'
p5570
(lp5571
I2
aI0
asS'valutazione'
p5572
(lp5573
I6
aI0
asS'insegnare'
p5574
(lp5575
I1
aI0
asS'tassazione'
p5576
(lp5577
I3
aI0
asS'sostenitori'
p5578
(lp5579
I0
aI1
asS'marilyn'
p5580
(lp5581
I0
aI2
asS'league'
p5582
(lp5583
I9
aI2
asS'fianco'
p5584
(lp5585
I1
aI0
asS'troppe'
p5586
(lp5587
I1
aI0
asS'istituzioni'
p5588
(lp5589
I0
aI1
asS'spigel'
p5590
(lp5591
I0
aI1
asS'patto'
p5592
(lp5593
I1
aI1
asS'ramazzotti'
p5594
(lp5595
I0
aI1
asS'umore'
p5596
(lp5597
I0
aI1
asS'bosniaco'
p5598
(lp5599
I0
aI1
asS'patti'
p5600
(lp5601
I1
aI0
asS'attore'
p5602
(lp5603
I5
aI4
asS'usambeu'
p5604
(lp5605
I0
aI1
asS'palazzo'
p5606
(lp5607
I0
aI15
asS'musso'
p5608
(lp5609
I0
aI1
asS'cile'
p5610
(lp5611
I0
aI1
asS'colpa'
p5612
(lp5613
I2
aI0
asS'coach'
p5614
(lp5615
I0
aI1
asS'sgominata'
p5616
(lp5617
I2
aI0
asS'rodgers'
p5618
(lp5619
I0
aI1
asS'successi'
p5620
(lp5621
I1
aI1
asS'vendicarmi'
p5622
(lp5623
I0
aI6
asS'successo'
p5624
(lp5625
I6
aI7
asS'storie'
p5626
(lp5627
I0
aI1
asS'vorrebbe'
p5628
(lp5629
I2
aI2
asS'consumi'
p5630
(lp5631
I1
aI1
asS'agenti'
p5632
(lp5633
I0
aI1
asS'consumo'
p5634
(lp5635
I6
aI1
asS'meteo'
p5636
(lp5637
I1
aI0
asS'queneau'
p5638
(lp5639
I1
aI0
asS'sexy'
p5640
(lp5641
I2
aI0
asS'batteri'
p5642
(lp5643
I0
aI1
asS'legnano'
p5644
(lp5645
I0
aI1
asS'valutazioni'
p5646
(lp5647
I1
aI0
asS'metano'
p5648
(lp5649
I0
aI3
asS'scaricare'
p5650
(lp5651
I0
aI2
asS'avr\xc3'
p5652
(lp5653
I1
aI0
asS'formativa'
p5654
(lp5655
I1
aI0
asS'palace'
p5656
(lp5657
I0
aI1
asS'rete'
p5658
(lp5659
I6
aI4
asS'rivale'
p5660
(lp5661
I0
aI1
asS'reti'
p5662
(lp5663
I0
aI2
asS'swe'
p5664
(lp5665
I1
aI0
asS'pc'
p5666
(lp5667
I2
aI0
asS'visualizza'
p5668
(lp5669
I0
aI1
asS'pd'
p5670
(lp5671
I9
aI0
asS'mina'
p5672
(lp5673
I0
aI1
asS'frutta'
p5674
(lp5675
I0
aI1
asS'schieramento'
p5676
(lp5677
I0
aI1
asS'cardiologia'
p5678
(lp5679
I0
aI1
asS'selezione'
p5680
(lp5681
I2
aI0
asS'tg3'
p5682
(lp5683
I3
aI0
asS'stupire'
p5684
(lp5685
I0
aI1
asS'gratitudine'
p5686
(lp5687
I0
aI1
asS'grillo'
p5688
(lp5689
I3
aI0
asS'gay'
p5690
(lp5691
I7
aI0
asS'racconta'
p5692
(lp5693
I0
aI1
asS'scherzano'
p5694
(lp5695
I0
aI1
asS'somali'
p5696
(lp5697
I0
aI1
asS'gas'
p5698
(lp5699
I3
aI0
asS'gettito'
p5700
(lp5701
I3
aI0
asS'fiscale'
p5702
(lp5703
I3
aI0
asS'vuoi'
p5704
(lp5705
I3
aI0
asS'occhi'
p5706
(lp5707
I3
aI2
asS'vuol'
p5708
(lp5709
I0
aI1
asS'turkish'
p5710
(lp5711
I0
aI1
asS'taechaubol'
p5712
(lp5713
I4
aI0
asS'forza'
p5714
(lp5715
I3
aI3
asS'fiscali'
p5716
(lp5717
I1
aI1
asS'comitato'
p5718
(lp5719
I0
aI1
asS'vano'
p5720
(lp5721
I1
aI1
asS'forze'
p5722
(lp5723
I4
aI0
asS'georgia'
p5724
(lp5725
I1
aI4
asS'scienza'
p5726
(lp5727
I0
aI1
asS'mld'
p5728
(lp5729
I1
aI0
asS'tenuto'
p5730
(lp5731
I1
aI0
asS'stadio'
p5732
(lp5733
I4
aI1
asS'tastiera'
p5734
(lp5735
I1
aI0
asS'yespica'
p5736
(lp5737
I0
aI1
asS'mln'
p5738
(lp5739
I3
aI0
asS'tastiere'
p5740
(lp5741
I0
aI1
asS'superenalotto'
p5742
(lp5743
I1
aI0
asS'\xbf'
p5744
(lp5745
I1
aI0
asS'error'
p5746
(lp5747
I0
aI7
asS'guida'
p5748
(lp5749
I2
aI1
asS'collezione'
p5750
(lp5751
I1
aI0
asS'tutela'
p5752
(lp5753
I0
aI2
asS'muratore'
p5754
(lp5755
I1
aI0
asS'telefonia'
p5756
(lp5757
I0
aI1
asS'tutele'
p5758
(lp5759
I0
aI2
asS'real'
p5760
(lp5761
I0
aI4
asS'legna'
p5762
(lp5763
I0
aI1
asS'bacino'
p5764
(lp5765
I0
aI1
asS'owen'
p5766
(lp5767
I0
aI1
asS'legno'
p5768
(lp5769
I0
aI1
asS'xiao'
p5770
(lp5771
I0
aI1
asS'moto'
p5772
(lp5773
I2
aI2
asS'droidcon'
p5774
(lp5775
I0
aI2
asS'campi'
p5776
(lp5777
I0
aI10
asS'terminator'
p5778
(lp5779
I0
aI1
asS'000\xe2'
p5780
(lp5781
I1
aI0
asS'skype'
p5782
(lp5783
I1
aI2
asS'sogin'
p5784
(lp5785
I1
aI0
asS'motore'
p5786
(lp5787
I0
aI2
asS'scaglia'
p5788
(lp5789
I0
aI1
asS'ribadito'
p5790
(lp5791
I1
aI0
asS'spionaggio'
p5792
(lp5793
I1
aI0
asS'audi'
p5794
(lp5795
I6
aI0
asS'ccteu'
p5796
(lp5797
I2
aI0
asS'tette'
p5798
(lp5799
I0
aI1
asS'vogliono'
p5800
(lp5801
I2
aI4
asS'trial'
p5802
(lp5803
I1
aI0
asS'tradizionale'
p5804
(lp5805
I0
aI1
asS'italo'
p5806
(lp5807
I0
aI1
asS'dittatura'
p5808
(lp5809
I1
aI0
asS'quartiere'
p5810
(lp5811
I0
aI2
asS'cantiere'
p5812
(lp5813
I0
aI2
asS'tredici'
p5814
(lp5815
I0
aI2
asS'tramite'
p5816
(lp5817
I2
aI0
asS'grano'
p5818
(lp5819
I0
aI1
asS'appiani'
p5820
(lp5821
I0
aI2
asS'bonifico'
p5822
(lp5823
I1
aI0
asS'temporary'
p5824
(lp5825
I0
aI1
asS'tiranno'
p5826
(lp5827
I1
aI0
asS'spariti'
p5828
(lp5829
I1
aI0
asS'liquido'
p5830
(lp5831
I2
aI0
asS'daizy'
p5832
(lp5833
I1
aI0
asS'gallery'
p5834
(lp5835
I0
aI1
asS'geni'
p5836
(lp5837
I0
aI2
asS'costituzionale'
p5838
(lp5839
I1
aI0
asS'trovargli'
p5840
(lp5841
I1
aI0
asS'molte'
p5842
(lp5843
I1
aI0
asS'esperienze'
p5844
(lp5845
I1
aI0
asS'modalit'
p5846
(lp5847
I0
aI1
asS'berillo'
p5848
(lp5849
I0
aI1
asS'risposta'
p5850
(lp5851
I0
aI1
asS'esperienza'
p5852
(lp5853
I0
aI1
asS'debiti'
p5854
(lp5855
I0
aI2
asS'assunzioni'
p5856
(lp5857
I0
aI1
asS'cota'
p5858
(lp5859
I0
aI2
asS'yuan'
p5860
(lp5861
I0
aI3
asS'frosinone'
p5862
(lp5863
I9
aI0
asS'weird'
p5864
(lp5865
I1
aI0
asS'euro'
p5866
(lp5867
I38
aI35
asS'entra'
p5868
(lp5869
I2
aI0
asS'tratte'
p5870
(lp5871
I0
aI1
asS'parella'
p5872
(lp5873
I0
aI1
asS'tratta'
p5874
(lp5875
I2
aI7
asS'tanti'
p5876
(lp5877
I0
aI1
asS'tratto'
p5878
(lp5879
I1
aI0
asS'orofaringe'
p5880
(lp5881
I0
aI3
asS'monaco'
p5882
(lp5883
I0
aI2
asS'entro'
p5884
(lp5885
I1
aI0
asS'2gb'
p5886
(lp5887
I1
aI0
asS'tesserino'
p5888
(lp5889
I0
aI1
asS'sellaroli'
p5890
(lp5891
I0
aI1
asS'taipei'
p5892
(lp5893
I1
aI0
asS'juventus'
p5894
(lp5895
I16
aI4
asS'proroga'
p5896
(lp5897
I7
aI1
asS'grid'
p5898
(lp5899
I0
aI1
asS'battuta'
p5900
(lp5901
I0
aI1
asS'ufficio'
p5902
(lp5903
I2
aI2
asS'questione'
p5904
(lp5905
I5
aI2
asS'limitare'
p5906
(lp5907
I1
aI0
asS'stessa'
p5908
(lp5909
I1
aI2
asS'parlata'
p5910
(lp5911
I0
aI1
asS'virtualmente'
p5912
(lp5913
I0
aI1
asS'tsmc'
p5914
(lp5915
I2
aI0
asS'montaggio'
p5916
(lp5917
I0
aI1
asS'salva'
p5918
(lp5919
I1
aI0
asS'arresti'
p5920
(lp5921
I2
aI0
asS'questioni'
p5922
(lp5923
I2
aI0
asS'dovete'
p5924
(lp5925
I0
aI1
asS'repellente'
p5926
(lp5927
I0
aI1
asS'miniato'
p5928
(lp5929
I0
aI1
asS'cimoli'
p5930
(lp5931
I5
aI0
asS'edizione'
p5932
(lp5933
I2
aI0
asS'cabina'
p5934
(lp5935
I0
aI1
asS'zuppe'
p5936
(lp5937
I0
aI1
asS'taiwan'
p5938
(lp5939
I3
aI0
asS'mangiare'
p5940
(lp5941
I0
aI2
asS'qualificazioni'
p5942
(lp5943
I0
aI1
asS'tetto'
p5944
(lp5945
I0
aI1
asS'presentazione'
p5946
(lp5947
I2
aI1
asS'loading'
p5948
(lp5949
I1
aI0
asS'disciplina'
p5950
(lp5951
I0
aI2
asS'tablet'
p5952
(lp5953
I2
aI1
asS'cup'
p5954
(lp5955
I1
aI0
asS'tecnicismi'
p5956
(lp5957
I1
aI0
asS'sposta'
p5958
(lp5959
I1
aI0
asS'trovati'
p5960
(lp5961
I6
aI0
asS'difficile'
p5962
(lp5963
I0
aI1
asS'location'
p5964
(lp5965
I1
aI0
asS'trovato'
p5966
(lp5967
I2
aI4
asS'trovata'
p5968
(lp5969
I1
aI1
asS'veneto'
p5970
(lp5971
I0
aI1
asS'vederlo'
p5972
(lp5973
I1
aI1
asS'wim'
p5974
(lp5975
I1
aI0
asS'convocazione'
p5976
(lp5977
I1
aI0
asS'membri'
p5978
(lp5979
I0
aI1
asS'capire'
p5980
(lp5981
I0
aI1
asS'australia'
p5982
(lp5983
I2
aI0
asS'nell\xe2'
p5984
(lp5985
I3
aI0
asS'criteri'
p5986
(lp5987
I1
aI0
asS'notte'
p5988
(lp5989
I7
aI9
asS'abound'
p5990
(lp5991
I1
aI0
asS'corruzione'
p5992
(lp5993
I3
aI4
asS'mediamente'
p5994
(lp5995
I0
aI1
asS'bleck'
p5996
(lp5997
I0
aI1
asS'ergastolo'
p5998
(lp5999
I1
aI0
asS'camorra'
p6000
(lp6001
I3
aI0
asS'muscolo'
p6002
(lp6003
I0
aI1
asS'consigli'
p6004
(lp6005
I0
aI1
asS'vinto'
p6006
(lp6007
I2
aI2
asS'individuale'
p6008
(lp6009
I1
aI0
asS'citt'
p6010
(lp6011
I0
aI6
asS'anandtech'
p6012
(lp6013
I1
aI0
asS'estetici'
p6014
(lp6015
I0
aI1
asS'varetto'
p6016
(lp6017
I3
aI0
asS'enorme'
p6018
(lp6019
I1
aI0
asS'rifkin'
p6020
(lp6021
I0
aI1
asS'donne'
p6022
(lp6023
I15
aI2
asS'individuals'
p6024
(lp6025
I0
aI1
asS'donna'
p6026
(lp6027
I6
aI4
asS'continua'
p6028
(lp6029
I1
aI1
asS'fnac'
p6030
(lp6031
I0
aI1
asS'tantissimo'
p6032
(lp6033
I1
aI0
asS'harry'
p6034
(lp6035
I2
aI0
asS'veridicit'
p6036
(lp6037
I0
aI2
asS'capitale'
p6038
(lp6039
I2
aI0
asS'tantissimi'
p6040
(lp6041
I0
aI3
asS'tripletta'
p6042
(lp6043
I0
aI3
asS'senato'
p6044
(lp6045
I19
aI0
asS'google'
p6046
(lp6047
I5
aI9
asS'alcolici'
p6048
(lp6049
I2
aI0
asS'spring'
p6050
(lp6051
I0
aI1
asS'permettere'
p6052
(lp6053
I0
aI1
asS'montenero'
p6054
(lp6055
I1
aI0
asS'bracconieri'
p6056
(lp6057
I0
aI1
asS'vegetarianesimo'
p6058
(lp6059
I0
aI1
asS'stilato'
p6060
(lp6061
I0
aI1
asS'alimentari'
p6062
(lp6063
I0
aI2
asS'streaming'
p6064
(lp6065
I4
aI0
asS'universo'
p6066
(lp6067
I0
aI2
asS'trasparenti'
p6068
(lp6069
I0
aI1
asS'palo'
p6070
(lp6071
I0
aI1
asS'rurale'
p6072
(lp6073
I1
aI0
asS'collocati'
p6074
(lp6075
I1
aI0
asS'brent'
p6076
(lp6077
I0
aI1
asS'figlio'
p6078
(lp6079
I1
aI8
asS'tende'
p6080
(lp6081
I3
aI1
asS'qatar'
p6082
(lp6083
I0
aI3
asS'scale'
p6084
(lp6085
I0
aI5
asS'interferenti'
p6086
(lp6087
I0
aI1
asS'ulteriori'
p6088
(lp6089
I0
aI1
asS'ulteriore'
p6090
(lp6091
I0
aI1
asS'figlia'
p6092
(lp6093
I5
aI5
asS'guerrina'
p6094
(lp6095
I0
aI2
asS'energia'
p6096
(lp6097
I1
aI4
asS'indagine'
p6098
(lp6099
I4
aI0
asS'dettagli'
p6100
(lp6101
I1
aI0
asS'amal'
p6102
(lp6103
I0
aI2
asS'stancampiano'
p6104
(lp6105
I1
aI0
asS'inskip'
p6106
(lp6107
I1
aI0
asS'zucca'
p6108
(lp6109
I0
aI1
asS'indagini'
p6110
(lp6111
I3
aI1
asS'benzina'
p6112
(lp6113
I3
aI0
asS'informatici'
p6114
(lp6115
I0
aI2
asS'utilizziamo'
p6116
(lp6117
I1
aI0
asS'presentare'
p6118
(lp6119
I1
aI0
asS'troiano'
p6120
(lp6121
I0
aI1
asS'tedesco'
p6122
(lp6123
I3
aI0
asS'quota'
p6124
(lp6125
I0
aI1
asS'vincenti'
p6126
(lp6127
I0
aI2
asS'ingegneri'
p6128
(lp6129
I0
aI3
asS'prova'
p6130
(lp6131
I1
aI1
asS'crono'
p6132
(lp6133
I1
aI0
asS'precari'
p6134
(lp6135
I0
aI2
asS'intensa'
p6136
(lp6137
I0
aI1
asS'inutile'
p6138
(lp6139
I1
aI0
asS'bayern'
p6140
(lp6141
I2
aI2
asS'tradizione'
p6142
(lp6143
I0
aI1
asS'multinazionali'
p6144
(lp6145
I0
aI1
asS'reptv'
p6146
(lp6147
I0
aI1
asS'russell'
p6148
(lp6149
I0
aI1
asS'capitolo'
p6150
(lp6151
I0
aI2
asS'matera'
p6152
(lp6153
I1
aI0
asS'velletri'
p6154
(lp6155
I0
aI1
asS'prevede'
p6156
(lp6157
I1
aI0
asS'libere'
p6158
(lp6159
I0
aI1
asS'gnomi'
p6160
(lp6161
I0
aI2
asS'albisola'
p6162
(lp6163
I0
aI1
asS'passerella'
p6164
(lp6165
I2
aI0
asS'gnomo'
p6166
(lp6167
I0
aI2
asS'orgoglioso'
p6168
(lp6169
I0
aI1
asS'costruire'
p6170
(lp6171
I0
aI1
asS'motosega'
p6172
(lp6173
I0
aI1
asS'massima'
p6174
(lp6175
I1
aI0
asS'europee'
p6176
(lp6177
I0
aI2
asS'polizia'
p6178
(lp6179
I19
aI15
asS'mozione'
p6180
(lp6181
I1
aI0
asS'avvio'
p6182
(lp6183
I2
aI0
asS'saranno'
p6184
(lp6185
I5
aI5
asS'riducendo'
p6186
(lp6187
I0
aI1
asS'tambora'
p6188
(lp6189
I0
aI1
asS'combustibili'
p6190
(lp6191
I1
aI0
asS'disclosure'
p6192
(lp6193
I6
aI0
asS'jimmy'
p6194
(lp6195
I3
aI0
asS'combustibile'
p6196
(lp6197
I4
aI0
asS'tradizioni'
p6198
(lp6199
I0
aI2
asS'abusiva'
p6200
(lp6201
I2
aI0
asS'chauvet'
p6202
(lp6203
I0
aI1
asS'formaggi'
p6204
(lp6205
I2
aI0
asS'svent\xc3\xb2'
p6206
(lp6207
I1
aI0
asS'neko'
p6208
(lp6209
I0
aI1
asS'rondholz'
p6210
(lp6211
I0
aI1
asS'terroristi'
p6212
(lp6213
I2
aI0
asS'chiesto'
p6214
(lp6215
I0
aI1
asS'verrini'
p6216
(lp6217
I0
aI2
asS'alessandria'
p6218
(lp6219
I2
aI0
asS'polemiche'
p6220
(lp6221
I1
aI0
asS'bangladesh'
p6222
(lp6223
I19
aI0
asS'infrastrutture'
p6224
(lp6225
I5
aI1
asS'semplici'
p6226
(lp6227
I0
aI3
asS'coltura'
p6228
(lp6229
I1
aI0
asS'infrastruttura'
p6230
(lp6231
I3
aI0
asS'soccorso'
p6232
(lp6233
I0
aI2
asS'fast'
p6234
(lp6235
I0
aI6
asS'trasportato'
p6236
(lp6237
I0
aI6
asS'tesla'
p6238
(lp6239
I0
aI1
asS'potrete'
p6240
(lp6241
I0
aI1
asS'sonno'
p6242
(lp6243
I0
aI1
asS'smaltimento'
p6244
(lp6245
I1
aI0
asS'avengers'
p6246
(lp6247
I0
aI1
asS'maria'
p6248
(lp6249
I0
aI3
asS'morata'
p6250
(lp6251
I1
aI1
asS'socialisti'
p6252
(lp6253
I1
aI0
asS'domenica'
p6254
(lp6255
I2
aI1
asS'sprofonda'
p6256
(lp6257
I1
aI0
asS'viaggiando'
p6258
(lp6259
I0
aI1
asS'modifiche'
p6260
(lp6261
I1
aI0
asS'vincente'
p6262
(lp6263
I0
aI1
asS'karen'
p6264
(lp6265
I0
aI1
asS'dipr'
p6266
(lp6267
I0
aI1
asS'concorrenti'
p6268
(lp6269
I1
aI0
asS'khamenei'
p6270
(lp6271
I0
aI2
asS'serie'
p6272
(lp6273
I10
aI8
asS'politecnico'
p6274
(lp6275
I0
aI1
asS'esercizio'
p6276
(lp6277
I0
aI1
asS'estetica'
p6278
(lp6279
I0
aI1
asS'info'
p6280
(lp6281
I0
aI1
asS'paolo'
p6282
(lp6283
I1
aI2
asS'conferenze'
p6284
(lp6285
I0
aI1
asS'vermi'
p6286
(lp6287
I0
aI2
asS'difensiva'
p6288
(lp6289
I0
aI1
asS'malato'
p6290
(lp6291
I1
aI0
asS'autobomba'
p6292
(lp6293
I3
aI0
asS'verme'
p6294
(lp6295
I0
aI1
asS'sostanze'
p6296
(lp6297
I0
aI1
asS'assolti'
p6298
(lp6299
I0
aI1
asS'sunderland'
p6300
(lp6301
I0
aI1
asS'stalking'
p6302
(lp6303
I0
aI1
asS'17enne'
p6304
(lp6305
I1
aI0
asS'windows'
p6306
(lp6307
I1
aI5
asS'circuito'
p6308
(lp6309
I0
aI2
asS'valore'
p6310
(lp6311
I0
aI3
asS'malik'
p6312
(lp6313
I5
aI0
asS'ue'
p6314
(lp6315
I18
aI0
asS'chelsea'
p6316
(lp6317
I3
aI2
asS'fico'
p6318
(lp6319
I0
aI1
asS'cerebrali'
p6320
(lp6321
I2
aI0
asS'caratteristiche'
p6322
(lp6323
I0
aI1
asS'riferimento'
p6324
(lp6325
I0
aI1
asS'fuffy'
p6326
(lp6327
I0
aI1
asS'matri'
p6328
(lp6329
I0
aI1
asS'utilit'
p6330
(lp6331
I0
aI2
asS'struttura'
p6332
(lp6333
I1
aI5
asS'definisce'
p6334
(lp6335
I0
aI1
asS'inoltre'
p6336
(lp6337
I0
aI1
asS'strutture'
p6338
(lp6339
I1
aI0
asS'imposte'
p6340
(lp6341
I2
aI0
asS'cura'
p6342
(lp6343
I1
aI1
asS'caff'
p6344
(lp6345
I0
aI1
asS'kerry'
p6346
(lp6347
I0
aI1
asS'sgomberati'
p6348
(lp6349
I0
aI2
asS'moriva'
p6350
(lp6351
I3
aI0
asS'nab'
p6352
(lp6353
I3
aI0
asS'vissuto'
p6354
(lp6355
I2
aI0
asS'vissuta'
p6356
(lp6357
I1
aI0
asS'edwards'
p6358
(lp6359
I2
aI0
asS'water'
p6360
(lp6361
I0
aI1
asS'tentativo'
p6362
(lp6363
I1
aI3
asS'tare'
p6364
(lp6365
I0
aI1
asS'anzuoni'
p6366
(lp6367
I0
aI1
asS'towers'
p6368
(lp6369
I1
aI0
asS'significativo'
p6370
(lp6371
I0
aI1
asS'carrera'
p6372
(lp6373
I1
aI0
asS'portato'
p6374
(lp6375
I1
aI0
asS'televisivo'
p6376
(lp6377
I0
aI1
asS'stangata'
p6378
(lp6379
I0
aI1
asS'ut\xc3'
p6380
(lp6381
I2
aI0
asS'endocrini'
p6382
(lp6383
I0
aI1
asS'pi\xc3\xb9'
p6384
(lp6385
I104
aI0
asS'compagnia'
p6386
(lp6387
I1
aI1
asS'testata'
p6388
(lp6389
I0
aI1
asS'dall'
p6390
(lp6391
I0
aI6
asS'guardare'
p6392
(lp6393
I0
aI1
asS'papa'
p6394
(lp6395
I15
aI4
asS'abitate'
p6396
(lp6397
I0
aI1
asS'bianca'
p6398
(lp6399
I1
aI0
asS'lufthansa'
p6400
(lp6401
I0
aI1
asS'mappa'
p6402
(lp6403
I0
aI1
asS'problemi'
p6404
(lp6405
I1
aI1
asS'visite'
p6406
(lp6407
I0
aI1
asS'elementi'
p6408
(lp6409
I1
aI1
asS'lulic'
p6410
(lp6411
I0
aI5
asS'furibondo'
p6412
(lp6413
I1
aI0
asS'visita'
p6414
(lp6415
I1
aI4
asS'springsteen'
p6416
(lp6417
I0
aI1
asS'problema'
p6418
(lp6419
I2
aI5
asS'regionale'
p6420
(lp6421
I2
aI5
asS'agi'
p6422
(lp6423
I6
aI0
asS'vice'
p6424
(lp6425
I4
aI2
asS'regionali'
p6426
(lp6427
I0
aI2
asS'costanzo'
p6428
(lp6429
I0
aI1
asS'youtube'
p6430
(lp6431
I0
aI2
asS'sostenuto'
p6432
(lp6433
I1
aI0
asS'donadoni'
p6434
(lp6435
I0
aI1
asS'servizi'
p6436
(lp6437
I0
aI1
asS'nasa'
p6438
(lp6439
I10
aI5
asS'karma'
p6440
(lp6441
I1
aI0
asS'nuotare'
p6442
(lp6443
I0
aI1
asS'prossimo'
p6444
(lp6445
I1
aI1
asS'scadenza'
p6446
(lp6447
I1
aI1
asS'naso'
p6448
(lp6449
I1
aI0
asS'coltellate'
p6450
(lp6451
I0
aI1
asS'cris'
p6452
(lp6453
I0
aI1
asS'assicurazione'
p6454
(lp6455
I0
aI1
asS'vicenza'
p6456
(lp6457
I3
aI4
asS'sperimentazione'
p6458
(lp6459
I6
aI0
asS'comunit\xc3'
p6460
(lp6461
I1
aI0
asS'recensioni'
p6462
(lp6463
I0
aI1
asS'coda'
p6464
(lp6465
I0
aI1
asS'ottimismo'
p6466
(lp6467
I1
aI0
asS'saudita'
p6468
(lp6469
I2
aI0
asS'deodorante'
p6470
(lp6471
I0
aI1
asS'alien'
p6472
(lp6473
I1
aI0
asS'gf'
p6474
(lp6475
I1
aI0
asS'gb'
p6476
(lp6477
I11
aI0
asS'vuole'
p6478
(lp6479
I1
aI3
asS'scirea'
p6480
(lp6481
I0
aI1
asS'gm'
p6482
(lp6483
I1
aI0
asS'superfici'
p6484
(lp6485
I0
aI1
asS'latorre'
p6486
(lp6487
I0
aI2
asS'tomba'
p6488
(lp6489
I0
aI2
asS'cody'
p6490
(lp6491
I0
aI1
asS'imputati'
p6492
(lp6493
I1
aI0
asS'arin'
p6494
(lp6495
I1
aI0
asS'imputato'
p6496
(lp6497
I2
aI1
asS'bazoli'
p6498
(lp6499
I2
aI0
asS'trasforma'
p6500
(lp6501
I1
aI0
asS'pericolosi'
p6502
(lp6503
I0
aI1
asS'vaccinazione'
p6504
(lp6505
I0
aI1
asS'aria'
p6506
(lp6507
I0
aI1
asS'senz'
p6508
(lp6509
I0
aI1
asS'spesso'
p6510
(lp6511
I1
aI4
asS'onesta'
p6512
(lp6513
I1
aI0
asS'impresa'
p6514
(lp6515
I0
aI1
asS'cappellino'
p6516
(lp6517
I0
aI1
asS'\xbb'
p6518
(lp6519
I59
aI0
asS'recuperare'
p6520
(lp6521
I0
aI1
asS'contratti'
p6522
(lp6523
I1
aI0
asS'fotocamera'
p6524
(lp6525
I1
aI1
asS'okaka'
p6526
(lp6527
I0
aI1
asS'tagliare'
p6528
(lp6529
I0
aI1
asS'vestir'
p6530
(lp6531
I0
aI1
asS'motori'
p6532
(lp6533
I1
aI2
asS'minerali'
p6534
(lp6535
I2
aI0
asS'escluse'
p6536
(lp6537
I0
aI1
asS'ddl'
p6538
(lp6539
I4
aI0
asS'rendere'
p6540
(lp6541
I0
aI1
asS'ankara'
p6542
(lp6543
I0
aI1
asS'tavolo'
p6544
(lp6545
I4
aI0
asS'accusa'
p6546
(lp6547
I0
aI3
asS'brixia'
p6548
(lp6549
I0
aI1
asS'facebook'
p6550
(lp6551
I15
aI17
asS'totalmente'
p6552
(lp6553
I1
aI0
asS'cellular'
p6554
(lp6555
I0
aI1
asS'assad'
p6556
(lp6557
I15
aI0
asS'peggior'
p6558
(lp6559
I0
aI1
asS'malattia'
p6560
(lp6561
I4
aI2
asS'malattie'
p6562
(lp6563
I4
aI1
asS'biglietto'
p6564
(lp6565
I1
aI1
asS'shabaab'
p6566
(lp6567
I0
aI3
asS'ponticelli'
p6568
(lp6569
I1
aI0
asS'quirinale'
p6570
(lp6571
I2
aI0
asS'michael'
p6572
(lp6573
I0
aI1
asS'congiunta'
p6574
(lp6575
I2
aI0
asS'possono'
p6576
(lp6577
I0
aI4
asS'zigomi'
p6578
(lp6579
I0
aI1
asS'lunare'
p6580
(lp6581
I1
aI0
asS'spazio'
p6582
(lp6583
I3
aI5
asS'massachusetts'
p6584
(lp6585
I1
aI0
asS'metr\xf2'
p6586
(lp6587
I0
aI1
asS'ride'
p6588
(lp6589
I3
aI0
asS'crescita'
p6590
(lp6591
I8
aI1
asS'mastandrea'
p6592
(lp6593
I4
aI0
asS'goji'
p6594
(lp6595
I0
aI1
asS'cucciolo'
p6596
(lp6597
I0
aI2
asS'florenzi'
p6598
(lp6599
I4
aI0
asS'motogp'
p6600
(lp6601
I0
aI3
asS'elettricita'
p6602
(lp6603
I1
aI0
asS'vele'
p6604
(lp6605
I0
aI2
asS'viralela'
p6606
(lp6607
I0
aI5
asS'colesterolo'
p6608
(lp6609
I0
aI1
asS'claudio'
p6610
(lp6611
I3
aI11
asS'dormire'
p6612
(lp6613
I0
aI1
asS'contributivo'
p6614
(lp6615
I1
aI0
asS'mutuo'
p6616
(lp6617
I1
aI1
asS'mutui'
p6618
(lp6619
I11
aI1
asS'reunion'
p6620
(lp6621
I1
aI0
asS'fiumerapido'
p6622
(lp6623
I1
aI0
asS'fiandre'
p6624
(lp6625
I0
aI2
asS'appena'
p6626
(lp6627
I1
aI0
asS'click'
p6628
(lp6629
I1
aI0
asS'ues'
p6630
(lp6631
I1
aI0
asS'rendono'
p6632
(lp6633
I0
aI1
asS'edifici'
p6634
(lp6635
I0
aI1
asS'houthi'
p6636
(lp6637
I2
aI0
asS'tragedia'
p6638
(lp6639
I0
aI6
asS'power'
p6640
(lp6641
I0
aI1
asS'clienti'
p6642
(lp6643
I0
aI4
asS'furto'
p6644
(lp6645
I1
aI0
asS'giustizia'
p6646
(lp6647
I0
aI11
asS'fotoconfronto'
p6648
(lp6649
I1
aI0
asS'\x80\xa6]'
p6650
(lp6651
I1
aI0
asS'turismo'
p6652
(lp6653
I2
aI0
asS'malesia'
p6654
(lp6655
I0
aI3
asS'huawei'
p6656
(lp6657
I1
aI0
asS'tailleur'
p6658
(lp6659
I1
aI0
asS'fiori'
p6660
(lp6661
I1
aI0
asS'capital'
p6662
(lp6663
I0
aI1
asS'vigili'
p6664
(lp6665
I5
aI2
asS'spettacolare'
p6666
(lp6667
I0
aI1
asS'technology'
p6668
(lp6669
I0
aI1
asS'fiora'
p6670
(lp6671
I0
aI1
asS'utilizzati'
p6672
(lp6673
I1
aI0
asS'3d'
p6674
(lp6675
I1
aI0
asS'deluso'
p6676
(lp6677
I1
aI0
asS'ricordano'
p6678
(lp6679
I1
aI0
asS'polvere'
p6680
(lp6681
I1
aI0
asS'ritrovato'
p6682
(lp6683
I0
aI1
asS'polveri'
p6684
(lp6685
I1
aI0
asS'esistenza'
p6686
(lp6687
I1
aI0
asS'canale'
p6688
(lp6689
I1
aI0
asS'credito'
p6690
(lp6691
I14
aI0
asS'sino'
p6692
(lp6693
I1
aI0
asS'marrazzo'
p6694
(lp6695
I3
aI0
asS'infortunio'
p6696
(lp6697
I1
aI0
asS'libretto'
p6698
(lp6699
I0
aI1
asS'partecipazione'
p6700
(lp6701
I1
aI0
asS'oggettivo'
p6702
(lp6703
I0
aI1
asS'attacco'
p6704
(lp6705
I0
aI3
asS'metri'
p6706
(lp6707
I2
aI3
asS'ospitare'
p6708
(lp6709
I1
aI0
asS'scienze'
p6710
(lp6711
I1
aI1
asS'svenire'
p6712
(lp6713
I0
aI1
asS'talent'
p6714
(lp6715
I1
aI0
asS'metro'
p6716
(lp6717
I3
aI1
asS'wesley'
p6718
(lp6719
I0
aI1
asS'patente'
p6720
(lp6721
I4
aI1
asS'balotelli'
p6722
(lp6723
I0
aI1
asS'sangiorgi'
p6724
(lp6725
I0
aI1
asS'lubitz'
p6726
(lp6727
I0
aI9
asS'damasco'
p6728
(lp6729
I1
aI1
asS'menu'
p6730
(lp6731
I0
aI1
asS'clima'
p6732
(lp6733
I1
aI2
asS'ballo'
p6734
(lp6735
I0
aI1
asS'bruxelles'
p6736
(lp6737
I0
aI1
asS'sportivo'
p6738
(lp6739
I1
aI2
asS'debito'
p6740
(lp6741
I2
aI0
asS'integrazione'
p6742
(lp6743
I0
aI2
asS'tipici'
p6744
(lp6745
I0
aI1
asS'sentenza'
p6746
(lp6747
I0
aI8
asS'anzaldi'
p6748
(lp6749
I8
aI0
asS'apple'
p6750
(lp6751
I12
aI4
asS'andreolli'
p6752
(lp6753
I1
aI0
asS'beneficenza'
p6754
(lp6755
I1
aI0
asS'volo'
p6756
(lp6757
I3
aI11
asS'elezioni'
p6758
(lp6759
I2
aI0
asS'voli'
p6760
(lp6761
I0
aI1
asS'siro'
p6762
(lp6763
I3
aI0
asS'zlatan'
p6764
(lp6765
I0
aI3
asS'schermo'
p6766
(lp6767
I0
aI2
asS'normale'
p6768
(lp6769
I0
aI2
asS'privata'
p6770
(lp6771
I0
aI2
asS'leucemia'
p6772
(lp6773
I0
aI1
asS'violenta'
p6774
(lp6775
I1
aI0
asS'blog'
p6776
(lp6777
I0
aI2
asS'politico'
p6778
(lp6779
I0
aI1
asS'casari'
p6780
(lp6781
I0
aI2
asS'picchioni'
p6782
(lp6783
I0
aI1
asS'cloud'
p6784
(lp6785
I0
aI1
asS'presidente'
p6786
(lp6787
I46
aI18
asS'penalty'
p6788
(lp6789
I0
aI2
asS'fed'
p6790
(lp6791
I1
aI0
asS'ansia'
p6792
(lp6793
I0
aI1
asS'indirizzi'
p6794
(lp6795
I1
aI0
asS'usa'
p6796
(lp6797
I23
aI0
asS'grosseto'
p6798
(lp6799
I0
aI1
asS'uso'
p6800
(lp6801
I3
aI0
asS'doodle'
p6802
(lp6803
I1
aI0
asS'stella'
p6804
(lp6805
I0
aI2
asS'salvaguardia'
p6806
(lp6807
I2
aI0
asS'ministero'
p6808
(lp6809
I1
aI0
asS'zafferano'
p6810
(lp6811
I0
aI1
asS'camera'
p6812
(lp6813
I3
aI2
asS'nexo'
p6814
(lp6815
I0
aI1
asS'cuccarini'
p6816
(lp6817
I0
aI1
asS'camere'
p6818
(lp6819
I0
aI1
asS'frida'
p6820
(lp6821
I0
aI1
asS'sottostante'
p6822
(lp6823
I1
aI0
asS'luca'
p6824
(lp6825
I0
aI1
asS'volont'
p6826
(lp6827
I0
aI1
asS'prezzo'
p6828
(lp6829
I2
aI2
asS'avvocati'
p6830
(lp6831
I0
aI1
asS'prezzi'
p6832
(lp6833
I6
aI0
asS'avvocato'
p6834
(lp6835
I0
aI10
asS'lostia'
p6836
(lp6837
I1
aI0
asS'resistenti'
p6838
(lp6839
I0
aI1
asS'rifugi'
p6840
(lp6841
I1
aI0
asS'missile'
p6842
(lp6843
I0
aI4
asS'attivit'
p6844
(lp6845
I0
aI7
asS'spalletti'
p6846
(lp6847
I0
aI1
asS'versamenti'
p6848
(lp6849
I1
aI0
asS'negoziati'
p6850
(lp6851
I0
aI2
asS'versamento'
p6852
(lp6853
I0
aI1
asS'bogdanov'
p6854
(lp6855
I1
aI0
asS'detrazioni'
p6856
(lp6857
I0
aI1
asS'vuota'
p6858
(lp6859
I0
aI1
asS'imprese'
p6860
(lp6861
I2
aI0
asS'detrazione'
p6862
(lp6863
I0
aI1
asS'sangue'
p6864
(lp6865
I3
aI2
asS'minions'
p6866
(lp6867
I1
aI0
asS'segnato'
p6868
(lp6869
I1
aI0
asS'prepara'
p6870
(lp6871
I0
aI1
asS'account'
p6872
(lp6873
I2
aI0
asS'vienna'
p6874
(lp6875
I1
aI0
asS'sinisa'
p6876
(lp6877
I0
aI1
asS'tunnel'
p6878
(lp6879
I2
aI2
asS'salah'
p6880
(lp6881
I4
aI2
asS'frances'
p6882
(lp6883
I0
aI1
asS'segnata'
p6884
(lp6885
I0
aI1
asS'legalit\xc3'
p6886
(lp6887
I1
aI0
asS'presidenza'
p6888
(lp6889
I1
aI0
asS'animale'
p6890
(lp6891
I0
aI1
asS'szczesny'
p6892
(lp6893
I2
aI0
asS'usano'
p6894
(lp6895
I0
aI1
asS'letto'
p6896
(lp6897
I0
aI3
asS'closing'
p6898
(lp6899
I2
aI0
asS'gregori'
p6900
(lp6901
I0
aI1
asS'animali'
p6902
(lp6903
I1
aI3
asS'classifiche'
p6904
(lp6905
I1
aI0
asS'elezione'
p6906
(lp6907
I0
aI1
asS'sinti'
p6908
(lp6909
I0
aI1
asS'vicolo'
p6910
(lp6911
I0
aI1
asS'cantante'
p6912
(lp6913
I1
aI2
asS'angelucci'
p6914
(lp6915
I5
aI0
asS'indipendenza'
p6916
(lp6917
I7
aI0
asS'contestazione'
p6918
(lp6919
I0
aI1
asS'beni'
p6920
(lp6921
I0
aI1
asS'finanza'
p6922
(lp6923
I5
aI0
asS'coscia'
p6924
(lp6925
I0
aI1
asS'spiagge'
p6926
(lp6927
I0
aI1
asS'finanze'
p6928
(lp6929
I0
aI1
asS'salvini'
p6930
(lp6931
I0
aI16
asS'bere'
p6932
(lp6933
I1
aI0
asS'disabili'
p6934
(lp6935
I1
aI0
asS'frontiera'
p6936
(lp6937
I2
aI0
asS'regione'
p6938
(lp6939
I2
aI3
asS'combatte'
p6940
(lp6941
I1
aI0
asS'regioni'
p6942
(lp6943
I4
aI1
asS'naro'
p6944
(lp6945
I0
aI2
asS'sequestra'
p6946
(lp6947
I1
aI0
asS'ruspa'
p6948
(lp6949
I0
aI1
asS'sperimentazioni'
p6950
(lp6951
I0
aI1
asS'corridoio'
p6952
(lp6953
I1
aI0
asS'sequestro'
p6954
(lp6955
I2
aI0
asS'sclerosi'
p6956
(lp6957
I1
aI0
asS'paradiso'
p6958
(lp6959
I0
aI2
asS'agnelline'
p6960
(lp6961
I0
aI1
asS'watch'
p6962
(lp6963
I0
aI3
asS'guidami'
p6964
(lp6965
I0
aI1
asS'rid\xc3'
p6966
(lp6967
I1
aI0
asS'luxuria'
p6968
(lp6969
I0
aI2
asS'reggio'
p6970
(lp6971
I5
aI0
asS'firenze'
p6972
(lp6973
I3
aI1
asS'piace'
p6974
(lp6975
I0
aI1
asS'prostata'
p6976
(lp6977
I13
aI0
asS'scrive'
p6978
(lp6979
I0
aI4
asS'possibile'
p6980
(lp6981
I3
aI7
asS'united'
p6982
(lp6983
I0
aI2
asS'dansoko'
p6984
(lp6985
I0
aI1
asS'abnorme'
p6986
(lp6987
I1
aI0
asS'fiscalit\xc3'
p6988
(lp6989
I1
aI0
asS'direttore'
p6990
(lp6991
I2
aI5
asS'quichua'
p6992
(lp6993
I0
aI1
asS'os'
p6994
(lp6995
I1
aI0
asS'classe'
p6996
(lp6997
I4
aI1
asS'pagare'
p6998
(lp6999
I0
aI1
asS'robot'
p7000
(lp7001
I7
aI2
asS'operazioni'
p7002
(lp7003
I2
aI0
asS'chief'
p7004
(lp7005
I0
aI1
asS'omicidio'
p7006
(lp7007
I8
aI1
asS'bordo'
p7008
(lp7009
I4
aI0
asS'furious'
p7010
(lp7011
I0
aI4
asS'farmaceutiche'
p7012
(lp7013
I0
aI1
asS'pregliasco'
p7014
(lp7015
I2
aI0
asS'operazione'
p7016
(lp7017
I4
aI0
asS'parco'
p7018
(lp7019
I8
aI4
asS'linea'
p7020
(lp7021
I8
aI3
asS'lingue'
p7022
(lp7023
I0
aI1
asS'%,'
p7024
(lp7025
I4
aI0
asS'policlinico'
p7026
(lp7027
I0
aI1
asS'%)'
p7028
(lp7029
I5
aI0
asS'elia'
p7030
(lp7031
I1
aI0
asS'subita'
p7032
(lp7033
I0
aI2
asS'tronco'
p7034
(lp7035
I0
aI1
asS'tranquillit'
p7036
(lp7037
I0
aI1
asS'articoli'
p7038
(lp7039
I1
aI0
asS'laurentiis'
p7040
(lp7041
I0
aI6
asS'empoli'
p7042
(lp7043
I5
aI0
asS'pensionati'
p7044
(lp7045
I2
aI0
asS'risultato'
p7046
(lp7047
I1
aI0
asS'leali'
p7048
(lp7049
I1
aI0
asS'segretario'
p7050
(lp7051
I1
aI2
asS'comma'
p7052
(lp7053
I1
aI0
asS'volto'
p7054
(lp7055
I0
aI5
asS'finanziario'
p7056
(lp7057
I0
aI1
asS'residenziali'
p7058
(lp7059
I0
aI1
asS'caligari'
p7060
(lp7061
I11
aI0
asS'giganti'
p7062
(lp7063
I0
aI1
asS'footballers'
p7064
(lp7065
I0
aI1
asS'galaxy'
p7066
(lp7067
I0
aI7
asS'warren'
p7068
(lp7069
I0
aI1
asS'lg'
p7070
(lp7071
I1
aI0
asS'pensieri'
p7072
(lp7073
I0
aI1
asS'penisola'
p7074
(lp7075
I1
aI0
asS'autore'
p7076
(lp7077
I0
aI1
asS'atterraggio'
p7078
(lp7079
I0
aI1
asS'societ\xc3'
p7080
(lp7081
I12
aI0
asS'madre'
p7082
(lp7083
I2
aI0
asS'alta'
p7084
(lp7085
I0
aI1
asS'datore'
p7086
(lp7087
I1
aI0
asS'bonaccini'
p7088
(lp7089
I2
aI0
asS'fitto'
p7090
(lp7091
I7
aI2
asS'madri'
p7092
(lp7093
I0
aI1
asS'pixel'
p7094
(lp7095
I1
aI0
asS'commissario'
p7096
(lp7097
I0
aI1
asS'federica'
p7098
(lp7099
I0
aI1
asS'promozione'
p7100
(lp7101
I0
aI2
asS'vergara'
p7102
(lp7103
I0
aI1
asS'auto'
p7104
(lp7105
I29
aI6
asS'cagr'
p7106
(lp7107
I2
aI0
asS'versace'
p7108
(lp7109
I0
aI1
asS'andato'
p7110
(lp7111
I2
aI0
asS'docu'
p7112
(lp7113
I1
aI0
asS'visualizzazioni'
p7114
(lp7115
I1
aI0
asS'violenza'
p7116
(lp7117
I2
aI1
asS'kunduz'
p7118
(lp7119
I9
aI0
asS'ambition'
p7120
(lp7121
I0
aI1
asS'calciatore'
p7122
(lp7123
I1
aI1
asS'dax'
p7124
(lp7125
I1
aI0
asS'condannati'
p7126
(lp7127
I1
aI0
asS'annuale'
p7128
(lp7129
I0
aI1
asS'importante'
p7130
(lp7131
I2
aI3
asS'pralormo'
p7132
(lp7133
I0
aI2
asS'ragazza'
p7134
(lp7135
I6
aI3
asS'paura'
p7136
(lp7137
I1
aI4
asS'ubriaco'
p7138
(lp7139
I4
aI0
asS'gentleman\xe2'
p7140
(lp7141
I3
aI0
asS'pistola'
p7142
(lp7143
I0
aI1
asS'university'
p7144
(lp7145
I0
aI2
asS'ragazzi'
p7146
(lp7147
I2
aI3
asS'ragazzo'
p7148
(lp7149
I11
aI2
asS'sprofondata'
p7150
(lp7151
I2
aI0
asS'moda'
p7152
(lp7153
I3
aI1
asS'universita'
p7154
(lp7155
I2
aI0
asS'cugino'
p7156
(lp7157
I1
aI0
asS'rockets'
p7158
(lp7159
I0
aI1
asS'ultimamente'
p7160
(lp7161
I0
aI1
asS'interventi'
p7162
(lp7163
I1
aI0
asS'notizia'
p7164
(lp7165
I4
aI1
asS'intervento'
p7166
(lp7167
I3
aI1
asS'vengano'
p7168
(lp7169
I1
aI1
asS'reato'
p7170
(lp7171
I1
aI2
asS'notizie'
p7172
(lp7173
I2
aI1
asS'gianfranco'
p7174
(lp7175
I0
aI1
asS'rugani'
p7176
(lp7177
I1
aI0
asS'trovare'
p7178
(lp7179
I3
aI3
asS'vadano'
p7180
(lp7181
I0
aI1
asS'einstein'
p7182
(lp7183
I0
aI3
asS'margine'
p7184
(lp7185
I1
aI0
asS'diventa'
p7186
(lp7187
I1
aI0
asS'maschile'
p7188
(lp7189
I1
aI1
asS'velocemente'
p7190
(lp7191
I0
aI1
asS'meta'
p7192
(lp7193
I1
aI0
asS'wisconsin'
p7194
(lp7195
I0
aI1
asS'tenta'
p7196
(lp7197
I1
aI1
asS'tattica'
p7198
(lp7199
I0
aI1
asS'disco'
p7200
(lp7201
I0
aI1
asS'marley'
p7202
(lp7203
I0
aI1
asS'siano'
p7204
(lp7205
I0
aI2
asS'hla'
p7206
(lp7207
I1
aI0
asS'supporto'
p7208
(lp7209
I0
aI5
asS'pubblicato'
p7210
(lp7211
I2
aI0
asS'indicazioni'
p7212
(lp7213
I0
aI1
asS'vaschetti'
p7214
(lp7215
I0
aI1
asS'l\xe2'
p7216
(lp7217
I244
aI0
asS'garcia'
p7218
(lp7219
I18
aI0
asS'tevez'
p7220
(lp7221
I1
aI3
asS'riciclaggio'
p7222
(lp7223
I1
aI0
asS'appuntamento'
p7224
(lp7225
I0
aI1
asS'pubblicata'
p7226
(lp7227
I0
aI1
asS'posteriori'
p7228
(lp7229
I0
aI1
asS'giordano'
p7230
(lp7231
I0
aI1
asS'messenger'
p7232
(lp7233
I0
aI1
asS'vicedirettore'
p7234
(lp7235
I3
aI0
asS'istituto'
p7236
(lp7237
I6
aI2
asS'causa'
p7238
(lp7239
I2
aI0
asS'red'
p7240
(lp7241
I1
aI0
asS'harold'
p7242
(lp7243
I0
aI2
asS'dovr'
p7244
(lp7245
I0
aI1
asS'26enne'
p7246
(lp7247
I1
aI0
asS'karnezis'
p7248
(lp7249
I0
aI2
asS'sparatoria'
p7250
(lp7251
I1
aI3
asS'profili'
p7252
(lp7253
I1
aI0
asS'tempi'
p7254
(lp7255
I2
aI4
asS'sconcerto'
p7256
(lp7257
I1
aI0
asS'lione'
p7258
(lp7259
I0
aI1
asS'verdini'
p7260
(lp7261
I1
aI0
asS'lassativi'
p7262
(lp7263
I0
aI1
asS'universit\xc3'
p7264
(lp7265
I3
aI0
asS'detenzione'
p7266
(lp7267
I0
aI1
asS'moratti'
p7268
(lp7269
I0
aI2
asS'york'
p7270
(lp7271
I8
aI8
asS'dzhokhar'
p7272
(lp7273
I0
aI1
asS'incinte'
p7274
(lp7275
I1
aI0
asS'volgare'
p7276
(lp7277
I1
aI0
asS'protagonista'
p7278
(lp7279
I1
aI3
asS'biciclette'
p7280
(lp7281
I0
aI1
asS'valanga'
p7282
(lp7283
I1
aI0
asS'cremona'
p7284
(lp7285
I0
aI1
asS'strade'
p7286
(lp7287
I0
aI2
asS'furono'
p7288
(lp7289
I0
aI1
asS'metallo'
p7290
(lp7291
I0
aI1
asS'david'
p7292
(lp7293
I0
aI2
asS'spazi'
p7294
(lp7295
I0
aI1
asS'campeggio'
p7296
(lp7297
I4
aI1
asS'chemioterapia'
p7298
(lp7299
I1
aI0
asS'affidamento'
p7300
(lp7301
I1
aI0
asS'livello'
p7302
(lp7303
I2
aI0
asS'vogliate'
p7304
(lp7305
I0
aI1
asS'livelli'
p7306
(lp7307
I0
aI1
asS'south'
p7308
(lp7309
I0
aI1
asS'licenziamenti'
p7310
(lp7311
I0
aI1
asS'c\xe2'
p7312
(lp7313
I4
aI0
asS'ultralarga'
p7314
(lp7315
I1
aI0
asS'uccise'
p7316
(lp7317
I1
aI1
asS'playstation'
p7318
(lp7319
I0
aI1
asS'scena'
p7320
(lp7321
I1
aI6
asS'bisfenolo'
p7322
(lp7323
I0
aI1
asS'ucciso'
p7324
(lp7325
I14
aI3
asS'popolazione'
p7326
(lp7327
I2
aI1
asS'zagabria'
p7328
(lp7329
I1
aI0
asS'rischiano'
p7330
(lp7331
I1
aI0
asS'set'
p7332
(lp7333
I31
aI0
asS'incidenza'
p7334
(lp7335
I1
aI0
asS'chipworks'
p7336
(lp7337
I1
aI0
asS'marille'
p7338
(lp7339
I0
aI1
asS'mondiale'
p7340
(lp7341
I1
aI1
asS'sharon'
p7342
(lp7343
I0
aI1
asS'tumorali'
p7344
(lp7345
I0
aI1
asS'versando'
p7346
(lp7347
I1
aI0
asS'febbre'
p7348
(lp7349
I1
aI1
asS'privacy'
p7350
(lp7351
I2
aI2
asS'festival'
p7352
(lp7353
I4
aI0
asS'bologna'
p7354
(lp7355
I2
aI1
asS'farnesina'
p7356
(lp7357
I1
aI0
asS'celtics'
p7358
(lp7359
I0
aI1
asS'tumorale'
p7360
(lp7361
I1
aI0
asS'trattativa'
p7362
(lp7363
I1
aI0
asS'pronunciato'
p7364
(lp7365
I1
aI0
asS'apparecchiature'
p7366
(lp7367
I4
aI0
asS'verifica'
p7368
(lp7369
I2
aI0
asS'stephan'
p7370
(lp7371
I3
aI0
asS'santa'
p7372
(lp7373
I0
aI2
asS'piedistallo'
p7374
(lp7375
I0
aI1
asS'mtvbump'
p7376
(lp7377
I1
aI0
asS'scanu'
p7378
(lp7379
I0
aI1
asS'messaggio'
p7380
(lp7381
I0
aI1
asS'pronunciate'
p7382
(lp7383
I1
aI0
asS'\xbd'
p7384
(lp7385
I1
aI0
asS'messina'
p7386
(lp7387
I11
aI1
asS'ipv4'
p7388
(lp7389
I1
aI0
asS'rsl'
p7390
(lp7391
I2
aI0
asS'celibato'
p7392
(lp7393
I1
aI0
asS'oggetti'
p7394
(lp7395
I0
aI1
asS'gear'
p7396
(lp7397
I2
aI0
asS'startup'
p7398
(lp7399
I0
aI2
asS'update'
p7400
(lp7401
I0
aI1
asS'salerno'
p7402
(lp7403
I4
aI1
asS'chiave'
p7404
(lp7405
I0
aI1
asS'vellutato'
p7406
(lp7407
I0
aI1
asS'sorprese'
p7408
(lp7409
I0
aI1
asS'esecuzione'
p7410
(lp7411
I3
aI0
asS'virtuale'
p7412
(lp7413
I3
aI2
asS'sorpresa'
p7414
(lp7415
I2
aI0
asS'sorpreso'
p7416
(lp7417
I0
aI1
asS'romagna'
p7418
(lp7419
I4
aI0
asS'sarebbero'
p7420
(lp7421
I2
aI1
asS'jolie'
p7422
(lp7423
I0
aI1
asS'convoglio'
p7424
(lp7425
I1
aI0
asS'ipad'
p7426
(lp7427
I2
aI1
asS'roberta'
p7428
(lp7429
I0
aI1
asS'staminali'
p7430
(lp7431
I6
aI0
asS'scriveva'
p7432
(lp7433
I0
aI1
asS'reputazione'
p7434
(lp7435
I0
aI1
asS'probiotico'
p7436
(lp7437
I4
aI0
asS'serio'
p7438
(lp7439
I0
aI1
asS'chirurgia'
p7440
(lp7441
I1
aI0
asS'roberto'
p7442
(lp7443
I1
aI1
asS'iziplay'
p7444
(lp7445
I1
aI0
asS'probiotici'
p7446
(lp7447
I4
aI0
asS'bee'
p7448
(lp7449
I10
aI0
asS'trenta'
p7450
(lp7451
I0
aI1
asS'usiamo'
p7452
(lp7453
I0
aI1
asS'tengono'
p7454
(lp7455
I0
aI1
asS'distinguished'
p7456
(lp7457
I3
aI0
asS'trento'
p7458
(lp7459
I0
aI1
asS'sindrome'
p7460
(lp7461
I5
aI0
asS'ventitr\xc3'
p7462
(lp7463
I1
aI0
asS'esposito'
p7464
(lp7465
I1
aI1
asS'clip'
p7466
(lp7467
I1
aI0
asS'falso'
p7468
(lp7469
I0
aI1
asS'voce'
p7470
(lp7471
I1
aI1
asS'uova'
p7472
(lp7473
I0
aI1
asS'slogan'
p7474
(lp7475
I0
aI2
asS'north'
p7476
(lp7477
I0
aI2
asS'parlare'
p7478
(lp7479
I1
aI1
asS'orfini'
p7480
(lp7481
I0
aI3
asS'\x80\x99,'
p7482
(lp7483
I1
aI0
asS'tomaso'
p7484
(lp7485
I2
aI0
asS'padrone'
p7486
(lp7487
I0
aI1
asS'kokorin'
p7488
(lp7489
I0
aI2
asS'cuore'
p7490
(lp7491
I8
aI1
asS'estrazione'
p7492
(lp7493
I1
aI0
asS'aerea'
p7494
(lp7495
I1
aI0
asS'presenza'
p7496
(lp7497
I10
aI3
asS'trovino'
p7498
(lp7499
I2
aI0
asS'mix'
p7500
(lp7501
I2
aI0
asS'sfilata'
p7502
(lp7503
I1
aI0
asS'europea'
p7504
(lp7505
I1
aI0
asS'vertice'
p7506
(lp7507
I1
aI0
asS'seggi'
p7508
(lp7509
I5
aI0
asS'domiciliari'
p7510
(lp7511
I1
aI0
asS'lorenzin'
p7512
(lp7513
I4
aI0
asS'detassis'
p7514
(lp7515
I1
aI0
asS'feriti'
p7516
(lp7517
I1
aI0
asS'riteniamo'
p7518
(lp7519
I0
aI1
asS'%),'
p7520
(lp7521
I1
aI0
asS'citt\xc3'
p7522
(lp7523
I6
aI0
asS'aprile'
p7524
(lp7525
I0
aI10
asS'avanzato'
p7526
(lp7527
I1
aI0
asS'opzione'
p7528
(lp7529
I2
aI0
asS'giallorossi'
p7530
(lp7531
I3
aI0
asS'microrganismi'
p7532
(lp7533
I0
aI1
asS'procura'
p7534
(lp7535
I2
aI0
asS'barcellona'
p7536
(lp7537
I1
aI0
asS'camper'
p7538
(lp7539
I1
aI2
asS'centro'
p7540
(lp7541
I6
aI1
asS'puntata'
p7542
(lp7543
I2
aI1
asS'vendicative'
p7544
(lp7545
I0
aI2
asS'montana'
p7546
(lp7547
I1
aI0
asS'amicizia'
p7548
(lp7549
I1
aI0
asS'montane'
p7550
(lp7551
I1
aI1
asS'device'
p7552
(lp7553
I0
aI1
asS'amoroso'
p7554
(lp7555
I0
aI1
asS'compleanno'
p7556
(lp7557
I3
aI0
asS'possiamo'
p7558
(lp7559
I0
aI2
asS'viso'
p7560
(lp7561
I2
aI2
asS'precoci'
p7562
(lp7563
I1
aI0
asS'verdetto'
p7564
(lp7565
I0
aI1
asS'ritirata'
p7566
(lp7567
I3
aI0
asS'concorso'
p7568
(lp7569
I1
aI0
asS'ong'
p7570
(lp7571
I1
aI0
asS'vantaggio'
p7572
(lp7573
I3
aI1
asS'maggior'
p7574
(lp7575
I1
aI0
asS'statuto'
p7576
(lp7577
I1
aI0
asS'milano'
p7578
(lp7579
I11
aI40
asS'silenzio'
p7580
(lp7581
I0
aI1
asS'sofisticati'
p7582
(lp7583
I1
aI0
asS'voragine'
p7584
(lp7585
I7
aI1
asS'keira'
p7586
(lp7587
I0
aI1
asS'sierra'
p7588
(lp7589
I0
aI1
asS'riforma'
p7590
(lp7591
I5
aI6
asS'distanze'
p7592
(lp7593
I1
aI0
asS'polacco'
p7594
(lp7595
I4
aI0
asS'riforme'
p7596
(lp7597
I8
aI5
asS'ballar\xf2'
p7598
(lp7599
I0
aI1
asS'brav'
p7600
(lp7601
I0
aI1
asS'32enne'
p7602
(lp7603
I0
aI1
asS'portare'
p7604
(lp7605
I1
aI0
asS'baldini'
p7606
(lp7607
I1
aI0
asS'autistico'
p7608
(lp7609
I0
aI1
asS'realt\xc3'
p7610
(lp7611
I5
aI0
asS'bacio'
p7612
(lp7613
I0
aI1
asS'terminate'
p7614
(lp7615
I0
aI1
asS'guarda'
p7616
(lp7617
I1
aI0
asS'guest'
p7618
(lp7619
I0
aI1
asS'ritirati'
p7620
(lp7621
I1
aI0
asS'passo'
p7622
(lp7623
I1
aI0
asS'manchester'
p7624
(lp7625
I1
aI1
asS'lingua'
p7626
(lp7627
I0
aI3
asS'\x80\x9d;'
p7628
(lp7629
I1
aI0
asS'cellulari'
p7630
(lp7631
I0
aI3
asS'staff'
p7632
(lp7633
I2
aI5
asS'scuole'
p7634
(lp7635
I1
aI2
asS'scuola'
p7636
(lp7637
I12
aI11
asS'lanciatore'
p7638
(lp7639
I0
aI2
asS'trasformate'
p7640
(lp7641
I0
aI2
asS'tiro'
p7642
(lp7643
I1
aI2
asS'scopri'
p7644
(lp7645
I0
aI1
asS'davide'
p7646
(lp7647
I0
aI1
asS'sedicente'
p7648
(lp7649
I0
aI1
asS'vietnamita'
p7650
(lp7651
I0
aI1
asS'variazioni'
p7652
(lp7653
I0
aI1
asS'veicolo'
p7654
(lp7655
I0
aI2
asS'ritrovamento'
p7656
(lp7657
I0
aI2
asS'adriatico'
p7658
(lp7659
I0
aI1
asS'piano'
p7660
(lp7661
I13
aI8
asS'piani'
p7662
(lp7663
I0
aI1
asS'libro'
p7664
(lp7665
I1
aI2
asS'handle'
p7666
(lp7667
I0
aI7
asS'marghera'
p7668
(lp7669
I0
aI1
asS'statham'
p7670
(lp7671
I0
aI1
asS'davis'
p7672
(lp7673
I0
aI1
asS'condotto'
p7674
(lp7675
I1
aI0
asS'vitamina'
p7676
(lp7677
I0
aI1
asS'yogurt'
p7678
(lp7679
I0
aI1
asS'antonucci'
p7680
(lp7681
I0
aI1
asS'terribile'
p7682
(lp7683
I1
aI0
asS'fiore'
p7684
(lp7685
I0
aI1
asS'rossobl\xc3\xb9'
p7686
(lp7687
I1
aI0
asS'gigante'
p7688
(lp7689
I0
aI1
asS'scene'
p7690
(lp7691
I1
aI0
asS'vien'
p7692
(lp7693
I0
aI1
asS'uscente'
p7694
(lp7695
I0
aI1
asS'lassativo'
p7696
(lp7697
I0
aI1
asS'stanford'
p7698
(lp7699
I0
aI3
asS'rapper'
p7700
(lp7701
I0
aI2
asS'squadre'
p7702
(lp7703
I0
aI1
asS'teams'
p7704
(lp7705
I0
aI1
asS'vitali'
p7706
(lp7707
I0
aI1
asS'ripley'
p7708
(lp7709
I1
aI0
asS'gran'
p7710
(lp7711
I0
aI2
asS'vertebra'
p7712
(lp7713
I0
aI1
asS'mercedes'
p7714
(lp7715
I1
aI1
asS'pozza'
p7716
(lp7717
I0
aI1
asS'rivendicazione'
p7718
(lp7719
I6
aI0
asS'accedere'
p7720
(lp7721
I0
aI2
asS'rinviato'
p7722
(lp7723
I0
aI1
asS'view'
p7724
(lp7725
I0
aI9
asS'dujuan'
p7726
(lp7727
I3
aI0
asS'modulo'
p7728
(lp7729
I0
aI1
asS'btp'
p7730
(lp7731
I3
aI0
asS'strazzo'
p7732
(lp7733
I1
aI0
asS'merito'
p7734
(lp7735
I1
aI0
asS'fallimento'
p7736
(lp7737
I0
aI2
asS'taiwanese'
p7738
(lp7739
I0
aI1
asS'scusa'
p7740
(lp7741
I1
aI0
asS'ripresa'
p7742
(lp7743
I0
aI1
asS'tratterebbe'
p7744
(lp7745
I1
aI0
asS'confermato'
p7746
(lp7747
I2
aI0
asS'riprese'
p7748
(lp7749
I0
aI1
asS'razzi'
p7750
(lp7751
I0
aI1
asS'sesso'
p7752
(lp7753
I0
aI10
asS'lupi'
p7754
(lp7755
I0
aI5
asS'nonostante'
p7756
(lp7757
I0
aI1
asS'alessandra'
p7758
(lp7759
I0
aI2
asS'vanchiglia'
p7760
(lp7761
I0
aI1
asS'sanpaolo'
p7762
(lp7763
I0
aI5
asS'pierangeli'
p7764
(lp7765
I1
aI0
asS'trattato'
p7766
(lp7767
I0
aI1
asS'\xb8\x8f'
p7768
(lp7769
I1
aI0
asS'record'
p7770
(lp7771
I2
aI3
asS'\xa8'
p7772
(lp7773
I616
aI0
asS'supera'
p7774
(lp7775
I0
aI1
asS'rossonero'
p7776
(lp7777
I1
aI2
asS'versato'
p7778
(lp7779
I2
aI0
asS'silicone'
p7780
(lp7781
I0
aI1
asS'appartamenti'
p7782
(lp7783
I0
aI1
asS'precedente'
p7784
(lp7785
I3
aI0
asS'noi\xe2'
p7786
(lp7787
I1
aI0
asS'crude'
p7788
(lp7789
I0
aI1
asS'sciarelli'
p7790
(lp7791
I0
aI1
asS'email'
p7792
(lp7793
I2
aI0
asS'trapano'
p7794
(lp7795
I2
aI0
asS'sinistro'
p7796
(lp7797
I1
aI0
asS'addio'
p7798
(lp7799
I2
aI0
asS'cristiani'
p7800
(lp7801
I0
aI1
asS'rosetta'
p7802
(lp7803
I0
aI1
asS'd\xe2'
p7804
(lp7805
I9
aI0
asS'verificarsi'
p7806
(lp7807
I0
aI1
asS'sinistra'
p7808
(lp7809
I1
aI2
asS'antico'
p7810
(lp7811
I0
aI1
asS'lezione'
p7812
(lp7813
I0
aI1
asS'furlan'
p7814
(lp7815
I0
aI1
asS'group'
p7816
(lp7817
I1
aI0
asS'maga'
p7818
(lp7819
I0
aI1
asS'spese'
p7820
(lp7821
I1
aI4
asS'abbonati'
p7822
(lp7823
I0
aI3
asS'clonazione'
p7824
(lp7825
I1
aI0
asS'affaticamento'
p7826
(lp7827
I0
aI1
asS'coppia'
p7828
(lp7829
I0
aI4
asS'trovi'
p7830
(lp7831
I1
aI0
asS'zanzara'
p7832
(lp7833
I1
aI0
asS'imprenditore'
p7834
(lp7835
I3
aI0
asS'trova'
p7836
(lp7837
I3
aI4
asS'tlc'
p7838
(lp7839
I1
aI0
asS'rafforzamento'
p7840
(lp7841
I1
aI0
asS'bialik'
p7842
(lp7843
I0
aI1
asS'formazioni'
p7844
(lp7845
I3
aI0
asS'difficolta'
p7846
(lp7847
I1
aI0
asS'impiegata'
p7848
(lp7849
I0
aI1
asS'volley'
p7850
(lp7851
I1
aI4
asS'vogliamo'
p7852
(lp7853
I3
aI3
asS'marte'
p7854
(lp7855
I28
aI2
asS'tornare'
p7856
(lp7857
I2
aI1
asS'vent'
p7858
(lp7859
I1
aI0
asS'indice'
p7860
(lp7861
I1
aI1
asS'confronti'
p7862
(lp7863
I0
aI1
asS'ciofani'
p7864
(lp7865
I1
aI0
asS'unit\xc3'
p7866
(lp7867
I2
aI0
asS'davvero'
p7868
(lp7869
I1
aI3
asS'annamaria'
p7870
(lp7871
I1
aI0
asS'vedere'
p7872
(lp7873
I3
aI8
asS'denis'
p7874
(lp7875
I6
aI0
asS'stampare'
p7876
(lp7877
I0
aI1
asS'fukushima'
p7878
(lp7879
I0
aI1
asS'luna'
p7880
(lp7881
I1
aI0
asS'mafia'
p7882
(lp7883
I0
aI1
asS'carrello'
p7884
(lp7885
I0
aI1
asS'cinture'
p7886
(lp7887
I0
aI1
asS'mafie'
p7888
(lp7889
I1
aI0
asS'scontrini'
p7890
(lp7891
I0
aI1
asS'catalogna'
p7892
(lp7893
I10
aI0
asS'silvio'
p7894
(lp7895
I4
aI0
asS'johnny'
p7896
(lp7897
I0
aI2
asS'rinnovamento'
p7898
(lp7899
I0
aI1
asS'\xa9'
p7900
(lp7901
I63
aI0
asS'statunitensi'
p7902
(lp7903
I2
aI0
asS'silvia'
p7904
(lp7905
I1
aI0
asS'interesse'
p7906
(lp7907
I3
aI0
asS'gomme'
p7908
(lp7909
I0
aI2
asS'suolo'
p7910
(lp7911
I0
aI6
asS'faccio'
p7912
(lp7913
I0
aI2
asS'industriale'
p7914
(lp7915
I2
aI0
asS'dovranno'
p7916
(lp7917
I0
aI2
asS'yale'
p7918
(lp7919
I0
aI2
asS'lunardon'
p7920
(lp7921
I0
aI1
asS'kahlo'
p7922
(lp7923
I0
aI1
asS'pranzo'
p7924
(lp7925
I0
aI2
asS'liverpool'
p7926
(lp7927
I0
aI3
asS'marito'
p7928
(lp7929
I3
aI3
asS'vinci'
p7930
(lp7931
I0
aI2
asS'\x80\xa6'
p7932
(lp7933
I2
aI0
asS'lecce'
p7934
(lp7935
I1
aI1
asS'vince'
p7936
(lp7937
I2
aI4
asS'vinceva'
p7938
(lp7939
I0
aI1
asS'scienziati'
p7940
(lp7941
I0
aI1
asS'restano'
p7942
(lp7943
I1
aI0
asS'stravolto'
p7944
(lp7945
I1
aI0
asS'dicembre'
p7946
(lp7947
I1
aI0
asS'bull'
p7948
(lp7949
I0
aI1
asS'urla'
p7950
(lp7951
I2
aI1
asS'rimedi'
p7952
(lp7953
I0
aI1
asS'volontaria'
p7954
(lp7955
I1
aI0
asS'catalano'
p7956
(lp7957
I2
aI0
asS'trackers'
p7958
(lp7959
I0
aI1
asS'ndr'
p7960
(lp7961
I2
aI0
asS'aree'
p7962
(lp7963
I0
aI1
asS'multa'
p7964
(lp7965
I6
aI2
asS'piquadro'
p7966
(lp7967
I0
aI1
asS'condomini'
p7968
(lp7969
I0
aI1
asS'megapixel'
p7970
(lp7971
I0
aI1
asS'greco'
p7972
(lp7973
I0
aI2
asS'encountered'
p7974
(lp7975
I0
aI7
asS'texas'
p7976
(lp7977
I0
aI2
asS'richieder\xc3'
p7978
(lp7979
I3
aI0
asS'architetti'
p7980
(lp7981
I0
aI1
asS'dipendente'
p7982
(lp7983
I1
aI1
asS'fondi'
p7984
(lp7985
I1
aI0
asS'puritana'
p7986
(lp7987
I0
aI1
asS'padelli'
p7988
(lp7989
I0
aI1
asS'infezioni'
p7990
(lp7991
I0
aI1
asS'sito'
p7992
(lp7993
I9
aI21
asS'orale'
p7994
(lp7995
I0
aI4
asS'sar\xc3'
p7996
(lp7997
I29
aI0
asS'amianto'
p7998
(lp7999
I0
aI1
asS'dipendenti'
p8000
(lp8001
I3
aI2
asS'site'
p8002
(lp8003
I3
aI2
asS'denti'
p8004
(lp8005
I1
aI0
asS'hardware'
p8006
(lp8007
I1
aI1
asS'pesca'
p8008
(lp8009
I0
aI1
asS'straordinario'
p8010
(lp8011
I1
aI0
asS'pesce'
p8012
(lp8013
I4
aI2
asS'vw'
p8014
(lp8015
I1
aI0
asS'arabia'
p8016
(lp8017
I1
aI0
asS'pesci'
p8018
(lp8019
I0
aI1
asS'finestre'
p8020
(lp8021
I0
aI2
asS'ulivi'
p8022
(lp8023
I1
aI0
asS'uniti'
p8024
(lp8025
I6
aI2
asS'rapido'
p8026
(lp8027
I0
aI1
asS'unito'
p8028
(lp8029
I2
aI1
asS'giugliano'
p8030
(lp8031
I1
aI0
asS'juan'
p8032
(lp8033
I1
aI0
asS'mistero'
p8034
(lp8035
I0
aI1
asS'questore'
p8036
(lp8037
I0
aI1
asS'unite'
p8038
(lp8039
I1
aI0
asS'giugiaro'
p8040
(lp8041
I0
aI1
asS'romance'
p8042
(lp8043
I1
aI0
asS'oriente'
p8044
(lp8045
I0
aI2
asS'viaggio'
p8046
(lp8047
I4
aI1
asS'rini'
p8048
(lp8049
I0
aI1
asS'sparato'
p8050
(lp8051
I1
aI5
asS'nanomolecole'
p8052
(lp8053
I1
aI0
asS'mancanze'
p8054
(lp8055
I1
aI0
asS'android'
p8056
(lp8057
I2
aI5
asS'trans'
p8058
(lp8059
I0
aI1
asS'secessione'
p8060
(lp8061
I2
aI0
asS'inediti'
p8062
(lp8063
I0
aI1
asS'nokia'
p8064
(lp8065
I0
aI3
asS'plastiche'
p8066
(lp8067
I0
aI2
asS'samantha'
p8068
(lp8069
I0
aI1
asS'editto'
p8070
(lp8071
I1
aI0
asS'ios'
p8072
(lp8073
I2
aI0
asS'daspo'
p8074
(lp8075
I0
aI3
asS'kindle'
p8076
(lp8077
I0
aI1
asS'iago'
p8078
(lp8079
I1
aI0
asS'raddoppiare'
p8080
(lp8081
I1
aI0
asS'editoria'
p8082
(lp8083
I0
aI1
asS'yoga'
p8084
(lp8085
I0
aI1
asS'gestire'
p8086
(lp8087
I1
aI0
asS'automatico'
p8088
(lp8089
I0
aI1
asS'coltivare'
p8090
(lp8091
I0
aI1
asS'domande'
p8092
(lp8093
I1
aI3
asS'dipendenza'
p8094
(lp8095
I0
aI1
asS'rift'
p8096
(lp8097
I1
aI0
asS'culturale'
p8098
(lp8099
I0
aI1
asS'rapina'
p8100
(lp8101
I2
aI2
asS'center'
p8102
(lp8103
I1
aI0
asS'nucleare'
p8104
(lp8105
I2
aI4
asS'viterbo'
p8106
(lp8107
I2
aI0
asS'nucleari'
p8108
(lp8109
I1
aI0
asS'raggiunge'
p8110
(lp8111
I0
aI1
asS'culturali'
p8112
(lp8113
I0
aI1
asS'valerio'
p8114
(lp8115
I1
aI1
asS'offensiva'
p8116
(lp8117
I1
aI0
asS'pacificazione'
p8118
(lp8119
I0
aI1
asS'terze'
p8120
(lp8121
I1
aI0
asS'terza'
p8122
(lp8123
I1
aI0
asS'contribuenti'
p8124
(lp8125
I0
aI1
asS'position'
p8126
(lp8127
I0
aI1
asS'audio'
p8128
(lp8129
I1
aI0
asS'thailandese'
p8130
(lp8131
I1
aI0
asS'droni'
p8132
(lp8133
I0
aI1
asS'razionalizzazione'
p8134
(lp8135
I0
aI1
asS'theron'
p8136
(lp8137
I0
aI1
asS'torrisi'
p8138
(lp8139
I0
aI1
asS'marco'
p8140
(lp8141
I0
aI2
asS'miracoli'
p8142
(lp8143
I1
aI0
asS'sofia'
p8144
(lp8145
I0
aI1
asS'agente'
p8146
(lp8147
I1
aI3
asS'artificieri'
p8148
(lp8149
I0
aI1
asS'momento'
p8150
(lp8151
I4
aI2
asS'paul'
p8152
(lp8153
I6
aI3
asS'tendenza'
p8154
(lp8155
I1
aI2
asS'web'
p8156
(lp8157
I2
aI0
asS'condannato'
p8158
(lp8159
I1
aI0
asS'minorenne'
p8160
(lp8161
I1
aI0
asS'personalit'
p8162
(lp8163
I0
aI1
asS'minorenni'
p8164
(lp8165
I1
aI0
asS'scorza'
p8166
(lp8167
I0
aI1
asS'almeno'
p8168
(lp8169
I2
aI2
asS'point'
p8170
(lp8171
I1
aI0
asS'sky'
p8172
(lp8173
I4
aI0
asS'concessionarie'
p8174
(lp8175
I0
aI1
asS'microsd'
p8176
(lp8177
I1
aI0
asS'goodwood'
p8178
(lp8179
I0
aI1
asS'nati'
p8180
(lp8181
I2
aI0
asS'ceste'
p8182
(lp8183
I0
aI1
asS'crack'
p8184
(lp8185
I0
aI1
asS'dispositivi'
p8186
(lp8187
I1
aI1
asS'smart'
p8188
(lp8189
I0
aI2
asS'dispositivo'
p8190
(lp8191
I0
aI1
asS'parcheggio'
p8192
(lp8193
I0
aI1
asS'match'
p8194
(lp8195
I1
aI3
asS'sbagliato'
p8196
(lp8197
I1
aI0
asS'indipendentismo'
p8198
(lp8199
I1
aI0
asS'sannino'
p8200
(lp8201
I2
aI0
asS'quirra'
p8202
(lp8203
I0
aI1
asS'fate'
p8204
(lp8205
I0
aI1
asS'turistica'
p8206
(lp8207
I1
aI0
asS'titolare'
p8208
(lp8209
I1
aI0
asS'apprezzato'
p8210
(lp8211
I1
aI0
asS'testa'
p8212
(lp8213
I3
aI5
asS'testi'
p8214
(lp8215
I1
aI0
asS'marchi'
p8216
(lp8217
I0
aI1
asS'unirsi'
p8218
(lp8219
I1
aI0
asS'password'
p8220
(lp8221
I2
aI0
asS'cerrato'
p8222
(lp8223
I0
aI1
asS'testo'
p8224
(lp8225
I2
aI2
asS'direttori'
p8226
(lp8227
I0
aI1
asS'sprofondare'
p8228
(lp8229
I0
aI1
asS'stanziati'
p8230
(lp8231
I0
aI5
asS'studi'
p8232
(lp8233
I0
aI5
asS'ostia'
p8234
(lp8235
I1
aI0
asS'garage'
p8236
(lp8237
I4
aI0
asS'armani'
p8238
(lp8239
I7
aI0
asS'saluzzo'
p8240
(lp8241
I0
aI1
asS'hiddleston'
p8242
(lp8243
I9
aI1
asS'manoscritto'
p8244
(lp8245
I0
aI1
asS'paclitaxel'
p8246
(lp8247
I3
aI0
asS'crism'
p8248
(lp8249
I1
aI0
asS'rimossa'
p8250
(lp8251
I0
aI1
asS'azione'
p8252
(lp8253
I0
aI1
asS'crisi'
p8254
(lp8255
I2
aI0
asS'decidiamo'
p8256
(lp8257
I2
aI0
asS'segreto'
p8258
(lp8259
I1
aI2
asS'battaglia'
p8260
(lp8261
I5
aI1
asS'requested'
p8262
(lp8263
I0
aI7
asS'regolamento'
p8264
(lp8265
I1
aI0
asS'wenders'
p8266
(lp8267
I1
aI0
asS'twitter'
p8268
(lp8269
I6
aI7
asS'church'
p8270
(lp8271
I0
aI1
asS'importanti'
p8272
(lp8273
I0
aI1
asS'trapianto'
p8274
(lp8275
I5
aI0
asS'mariella'
p8276
(lp8277
I1
aI0
asS'stagione'
p8278
(lp8279
I4
aI14
asS'maestri'
p8280
(lp8281
I0
aI2
asS'motivo'
p8282
(lp8283
I0
aI1
asS'processionaria'
p8284
(lp8285
I0
aI1
asS'doping'
p8286
(lp8287
I0
aI1
asS'impiccati'
p8288
(lp8289
I2
aI0
asS'we\xe2'
p8290
(lp8291
I1
aI0
asS'famiglie'
p8292
(lp8293
I3
aI0
asS'scia'
p8294
(lp8295
I1
aI0
asS'turkmenistan'
p8296
(lp8297
I0
aI2
asS'famiglia'
p8298
(lp8299
I6
aI1
asS'organizzazione'
p8300
(lp8301
I3
aI0
asS'tmz'
p8302
(lp8303
I1
aI0
asS'fanno'
p8304
(lp8305
I0
aI6
asS'valorizzazione'
p8306
(lp8307
I0
aI1
asS'twerking'
p8308
(lp8309
I0
aI2
asS'omaggio'
p8310
(lp8311
I0
aI1
asS'coluccio'
p8312
(lp8313
I1
aI0
asS'contratto'
p8314
(lp8315
I1
aI5
asS'totti'
p8316
(lp8317
I2
aI1
asS'peculato'
p8318
(lp8319
I0
aI5
asS'parrucchiera'
p8320
(lp8321
I0
aI1
asS'leader'
p8322
(lp8323
I8
aI2
asS'dieta'
p8324
(lp8325
I0
aI1
asS'separati'
p8326
(lp8327
I0
aI1
asS'sparare'
p8328
(lp8329
I0
aI1
asS'evitare'
p8330
(lp8331
I0
aI1
asS'giocando'
p8332
(lp8333
I0
aI1
asS'pioli'
p8334
(lp8335
I0
aI5
asS'ingrosso'
p8336
(lp8337
I1
aI0
asS'visore'
p8338
(lp8339
I0
aI1
asS'mezzogiorno'
p8340
(lp8341
I3
aI0
asS'mito'
p8342
(lp8343
I2
aI0
asS'bisogna'
p8344
(lp8345
I0
aI1
asS'croazia'
p8346
(lp8347
I0
aI1
asS'pasta'
p8348
(lp8349
I0
aI1
asS'vetro'
p8350
(lp8351
I1
aI1
asS'fiumicino'
p8352
(lp8353
I0
aI2
asS'dollfus'
p8354
(lp8355
I1
aI0
asS'itavia'
p8356
(lp8357
I0
aI3
asS'paesi'
p8358
(lp8359
I15
aI2
asS'microfono'
p8360
(lp8361
I1
aI0
asS'elettorale'
p8362
(lp8363
I0
aI4
asS'universale'
p8364
(lp8365
I0
aI1
asS'tiepida'
p8366
(lp8367
I0
aI1
asS'inizio'
p8368
(lp8369
I2
aI1
asS'viviano'
p8370
(lp8371
I2
aI0
asS'tracce'
p8372
(lp8373
I1
aI1
asS'comunit'
p8374
(lp8375
I0
aI2
asS'risolve'
p8376
(lp8377
I0
aI1
asS'ureterale'
p8378
(lp8379
I1
aI0
asS'ander'
p8380
(lp8381
I0
aI1
asS'oroscopo'
p8382
(lp8383
I0
aI2
asS'erede'
p8384
(lp8385
I0
aI1
asS'isis'
p8386
(lp8387
I20
aI1
asS'modo'
p8388
(lp8389
I4
aI2
asS'istantanea'
p8390
(lp8391
I0
aI1
asS'software'
p8392
(lp8393
I6
aI4
asS'artista'
p8394
(lp8395
I1
aI0
asS'stanno'
p8396
(lp8397
I3
aI4
asS'brasile'
p8398
(lp8399
I0
aI2
asS'washington'
p8400
(lp8401
I1
aI0
asS'irriconoscibile'
p8402
(lp8403
I0
aI1
asS'sgarbi'
p8404
(lp8405
I0
aI2
asS'a9'
p8406
(lp8407
I1
aI0
asS'banca'
p8408
(lp8409
I5
aI4
asS'termini'
p8410
(lp8411
I5
aI0
asS'\x95'
p8412
(lp8413
I1
aI0
asS'vongole'
p8414
(lp8415
I0
aI1
asS'lettera'
p8416
(lp8417
I0
aI1
asS"'',"
p8418
(lp8419
I1
aI0
asS'risaputa'
p8420
(lp8421
I0
aI1
asS'songhoy'
p8422
(lp8423
I0
aI1
asS'termine'
p8424
(lp8425
I3
aI2
asS'resiste'
p8426
(lp8427
I0
aI1
asS'penso'
p8428
(lp8429
I2
aI0
asS'padiglione'
p8430
(lp8431
I0
aI6
asS'slot'
p8432
(lp8433
I0
aI1
asS'padiglioni'
p8434
(lp8435
I0
aI1
asS'rosberg'
p8436
(lp8437
I0
aI1
asS'zenfone'
p8438
(lp8439
I0
aI1
asS'spaziale'
p8440
(lp8441
I1
aI1
asS'controllo'
p8442
(lp8443
I0
aI1
asS'trombamicizia'
p8444
(lp8445
I0
aI1
asS'suzuka'
p8446
(lp8447
I1
aI0
asS'miliardari'
p8448
(lp8449
I0
aI1
asS'decreto'
p8450
(lp8451
I6
aI1
asS'realizzato'
p8452
(lp8453
I1
aI0
asS'puntat'
p8454
(lp8455
I0
aI1
asS'genitori'
p8456
(lp8457
I5
aI1
asS'cullinan'
p8458
(lp8459
I0
aI1
asS'ricordo'
p8460
(lp8461
I1
aI0
asS'faranno'
p8462
(lp8463
I0
aI1
asS'frutto'
p8464
(lp8465
I0
aI2
asS'scattato'
p8466
(lp8467
I1
aI1
asS'scattata'
p8468
(lp8469
I1
aI0
asS'potete'
p8470
(lp8471
I0
aI1
asS'scattate'
p8472
(lp8473
I0
aI1
asS'svelare'
p8474
(lp8475
I0
aI1
asS'taglia'
p8476
(lp8477
I1
aI1
asS'ultima'
p8478
(lp8479
I3
aI4
asS'vegetariano'
p8480
(lp8481
I0
aI1
asS'jagger'
p8482
(lp8483
I0
aI2
asS'ultime'
p8484
(lp8485
I3
aI5
asS'veicoli'
p8486
(lp8487
I4
aI1
asS'cantone'
p8488
(lp8489
I0
aI1
asS'ultimi'
p8490
(lp8491
I9
aI1
asS'volumi'
p8492
(lp8493
I0
aI2
asS'grattacielo'
p8494
(lp8495
I0
aI7
asS'taglio'
p8496
(lp8497
I4
aI2
asS'stamani'
p8498
(lp8499
I2
aI0
asS'uccidendolo'
p8500
(lp8501
I0
aI1
asS'islamico'
p8502
(lp8503
I1
aI1
asS'naviga'
p8504
(lp8505
I1
aI0
asS'spagnola'
p8506
(lp8507
I3
aI0
asS'denaro'
p8508
(lp8509
I1
aI1
asS'hepic'
p8510
(lp8511
I0
aI1
asS'bonus'
p8512
(lp8513
I0
aI1
asS'tema'
p8514
(lp8515
I2
aI0
asS'cella'
p8516
(lp8517
I0
aI1
asS'provato'
p8518
(lp8519
I0
aI2
asS'rivoluzione'
p8520
(lp8521
I1
aI0
asS'filetto'
p8522
(lp8523
I3
aI0
asS'temi'
p8524
(lp8525
I0
aI1
asS'riportare'
p8526
(lp8527
I0
aI1
asS'wifi'
p8528
(lp8529
I0
aI3
asS'pil'
p8530
(lp8531
I5
aI0
asS'suprema'
p8532
(lp8533
I0
aI2
asS'contributi'
p8534
(lp8535
I4
aI0
asS'periodo'
p8536
(lp8537
I8
aI2
asS'universal'
p8538
(lp8539
I0
aI1
asS'produzione'
p8540
(lp8541
I4
aI3
asS'referee'
p8542
(lp8543
I0
aI2
asS'nazionali'
p8544
(lp8545
I0
aI1
asS'prevalentemente'
p8546
(lp8547
I1
aI0
asS'paraguay'
p8548
(lp8549
I0
aI1
asS'gastronomiche'
p8550
(lp8551
I0
aI1
asS'merluzzo'
p8552
(lp8553
I0
aI1
asS'shooting'
p8554
(lp8555
I0
aI1
asS'campus'
p8556
(lp8557
I0
aI1
asS'mancini'
p8558
(lp8559
I1
aI2
asS'lucciole'
p8560
(lp8561
I0
aI1
asS'singolo'
p8562
(lp8563
I1
aI0
asS'chiamparino'
p8564
(lp8565
I1
aI1
asS'algeria'
p8566
(lp8567
I0
aI1
asS'formaggio'
p8568
(lp8569
I1
aI1
asS'quindici'
p8570
(lp8571
I0
aI1
asS'strumenti'
p8572
(lp8573
I0
aI1
asS'dzeko'
p8574
(lp8575
I2
aI0
asS'book'
p8576
(lp8577
I0
aI1
asS'guadagna'
p8578
(lp8579
I0
aI3
asS'boom'
p8580
(lp8581
I1
aI0
asS'sick'
p8582
(lp8583
I1
aI0
asS'tenorini'
p8584
(lp8585
I1
aI0
asS'domani'
p8586
(lp8587
I6
aI0
asS'migra'
p8588
(lp8589
I1
aI0
asS'exomars'
p8590
(lp8591
I2
aI0
asS'sbarre'
p8592
(lp8593
I0
aI1
asS'stav'
p8594
(lp8595
I0
aI1
asS'precotti'
p8596
(lp8597
I0
aI1
asS'star'
p8598
(lp8599
I0
aI2
asS'stelle'
p8600
(lp8601
I0
aI1
asS'suicidano'
p8602
(lp8603
I1
aI0
asS'stay'
p8604
(lp8605
I1
aI0
asS'tassi'
p8606
(lp8607
I0
aI2
asS'scivolo'
p8608
(lp8609
I5
aI0
asS'backstage'
p8610
(lp8611
I0
aI1
asS'insulti'
p8612
(lp8613
I1
aI0
asS'additionally'
p8614
(lp8615
I0
aI7
asS'tasso'
p8616
(lp8617
I2
aI5
asS'finanziamento'
p8618
(lp8619
I3
aI0
asS'tassa'
p8620
(lp8621
I2
aI0
asS'transatlantic'
p8622
(lp8623
I0
aI1
asS'tasse'
p8624
(lp8625
I18
aI3
asS'finanziamenti'
p8626
(lp8627
I2
aI0
asS'stai'
p8628
(lp8629
I0
aI1
asS'aziendale'
p8630
(lp8631
I0
aI1
asS'stazione'
p8632
(lp8633
I1
aI1
asS'samsung'
p8634
(lp8635
I2
aI7
asS'ottobre'
p8636
(lp8637
I10
aI1
asS'bce'
p8638
(lp8639
I1
aI0
asS'martin'
p8640
(lp8641
I1
aI0
asS'comunque'
p8642
(lp8643
I0
aI1
asS'stazioni'
p8644
(lp8645
I1
aI0
asS'riferito'
p8646
(lp8647
I1
aI2
asS'polonia'
p8648
(lp8649
I1
aI0
asS'giudici'
p8650
(lp8651
I1
aI0
asS'heidi'
p8652
(lp8653
I0
aI1
asS'fotografia'
p8654
(lp8655
I0
aI1
asS'parole'
p8656
(lp8657
I4
aI4
asS'ricompensa'
p8658
(lp8659
I3
aI0
asS'parola'
p8660
(lp8661
I0
aI4
as.