(dp0
Vmotivazioni
p1
(lp2
I3
aI0
asVmotivazione
p3
(lp4
I6
aI6
asVwoods
p5
(lp6
I0
aI1
asVfrancesco
p7
(lp8
I16
aI7
asVfrancesca
p9
(lp10
I9
aI3
asVgabriella
p11
(lp12
I0
aI5
asVlory
p13
(lp14
I3
aI0
asVvoluto
p15
(lp16
I3
aI8
asVscola
p17
(lp18
I16
aI9
asVzampe
p19
(lp20
I0
aI1
asVmiele
p21
(lp22
I2
aI0
asVfigc
p23
(lp24
I7
aI0
asVrappresentano
p25
(lp26
I2
aI0
asVlumia
p27
(lp28
I0
aI4
asVjihad
p29
(lp30
I0
aI3
asVponzetta
p31
(lp32
I3
aI0
asVviaggiatore
p33
(lp34
I1
aI0
asVtc4
p35
(lp36
I1
aI0
asVerrore
p37
(lp38
I2
aI2
asVerrori
p39
(lp40
I6
aI6
asVundici
p41
(lp42
I0
aI2
asVrimedio
p43
(lp44
I2
aI0
asVhero
p45
(lp46
I6
aI0
asVospite
p47
(lp48
I0
aI2
asVospiti
p49
(lp50
I4
aI0
asVmilitare
p51
(lp52
I0
aI7
asVesposto
p53
(lp54
I4
aI10
asVdovuto
p55
(lp56
I0
aI2
asVscoprire
p57
(lp58
I3
aI6
asVkarim
p59
(lp60
I0
aI12
asVcreazione
p61
(lp62
I4
aI0
asVmarina
p63
(lp64
I8
aI2
asVorenburg
p65
(lp66
I0
aI3
asVbattista
p67
(lp68
I3
aI0
asVneutrini
p69
(lp70
I3
aI0
asVunit
p71
(lp72
I1
aI2
asVcocaina
p73
(lp74
I2
aI0
asVnessun
p75
(lp76
I0
aI3
asVdna
p77
(lp78
I4
aI4
asVpiemonte
p79
(lp80
I9
aI12
asVyourtango
p81
(lp82
I0
aI1
asVindumenti
p83
(lp84
I0
aI3
asVagbogbloshie
p85
(lp86
I10
aI0
asVkidman
p87
(lp88
I3
aI0
asVlegno
p89
(lp90
I0
aI11
asVconsegne
p91
(lp92
I2
aI0
asVsniffando
p93
(lp94
I1
aI0
asVgiunta
p95
(lp96
I2
aI0
asVspinale
p97
(lp98
I0
aI2
asVtemesse
p99
(lp100
I0
aI1
asVungarico
p101
(lp102
I2
aI1
asVmatilde
p103
(lp104
I2
aI4
asVmatilda
p105
(lp106
I0
aI2
asVscommesse
p107
(lp108
I0
aI5
asVriguarda
p109
(lp110
I0
aI15
asVlateranense
p111
(lp112
I0
aI4
asVmeloni
p113
(lp114
I21
aI8
asVpinto
p115
(lp116
I2
aI0
asVfertilizzante
p117
(lp118
I0
aI2
asVsuono
p119
(lp120
I6
aI0
asVsuona
p121
(lp122
I1
aI0
asVtravel
p123
(lp124
I2
aI0
asVhot
p125
(lp126
I0
aI2
asVwinslow
p127
(lp128
I0
aI6
asVronnie
p129
(lp130
I2
aI0
asVtzamberlet
p131
(lp132
I0
aI1
asVsede
p133
(lp134
I9
aI1
asVdiritto
p135
(lp136
I25
aI22
asVdiritti
p137
(lp138
I4
aI12
asVscegliere
p139
(lp140
I0
aI3
asVfinalit
p141
(lp142
I24
aI6
asVtradizionale
p143
(lp144
I2
aI0
asVkralovec
p145
(lp146
I8
aI4
asVtelecom
p147
(lp148
I4
aI0
asVmicroglia
p149
(lp150
I4
aI4
asVsenatore
p151
(lp152
I10
aI0
asVpermetterti
p153
(lp154
I1
aI0
asVvivono
p155
(lp156
I2
aI1
asVvari
p157
(lp158
I1
aI6
asVormai
p159
(lp160
I26
aI16
asVparlamentare
p161
(lp162
I12
aI12
asVparlamentari
p163
(lp164
I12
aI10
asVqualcosa
p165
(lp166
I2
aI9
asVbattiston
p167
(lp168
I3
aI9
asVfim
p169
(lp170
I3
aI0
asVthrones
p171
(lp172
I3
aI0
asVrealizzare
p173
(lp174
I5
aI0
asVenrico
p175
(lp176
I5
aI0
asVtreviso
p177
(lp178
I1
aI1
asVgiusto
p179
(lp180
I9
aI24
asVverifiche
p181
(lp182
I4
aI2
asVvillarceaux
p183
(lp184
I1
aI0
asVtermico
p185
(lp186
I2
aI0
asVpoteva
p187
(lp188
I0
aI8
asVknockout
p189
(lp190
I4
aI6
asVpotevi
p191
(lp192
I0
aI4
asVpotevo
p193
(lp194
I4
aI2
asVrimonta
p195
(lp196
I0
aI1
asVtrending
p197
(lp198
I1
aI1
asVurbano
p199
(lp200
I2
aI4
asVrr
p201
(lp202
I1
aI0
asVrs
p203
(lp204
I4
aI0
asVurbana
p205
(lp206
I7
aI3
asVsms
p207
(lp208
I4
aI2
asVurbane
p209
(lp210
I0
aI3
asVcentauro
p211
(lp212
I5
aI0
asVricavi
p213
(lp214
I8
aI3
asVcentauri
p215
(lp216
I2
aI0
asVminoranza
p217
(lp218
I58
aI40
asVveemente
p219
(lp220
I0
aI1
asVresterebbe
p221
(lp222
I3
aI0
asVverdasco
p223
(lp224
I3
aI0
asVchiaro
p225
(lp226
I4
aI2
asVdischi
p227
(lp228
I0
aI3
asVinformazioni
p229
(lp230
I11
aI6
asVchiara
p231
(lp232
I0
aI2
asVsilicon
p233
(lp234
I0
aI5
asVsconfitti
p235
(lp236
I0
aI1
asVavrebbe
p237
(lp238
I21
aI33
asVrosberg
p239
(lp240
I7
aI7
asVspinning
p241
(lp242
I0
aI3
asVquattrocchi
p243
(lp244
I22
aI22
asVservice
p245
(lp246
I3
aI0
asVlega
p247
(lp248
I2
aI5
asVtardini
p249
(lp250
I0
aI3
asVragioni
p251
(lp252
I2
aI1
asVragione
p253
(lp254
I2
aI5
asVquotidiane
p255
(lp256
I3
aI4
asVcestaro
p257
(lp258
I5
aI0
asVquotidiano
p259
(lp260
I2
aI5
asVsussurra
p261
(lp262
I0
aI8
asVcollaterale
p263
(lp264
I0
aI2
asVatalanta
p265
(lp266
I4
aI8
asVresponsabilit
p267
(lp268
I16
aI7
asVtrek
p269
(lp270
I1
aI0
asVmercato
p271
(lp272
I45
aI30
asVmercati
p273
(lp274
I3
aI0
asVproject
p275
(lp276
I0
aI4
asVritrovati
p277
(lp278
I0
aI1
asVapre
p279
(lp280
I8
aI6
asVetihad
p281
(lp282
I3
aI0
asVboston
p283
(lp284
I0
aI19
asVzecca
p285
(lp286
I13
aI5
asVconcordia
p287
(lp288
I3
aI13
asVfasana
p289
(lp290
I3
aI0
asVvicinanza
p291
(lp292
I1
aI0
asVvicinanze
p293
(lp294
I1
aI2
asVvietro
p295
(lp296
I10
aI28
asVpianeti
p297
(lp298
I0
aI7
asVimmobiliare
p299
(lp300
I6
aI3
asVtradire
p301
(lp302
I6
aI1
asVsalvatore
p303
(lp304
I40
aI39
asVobject
p305
(lp306
I2
aI4
asVmacbook
p307
(lp308
I6
aI4
asVmajo
p309
(lp310
I5
aI0
asVantitrust
p311
(lp312
I33
aI42
asVepisodi
p313
(lp314
I0
aI7
asVtecn
p315
(lp316
I0
aI4
asVmarvel
p317
(lp318
I2
aI3
asVvicini
p319
(lp320
I1
aI6
asVvicina
p321
(lp322
I1
aI1
asVistruttore
p323
(lp324
I0
aI2
asVgiachetti
p325
(lp326
I5
aI0
asVsupersport
p327
(lp328
I0
aI5
asVrihanna
p329
(lp330
I9
aI2
asVreagendo
p331
(lp332
I1
aI0
asVrice
p333
(lp334
I3
aI0
asVmaggiormente
p335
(lp336
I2
aI0
asVseminarista
p337
(lp338
I10
aI6
asVviolaceo
p339
(lp340
I1
aI0
asVpotremo
p341
(lp342
I0
aI2
asVperizoma
p343
(lp344
I1
aI0
asVsituazione
p345
(lp346
I18
aI12
asVsituazioni
p347
(lp348
I0
aI4
asVtolleranza
p349
(lp350
I2
aI0
asVvogliate
p351
(lp352
I2
aI1
asVtraversa
p353
(lp354
I3
aI1
asVguerra
p355
(lp356
I38
aI17
asVtomassini
p357
(lp358
I3
aI0
asVragazzino
p359
(lp360
I11
aI0
asVstampa
p361
(lp362
I38
aI31
asVstampe
p363
(lp364
I0
aI2
asVxvi
p365
(lp366
I0
aI2
asVdichiarazione
p367
(lp368
I91
aI80
asValfons
p369
(lp370
I3
aI0
asVsedano
p371
(lp372
I0
aI3
asVnatura
p373
(lp374
I4
aI11
asVnature
p375
(lp376
I3
aI0
asVscudetto
p377
(lp378
I2
aI2
asVrappresenta
p379
(lp380
I3
aI9
asVsostenibilit
p381
(lp382
I2
aI1
asVflessibilit
p383
(lp384
I0
aI4
asVmet
p385
(lp386
I0
aI2
asVliberatoria
p387
(lp388
I0
aI3
asVsignificati
p389
(lp390
I1
aI4
asVsalario
p391
(lp392
I14
aI0
asVseparazione
p393
(lp394
I0
aI4
asVdowsett
p395
(lp396
I0
aI2
asVallargano
p397
(lp398
I3
aI0
asVsecolo
p399
(lp400
I5
aI15
asVstadium
p401
(lp402
I19
aI18
asVrivalutazioni
p403
(lp404
I2
aI0
asVpeschereccio
p405
(lp406
I2
aI0
asVpro
p407
(lp408
I18
aI0
asVtentazione
p409
(lp410
I1
aI8
asVdott
p411
(lp412
I0
aI3
asVobesi
p413
(lp414
I0
aI4
asVspia
p415
(lp416
I0
aI1
asVchili
p417
(lp418
I2
aI3
asVtransfobia
p419
(lp420
I1
aI1
asVant
p421
(lp422
I6
aI0
asVsanitario
p423
(lp424
I2
aI0
asVavrei
p425
(lp426
I3
aI3
asVsanitarie
p427
(lp428
I1
aI0
asVlavorano
p429
(lp430
I0
aI2
asVmadonna
p431
(lp432
I0
aI12
asVprincipali
p433
(lp434
I2
aI0
asVprovinciali
p435
(lp436
I2
aI0
asVprincipale
p437
(lp438
I0
aI2
asVsonzogni
p439
(lp440
I0
aI3
asVsconti
p441
(lp442
I1
aI0
asVmemoria
p443
(lp444
I5
aI4
asVconsente
p445
(lp446
I6
aI4
asVladri
p447
(lp448
I2
aI0
asVtopi
p449
(lp450
I7
aI22
asVresta
p451
(lp452
I3
aI7
asVdemagogia
p453
(lp454
I4
aI0
asVelezioni
p455
(lp456
I9
aI3
asVandoer
p457
(lp458
I0
aI3
asVquantitativo
p459
(lp460
I2
aI0
asVgiudicare
p461
(lp462
I4
aI4
asVquantitative
p463
(lp464
I15
aI14
asVsvelato
p465
(lp466
I1
aI0
asVcapitol
p467
(lp468
I3
aI0
asVarrostito
p469
(lp470
I0
aI3
asVsvelata
p471
(lp472
I5
aI4
asVsassari
p473
(lp474
I0
aI5
asVtiscali
p475
(lp476
I0
aI2
asVtrono
p477
(lp478
I33
aI0
asVterrazza
p479
(lp480
I1
aI0
asVfattori
p481
(lp482
I3
aI3
asVsanit
p483
(lp484
I0
aI7
asVreplace
p485
(lp486
I0
aI1
asVistat
p487
(lp488
I8
aI0
asVspecie
p489
(lp490
I3
aI1
asVcolpito
p491
(lp492
I3
aI0
asVbriatore
p493
(lp494
I2
aI0
asVsebastian
p495
(lp496
I2
aI0
asVarbitro
p497
(lp498
I26
aI23
asVraimundo
p499
(lp500
I10
aI0
asVpeople
p501
(lp502
I10
aI6
asVaziende
p503
(lp504
I17
aI13
asVrighe
p505
(lp506
I3
aI0
asVorlandina
p507
(lp508
I0
aI2
asVazienda
p509
(lp510
I52
aI49
asVhemsworth
p511
(lp512
I3
aI0
asVmoncestino
p513
(lp514
I2
aI0
asVvincolate
p515
(lp516
I2
aI0
asVristretto
p517
(lp518
I0
aI2
asVlibica
p519
(lp520
I0
aI2
asVrampante
p521
(lp522
I1
aI0
asVmalpensa
p523
(lp524
I0
aI4
asVdemolire
p525
(lp526
I2
aI0
asVdollari
p527
(lp528
I41
aI20
asVdollaro
p529
(lp530
I5
aI0
asVemilia
p531
(lp532
I2
aI5
asVginevra
p533
(lp534
I4
aI0
asVumana
p535
(lp536
I0
aI1
asVmarshall
p537
(lp538
I20
aI0
asVumano
p539
(lp540
I11
aI8
asVumani
p541
(lp542
I4
aI11
asVcontusioni
p543
(lp544
I4
aI0
asVredditi
p545
(lp546
I47
aI49
asVfiume
p547
(lp548
I5
aI6
asVrisponde
p549
(lp550
I32
aI28
asVfiumi
p551
(lp552
I3
aI0
asVwordpress
p553
(lp554
I2
aI0
asVhappy
p555
(lp556
I0
aI4
asVtalenti
p557
(lp558
I4
aI3
asVfacchinetti
p559
(lp560
I7
aI10
asVtalento
p561
(lp562
I1
aI2
asVspunta
p563
(lp564
I0
aI1
asVverde
p565
(lp566
I5
aI14
asVonlus
p567
(lp568
I0
aI2
asVverdi
p569
(lp570
I3
aI2
asVrivestimento
p571
(lp572
I1
aI0
asVpiazzola
p573
(lp574
I0
aI2
asVpolso
p575
(lp576
I2
aI0
asVpeso
p577
(lp578
I12
aI17
asVcalciomercato
p579
(lp580
I0
aI2
asVscritta
p581
(lp582
I2
aI4
asVpotuto
p583
(lp584
I2
aI3
asVscritto
p585
(lp586
I46
aI22
asVmelanoma
p587
(lp588
I6
aI0
asVstfanini
p589
(lp590
I6
aI0
asVpassaggi
p591
(lp592
I12
aI32
asVramadi
p593
(lp594
I9
aI0
asVteatr
p595
(lp596
I0
aI2
asVrichiamo
p597
(lp598
I13
aI21
asValitalia
p599
(lp600
I3
aI3
asVsbaglia
p601
(lp602
I4
aI1
asVpalma
p603
(lp604
I0
aI28
asVerba
p605
(lp606
I5
aI13
asVchiuso
p607
(lp608
I0
aI4
asVsociet
p609
(lp610
I91
aI54
asVzamparini
p611
(lp612
I6
aI7
asVfinanziatori
p613
(lp614
I0
aI6
asVblocca
p615
(lp616
I4
aI0
asVepis
p617
(lp618
I0
aI7
asVstupito
p619
(lp620
I0
aI1
asVraggi
p621
(lp622
I57
aI46
asVper
p623
(lp624
I62
aI65
asVrispettare
p625
(lp626
I1
aI1
asVcorpo
p627
(lp628
I59
aI51
asVurinare
p629
(lp630
I0
aI1
asVveterani
p631
(lp632
I1
aI0
asVliceo
p633
(lp634
I6
aI7
asVmartinoni
p635
(lp636
I5
aI0
asVpalabigi
p637
(lp638
I4
aI0
asVrogoredo
p639
(lp640
I0
aI2
asVnoleggiato
p641
(lp642
I2
aI0
asVpugno
p643
(lp644
I0
aI8
asVvotare
p645
(lp646
I16
aI0
asVpugni
p647
(lp648
I4
aI2
asVminuti
p649
(lp650
I0
aI1
asVminuto
p651
(lp652
I3
aI3
asVreschigna
p653
(lp654
I3
aI0
asVpogba
p655
(lp656
I7
aI4
asVveterinari
p657
(lp658
I1
aI1
asVdifendere
p659
(lp660
I2
aI0
asVteam
p661
(lp662
I2
aI12
asVmanconi
p663
(lp664
I0
aI2
asVguardando
p665
(lp666
I3
aI0
asVtedesca
p667
(lp668
I6
aI3
asVmonferrina
p669
(lp670
I2
aI0
asVtouria
p671
(lp672
I28
aI24
asVpenale
p673
(lp674
I16
aI4
asVcolomba
p675
(lp676
I4
aI0
asVvenga
p677
(lp678
I0
aI1
asVprevisto
p679
(lp680
I3
aI3
asVcassa
p681
(lp682
I3
aI0
asVgiambattista
p683
(lp684
I0
aI25
asVsebbene
p685
(lp686
I1
aI0
asVtocchi
p687
(lp688
I1
aI0
asVjuventino
p689
(lp690
I2
aI2
asVolandese
p691
(lp692
I0
aI11
asVmarrone
p693
(lp694
I3
aI0
asVristoro
p695
(lp696
I0
aI2
asVfalcao
p697
(lp698
I4
aI10
asVrisultati
p699
(lp700
I63
aI55
asVstudies
p701
(lp702
I1
aI4
asVrisultato
p703
(lp704
I41
aI89
asVsanta
p705
(lp706
I8
aI0
asVtidal
p707
(lp708
I6
aI0
asVguerrina
p709
(lp710
I0
aI6
asVucits
p711
(lp712
I3
aI0
asVpositivo
p713
(lp714
I3
aI4
asVworking
p715
(lp716
I3
aI1
asVpositiva
p717
(lp718
I4
aI0
asVsorpasso
p719
(lp720
I14
aI35
asVridere
p721
(lp722
I8
aI4
asVoregon
p723
(lp724
I2
aI2
asVdemocrazia
p725
(lp726
I14
aI26
asVintesa
p727
(lp728
I0
aI4
asVeradicazioni
p729
(lp730
I3
aI0
asVscholes
p731
(lp732
I6
aI2
asVeradicazione
p733
(lp734
I4
aI2
asVvalutare
p735
(lp736
I5
aI0
asVpriva
p737
(lp738
I2
aI0
asVvalutari
p739
(lp740
I1
aI0
asVvisitato
p741
(lp742
I1
aI1
asVvecchiaia
p743
(lp744
I4
aI0
asVruspe
p745
(lp746
I4
aI2
asVlucento
p747
(lp748
I2
aI2
asVprofessionismo
p749
(lp750
I2
aI0
asVs6
p751
(lp752
I22
aI0
asVindagine
p753
(lp754
I0
aI7
asVmaialetto
p755
(lp756
I0
aI3
asVbramieri
p757
(lp758
I4
aI0
asVdovr
p759
(lp760
I0
aI5
asVspot
p761
(lp762
I11
aI23
asVlatte
p763
(lp764
I0
aI3
asVrigore
p765
(lp766
I54
aI80
asVdato
p767
(lp768
I10
aI20
asVdati
p769
(lp770
I129
aI78
asVschermata
p771
(lp772
I1
aI0
asVdata
p773
(lp774
I21
aI21
asVparpiglia
p775
(lp776
I3
aI0
asVvenirti
p777
(lp778
I0
aI2
asVstress
p779
(lp780
I5
aI3
asVconvoglio
p781
(lp782
I6
aI5
asVchirurgia
p783
(lp784
I9
aI3
asVrisparmio
p785
(lp786
I12
aI4
asVst
p787
(lp788
I30
aI21
asVstresa
p789
(lp790
I0
aI5
asVelfyn
p791
(lp792
I4
aI0
asVlondra
p793
(lp794
I15
aI18
asVfertilizzanti
p795
(lp796
I0
aI2
asVprincipio
p797
(lp798
I2
aI3
asVpiede
p799
(lp800
I7
aI0
asVsquadre
p801
(lp802
I2
aI3
asVrosanero
p803
(lp804
I1
aI0
asVsquadra
p805
(lp806
I82
aI118
asVservono
p807
(lp808
I1
aI1
asVtoro
p809
(lp810
I2
aI6
asVtori
p811
(lp812
I0
aI3
asVroccaforte
p813
(lp814
I1
aI0
asVvisitatori
p815
(lp816
I5
aI2
asVallena
p817
(lp818
I0
aI6
asVbocchi
p819
(lp820
I0
aI3
asVinfine
p821
(lp822
I0
aI2
asVudinese
p823
(lp824
I0
aI7
asVexor
p825
(lp826
I6
aI4
asVgroningen
p827
(lp828
I6
aI3
asVgemelli
p829
(lp830
I6
aI6
asVindovinello
p831
(lp832
I0
aI4
asVesame
p833
(lp834
I2
aI0
asVtirati
p835
(lp836
I2
aI0
asVcoinquilini
p837
(lp838
I4
aI0
asVirina
p839
(lp840
I0
aI2
asVcoinquilino
p841
(lp842
I8
aI0
asVstranieri
p843
(lp844
I15
aI4
asVsponsor
p845
(lp846
I0
aI4
asVproduzione
p847
(lp848
I5
aI10
asVstraniere
p849
(lp850
I0
aI1
asVstraniera
p851
(lp852
I2
aI0
asVblu
p853
(lp854
I4
aI8
asVbundesliga
p855
(lp856
I6
aI3
asVterroristi
p857
(lp858
I0
aI3
asVassessore
p859
(lp860
I3
aI2
asVinternet
p861
(lp862
I9
aI4
asVsuore
p863
(lp864
I3
aI8
asVvegetariani
p865
(lp866
I0
aI1
asVmaltratta
p867
(lp868
I0
aI3
asVsettimana
p869
(lp870
I2
aI4
asVvegetariana
p871
(lp872
I0
aI1
asVvantaggi
p873
(lp874
I1
aI3
asVribelli
p875
(lp876
I2
aI0
asVdraghi
p877
(lp878
I161
aI93
asValcoltest
p879
(lp880
I3
aI0
asVsuperiore
p881
(lp882
I8
aI5
asVvorresti
p883
(lp884
I0
aI1
asVtraining
p885
(lp886
I0
aI1
asVmengoni
p887
(lp888
I0
aI2
asVpunk
p889
(lp890
I4
aI0
asVpiani
p891
(lp892
I3
aI0
asVdispiace
p893
(lp894
I0
aI4
asVesempio
p895
(lp896
I8
aI0
asVvoto
p897
(lp898
I8
aI8
asVvoti
p899
(lp900
I8
aI7
asVopen
p901
(lp902
I7
aI0
asVcapoluogo
p903
(lp904
I4
aI0
asVonu
p905
(lp906
I4
aI7
asV56mila
p907
(lp908
I0
aI2
asVcity
p909
(lp910
I15
aI8
asVcitt
p911
(lp912
I83
aI101
asVmodificata
p913
(lp914
I2
aI0
asVindicato
p915
(lp916
I0
aI3
asVvittimista
p917
(lp918
I7
aI13
asVsospesi
p919
(lp920
I0
aI4
asVsospeso
p921
(lp922
I2
aI2
asVqualora
p923
(lp924
I0
aI3
asVlucent
p925
(lp926
I41
aI15
asVsvolgere
p927
(lp928
I4
aI0
asVriflessione
p929
(lp930
I3
aI0
asVfolle
p931
(lp932
I5
aI0
asVfuturo
p933
(lp934
I7
aI6
asVrussia
p935
(lp936
I3
aI9
asVsan
p937
(lp938
I25
aI21
asVburundi
p939
(lp940
I4
aI0
asVsap
p941
(lp942
I0
aI2
asVzoo
p943
(lp944
I1
aI7
asVmasse
p945
(lp946
I2
aI0
asVgennaio
p947
(lp948
I2
aI0
asVnota
p949
(lp950
I0
aI10
asVnoto
p951
(lp952
I0
aI2
asVpotenziale
p953
(lp954
I4
aI0
asVtorinese
p955
(lp956
I9
aI8
asVdetenuti
p957
(lp958
I43
aI0
asVcontrollata
p959
(lp960
I5
aI0
asVcontrollati
p961
(lp962
I2
aI0
asVsala
p963
(lp964
I23
aI9
asVvasta
p965
(lp966
I0
aI1
asVsadem
p967
(lp968
I0
aI9
asVpiattaforme
p969
(lp970
I0
aI4
asVuricchio
p971
(lp972
I5
aI0
asVgrillino
p973
(lp974
I0
aI2
asVbeckham
p975
(lp976
I0
aI2
asVarrivati
p977
(lp978
I0
aI7
asVvescovo
p979
(lp980
I10
aI14
asVimportanza
p981
(lp982
I2
aI0
asVsottoposto
p983
(lp984
I0
aI1
asVslot
p985
(lp986
I0
aI3
asVvetta
p987
(lp988
I5
aI1
asVquerela
p989
(lp990
I0
aI3
asVfibra
p991
(lp992
I4
aI0
asVmaggioranza
p993
(lp994
I0
aI5
asVfornero
p995
(lp996
I3
aI3
asVkellmer
p997
(lp998
I0
aI3
asVambientale
p999
(lp1000
I0
aI5
asVpressi
p1001
(lp1002
I0
aI1
asVroba
p1003
(lp1004
I2
aI0
asVgenere
p1005
(lp1006
I19
aI60
asVplatti
p1007
(lp1008
I20
aI8
asVbellocco
p1009
(lp1010
I4
aI0
asVlaguna
p1011
(lp1012
I0
aI3
asVlibano
p1013
(lp1014
I2
aI0
asVprime
p1015
(lp1016
I1
aI3
asVbomba
p1017
(lp1018
I2
aI2
asVprimi
p1019
(lp1020
I34
aI34
asVroger
p1021
(lp1022
I0
aI3
asVvarna
p1023
(lp1024
I2
aI0
asVvision
p1025
(lp1026
I0
aI3
asVborriello
p1027
(lp1028
I12
aI4
asVpubblica
p1029
(lp1030
I10
aI3
asVpubblici
p1031
(lp1032
I9
aI5
asVpubblico
p1033
(lp1034
I24
aI22
asVrispettata
p1035
(lp1036
I2
aI2
asVmolecolare
p1037
(lp1038
I3
aI0
asVweibo
p1039
(lp1040
I1
aI0
asVlegale
p1041
(lp1042
I12
aI10
asVsingola
p1043
(lp1044
I1
aI0
asVjobs
p1045
(lp1046
I2
aI0
asVuk
p1047
(lp1048
I2
aI0
asVpunti
p1049
(lp1050
I91
aI91
asVriabilitazione
p1051
(lp1052
I12
aI0
asVcentrodestra
p1053
(lp1054
I0
aI5
asVmaleducazione
p1055
(lp1056
I0
aI2
asVpunto
p1057
(lp1058
I20
aI41
asVspara
p1059
(lp1060
I0
aI2
asVvotata
p1061
(lp1062
I4
aI1
asVuniversitario
p1063
(lp1064
I4
aI3
asVuniversitaria
p1065
(lp1066
I4
aI2
asVvotato
p1067
(lp1068
I1
aI7
asVconcentrati
p1069
(lp1070
I2
aI0
asVmans
p1071
(lp1072
I0
aI10
asVmaggior
p1073
(lp1074
I15
aI12
asVpedoni
p1075
(lp1076
I3
aI0
asVbossola
p1077
(lp1078
I4
aI4
asVsindacato
p1079
(lp1080
I0
aI2
asVportavoce
p1081
(lp1082
I3
aI0
asVmano
p1083
(lp1084
I11
aI17
asVcarvajal
p1085
(lp1086
I24
aI12
asVmarchionne
p1087
(lp1088
I9
aI25
asVdroga
p1089
(lp1090
I0
aI2
asVminimo
p1091
(lp1092
I4
aI0
asVsentire
p1093
(lp1094
I0
aI4
asVmostrarsi
p1095
(lp1096
I2
aI0
asVlidia
p1097
(lp1098
I2
aI0
asVairlines
p1099
(lp1100
I0
aI2
asVdifficolt
p1101
(lp1102
I4
aI4
asVverificarlo
p1103
(lp1104
I0
aI1
asVphotos
p1105
(lp1106
I1
aI2
asVhashtag
p1107
(lp1108
I3
aI6
asVbudelli
p1109
(lp1110
I4
aI8
asVvigilata
p1111
(lp1112
I0
aI1
asVvecchi
p1113
(lp1114
I2
aI0
asVbufala
p1115
(lp1116
I2
aI0
asVargomenti
p1117
(lp1118
I12
aI12
asVpacers
p1119
(lp1120
I6
aI2
asVarcivescovo
p1121
(lp1122
I10
aI0
asVcarrara
p1123
(lp1124
I16
aI0
asVpartenza
p1125
(lp1126
I0
aI3
asVfama
p1127
(lp1128
I0
aI3
asVviolazione
p1129
(lp1130
I0
aI2
asVpoliziotto
p1131
(lp1132
I195
aI202
asVemulsione
p1133
(lp1134
I0
aI2
asVannunciare
p1135
(lp1136
I2
aI4
asVpioggia
p1137
(lp1138
I0
aI6
asVincontri
p1139
(lp1140
I2
aI0
asVincontro
p1141
(lp1142
I11
aI4
asVsterminio
p1143
(lp1144
I3
aI0
asVvergata
p1145
(lp1146
I2
aI8
asVselezionato
p1147
(lp1148
I0
aI1
asVesperti
p1149
(lp1150
I8
aI0
asVrimossi
p1151
(lp1152
I2
aI1
asVsingapore
p1153
(lp1154
I37
aI25
asVwired
p1155
(lp1156
I1
aI2
asVcosti
p1157
(lp1158
I6
aI0
asVcosto
p1159
(lp1160
I2
aI0
asVgenio
p1161
(lp1162
I0
aI5
asVufficiale
p1163
(lp1164
I10
aI7
asVpersino
p1165
(lp1166
I0
aI2
asVrobino
p1167
(lp1168
I0
aI2
asVprocesso
p1169
(lp1170
I5
aI7
asVpersonale
p1171
(lp1172
I4
aI5
asVpartnerre
p1173
(lp1174
I0
aI3
asVvisitare
p1175
(lp1176
I1
aI0
asVresa
p1177
(lp1178
I2
aI0
asVperdere
p1179
(lp1180
I8
aI17
asVrover
p1181
(lp1182
I2
aI0
asVtransalpina
p1183
(lp1184
I2
aI0
asVcategoria
p1185
(lp1186
I6
aI0
asVcategorie
p1187
(lp1188
I2
aI0
asVdark
p1189
(lp1190
I3
aI0
asVregio
p1191
(lp1192
I0
aI4
asVunesco
p1193
(lp1194
I4
aI8
asVintegrale
p1195
(lp1196
I5
aI0
asVintel
p1197
(lp1198
I5
aI0
asVpaita
p1199
(lp1200
I0
aI6
asVintegrali
p1201
(lp1202
I7
aI0
asVstangata
p1203
(lp1204
I4
aI0
asVwerner
p1205
(lp1206
I2
aI0
asVsuperiority
p1207
(lp1208
I0
aI1
asVultimissimi
p1209
(lp1210
I1
aI1
asVinter
p1211
(lp1212
I30
aI29
asVscholzen
p1213
(lp1214
I6
aI6
asVsupplementare
p1215
(lp1216
I0
aI1
asVscarico
p1217
(lp1218
I0
aI1
asVcristina
p1219
(lp1220
I3
aI0
asVcittadino
p1221
(lp1222
I1
aI2
asVwiggins
p1223
(lp1224
I0
aI1
asVtraducono
p1225
(lp1226
I0
aI1
asVcittadini
p1227
(lp1228
I0
aI23
asVpatrimonio
p1229
(lp1230
I9
aI0
asVvicenza
p1231
(lp1232
I0
aI5
asVpallavoliste
p1233
(lp1234
I8
aI16
asVcannabis
p1235
(lp1236
I0
aI6
asVdimensione
p1237
(lp1238
I3
aI0
asVsituato
p1239
(lp1240
I0
aI1
asVddl
p1241
(lp1242
I0
aI4
asVdimensioni
p1243
(lp1244
I0
aI2
asVminaccia
p1245
(lp1246
I2
aI0
asVvivian
p1247
(lp1248
I6
aI3
asVmigliorare
p1249
(lp1250
I5
aI0
asVmarchio
p1251
(lp1252
I0
aI7
asVlocazione
p1253
(lp1254
I4
aI0
asVfestini
p1255
(lp1256
I6
aI3
asVpelicans
p1257
(lp1258
I3
aI1
asVmeal
p1259
(lp1260
I0
aI3
asVluigi
p1261
(lp1262
I10
aI8
asVpotranno
p1263
(lp1264
I5
aI2
asVvelivoli
p1265
(lp1266
I0
aI2
asVvelivolo
p1267
(lp1268
I6
aI2
asVrossa
p1269
(lp1270
I1
aI14
asVrosso
p1271
(lp1272
I18
aI3
asVrossi
p1273
(lp1274
I5
aI16
asVvedrai
p1275
(lp1276
I1
aI0
asVraimondo
p1277
(lp1278
I5
aI5
asVmatrimonio
p1279
(lp1280
I2
aI0
asVitalia
p1281
(lp1282
I184
aI206
asVwitt
p1283
(lp1284
I11
aI6
asVcompleta
p1285
(lp1286
I0
aI2
asVbotta
p1287
(lp1288
I0
aI5
asVyaya
p1289
(lp1290
I3
aI0
asVcastello
p1291
(lp1292
I4
aI0
asVpareggio
p1293
(lp1294
I0
aI3
asVrage
p1295
(lp1296
I7
aI0
asVmonopoli
p1297
(lp1298
I2
aI0
asVnasce
p1299
(lp1300
I2
aI3
asVswaggy
p1301
(lp1302
I2
aI0
asVrilanciare
p1303
(lp1304
I4
aI0
asVdemenza
p1305
(lp1306
I4
aI18
asVvorr
p1307
(lp1308
I2
aI1
asVuil
p1309
(lp1310
I0
aI4
asVpreparazione
p1311
(lp1312
I2
aI3
asVdimostrarlo
p1313
(lp1314
I0
aI3
asVpadelli
p1315
(lp1316
I0
aI4
asVpulita
p1317
(lp1318
I2
aI0
asVchiavetta
p1319
(lp1320
I6
aI0
asVfederale
p1321
(lp1322
I5
aI0
asVasiatici
p1323
(lp1324
I0
aI3
asVtornata
p1325
(lp1326
I1
aI2
asVtornato
p1327
(lp1328
I0
aI9
asVavellino
p1329
(lp1330
I0
aI3
asVtraiano
p1331
(lp1332
I0
aI2
asVterra
p1333
(lp1334
I12
aI4
asVrealizzata
p1335
(lp1336
I3
aI0
asVretrocessione
p1337
(lp1338
I1
aI2
asVrealizzato
p1339
(lp1340
I2
aI0
asVcpl
p1341
(lp1342
I0
aI16
asVomnibus
p1343
(lp1344
I0
aI1
asVadam
p1345
(lp1346
I3
aI7
asVinfluenza
p1347
(lp1348
I5
aI7
asVsci
p1349
(lp1350
I2
aI0
asVferreira
p1351
(lp1352
I28
aI4
asVsorridente
p1353
(lp1354
I0
aI1
asVasteroide
p1355
(lp1356
I2
aI0
asVrialzo
p1357
(lp1358
I6
aI0
asVtv
p1359
(lp1360
I48
aI20
asVchampions
p1361
(lp1362
I117
aI99
asVrilassamento
p1363
(lp1364
I0
aI2
asVnord
p1365
(lp1366
I4
aI7
asVtf
p1367
(lp1368
I0
aI1
asVtb
p1369
(lp1370
I1
aI0
asVghana
p1371
(lp1372
I8
aI0
asVamarti
p1373
(lp1374
I3
aI0
asVstrani
p1375
(lp1376
I0
aI1
asVstrano
p1377
(lp1378
I0
aI2
asVelena
p1379
(lp1380
I8
aI6
asVstrana
p1381
(lp1382
I0
aI2
asVzerocalcare
p1383
(lp1384
I0
aI2
asVstrane
p1385
(lp1386
I1
aI0
asVmessico
p1387
(lp1388
I0
aI4
asVlarga
p1389
(lp1390
I4
aI0
asVharry
p1391
(lp1392
I0
aI4
asVsano
p1393
(lp1394
I0
aI6
asVlargo
p1395
(lp1396
I2
aI7
asVstanziali
p1397
(lp1398
I1
aI0
asVsapienza
p1399
(lp1400
I0
aI4
asVcasi
p1401
(lp1402
I3
aI8
asVmaggio
p1403
(lp1404
I46
aI38
asVomniauto
p1405
(lp1406
I2
aI0
asVforestale
p1407
(lp1408
I8
aI4
asVvillanova
p1409
(lp1410
I0
aI6
asVstudentessa
p1411
(lp1412
I1
aI2
asVstudentesse
p1413
(lp1414
I2
aI0
asVockels
p1415
(lp1416
I0
aI2
asVruolo
p1417
(lp1418
I6
aI7
asVsuperficie
p1419
(lp1420
I9
aI2
asVfiorentina
p1421
(lp1422
I22
aI51
asVrinvio
p1423
(lp1424
I3
aI4
asVuberpop
p1425
(lp1426
I4
aI0
asVturbative
p1427
(lp1428
I0
aI1
asVsalita
p1429
(lp1430
I2
aI0
asVsocial
p1431
(lp1432
I48
aI43
asVaction
p1433
(lp1434
I0
aI3
asVperse
p1435
(lp1436
I5
aI15
asVsaliti
p1437
(lp1438
I1
aI0
asVischia
p1439
(lp1440
I2
aI5
asVipotesi
p1441
(lp1442
I19
aI28
asVvie
p1443
(lp1444
I2
aI0
asVvii
p1445
(lp1446
I20
aI33
asVvin
p1447
(lp1448
I0
aI6
asVtiziano
p1449
(lp1450
I1
aI4
asVyoung
p1451
(lp1452
I8
aI0
asVcorti
p1453
(lp1454
I5
aI0
asVvip
p1455
(lp1456
I3
aI3
asVcorte
p1457
(lp1458
I8
aI17
asVlettore
p1459
(lp1460
I13
aI2
asVpediatra
p1461
(lp1462
I4
aI0
asVspettatori
p1463
(lp1464
I9
aI10
asVpenitenziaria
p1465
(lp1466
I2
aI0
asVtradimento
p1467
(lp1468
I5
aI0
asVlettori
p1469
(lp1470
I6
aI0
asVturisti
p1471
(lp1472
I4
aI0
asVvideoclip
p1473
(lp1474
I0
aI1
asVtradita
p1475
(lp1476
I2
aI0
asVtradito
p1477
(lp1478
I12
aI3
asVdelrio
p1479
(lp1480
I3
aI0
asVsociale
p1481
(lp1482
I6
aI14
asVfacelift
p1483
(lp1484
I0
aI6
asVsociali
p1485
(lp1486
I6
aI3
asVsalto
p1487
(lp1488
I0
aI2
asVboschi
p1489
(lp1490
I8
aI6
asVponte
p1491
(lp1492
I2
aI3
asVrodriguez
p1493
(lp1494
I6
aI0
asVallegri
p1495
(lp1496
I89
aI92
asVregista
p1497
(lp1498
I3
aI0
asVsensi
p1499
(lp1500
I2
aI1
asVsenso
p1501
(lp1502
I12
aI9
asVviano
p1503
(lp1504
I4
aI0
asVjuve
p1505
(lp1506
I152
aI140
asVscontri
p1507
(lp1508
I0
aI6
asVviventi
p1509
(lp1510
I1
aI3
asVaosta
p1511
(lp1512
I3
aI7
asVritardo
p1513
(lp1514
I4
aI8
asVtrattamento
p1515
(lp1516
I0
aI1
asVturbante
p1517
(lp1518
I2
aI0
asVplans
p1519
(lp1520
I0
aI2
asVvariano
p1521
(lp1522
I0
aI1
asVvalenza
p1523
(lp1524
I1
aI1
asVvestager
p1525
(lp1526
I13
aI5
asVaggiunto
p1527
(lp1528
I0
aI9
asVcliccare
p1529
(lp1530
I2
aI4
asVbirmania
p1531
(lp1532
I2
aI2
asVtotalmente
p1533
(lp1534
I2
aI0
asVbocca
p1535
(lp1536
I4
aI4
asVpane
p1537
(lp1538
I2
aI2
asVwoolf
p1539
(lp1540
I1
aI0
asVwrc
p1541
(lp1542
I3
aI0
asVpronta
p1543
(lp1544
I4
aI2
asVpronto
p1545
(lp1546
I1
aI0
asVduomo
p1547
(lp1548
I14
aI6
asVpronti
p1549
(lp1550
I2
aI5
asVprotezione
p1551
(lp1552
I4
aI7
asVeducazione
p1553
(lp1554
I4
aI4
asVfatica
p1555
(lp1556
I8
aI6
asVriportato
p1557
(lp1558
I1
aI1
asVcomune
p1559
(lp1560
I32
aI13
asVvigilantes
p1561
(lp1562
I0
aI2
asVramazzotti
p1563
(lp1564
I5
aI0
asVmartello
p1565
(lp1566
I0
aI4
asVcomuni
p1567
(lp1568
I11
aI0
asVacquisto
p1569
(lp1570
I6
aI4
asVacquisti
p1571
(lp1572
I2
aI0
asVdenuncia
p1573
(lp1574
I0
aI5
asVokafor
p1575
(lp1576
I0
aI30
asVinvestigatori
p1577
(lp1578
I30
aI33
asVvanta
p1579
(lp1580
I0
aI2
asVpresentata
p1581
(lp1582
I1
aI0
asVgenoa
p1583
(lp1584
I0
aI4
asVsicuramente
p1585
(lp1586
I2
aI2
asVengland
p1587
(lp1588
I0
aI2
asVcarvalho
p1589
(lp1590
I32
aI22
asVadattatore
p1591
(lp1592
I0
aI4
asVmissed
p1593
(lp1594
I1
aI0
asVpiatti
p1595
(lp1596
I6
aI4
asVgiocheranno
p1597
(lp1598
I4
aI0
asVsaluta
p1599
(lp1600
I1
aI0
asVsalute
p1601
(lp1602
I4
aI10
asVmanca
p1603
(lp1604
I0
aI2
asVquantistici
p1605
(lp1606
I3
aI0
asVquantistico
p1607
(lp1608
I5
aI0
asVguasco
p1609
(lp1610
I0
aI4
asVtranello
p1611
(lp1612
I2
aI0
asVsguardo
p1613
(lp1614
I2
aI3
asVpromuove
p1615
(lp1616
I3
aI0
asVbookies
p1617
(lp1618
I4
aI2
asVassegnazione
p1619
(lp1620
I0
aI3
asVzawahiri
p1621
(lp1622
I0
aI1
asVpoveri
p1623
(lp1624
I4
aI0
asVkobe
p1625
(lp1626
I4
aI4
asVnomi
p1627
(lp1628
I0
aI7
asVvicenda
p1629
(lp1630
I10
aI10
asVsaint
p1631
(lp1632
I0
aI4
asVobbligazioni
p1633
(lp1634
I4
aI0
asVgraci
p1635
(lp1636
I0
aI3
asVobama
p1637
(lp1638
I12
aI14
asVgiuristi
p1639
(lp1640
I16
aI16
asVskytg24
p1641
(lp1642
I7
aI7
asVregolare
p1643
(lp1644
I0
aI1
asVodore
p1645
(lp1646
I0
aI7
asVtedeschi
p1647
(lp1648
I1
aI0
asVmytaxi
p1649
(lp1650
I16
aI4
asVballerine
p1651
(lp1652
I3
aI0
asVrivera
p1653
(lp1654
I2
aI0
asVsaggezza
p1655
(lp1656
I2
aI0
asVinsegnante
p1657
(lp1658
I2
aI0
asVplacche
p1659
(lp1660
I4
aI2
asVinsegnanti
p1661
(lp1662
I11
aI8
asVvirus
p1663
(lp1664
I2
aI4
asVmontappone
p1665
(lp1666
I0
aI2
asVplan
p1667
(lp1668
I0
aI2
asVmonastero
p1669
(lp1670
I0
aI7
asVmodena
p1671
(lp1672
I2
aI2
asVbiotechware
p1673
(lp1674
I0
aI6
asVviadotto
p1675
(lp1676
I1
aI0
asVaviva
p1677
(lp1678
I0
aI2
asVmicrosoft
p1679
(lp1680
I17
aI38
asVlanciamissili
p1681
(lp1682
I3
aI0
asVsalvetti
p1683
(lp1684
I0
aI1
asVgola
p1685
(lp1686
I3
aI0
asVgolf
p1687
(lp1688
I0
aI3
asVxcode
p1689
(lp1690
I2
aI0
asVfiano
p1691
(lp1692
I6
aI3
asVvader
p1693
(lp1694
I0
aI1
asVfilmava
p1695
(lp1696
I6
aI3
asVclassifica
p1697
(lp1698
I16
aI8
asVcalzature
p1699
(lp1700
I5
aI0
asVpartecipazione
p1701
(lp1702
I0
aI3
asVquestura
p1703
(lp1704
I10
aI13
asVcompetenze
p1705
(lp1706
I7
aI3
asVultron
p1707
(lp1708
I0
aI14
asVhamburgeria
p1709
(lp1710
I10
aI8
asVgratis
p1711
(lp1712
I0
aI4
asVanoressica
p1713
(lp1714
I2
aI0
asVurso
p1715
(lp1716
I18
aI2
asVfunghi
p1717
(lp1718
I0
aI8
asVgriglia
p1719
(lp1720
I0
aI3
asVcrt
p1721
(lp1722
I0
aI8
asVdothraki
p1723
(lp1724
I7
aI0
asVtumori
p1725
(lp1726
I3
aI0
asVautisti
p1727
(lp1728
I3
aI0
asVscombicchierati
p1729
(lp1730
I0
aI1
asVsessant
p1731
(lp1732
I0
aI2
asVtumore
p1733
(lp1734
I2
aI0
asVset
p1735
(lp1736
I14
aI0
asVstartup
p1737
(lp1738
I0
aI10
asVmotociclo
p1739
(lp1740
I0
aI3
asVseb
p1741
(lp1742
I0
aI1
asVpassphrase
p1743
(lp1744
I2
aI0
asVtangenziale
p1745
(lp1746
I3
aI0
asVbranson
p1747
(lp1748
I0
aI3
asVpossibilit
p1749
(lp1750
I5
aI0
asVinaugurazione
p1751
(lp1752
I3
aI0
asVmovie
p1753
(lp1754
I0
aI2
asVprospettive
p1755
(lp1756
I2
aI0
asVverbo
p1757
(lp1758
I3
aI0
asVrito
p1759
(lp1760
I0
aI3
asVrimozione
p1761
(lp1762
I3
aI0
asVingegneri
p1763
(lp1764
I0
aI7
asVthrive
p1765
(lp1766
I0
aI1
asVprosegue
p1767
(lp1768
I0
aI2
asVeuropa
p1769
(lp1770
I32
aI93
asVtriennale
p1771
(lp1772
I0
aI1
asVnecessario
p1773
(lp1774
I1
aI0
asVtroppa
p1775
(lp1776
I0
aI3
asVnatale
p1777
(lp1778
I1
aI3
asVlass
p1779
(lp1780
I0
aI2
asVlegislatura
p1781
(lp1782
I4
aI0
asVconsapevolezza
p1783
(lp1784
I6
aI0
asVprofumi
p1785
(lp1786
I0
aI3
asVcolpo
p1787
(lp1788
I12
aI8
asVvolanti
p1789
(lp1790
I2
aI1
asVagente
p1791
(lp1792
I3
aI2
asVbell
p1793
(lp1794
I6
aI9
asVcelebri
p1795
(lp1796
I2
aI0
asVleon
p1797
(lp1798
I14
aI0
asVlaboratorio
p1799
(lp1800
I1
aI2
asVoristano
p1801
(lp1802
I0
aI4
asVscaricare
p1803
(lp1804
I5
aI5
asVgrattacielo
p1805
(lp1806
I5
aI2
asVgrattacieli
p1807
(lp1808
I0
aI2
asVracconta
p1809
(lp1810
I7
aI6
asVracconto
p1811
(lp1812
I13
aI0
asVracconti
p1813
(lp1814
I0
aI3
asVfund
p1815
(lp1816
I2
aI0
asVvuoi
p1817
(lp1818
I1
aI1
asVvuol
p1819
(lp1820
I5
aI1
asVdovevano
p1821
(lp1822
I0
aI2
asVforza
p1823
(lp1824
I9
aI15
asVzalone
p1825
(lp1826
I11
aI24
asVforze
p1827
(lp1828
I69
aI54
asVhostess
p1829
(lp1830
I9
aI17
asVstadio
p1831
(lp1832
I17
aI40
asVmln
p1833
(lp1834
I4
aI2
asVeremenko
p1835
(lp1836
I2
aI2
asVerror
p1837
(lp1838
I11
aI7
asVrobin
p1839
(lp1840
I2
aI0
asVsitaf
p1841
(lp1842
I1
aI0
asVmotors
p1843
(lp1844
I16
aI24
asVmoto
p1845
(lp1846
I23
aI2
asVumiliazione
p1847
(lp1848
I2
aI0
asVcampione
p1849
(lp1850
I0
aI3
asVmotore
p1851
(lp1852
I2
aI8
asVnielsen
p1853
(lp1854
I0
aI3
asVbarilla
p1855
(lp1856
I0
aI13
asVrules
p1857
(lp1858
I0
aI1
asVmonachella
p1859
(lp1860
I0
aI2
asVcontinuare
p1861
(lp1862
I2
aI0
asVnovara
p1863
(lp1864
I26
aI3
asVconsumatori
p1865
(lp1866
I10
aI14
asVesperienze
p1867
(lp1868
I0
aI3
asVwalmart
p1869
(lp1870
I2
aI0
asVesperienza
p1871
(lp1872
I2
aI9
asVassunzioni
p1873
(lp1874
I0
aI4
asVillesa
p1875
(lp1876
I2
aI0
asVstack
p1877
(lp1878
I5
aI1
asVeuro
p1879
(lp1880
I226
aI186
asVdimagrimento
p1881
(lp1882
I0
aI2
asVnormale
p1883
(lp1884
I3
aI6
asVambasciatore
p1885
(lp1886
I7
aI0
asVprezziario
p1887
(lp1888
I9
aI0
asVbelen
p1889
(lp1890
I12
aI0
asVkelly
p1891
(lp1892
I12
aI4
asVbolla
p1893
(lp1894
I3
aI0
asVufficio
p1895
(lp1896
I1
aI11
asVsalva
p1897
(lp1898
I22
aI14
asVarresti
p1899
(lp1900
I0
aI2
asVarresto
p1901
(lp1902
I3
aI3
asVvedremo
p1903
(lp1904
I3
aI1
asVtriulzi
p1905
(lp1906
I0
aI1
asVcornigliano
p1907
(lp1908
I3
aI0
asVpresentazione
p1909
(lp1910
I4
aI0
asVsposta
p1911
(lp1912
I1
aI0
asVboxe
p1913
(lp1914
I2
aI0
asVvederla
p1915
(lp1916
I2
aI2
asVvederlo
p1917
(lp1918
I1
aI1
asVsgozziamo
p1919
(lp1920
I1
aI0
asVnotte
p1921
(lp1922
I91
aI82
asVergastolo
p1923
(lp1924
I0
aI2
asVvinto
p1925
(lp1926
I7
aI8
asVvinte
p1927
(lp1928
I5
aI12
asVspina
p1929
(lp1930
I0
aI3
asVcnr
p1931
(lp1932
I6
aI8
asVcontinua
p1933
(lp1934
I2
aI3
asVsenato
p1935
(lp1936
I6
aI15
asVparchi
p1937
(lp1938
I0
aI2
asValimentare
p1939
(lp1940
I0
aI4
asVirresistible
p1941
(lp1942
I1
aI0
asVviale
p1943
(lp1944
I0
aI5
asVtempli
p1945
(lp1946
I2
aI0
asVtrasferirsi
p1947
(lp1948
I1
aI0
asVdettagli
p1949
(lp1950
I0
aI4
asVgalassia
p1951
(lp1952
I2
aI0
asVlime
p1953
(lp1954
I3
aI0
asVgalassie
p1955
(lp1956
I0
aI3
asVindagini
p1957
(lp1958
I4
aI2
asVsovrappeso
p1959
(lp1960
I0
aI20
asVvitale
p1961
(lp1962
I1
aI0
asVpresentare
p1963
(lp1964
I12
aI8
asVvitali
p1965
(lp1966
I7
aI10
asVtedesco
p1967
(lp1968
I2
aI9
asVideologia
p1969
(lp1970
I0
aI8
asVpietro
p1971
(lp1972
I32
aI18
asVliquidazione
p1973
(lp1974
I2
aI5
asVsanto
p1975
(lp1976
I0
aI4
asVtettoia
p1977
(lp1978
I1
aI0
asVdolomiti
p1979
(lp1980
I0
aI2
asVmontero
p1981
(lp1982
I2
aI2
asVcapitolo
p1983
(lp1984
I0
aI8
asVlibera
p1985
(lp1986
I2
aI6
asVprevede
p1987
(lp1988
I0
aI3
asVnetflix
p1989
(lp1990
I19
aI10
asVliberi
p1991
(lp1992
I0
aI5
asVlibero
p1993
(lp1994
I3
aI0
asVlibert
p1995
(lp1996
I0
aI5
asVpolizia
p1997
(lp1998
I330
aI239
asVmassimo
p1999
(lp2000
I0
aI3
asVpolizie
p2001
(lp2002
I6
aI3
asVtradizione
p2003
(lp2004
I1
aI2
asVclinton
p2005
(lp2006
I0
aI8
asVcolorado
p2007
(lp2008
I0
aI4
asVesiste
p2009
(lp2010
I3
aI1
asVtradizioni
p2011
(lp2012
I3
aI0
asVpierino
p2013
(lp2014
I1
aI0
asVfrequentato
p2015
(lp2016
I0
aI2
asVterrorista
p2017
(lp2018
I0
aI1
asVebitda
p2019
(lp2020
I0
aI2
asVchiesto
p2021
(lp2022
I4
aI4
asVelettrificazione
p2023
(lp2024
I5
aI0
asVsemplice
p2025
(lp2026
I5
aI3
asVnettamente
p2027
(lp2028
I0
aI4
asVsemplici
p2029
(lp2030
I0
aI1
asVsoccorsi
p2031
(lp2032
I0
aI1
asVsoci
p2033
(lp2034
I1
aI0
asVtenerezze
p2035
(lp2036
I1
aI0
asVposter
p2037
(lp2038
I0
aI3
asVretina
p2039
(lp2040
I5
aI0
asVlink
p2041
(lp2042
I4
aI0
asVtradir
p2043
(lp2044
I1
aI2
asVanteriore
p2045
(lp2046
I0
aI5
asVriassicurazioni
p2047
(lp2048
I3
aI0
asVchessa
p2049
(lp2050
I4
aI0
asVue
p2051
(lp2052
I44
aI72
asVprezzo
p2053
(lp2054
I28
aI27
asVinoltre
p2055
(lp2056
I2
aI3
asVsvolto
p2057
(lp2058
I0
aI1
asVsvolta
p2059
(lp2060
I0
aI4
asVvissuto
p2061
(lp2062
I1
aI2
asVvissuta
p2063
(lp2064
I0
aI1
asVpiloni
p2065
(lp2066
I3
aI0
asVlezione
p2067
(lp2068
I0
aI3
asVpagamenti
p2069
(lp2070
I0
aI3
asVpagamento
p2071
(lp2072
I2
aI0
asVlucia
p2073
(lp2074
I0
aI2
asVbianca
p2075
(lp2076
I9
aI9
asVlufthansa
p2077
(lp2078
I0
aI3
asVbianco
p2079
(lp2080
I0
aI13
asVwalcott
p2081
(lp2082
I0
aI4
asVtuchel
p2083
(lp2084
I1
aI3
asVlana
p2085
(lp2086
I0
aI3
asVage
p2087
(lp2088
I0
aI11
asVterremoti
p2089
(lp2090
I10
aI5
asVwalker
p2091
(lp2092
I1
aI15
asVconoscere
p2093
(lp2094
I6
aI6
asVastronauti
p2095
(lp2096
I5
aI4
asVmestiere
p2097
(lp2098
I0
aI2
asVversare
p2099
(lp2100
I6
aI0
asVseno
p2101
(lp2102
I1
aI0
asVspostandoci
p2103
(lp2104
I0
aI1
asVsarei
p2105
(lp2106
I2
aI3
asVcurdi
p2107
(lp2108
I0
aI8
asVscarlett
p2109
(lp2110
I0
aI9
asVtortura
p2111
(lp2112
I80
aI54
asVinfrazione
p2113
(lp2114
I2
aI0
asVmagia
p2115
(lp2116
I2
aI0
asVraco
p2117
(lp2118
I0
aI2
asVleonardo
p2119
(lp2120
I14
aI11
asVdibattito
p2121
(lp2122
I2
aI2
asVfirma
p2123
(lp2124
I0
aI6
asVfirme
p2125
(lp2126
I3
aI0
asVmorso
p2127
(lp2128
I10
aI2
asVturismo
p2129
(lp2130
I0
aI4
asVtragedie
p2131
(lp2132
I2
aI0
asVtragedia
p2133
(lp2134
I8
aI10
asVled
p2135
(lp2136
I4
aI4
asVlee
p2137
(lp2138
I36
aI2
asVgillet
p2139
(lp2140
I4
aI0
asVleo
p2141
(lp2142
I4
aI0
asVperderanno
p2143
(lp2144
I0
aI1
asVcileno
p2145
(lp2146
I6
aI9
asVvolante
p2147
(lp2148
I0
aI1
asVresidenti
p2149
(lp2150
I0
aI1
asVscienza
p2151
(lp2152
I1
aI4
asVanimali
p2153
(lp2154
I41
aI34
asVderby
p2155
(lp2156
I0
aI3
asVcto
p2157
(lp2158
I3
aI0
asVstephanie
p2159
(lp2160
I0
aI2
asVstoriche
p2161
(lp2162
I2
aI1
asVtipico
p2163
(lp2164
I0
aI2
asVringrazio
p2165
(lp2166
I0
aI4
asVcassano
p2167
(lp2168
I0
aI7
asVtipica
p2169
(lp2170
I0
aI2
asVsiro
p2171
(lp2172
I18
aI12
asVabitudini
p2173
(lp2174
I0
aI8
asVingresso
p2175
(lp2176
I2
aI6
asVingressi
p2177
(lp2178
I2
aI2
asVministero
p2179
(lp2180
I14
aI22
asVzil
p2181
(lp2182
I1
aI0
asVvolont
p2183
(lp2184
I5
aI9
asVdolore
p2185
(lp2186
I3
aI0
asVresistente
p2187
(lp2188
I0
aI2
asVcircolazione
p2189
(lp2190
I3
aI0
asVprezzi
p2191
(lp2192
I21
aI10
asVackman
p2193
(lp2194
I0
aI9
asVonedrive
p2195
(lp2196
I2
aI0
asVsoprintendenza
p2197
(lp2198
I4
aI4
asVgamba
p2199
(lp2200
I0
aI3
asVtestimoni
p2201
(lp2202
I0
aI3
asVinsists
p2203
(lp2204
I1
aI0
asVclienti
p2205
(lp2206
I0
aI3
asVanimale
p2207
(lp2208
I2
aI0
asVcliente
p2209
(lp2210
I3
aI0
asVdritta
p2211
(lp2212
I0
aI4
asVbahrain
p2213
(lp2214
I0
aI2
asVpreordini
p2215
(lp2216
I2
aI0
asVloco
p2217
(lp2218
I5
aI0
asVhigh
p2219
(lp2220
I3
aI8
asVslip
p2221
(lp2222
I4
aI2
asVbeni
p2223
(lp2224
I4
aI0
asVfinanza
p2225
(lp2226
I1
aI3
asVtecniche
p2227
(lp2228
I2
aI1
asVgonzalo
p2229
(lp2230
I15
aI0
asVconsorzio
p2231
(lp2232
I3
aI0
asVreggio
p2233
(lp2234
I3
aI0
asVinsetti
p2235
(lp2236
I0
aI6
asVclarkson
p2237
(lp2238
I6
aI0
asVdirettore
p2239
(lp2240
I20
aI37
asVclasse
p2241
(lp2242
I3
aI0
asVminacce
p2243
(lp2244
I5
aI2
asVbordo
p2245
(lp2246
I4
aI5
asVamministrativa
p2247
(lp2248
I3
aI0
asVamministrative
p2249
(lp2250
I7
aI0
asVpoliclinico
p2251
(lp2252
I2
aI4
asVriscontrato
p2253
(lp2254
I0
aI1
asVvolti
p2255
(lp2256
I7
aI1
asVoperativo
p2257
(lp2258
I12
aI12
asVvolto
p2259
(lp2260
I5
aI14
asVfinanziaria
p2261
(lp2262
I8
aI6
asVestinta
p2263
(lp2264
I3
aI0
asVatterraggio
p2265
(lp2266
I5
aI2
asVconcentrazione
p2267
(lp2268
I14
aI0
asVtestimoniare
p2269
(lp2270
I0
aI3
asVfederica
p2271
(lp2272
I4
aI8
asVsparato
p2273
(lp2274
I0
aI17
asVnorvegia
p2275
(lp2276
I11
aI0
asVcalciatore
p2277
(lp2278
I3
aI0
asVvelodromo
p2279
(lp2280
I0
aI1
asVdisastro
p2281
(lp2282
I2
aI0
asVimportanti
p2283
(lp2284
I6
aI2
asVdenzel
p2285
(lp2286
I4
aI2
asVmetr
p2287
(lp2288
I3
aI0
asVluglio
p2289
(lp2290
I83
aI79
asVcassazione
p2291
(lp2292
I0
aI8
asVproseguire
p2293
(lp2294
I1
aI0
asVparete
p2295
(lp2296
I3
aI0
asVvelocemente
p2297
(lp2298
I0
aI1
asVaggredito
p2299
(lp2300
I0
aI2
asVpareti
p2301
(lp2302
I0
aI2
asVsentenze
p2303
(lp2304
I0
aI6
asVtevez
p2305
(lp2306
I26
aI31
asVsentenza
p2307
(lp2308
I12
aI11
asVjeep
p2309
(lp2310
I0
aI4
asVritratti
p2311
(lp2312
I2
aI0
asVsparatoria
p2313
(lp2314
I0
aI2
asVtempi
p2315
(lp2316
I3
aI2
asVcriticato
p2317
(lp2318
I2
aI4
asVlavoratori
p2319
(lp2320
I24
aI7
asVlavoratore
p2321
(lp2322
I0
aI4
asVincinta
p2323
(lp2324
I2
aI5
asVpremio
p2325
(lp2326
I18
aI3
asVnapoli
p2327
(lp2328
I37
aI95
asVdavid
p2329
(lp2330
I9
aI0
asVvalutarlo
p2331
(lp2332
I2
aI1
asVscena
p2333
(lp2334
I17
aI10
asVsuggellare
p2335
(lp2336
I1
aI0
asVjesus
p2337
(lp2338
I3
aI3
asVrisparmi
p2339
(lp2340
I3
aI9
asVnyse
p2341
(lp2342
I4
aI0
asVdrogati
p2343
(lp2344
I0
aI2
asVfestival
p2345
(lp2346
I12
aI6
asVtrattativa
p2347
(lp2348
I1
aI2
asVverifica
p2349
(lp2350
I0
aI2
asVmessaggio
p2351
(lp2352
I25
aI6
asVrasato
p2353
(lp2354
I0
aI1
asVparcheggio
p2355
(lp2356
I0
aI4
asVvirtuale
p2357
(lp2358
I0
aI1
asVsorpresa
p2359
(lp2360
I2
aI6
asVsorpreso
p2361
(lp2362
I0
aI2
asVsarebbero
p2363
(lp2364
I3
aI2
asVretraction
p2365
(lp2366
I0
aI8
asVcgil
p2367
(lp2368
I5
aI4
asVgiallo
p2369
(lp2370
I2
aI2
asVbergamo
p2371
(lp2372
I0
aI5
asVsuperamento
p2373
(lp2374
I4
aI0
asVroberto
p2375
(lp2376
I5
aI24
asVgaye
p2377
(lp2378
I4
aI0
asVattaccante
p2379
(lp2380
I6
aI3
asVobsolescenza
p2381
(lp2382
I4
aI0
asVfalso
p2383
(lp2384
I0
aI2
asVtroviamo
p2385
(lp2386
I0
aI3
asVfinlandese
p2387
(lp2388
I2
aI0
asVcentralina
p2389
(lp2390
I0
aI3
asVkokorin
p2391
(lp2392
I2
aI2
asVsottopasso
p2393
(lp2394
I6
aI3
asVomicidio
p2395
(lp2396
I14
aI15
asVlatina
p2397
(lp2398
I7
aI4
asVlorenzin
p2399
(lp2400
I0
aI3
asVrothrum
p2401
(lp2402
I1
aI0
asVdocumento
p2403
(lp2404
I0
aI2
asVcaserma
p2405
(lp2406
I3
aI0
asVritiene
p2407
(lp2408
I2
aI4
asVbarcellona
p2409
(lp2410
I2
aI10
asVfides
p2411
(lp2412
I0
aI3
asVcoquelin
p2413
(lp2414
I0
aI1
asVperpetuo
p2415
(lp2416
I1
aI0
asVviso
p2417
(lp2418
I21
aI5
asVconcorso
p2419
(lp2420
I9
aI0
asVtasca
p2421
(lp2422
I3
aI0
asVpalloncini
p2423
(lp2424
I2
aI2
asVtransessuali
p2425
(lp2426
I2
aI2
asViscritti
p2427
(lp2428
I5
aI0
asVscamacca
p2429
(lp2430
I0
aI2
asVsubiti
p2431
(lp2432
I2
aI0
asVnaturale
p2433
(lp2434
I0
aI16
asVmanchester
p2435
(lp2436
I8
aI12
asVpiuttosto
p2437
(lp2438
I2
aI2
asVmattinale
p2439
(lp2440
I3
aI0
asVzanda
p2441
(lp2442
I4
aI3
asVjay
p2443
(lp2444
I4
aI0
asVceffone
p2445
(lp2446
I2
aI0
asVsaperne
p2447
(lp2448
I10
aI0
asVadriatico
p2449
(lp2450
I2
aI2
asVhandle
p2451
(lp2452
I11
aI7
asVconduttrice
p2453
(lp2454
I9
aI0
asVelettrico
p2455
(lp2456
I0
aI8
asVpatrocinio
p2457
(lp2458
I7
aI0
asVelettrici
p2459
(lp2460
I0
aI4
asVbondi
p2461
(lp2462
I0
aI10
asVfreddo
p2463
(lp2464
I5
aI0
asVrapper
p2465
(lp2466
I0
aI8
asVspinta
p2467
(lp2468
I2
aI0
asVohio
p2469
(lp2470
I0
aI2
asVterapeutici
p2471
(lp2472
I0
aI2
asVpensionato
p2473
(lp2474
I6
aI0
asVripartire
p2475
(lp2476
I0
aI2
asVedition
p2477
(lp2478
I0
aI3
asValessandro
p2479
(lp2480
I0
aI4
asVscarti
p2481
(lp2482
I0
aI2
asVbrunello
p2483
(lp2484
I3
aI1
asVnuovamente
p2485
(lp2486
I0
aI2
asVjardim
p2487
(lp2488
I8
aI10
asVsessi
p2489
(lp2490
I2
aI2
asVposso
p2491
(lp2492
I8
aI12
asVfermare
p2493
(lp2494
I0
aI2
asVpossa
p2495
(lp2496
I5
aI2
asVappartamento
p2497
(lp2498
I2
aI12
asVpolfer
p2499
(lp2500
I0
aI2
asVemail
p2501
(lp2502
I4
aI0
asVcristiano
p2503
(lp2504
I9
aI4
asVverratti
p2505
(lp2506
I0
aI2
asVdogging
p2507
(lp2508
I2
aI0
asVfiorello
p2509
(lp2510
I3
aI3
asVpallotta
p2511
(lp2512
I0
aI54
asVsistemazione
p2513
(lp2514
I1
aI0
asVfiorella
p2515
(lp2516
I0
aI4
asVmaggi
p2517
(lp2518
I4
aI0
asVprobiviri
p2519
(lp2520
I0
aI3
asVritocco
p2521
(lp2522
I2
aI0
asVetf
p2523
(lp2524
I3
aI0
asVbaffigo
p2525
(lp2526
I0
aI3
asVmarte
p2527
(lp2528
I11
aI10
asVtornare
p2529
(lp2530
I6
aI3
asVci
p2531
(lp2532
I11
aI13
asVindica
p2533
(lp2534
I0
aI2
asVteologia
p2535
(lp2536
I0
aI15
asVcd
p2537
(lp2538
I3
aI0
asVspagna
p2539
(lp2540
I0
aI3
asVpostino
p2541
(lp2542
I3
aI0
asVsperma
p2543
(lp2544
I4
aI0
asVcv
p2545
(lp2546
I0
aI3
asVct
p2547
(lp2548
I2
aI0
asVsilvio
p2549
(lp2550
I4
aI2
asVsilvia
p2551
(lp2552
I0
aI5
asVspendi
p2553
(lp2554
I2
aI0
asVbilancio
p2555
(lp2556
I0
aI5
asVscrisse
p2557
(lp2558
I0
aI3
asVmarito
p2559
(lp2560
I37
aI12
asVperclorato
p2561
(lp2562
I6
aI6
asVzampaglione
p2563
(lp2564
I2
aI0
asVvanoli
p2565
(lp2566
I2
aI2
asVstrisce
p2567
(lp2568
I4
aI1
asVvolontarie
p2569
(lp2570
I11
aI7
asVatlanta
p2571
(lp2572
I0
aI6
asVletteratura
p2573
(lp2574
I0
aI4
asVvolontaria
p2575
(lp2576
I3
aI0
asVsemestre
p2577
(lp2578
I2
aI0
asVarabi
p2579
(lp2580
I2
aI2
asVlaser
p2581
(lp2582
I3
aI2
asVaccumulator
p2583
(lp2584
I8
aI0
asVgreci
p2585
(lp2586
I8
aI6
asVombra
p2587
(lp2588
I2
aI0
asVtradendo
p2589
(lp2590
I0
aI1
asVsiti
p2591
(lp2592
I3
aI16
asVpatriottici
p2593
(lp2594
I0
aI3
asVnero
p2595
(lp2596
I2
aI23
asVsito
p2597
(lp2598
I57
aI56
asVdipendenti
p2599
(lp2600
I31
aI4
asVestranei
p2601
(lp2602
I4
aI0
asVarmeno
p2603
(lp2604
I21
aI8
asVnera
p2605
(lp2606
I3
aI0
asVvr
p2607
(lp2608
I0
aI1
asVarmeni
p2609
(lp2610
I92
aI81
asVulivo
p2611
(lp2612
I3
aI1
asVfinestre
p2613
(lp2614
I0
aI4
asVmanica
p2615
(lp2616
I0
aI4
asVfelice
p2617
(lp2618
I0
aI3
asVulivi
p2619
(lp2620
I11
aI1
asVsoglia
p2621
(lp2622
I3
aI3
asVmatthew
p2623
(lp2624
I4
aI6
asVprevendita
p2625
(lp2626
I0
aI2
asVandroid
p2627
(lp2628
I38
aI16
asVmostra
p2629
(lp2630
I5
aI12
asVinfinity
p2631
(lp2632
I2
aI0
asVbale
p2633
(lp2634
I10
aI4
asVtemono
p2635
(lp2636
I1
aI0
asVbuonuscita
p2637
(lp2638
I8
aI4
asVinfinite
p2639
(lp2640
I2
aI0
asVcontribuente
p2641
(lp2642
I24
aI14
asVcontribuenti
p2643
(lp2644
I12
aI24
asVaudio
p2645
(lp2646
I2
aI0
asVzaman
p2647
(lp2648
I0
aI3
asVagnese
p2649
(lp2650
I0
aI4
asVmomenti
p2651
(lp2652
I2
aI0
asVmomento
p2653
(lp2654
I2
aI0
asVpaul
p2655
(lp2656
I2
aI8
asVweb
p2657
(lp2658
I17
aI29
asVcondannato
p2659
(lp2660
I2
aI5
asVwef
p2661
(lp2662
I0
aI1
asVwen
p2663
(lp2664
I0
aI2
asVlattice
p2665
(lp2666
I5
aI0
asVdisponibilit
p2667
(lp2668
I0
aI2
asVcombine
p2669
(lp2670
I2
aI0
asVcrack
p2671
(lp2672
I4
aI0
asVtitolari
p2673
(lp2674
I5
aI4
asVattraenti
p2675
(lp2676
I0
aI3
asVgovernment
p2677
(lp2678
I0
aI2
asVsabatini
p2679
(lp2680
I0
aI3
asVghanim
p2681
(lp2682
I6
aI0
asVpassword
p2683
(lp2684
I5
aI7
asVpier
p2685
(lp2686
I8
aI6
asVemma
p2687
(lp2688
I18
aI0
asVgalliani
p2689
(lp2690
I5
aI0
asVsfondata
p2691
(lp2692
I0
aI2
asVcrisi
p2693
(lp2694
I6
aI3
asVgrids
p2695
(lp2696
I8
aI0
asVspoleto
p2697
(lp2698
I1
aI0
asVlamezia
p2699
(lp2700
I0
aI3
asVstagioni
p2701
(lp2702
I2
aI3
asVshakira
p2703
(lp2704
I0
aI4
asVfamiglia
p2705
(lp2706
I37
aI8
asVlegato
p2707
(lp2708
I5
aI2
asVseparati
p2709
(lp2710
I0
aI9
asVgiudizi
p2711
(lp2712
I9
aI5
asVsparare
p2713
(lp2714
I0
aI1
asVparatissima
p2715
(lp2716
I0
aI4
asVingrosso
p2717
(lp2718
I7
aI0
asVsuperficiale
p2719
(lp2720
I1
aI0
asVsuperficiali
p2721
(lp2722
I0
aI2
asVamiche
p2723
(lp2724
I6
aI6
asVtracce
p2725
(lp2726
I7
aI7
asVvengano
p2727
(lp2728
I8
aI4
asVangeles
p2729
(lp2730
I0
aI3
asVoroscopo
p2731
(lp2732
I2
aI0
asVdedicare
p2733
(lp2734
I0
aI3
asVsoftware
p2735
(lp2736
I3
aI2
asVcatherine
p2737
(lp2738
I6
aI6
asVbanca
p2739
(lp2740
I33
aI9
asVlettera
p2741
(lp2742
I6
aI2
asVannabel
p2743
(lp2744
I7
aI0
asVhousing
p2745
(lp2746
I0
aI4
asVtrattasse
p2747
(lp2748
I0
aI1
asValaba
p2749
(lp2750
I0
aI4
asVdecreto
p2751
(lp2752
I19
aI21
asVtina
p2753
(lp2754
I0
aI6
asVserafini
p2755
(lp2756
I0
aI2
asVsollecita
p2757
(lp2758
I1
aI0
asVstamane
p2759
(lp2760
I0
aI1
asVdenaro
p2761
(lp2762
I1
aI3
asVtrafford
p2763
(lp2764
I0
aI1
asVriportare
p2765
(lp2766
I2
aI0
asVcontributi
p2767
(lp2768
I3
aI2
asVlegalit
p2769
(lp2770
I3
aI0
asVreplica
p2771
(lp2772
I2
aI0
asVasfalto
p2773
(lp2774
I0
aI3
asVesagerata
p2775
(lp2776
I2
aI0
asVchiabotto
p2777
(lp2778
I3
aI0
asVinvestitori
p2779
(lp2780
I14
aI0
asVfrancisca
p2781
(lp2782
I13
aI0
asVpanino
p2783
(lp2784
I6
aI10
asVquarti
p2785
(lp2786
I5
aI2
asVkirkwood
p2787
(lp2788
I3
aI0
asVpresentano
p2789
(lp2790
I4
aI0
asVrimasta
p2791
(lp2792
I2
aI2
asVmilione
p2793
(lp2794
I9
aI3
asVbuon
p2795
(lp2796
I2
aI0
asVcostanzo
p2797
(lp2798
I3
aI0
asVunica
p2799
(lp2800
I19
aI7
asVaeroporto
p2801
(lp2802
I2
aI24
asVcomunque
p2803
(lp2804
I4
aI2
asVunici
p2805
(lp2806
I1
aI1
asVunico
p2807
(lp2808
I13
aI19
asVmotociclisti
p2809
(lp2810
I3
aI0
asVinps
p2811
(lp2812
I25
aI19
asVmotociclista
p2813
(lp2814
I0
aI4
asVstriscia
p2815
(lp2816
I3
aI3
asVporno
p2817
(lp2818
I14
aI12
asVabilit
p2819
(lp2820
I2
aI0
asVfirmato
p2821
(lp2822
I0
aI1
asVedward
p2823
(lp2824
I2
aI0
asVespellere
p2825
(lp2826
I0
aI2
asVuccider
p2827
(lp2828
I2
aI2
asVaurora
p2829
(lp2830
I34
aI7
asVpartecipanti
p2831
(lp2832
I4
aI7
asVaurore
p2833
(lp2834
I0
aI2
asVprotettivo
p2835
(lp2836
I0
aI4
asVmesso
p2837
(lp2838
I4
aI0
asVpossano
p2839
(lp2840
I2
aI0
asVagnoletto
p2841
(lp2842
I3
aI0
asVantiterrorismo
p2843
(lp2844
I0
aI7
asVamministrazione
p2845
(lp2846
I2
aI6
asVossessione
p2847
(lp2848
I6
aI2
asVpresidio
p2849
(lp2850
I1
aI0
asVpescara
p2851
(lp2852
I3
aI2
asVchef
p2853
(lp2854
I0
aI3
asVspazzolina
p2855
(lp2856
I2
aI0
asVpanda
p2857
(lp2858
I0
aI2
asVracimolare
p2859
(lp2860
I0
aI2
asVfatturato
p2861
(lp2862
I0
aI2
asVcalendario
p2863
(lp2864
I0
aI2
asVcervino
p2865
(lp2866
I5
aI0
asVtold
p2867
(lp2868
I2
aI0
asVlavorando
p2869
(lp2870
I0
aI2
asVinterno
p2871
(lp2872
I69
aI64
asVcompatibili
p2873
(lp2874
I0
aI4
asVtelefonate
p2875
(lp2876
I2
aI2
asVvoga
p2877
(lp2878
I0
aI1
asVtaodue
p2879
(lp2880
I8
aI23
asVschiacciata
p2881
(lp2882
I0
aI2
asVbrenta
p2883
(lp2884
I0
aI3
asVstudi
p2885
(lp2886
I11
aI46
asVgassmann
p2887
(lp2888
I5
aI0
asVterapie
p2889
(lp2890
I10
aI15
asVtacere
p2891
(lp2892
I1
aI0
asVneutroni
p2893
(lp2894
I4
aI0
asVprogrammata
p2895
(lp2896
I4
aI0
asVfournier
p2897
(lp2898
I8
aI16
asVrompicapo
p2899
(lp2900
I28
aI17
asVritorno
p2901
(lp2902
I35
aI53
asVfrasi
p2903
(lp2904
I8
aI10
asVsarai
p2905
(lp2906
I0
aI4
asVcontrada
p2907
(lp2908
I0
aI20
asVindiana
p2909
(lp2910
I14
aI22
asVtemevano
p2911
(lp2912
I0
aI2
asVpiero
p2913
(lp2914
I0
aI2
asVword
p2915
(lp2916
I1
aI0
asVvivaio
p2917
(lp2918
I0
aI1
asVcomunicazioni
p2919
(lp2920
I2
aI0
asVero
p2921
(lp2922
I24
aI25
asVcomunicazione
p2923
(lp2924
I0
aI3
asVtessuto
p2925
(lp2926
I0
aI1
asVtessuti
p2927
(lp2928
I0
aI5
asVimperatore
p2929
(lp2930
I2
aI0
asVpericoli
p2931
(lp2932
I2
aI0
asVredazione
p2933
(lp2934
I0
aI6
asVnovit
p2935
(lp2936
I2
aI3
asVrisoluzione
p2937
(lp2938
I6
aI3
asVricostruzione
p2939
(lp2940
I14
aI0
asVspreco
p2941
(lp2942
I0
aI4
asVrecovery
p2943
(lp2944
I0
aI2
asVstasera
p2945
(lp2946
I18
aI16
asVrassodare
p2947
(lp2948
I0
aI2
asVcarriera
p2949
(lp2950
I0
aI5
asVpizze
p2951
(lp2952
I3
aI3
asVulteriormente
p2953
(lp2954
I1
aI0
asVpizza
p2955
(lp2956
I29
aI43
asVstefano
p2957
(lp2958
I21
aI13
asVolimpia
p2959
(lp2960
I0
aI1
asVsuini
p2961
(lp2962
I0
aI2
asVapplicazioni
p2963
(lp2964
I0
aI6
asVarco
p2965
(lp2966
I0
aI2
asVmassoniche
p2967
(lp2968
I2
aI0
asVsuina
p2969
(lp2970
I0
aI7
asVpadre
p2971
(lp2972
I9
aI25
asVpadri
p2973
(lp2974
I0
aI10
asVcredenti
p2975
(lp2976
I4
aI30
asVcalliano
p2977
(lp2978
I3
aI0
asVneto
p2979
(lp2980
I5
aI0
asVoffice
p2981
(lp2982
I0
aI2
asVteatro
p2983
(lp2984
I4
aI4
asVrame
p2985
(lp2986
I5
aI0
asVnets
p2987
(lp2988
I0
aI12
asVticket
p2989
(lp2990
I3
aI4
asVventi
p2991
(lp2992
I3
aI4
asVdestra
p2993
(lp2994
I0
aI5
asVdestro
p2995
(lp2996
I12
aI4
asVmasterchef
p2997
(lp2998
I0
aI5
asVbuffon
p2999
(lp3000
I7
aI20
asVscene
p3001
(lp3002
I5
aI2
asVbreak
p3003
(lp3004
I0
aI2
asVband
p3005
(lp3006
I8
aI0
asVmolecole
p3007
(lp3008
I0
aI3
asVriesci
p3009
(lp3010
I0
aI1
asVgermania
p3011
(lp3012
I5
aI7
asVvidal
p3013
(lp3014
I126
aI100
asVrenkon
p3015
(lp3016
I6
aI0
asVcroce
p3017
(lp3018
I0
aI7
asVlazio
p3019
(lp3020
I17
aI21
asVcostello
p3021
(lp3022
I4
aI0
asVcampionessa
p3023
(lp3024
I3
aI0
asVtolta
p3025
(lp3026
I1
aI0
asVassistenti
p3027
(lp3028
I0
aI4
asVdiesel
p3029
(lp3030
I3
aI8
asVsacerdote
p3031
(lp3032
I10
aI21
asVpensare
p3033
(lp3034
I2
aI4
asVprogrammi
p3035
(lp3036
I1
aI0
asVschintu
p3037
(lp3038
I0
aI2
asVpropone
p3039
(lp3040
I1
aI0
asVstandard
p3041
(lp3042
I14
aI9
asVanziani
p3043
(lp3044
I5
aI4
asVanziano
p3045
(lp3046
I0
aI4
asVtratter
p3047
(lp3048
I0
aI1
asVesercizi
p3049
(lp3050
I0
aI4
asVcerutti
p3051
(lp3052
I2
aI0
asVmuore
p3053
(lp3054
I8
aI4
asVtrasporti
p3055
(lp3056
I3
aI0
asVtrasporto
p3057
(lp3058
I0
aI6
asVisola
p3059
(lp3060
I13
aI30
asVraffineria
p3061
(lp3062
I2
aI0
asVkim
p3063
(lp3064
I0
aI4
asVsicurezza
p3065
(lp3066
I76
aI16
asVperkins
p3067
(lp3068
I3
aI0
asVpratica
p3069
(lp3070
I2
aI0
asVvivere
p3071
(lp3072
I13
aI13
asVtimothy
p3073
(lp3074
I1
aI0
asVarmato
p3075
(lp3076
I2
aI0
asVinserito
p3077
(lp3078
I0
aI2
asVsolamente
p3079
(lp3080
I0
aI5
asVcolosimo
p3081
(lp3082
I8
aI0
asVjohn
p3083
(lp3084
I4
aI0
asVcanestro
p3085
(lp3086
I6
aI0
asValonso
p3087
(lp3088
I9
aI7
asValbert
p3089
(lp3090
I129
aI130
asVintestino
p3091
(lp3092
I4
aI0
asValberi
p3093
(lp3094
I10
aI0
asValbero
p3095
(lp3096
I3
aI4
asVprimavera
p3097
(lp3098
I7
aI2
asVtoronto
p3099
(lp3100
I0
aI14
asVsfruttato
p3101
(lp3102
I0
aI1
asVaereo
p3103
(lp3104
I3
aI18
asVdomestico
p3105
(lp3106
I3
aI3
asVdomestici
p3107
(lp3108
I2
aI0
asVebay
p3109
(lp3110
I0
aI8
asVdigitali
p3111
(lp3112
I0
aI6
asVsabato
p3113
(lp3114
I3
aI17
asVpacco
p3115
(lp3116
I0
aI2
asVdigitale
p3117
(lp3118
I5
aI3
asVtruffa
p3119
(lp3120
I3
aI0
asVlegionella
p3121
(lp3122
I3
aI8
asVcontenta
p3123
(lp3124
I2
aI4
asVfandom
p3125
(lp3126
I7
aI0
asVrivenditore
p3127
(lp3128
I0
aI1
asVautobus
p3129
(lp3130
I0
aI2
asVpugile
p3131
(lp3132
I0
aI2
asVcreduli
p3133
(lp3134
I0
aI6
asVreale
p3135
(lp3136
I3
aI3
asVvisualizzare
p3137
(lp3138
I1
aI0
asVvagliando
p3139
(lp3140
I1
aI0
asVrealt
p3141
(lp3142
I16
aI10
asVaspetto
p3143
(lp3144
I6
aI12
asVaccesso
p3145
(lp3146
I3
aI3
asVcarboidrati
p3147
(lp3148
I0
aI3
asVutiilizzato
p3149
(lp3150
I1
aI0
asVladdove
p3151
(lp3152
I2
aI2
asVomosessualit
p3153
(lp3154
I0
aI2
asValcatel
p3155
(lp3156
I53
aI15
asVtelevisivo
p3157
(lp3158
I1
aI0
asVbimba
p3159
(lp3160
I3
aI6
asVallenatore
p3161
(lp3162
I29
aI78
asVlewis
p3163
(lp3164
I6
aI4
asVbimbi
p3165
(lp3166
I3
aI0
asVbimbo
p3167
(lp3168
I12
aI2
asVdybala
p3169
(lp3170
I5
aI12
asVstereotipi
p3171
(lp3172
I3
aI0
asVetica
p3173
(lp3174
I6
aI0
asVricarica
p3175
(lp3176
I0
aI4
asVdj
p3177
(lp3178
I2
aI0
asVuscita
p3179
(lp3180
I3
aI11
asVuscito
p3181
(lp3182
I1
aI3
asVcardinale
p3183
(lp3184
I0
aI3
asVstimolando
p3185
(lp3186
I5
aI10
asVstiamo
p3187
(lp3188
I0
aI5
asVanzi
p3189
(lp3190
I4
aI2
asVordine
p3191
(lp3192
I66
aI58
asVparticelle
p3193
(lp3194
I31
aI31
asVrettore
p3195
(lp3196
I16
aI0
asVinno
p3197
(lp3198
I0
aI5
asVxavi
p3199
(lp3200
I1
aI0
asVconcorrenza
p3201
(lp3202
I16
aI20
asVmclintock
p3203
(lp3204
I0
aI1
asVfirmare
p3205
(lp3206
I0
aI2
asVmoggi
p3207
(lp3208
I0
aI5
asVscuse
p3209
(lp3210
I9
aI0
asVvianello
p3211
(lp3212
I5
aI5
asVwi
p3213
(lp3214
I4
aI2
asVterme
p3215
(lp3216
I0
aI10
asVincomincia
p3217
(lp3218
I9
aI30
asVsolaro
p3219
(lp3220
I0
aI2
asVcos
p3221
(lp3222
I78
aI41
asVinflazione
p3223
(lp3224
I30
aI19
asVslancio
p3225
(lp3226
I0
aI2
asVpiacenza
p3227
(lp3228
I0
aI2
asVtough
p3229
(lp3230
I2
aI0
asVsfida
p3231
(lp3232
I8
aI12
asVlinate
p3233
(lp3234
I0
aI6
asVtono
p3235
(lp3236
I2
aI0
asVislamisti
p3237
(lp3238
I0
aI2
asVsettimanedi
p3239
(lp3240
I1
aI0
asVrocchi
p3241
(lp3242
I0
aI10
asVpossibile
p3243
(lp3244
I17
aI21
asVrisorsa
p3245
(lp3246
I0
aI4
asVrisorse
p3247
(lp3248
I4
aI6
asVspagnolo
p3249
(lp3250
I9
aI8
asVspagnoli
p3251
(lp3252
I4
aI0
asVchitarra
p3253
(lp3254
I7
aI0
asVprenderlo
p3255
(lp3256
I0
aI2
asVjohansson
p3257
(lp3258
I0
aI9
asVguidato
p3259
(lp3260
I0
aI4
asVpossesso
p3261
(lp3262
I1
aI2
asVvoice
p3263
(lp3264
I1
aI9
asVrastrelliere
p3265
(lp3266
I0
aI2
asVnhtsa
p3267
(lp3268
I12
aI18
asVpaglia
p3269
(lp3270
I0
aI2
asVsuccessore
p3271
(lp3272
I4
aI2
asVestremisti
p3273
(lp3274
I5
aI0
asVbastia
p3275
(lp3276
I4
aI4
asVvinceti
p3277
(lp3278
I6
aI0
asVvigilanza
p3279
(lp3280
I5
aI1
asVrestyling
p3281
(lp3282
I0
aI4
asVolimpiadi
p3283
(lp3284
I3
aI0
asVnif
p3285
(lp3286
I2
aI0
asVfurgone
p3287
(lp3288
I3
aI3
asVtraffico
p3289
(lp3290
I0
aI5
asVcampi
p3291
(lp3292
I3
aI0
asVpiazza
p3293
(lp3294
I12
aI17
asVcampo
p3295
(lp3296
I21
aI12
asVepisodio
p3297
(lp3298
I3
aI0
asVmamme
p3299
(lp3300
I3
aI3
asVmonaci
p3301
(lp3302
I2
aI0
asVmamma
p3303
(lp3304
I46
aI34
asVmonaco
p3305
(lp3306
I181
aI206
asVetilometro
p3307
(lp3308
I0
aI3
asVoperando
p3309
(lp3310
I4
aI0
asVborsa
p3311
(lp3312
I7
aI6
asVmusical
p3313
(lp3314
I0
aI3
asVtrainer
p3315
(lp3316
I0
aI2
asVphoto
p3317
(lp3318
I1
aI1
asVtomasz
p3319
(lp3320
I0
aI2
asVhills
p3321
(lp3322
I0
aI3
asVyamaha
p3323
(lp3324
I0
aI8
asVweiss
p3325
(lp3326
I2
aI0
asVnazdik
p3327
(lp3328
I0
aI2
asVvuoto
p3329
(lp3330
I2
aI1
asVoccupanti
p3331
(lp3332
I0
aI2
asVcervia
p3333
(lp3334
I2
aI0
asVmigliori
p3335
(lp3336
I7
aI0
asVcapo
p3337
(lp3338
I9
aI2
asVcapi
p3339
(lp3340
I0
aI4
asVfrancoforte
p3341
(lp3342
I6
aI4
asVdocumenti
p3343
(lp3344
I2
aI0
asVcape
p3345
(lp3346
I2
aI0
asVscarpa
p3347
(lp3348
I4
aI0
asVscarpe
p3349
(lp3350
I8
aI0
asVxbox
p3351
(lp3352
I2
aI0
asVsecurity
p3353
(lp3354
I3
aI6
asVaprile
p3355
(lp3356
I47
aI27
asVparisse
p3357
(lp3358
I3
aI6
asVpalestinesi
p3359
(lp3360
I0
aI5
asVamministratore
p3361
(lp3362
I14
aI7
asVsondaggio
p3363
(lp3364
I7
aI0
asVpurple
p3365
(lp3366
I8
aI0
asVresistenza
p3367
(lp3368
I0
aI1
asVcaserme
p3369
(lp3370
I4
aI0
asVcommercialisti
p3371
(lp3372
I7
aI0
asVcommenti
p3373
(lp3374
I32
aI24
asVlahore
p3375
(lp3376
I5
aI3
asVstrade
p3377
(lp3378
I23
aI3
asVgiocato
p3379
(lp3380
I6
aI6
asVstrada
p3381
(lp3382
I11
aI26
asVseminario
p3383
(lp3384
I10
aI21
asVmarketing
p3385
(lp3386
I6
aI0
asVpost
p3387
(lp3388
I42
aI43
asVanima
p3389
(lp3390
I11
aI21
asVsegnare
p3391
(lp3392
I21
aI18
asVradicalmente
p3393
(lp3394
I0
aI2
asVtavecchio
p3395
(lp3396
I6
aI0
asVparticolarmente
p3397
(lp3398
I5
aI0
asVdevice
p3399
(lp3400
I5
aI0
asVwan
p3401
(lp3402
I0
aI3
asVguardia
p3403
(lp3404
I1
aI0
asVaccordo
p3405
(lp3406
I7
aI15
asVfinora
p3407
(lp3408
I2
aI0
asVnoleggio
p3409
(lp3410
I0
aI15
asVpalco
p3411
(lp3412
I4
aI2
asVoscurato
p3413
(lp3414
I3
aI0
asVwar
p3415
(lp3416
I2
aI0
asVpressioni
p3417
(lp3418
I3
aI4
asVsqualifica
p3419
(lp3420
I2
aI0
asVdichiarante
p3421
(lp3422
I2
aI0
asVpressione
p3423
(lp3424
I4
aI2
asVcar2go
p3425
(lp3426
I0
aI36
asVfamiliari
p3427
(lp3428
I16
aI3
asVisis
p3429
(lp3430
I20
aI18
asVbadessa
p3431
(lp3432
I0
aI4
asVvorrei
p3433
(lp3434
I3
aI3
asVcrystal
p3435
(lp3436
I12
aI12
asVvantaggio
p3437
(lp3438
I8
aI30
asVcerimonia
p3439
(lp3440
I6
aI4
asVmoore
p3441
(lp3442
I26
aI42
asVrifiuti
p3443
(lp3444
I21
aI1
asVfebbraio
p3445
(lp3446
I3
aI2
asVmilano
p3447
(lp3448
I94
aI139
asVrifiuta
p3449
(lp3450
I2
aI2
asVriceverlo
p3451
(lp3452
I1
aI2
asVcondoglianze
p3453
(lp3454
I0
aI4
asVreality
p3455
(lp3456
I4
aI0
asVjong
p3457
(lp3458
I0
aI5
asVholding
p3459
(lp3460
I0
aI9
asVricordando
p3461
(lp3462
I1
aI0
asVtest
p3463
(lp3464
I10
aI12
asVfruscio
p3465
(lp3466
I2
aI0
asVfunerali
p3467
(lp3468
I0
aI5
asVparagonarsi
p3469
(lp3470
I2
aI2
asVtroupe
p3471
(lp3472
I1
aI0
asVtelescopio
p3473
(lp3474
I1
aI0
asVsignora
p3475
(lp3476
I72
aI54
asVrimborso
p3477
(lp3478
I0
aI1
asVdenunciato
p3479
(lp3480
I0
aI2
asVcorleone
p3481
(lp3482
I3
aI0
asVvideocassette
p3483
(lp3484
I2
aI0
asVdenunciati
p3485
(lp3486
I0
aI4
asVstudiano
p3487
(lp3488
I0
aI1
asVvacanze
p3489
(lp3490
I12
aI7
asVtribunale
p3491
(lp3492
I13
aI28
asVpalestre
p3493
(lp3494
I0
aI3
asVtonnellate
p3495
(lp3496
I0
aI2
asVzona
p3497
(lp3498
I27
aI21
asVzone
p3499
(lp3500
I11
aI7
asVflash
p3501
(lp3502
I6
aI2
asVedilizio
p3503
(lp3504
I24
aI0
asVimportante
p3505
(lp3506
I24
aI57
asVedilizia
p3507
(lp3508
I3
aI0
asVcopertura
p3509
(lp3510
I0
aI5
asVamburgo
p3511
(lp3512
I12
aI0
asVdivision
p3513
(lp3514
I3
aI0
asVsqualificato
p3515
(lp3516
I2
aI0
asVrubbiano
p3517
(lp3518
I0
aI3
asVmaggiori
p3519
(lp3520
I2
aI0
asViniziativa
p3521
(lp3522
I10
aI0
asViniziative
p3523
(lp3524
I2
aI0
asVmaggiore
p3525
(lp3526
I21
aI14
asVpassanti
p3527
(lp3528
I4
aI0
asVturno
p3529
(lp3530
I2
aI0
asVinchiesta
p3531
(lp3532
I3
aI4
asVaperto
p3533
(lp3534
I0
aI4
asVcose
p3535
(lp3536
I21
aI24
asValfa
p3537
(lp3538
I0
aI5
asVprimato
p3539
(lp3540
I0
aI2
asVcost
p3541
(lp3542
I3
aI0
asVmovente
p3543
(lp3544
I4
aI7
asVcargo
p3545
(lp3546
I0
aI2
asVwolff
p3547
(lp3548
I0
aI3
asVaffidamento
p3549
(lp3550
I3
aI0
asVnasri
p3551
(lp3552
I2
aI0
asValina
p3553
(lp3554
I3
aI3
asVsessismo
p3555
(lp3556
I2
aI4
asVscrittori
p3557
(lp3558
I3
aI0
asVimitazione
p3559
(lp3560
I0
aI3
asVprobabilmente
p3561
(lp3562
I0
aI15
asVbuco
p3563
(lp3564
I0
aI17
asVlakers
p3565
(lp3566
I4
aI0
asVrenzi
p3567
(lp3568
I92
aI90
asVmassoneria
p3569
(lp3570
I3
aI0
asVpedali
p3571
(lp3572
I2
aI0
asVitaliana
p3573
(lp3574
I42
aI29
asVitaliani
p3575
(lp3576
I8
aI30
asVitaliano
p3577
(lp3578
I21
aI19
asVsviluppo
p3579
(lp3580
I25
aI3
asVsindaci
p3581
(lp3582
I0
aI4
asVsindaco
p3583
(lp3584
I15
aI6
asVprova
p3585
(lp3586
I5
aI3
asVangeli
p3587
(lp3588
I2
aI0
asVbernard
p3589
(lp3590
I128
aI125
asVcavallo
p3591
(lp3592
I0
aI2
asVprovo
p3593
(lp3594
I0
aI4
asVrissa
p3595
(lp3596
I6
aI1
asVlive
p3597
(lp3598
I8
aI0
asVfrancese
p3599
(lp3600
I17
aI4
asVfrancesi
p3601
(lp3602
I13
aI13
asVtowers
p3603
(lp3604
I4
aI2
asVschiantandosi
p3605
(lp3606
I4
aI10
asVsponda
p3607
(lp3608
I4
aI0
asVridurre
p3609
(lp3610
I4
aI4
asVtrani
p3611
(lp3612
I0
aI6
asVincidente
p3613
(lp3614
I12
aI25
asVslogan
p3615
(lp3616
I3
aI2
asVlorusso
p3617
(lp3618
I0
aI4
asVmobilitazione
p3619
(lp3620
I0
aI4
asVincidenti
p3621
(lp3622
I4
aI0
asVmigranti
p3623
(lp3624
I7
aI22
asVtrans
p3625
(lp3626
I6
aI0
asVcaf
p3627
(lp3628
I25
aI29
asVgrasso
p3629
(lp3630
I0
aI3
asVgrassi
p3631
(lp3632
I0
aI5
asVregali
p3633
(lp3634
I0
aI2
asVspa
p3635
(lp3636
I1
aI0
asVtentando
p3637
(lp3638
I0
aI4
asVspf
p3639
(lp3640
I11
aI0
asVprenotazione
p3641
(lp3642
I0
aI3
asVrecenti
p3643
(lp3644
I2
aI1
asVdomenica
p3645
(lp3646
I10
aI11
asVfrullare
p3647
(lp3648
I0
aI2
asVesperimento
p3649
(lp3650
I36
aI31
asVdeputata
p3651
(lp3652
I4
aI2
asVdeputato
p3653
(lp3654
I6
aI0
asVdeputati
p3655
(lp3656
I9
aI8
asVvoci
p3657
(lp3658
I3
aI4
asVvoce
p3659
(lp3660
I8
aI12
asVcorona
p3661
(lp3662
I2
aI0
asVkafka
p3663
(lp3664
I2
aI0
asVstile
p3665
(lp3666
I27
aI19
asVuccide
p3667
(lp3668
I5
aI3
asVtablets
p3669
(lp3670
I0
aI2
asVstila
p3671
(lp3672
I0
aI1
asVvergogna
p3673
(lp3674
I1
aI0
asVcola
p3675
(lp3676
I0
aI4
asVforma
p3677
(lp3678
I13
aI28
asVfacciate
p3679
(lp3680
I1
aI0
asVazionista
p3681
(lp3682
I5
aI3
asVmarzo
p3683
(lp3684
I0
aI5
asVsol
p3685
(lp3686
I0
aI1
asVdifatti
p3687
(lp3688
I2
aI0
asVconcerto
p3689
(lp3690
I0
aI4
asVquagliariello
p3691
(lp3692
I0
aI2
asVjames
p3693
(lp3694
I4
aI0
asVsettimo
p3695
(lp3696
I0
aI12
asVyeah
p3697
(lp3698
I0
aI8
asVet
p3699
(lp3700
I8
aI3
asVthohir
p3701
(lp3702
I10
aI0
asValbum
p3703
(lp3704
I4
aI0
asVsessuali
p3705
(lp3706
I6
aI1
asVbenitez
p3707
(lp3708
I0
aI8
asVwhiteley
p3709
(lp3710
I0
aI6
asVsessuale
p3711
(lp3712
I9
aI24
asVpanorami
p3713
(lp3714
I0
aI2
asVmarini
p3715
(lp3716
I4
aI0
asVgaffe
p3717
(lp3718
I3
aI0
asVreddito
p3719
(lp3720
I2
aI3
asVospiteranno
p3721
(lp3722
I2
aI0
asVsabbia
p3723
(lp3724
I5
aI0
asVrubate
p3725
(lp3726
I8
aI0
asVromania
p3727
(lp3728
I3
aI3
asVvolete
p3729
(lp3730
I2
aI0
asVvotebalotelli
p3731
(lp3732
I1
aI1
asVxp
p3733
(lp3734
I5
aI10
asVtippi
p3735
(lp3736
I3
aI0
asVbloccare
p3737
(lp3738
I6
aI3
asVsolferino
p3739
(lp3740
I0
aI2
asVgiocavo
p3741
(lp3742
I0
aI8
asVinchinano
p3743
(lp3744
I0
aI2
asVporteremo
p3745
(lp3746
I1
aI0
asVvolato
p3747
(lp3748
I0
aI1
asVprecompilata
p3749
(lp3750
I56
aI25
asVcomandante
p3751
(lp3752
I0
aI2
asVprecompilato
p3753
(lp3754
I88
aI90
asVqual
p3755
(lp3756
I2
aI0
asVittiosi
p3757
(lp3758
I0
aI5
asVirregolari
p3759
(lp3760
I2
aI0
asVespositori
p3761
(lp3762
I18
aI18
asVsappia
p3763
(lp3764
I0
aI4
asVsupercoppa
p3765
(lp3766
I1
aI0
asVettari
p3767
(lp3768
I5
aI0
asVvocali
p3769
(lp3770
I2
aI0
asVsquassano
p3771
(lp3772
I1
aI0
asVvolar
p3773
(lp3774
I0
aI1
asVconfermato
p3775
(lp3776
I2
aI0
asVstradale
p3777
(lp3778
I5
aI3
asVbrowser
p3779
(lp3780
I0
aI2
asVterritorio
p3781
(lp3782
I11
aI0
asVmercatone
p3783
(lp3784
I3
aI0
asVinvestors
p3785
(lp3786
I0
aI2
asVsesso
p3787
(lp3788
I38
aI47
asVinibizione
p3789
(lp3790
I9
aI0
asVfarifrittata
p3791
(lp3792
I3
aI0
asVscatole
p3793
(lp3794
I0
aI8
asVsbilancia
p3795
(lp3796
I2
aI2
asVlavanderia
p3797
(lp3798
I2
aI0
asVterrific
p3799
(lp3800
I0
aI1
asVonline
p3801
(lp3802
I6
aI11
asVpalazzo
p3803
(lp3804
I23
aI19
asVsantiago
p3805
(lp3806
I5
aI0
asVnumeri
p3807
(lp3808
I0
aI10
asVparla
p3809
(lp3810
I4
aI13
asVprice
p3811
(lp3812
I19
aI0
asVnumero
p3813
(lp3814
I25
aI43
asVsuccessive
p3815
(lp3816
I1
aI0
asVamerica
p3817
(lp3818
I0
aI3
asVverbale
p3819
(lp3820
I3
aI0
asVdipendenza
p3821
(lp3822
I0
aI4
asVfemminile
p3823
(lp3824
I6
aI3
asVuomini
p3825
(lp3826
I34
aI29
asVferrari
p3827
(lp3828
I20
aI9
asVsoggetti
p3829
(lp3830
I16
aI11
asVmuove
p3831
(lp3832
I0
aI3
asVaiuta
p3833
(lp3834
I4
aI0
asVcacca
p3835
(lp3836
I0
aI4
asVamedeo
p3837
(lp3838
I14
aI0
asVcolombo
p3839
(lp3840
I3
aI0
asVkaurismaki
p3841
(lp3842
I3
aI0
asVmorirono
p3843
(lp3844
I4
aI2
asVcacci
p3845
(lp3846
I3
aI0
asVpodest
p3847
(lp3848
I0
aI7
asVlipera
p3849
(lp3850
I0
aI1
asVutilizza
p3851
(lp3852
I1
aI2
asVchopin
p3853
(lp3854
I0
aI2
asVutilizzo
p3855
(lp3856
I7
aI4
asVcattivi
p3857
(lp3858
I0
aI2
asVtelefoni
p3859
(lp3860
I0
aI2
asVfontia
p3861
(lp3862
I20
aI0
asVtelefono
p3863
(lp3864
I6
aI10
asVutilizzi
p3865
(lp3866
I0
aI1
asVsamuel
p3867
(lp3868
I0
aI1
asVbaghdad
p3869
(lp3870
I2
aI0
asVtelevisione
p3871
(lp3872
I1
aI2
asVmulino
p3873
(lp3874
I0
aI8
asVsoltanto
p3875
(lp3876
I6
aI6
asVpendolari
p3877
(lp3878
I3
aI4
asVcioccolato
p3879
(lp3880
I0
aI9
asVgiornata
p3881
(lp3882
I2
aI3
asVamanda
p3883
(lp3884
I3
aI0
asVdanae
p3885
(lp3886
I4
aI2
asVvisibili
p3887
(lp3888
I1
aI0
asVsport
p3889
(lp3890
I24
aI10
asVvisibile
p3891
(lp3892
I2
aI1
asVcristiani
p3893
(lp3894
I3
aI6
asVsettore
p3895
(lp3896
I19
aI13
asVmetropolitana
p3897
(lp3898
I0
aI5
asVisraele
p3899
(lp3900
I0
aI8
asVagricoltura
p3901
(lp3902
I3
aI4
asVsottosuolo
p3903
(lp3904
I1
aI1
asVsuicidio
p3905
(lp3906
I6
aI9
asVambienti
p3907
(lp3908
I0
aI2
asVsoverato
p3909
(lp3910
I2
aI0
asVambiente
p3911
(lp3912
I3
aI8
asVdisponibili
p3913
(lp3914
I5
aI0
asVdisponibile
p3915
(lp3916
I8
aI10
asVricorrente
p3917
(lp3918
I2
aI2
asVmons
p3919
(lp3920
I0
aI4
asVstipendi
p3921
(lp3922
I4
aI0
asVdisposizione
p3923
(lp3924
I5
aI10
asVsforzo
p3925
(lp3926
I0
aI5
asVrastrelli
p3927
(lp3928
I4
aI0
asVcontrario
p3929
(lp3930
I7
aI3
asVoliver
p3931
(lp3932
I4
aI0
asVmensa
p3933
(lp3934
I12
aI0
asVporsche
p3935
(lp3936
I0
aI4
asVcarey
p3937
(lp3938
I4
aI7
asVpesticidi
p3939
(lp3940
I0
aI5
asVbionica
p3941
(lp3942
I4
aI0
asVriapre
p3943
(lp3944
I2
aI0
asVvalere
p3945
(lp3946
I3
aI1
asVfedercalcio
p3947
(lp3948
I0
aI3
asVsusa
p3949
(lp3950
I0
aI1
asVosservatori
p3951
(lp3952
I0
aI1
asVsoldi
p3953
(lp3954
I11
aI8
asVsuso
p3955
(lp3956
I0
aI1
asVutili
p3957
(lp3958
I6
aI0
asVutile
p3959
(lp3960
I5
aI2
asVteheran
p3961
(lp3962
I9
aI0
asVmedio
p3963
(lp3964
I7
aI0
asVmedia
p3965
(lp3966
I36
aI17
asVcarabinieri
p3967
(lp3968
I19
aI44
asVfood
p3969
(lp3970
I4
aI3
asVgovernatore
p3971
(lp3972
I20
aI16
asVallerta
p3973
(lp3974
I5
aI5
asVquantistica
p3975
(lp3976
I2
aI0
asVthunderbolt
p3977
(lp3978
I4
aI0
asVdavutoglu
p3979
(lp3980
I0
aI12
asVfoam
p3981
(lp3982
I4
aI0
asVpopolare
p3983
(lp3984
I19
aI5
asVvalidato
p3985
(lp3986
I1
aI2
asVvolley
p3987
(lp3988
I2
aI5
asVconiuge
p3989
(lp3990
I3
aI0
asVfantascienza
p3991
(lp3992
I0
aI6
asVconiugi
p3993
(lp3994
I6
aI0
asVradice
p3995
(lp3996
I5
aI0
asVsevera
p3997
(lp3998
I3
aI0
asVtaxi
p3999
(lp4000
I8
aI2
asVtelefonini
p4001
(lp4002
I1
aI0
asVtelefonino
p4003
(lp4004
I1
aI4
asVsovraperformare
p4005
(lp4006
I3
aI0
asVsufficiente
p4007
(lp4008
I1
aI0
asVidentit
p4009
(lp4010
I11
aI19
asVvalutazione
p4011
(lp4012
I13
aI7
asVsvalutazioni
p4013
(lp4014
I1
aI0
asVrinnovo
p4015
(lp4016
I5
aI13
asVversi
p4017
(lp4018
I24
aI0
asVreal
p4019
(lp4020
I24
aI25
asVuilm
p4021
(lp4022
I5
aI0
asVrspo
p4023
(lp4024
I0
aI11
asVama
p4025
(lp4026
I17
aI0
asVimprenditori
p4027
(lp4028
I6
aI0
asVpsg
p4029
(lp4030
I0
aI9
asVusino
p4031
(lp4032
I0
aI2
asVams
p4033
(lp4034
I127
aI118
asVlady
p4035
(lp4036
I0
aI2
asVfortuna
p4037
(lp4038
I3
aI0
asVmourinho
p4039
(lp4040
I0
aI1
asVappia
p4041
(lp4042
I0
aI9
asVharam
p4043
(lp4044
I2
aI0
asVgiuseppe
p4045
(lp4046
I0
aI1
asVrivendicato
p4047
(lp4048
I2
aI0
asVzubani
p4049
(lp4050
I5
aI5
asVtessera
p4051
(lp4052
I0
aI4
asVmattarella
p4053
(lp4054
I0
aI3
asVrapporti
p4055
(lp4056
I0
aI2
asVrapporto
p4057
(lp4058
I40
aI18
asVrepubblica
p4059
(lp4060
I1
aI0
asVregine
p4061
(lp4062
I1
aI0
asVveneto
p4063
(lp4064
I0
aI12
asVpassione
p4065
(lp4066
I3
aI5
asVdeficit
p4067
(lp4068
I9
aI0
asVdiurna
p4069
(lp4070
I4
aI0
asVnuggets
p4071
(lp4072
I0
aI1
asVbusiness
p4073
(lp4074
I5
aI0
asVfrancia
p4075
(lp4076
I27
aI24
asVcredito
p4077
(lp4078
I11
aI2
asVvolkswagen
p4079
(lp4080
I1
aI13
asVlombardia
p4081
(lp4082
I2
aI7
asVhamburgheria
p4083
(lp4084
I6
aI6
asVvarco
p4085
(lp4086
I0
aI1
asVpanni
p4087
(lp4088
I0
aI4
asVentrate
p4089
(lp4090
I83
aI82
asVvicolo
p4091
(lp4092
I0
aI2
asVsrl
p4093
(lp4094
I8
aI5
asVprevisioni
p4095
(lp4096
I5
aI0
asVvenuto
p4097
(lp4098
I0
aI2
asVoutlook
p4099
(lp4100
I8
aI0
asVmoric
p4101
(lp4102
I10
aI0
asVvenuti
p4103
(lp4104
I1
aI2
asVelementari
p4105
(lp4106
I0
aI1
asVtestimonianza
p4107
(lp4108
I3
aI0
asVsiffredi
p4109
(lp4110
I4
aI9
asVvenute
p4111
(lp4112
I1
aI2
asVproteste
p4113
(lp4114
I2
aI0
asVprotesta
p4115
(lp4116
I2
aI8
asVreclusione
p4117
(lp4118
I28
aI9
asVstare
p4119
(lp4120
I0
aI6
asVprepara
p4121
(lp4122
I1
aI1
asVspaak
p4123
(lp4124
I4
aI4
asVbarca
p4125
(lp4126
I2
aI0
asVarea
p4127
(lp4128
I36
aI19
asVstark
p4129
(lp4130
I1
aI0
asVstart
p4131
(lp4132
I5
aI0
asVgiocatori
p4133
(lp4134
I24
aI32
asVcats
p4135
(lp4136
I0
aI3
asVvalencia
p4137
(lp4138
I1
aI2
asVordinato
p4139
(lp4140
I3
aI0
asVgiocatore
p4141
(lp4142
I3
aI5
asVvettura
p4143
(lp4144
I10
aI0
asVpastiglie
p4145
(lp4146
I2
aI0
asVsfruttamento
p4147
(lp4148
I0
aI1
asVricostruisce
p4149
(lp4150
I2
aI0
asVviarengo
p4151
(lp4152
I0
aI4
asVrichieste
p4153
(lp4154
I12
aI18
asVpharrell
p4155
(lp4156
I2
aI0
asVrichiesta
p4157
(lp4158
I20
aI5
asVcomics
p4159
(lp4160
I0
aI6
asVofferta
p4161
(lp4162
I13
aI7
asVofferti
p4163
(lp4164
I1
aI0
asVsemiconduttori
p4165
(lp4166
I2
aI0
asVthicke
p4167
(lp4168
I4
aI0
asVvasyliev
p4169
(lp4170
I0
aI1
asVvoleva
p4171
(lp4172
I6
aI11
asVsicrea
p4173
(lp4174
I6
aI0
asVneri
p4175
(lp4176
I28
aI10
asVfusioni
p4177
(lp4178
I3
aI0
asVventre
p4179
(lp4180
I1
aI0
asVarabo
p4181
(lp4182
I2
aI2
asVaraba
p4183
(lp4184
I0
aI2
asVfusione
p4185
(lp4186
I9
aI0
asVeurozona
p4187
(lp4188
I5
aI0
asVantenne
p4189
(lp4190
I20
aI0
asVantenna
p4191
(lp4192
I0
aI3
asVpotrete
p4193
(lp4194
I2
aI0
asVegitto
p4195
(lp4196
I0
aI3
asVmonsignore
p4197
(lp4198
I0
aI2
asVscienziati
p4199
(lp4200
I4
aI9
asVsorridono
p4201
(lp4202
I3
aI3
asVtiepida
p4203
(lp4204
I5
aI10
asVtaranto
p4205
(lp4206
I5
aI0
asVvadim
p4207
(lp4208
I0
aI2
asVspostamento
p4209
(lp4210
I0
aI2
asVspostamenti
p4211
(lp4212
I3
aI0
asVstringa
p4213
(lp4214
I0
aI2
asVfamosi
p4215
(lp4216
I2
aI5
asVtrasmessa
p4217
(lp4218
I1
aI0
asVarianna
p4219
(lp4220
I4
aI0
asVfamoso
p4221
(lp4222
I4
aI0
asVfamosa
p4223
(lp4224
I0
aI3
asVmessa
p4225
(lp4226
I15
aI9
asVgiorgio
p4227
(lp4228
I8
aI6
asVmonte
p4229
(lp4230
I10
aI10
asVqualsiasi
p4231
(lp4232
I7
aI13
asVfigli
p4233
(lp4234
I13
aI17
asVmessi
p4235
(lp4236
I7
aI0
asVmonti
p4237
(lp4238
I3
aI0
asVappreso
p4239
(lp4240
I2
aI2
asVcontrollore
p4241
(lp4242
I4
aI0
asVmp3
p4243
(lp4244
I4
aI0
asVfiducia
p4245
(lp4246
I45
aI24
asVistruzione
p4247
(lp4248
I0
aI8
asVvolle
p4249
(lp4250
I0
aI2
asVchiellini
p4251
(lp4252
I0
aI3
asVcanzone
p4253
(lp4254
I7
aI0
asVabbonamenti
p4255
(lp4256
I3
aI0
asVcollaborazione
p4257
(lp4258
I0
aI5
asVcanzoni
p4259
(lp4260
I7
aI2
asVverr
p4261
(lp4262
I9
aI3
asVventiquattr
p4263
(lp4264
I0
aI3
asVhorror
p4265
(lp4266
I0
aI3
asVvera
p4267
(lp4268
I7
aI22
asVvere
p4269
(lp4270
I2
aI1
asVmps
p4271
(lp4272
I7
aI12
asVveri
p4273
(lp4274
I11
aI31
asVvero
p4275
(lp4276
I25
aI32
asVbova
p4277
(lp4278
I0
aI3
asVclausura
p4279
(lp4280
I0
aI7
asVanas
p4281
(lp4282
I16
aI8
asVoblak
p4283
(lp4284
I6
aI0
asVappalti
p4285
(lp4286
I3
aI0
asVisma
p4287
(lp4288
I0
aI3
asVscissione
p4289
(lp4290
I6
aI0
asVinstagram
p4291
(lp4292
I2
aI0
asVovvero
p4293
(lp4294
I3
aI3
asVemendamento
p4295
(lp4296
I5
aI0
asVtraguardo
p4297
(lp4298
I2
aI2
asVleggere
p4299
(lp4300
I5
aI0
asVrimanere
p4301
(lp4302
I2
aI4
asViran
p4303
(lp4304
I9
aI14
asVaceto
p4305
(lp4306
I6
aI0
asViraq
p4307
(lp4308
I9
aI0
asVarena
p4309
(lp4310
I4
aI0
asVsaman
p4311
(lp4312
I0
aI3
asVmarilia
p4313
(lp4314
I49
aI35
asVricercatori
p4315
(lp4316
I30
aI18
asVtranquillo
p4317
(lp4318
I3
aI0
asVtranquilli
p4319
(lp4320
I1
aI3
asVvenne
p4321
(lp4322
I8
aI5
asVacciaio
p4323
(lp4324
I2
aI0
asValzheimer
p4325
(lp4326
I34
aI90
asVgestione
p4327
(lp4328
I4
aI0
asVprofughi
p4329
(lp4330
I7
aI15
asVcardone
p4331
(lp4332
I4
aI0
asVsuicidi
p4333
(lp4334
I5
aI0
asVimpianto
p4335
(lp4336
I4
aI11
asVimpianti
p4337
(lp4338
I9
aI4
asVzorc
p4339
(lp4340
I0
aI2
asVinjury
p4341
(lp4342
I1
aI0
asVpercentuale
p4343
(lp4344
I9
aI0
asVarmerina
p4345
(lp4346
I5
aI0
asVfanfiction
p4347
(lp4348
I12
aI0
asVfelici
p4349
(lp4350
I12
aI6
asVredatto
p4351
(lp4352
I0
aI1
asVstraordinario
p4353
(lp4354
I2
aI1
asVrivoluzionari
p4355
(lp4356
I4
aI0
asVnina
p4357
(lp4358
I8
aI0
asVapfa
p4359
(lp4360
I2
aI0
asVvittima
p4361
(lp4362
I14
aI4
asVvittime
p4363
(lp4364
I79
aI39
asVsentinella
p4365
(lp4366
I1
aI0
asVdivinit
p4367
(lp4368
I4
aI4
asVmontevecchio
p4369
(lp4370
I2
aI0
asVeaze
p4371
(lp4372
I0
aI5
asVpiega
p4373
(lp4374
I2
aI0
asVvolontari
p4375
(lp4376
I1
aI9
asVeataly
p4377
(lp4378
I0
aI5
asVthyssenkrupp
p4379
(lp4380
I0
aI2
asVuniversitari
p4381
(lp4382
I0
aI3
asVcompagni
p4383
(lp4384
I0
aI3
asVcompagno
p4385
(lp4386
I15
aI0
asVarmena
p4387
(lp4388
I0
aI4
asVcompagna
p4389
(lp4390
I9
aI18
asVconsigliere
p4391
(lp4392
I4
aI3
asVfondamentale
p4393
(lp4394
I6
aI3
asVtrovava
p4395
(lp4396
I8
aI6
asVuscire
p4397
(lp4398
I2
aI2
asVriposo
p4399
(lp4400
I3
aI0
asVmeza
p4401
(lp4402
I6
aI4
asVcapogruppo
p4403
(lp4404
I26
aI4
asVphotoshop
p4405
(lp4406
I4
aI6
asVeroe
p4407
(lp4408
I0
aI4
asVurine
p4409
(lp4410
I2
aI0
asVtorneo
p4411
(lp4412
I2
aI3
asVeros
p4413
(lp4414
I2
aI0
asValbergo
p4415
(lp4416
I8
aI4
asVpubblicitari
p4417
(lp4418
I4
aI2
asVvaticano
p4419
(lp4420
I16
aI11
asVpeanuts
p4421
(lp4422
I3
aI0
asVcurtis
p4423
(lp4424
I4
aI0
asVceo
p4425
(lp4426
I3
aI9
asVtocco
p4427
(lp4428
I4
aI2
asVshuttle
p4429
(lp4430
I0
aI4
asVscampati
p4431
(lp4432
I1
aI2
asVpercorso
p4433
(lp4434
I10
aI6
asVanzich
p4435
(lp4436
I6
aI0
asVscrivere
p4437
(lp4438
I2
aI0
asVoccasioni
p4439
(lp4440
I0
aI2
asVpanicucci
p4441
(lp4442
I0
aI5
asVtrailer
p4443
(lp4444
I0
aI2
asVoccasione
p4445
(lp4446
I2
aI2
asVpalasport
p4447
(lp4448
I0
aI3
asVgutgeld
p4449
(lp4450
I0
aI5
asVtodd
p4451
(lp4452
I0
aI1
asVtodi
p4453
(lp4454
I4
aI0
asVmarcia
p4455
(lp4456
I3
aI0
asVbuoni
p4457
(lp4458
I0
aI5
asVvorranno
p4459
(lp4460
I1
aI0
asVrobert
p4461
(lp4462
I2
aI4
asVnuvole
p4463
(lp4464
I0
aI2
asVbiorobotica
p4465
(lp4466
I3
aI0
asVidratazione
p4467
(lp4468
I7
aI0
asVbase
p4469
(lp4470
I2
aI7
asVmorello
p4471
(lp4472
I7
aI0
asVpropriet
p4473
(lp4474
I0
aI4
asVsantilli
p4475
(lp4476
I6
aI0
asVmoutinho
p4477
(lp4478
I0
aI2
asVgriner
p4479
(lp4480
I9
aI6
asVbrasiliano
p4481
(lp4482
I0
aI2
asVvisione
p4483
(lp4484
I3
aI1
asVtf1
p4485
(lp4486
I3
aI0
asVecommerce
p4487
(lp4488
I0
aI14
asVvilla
p4489
(lp4490
I9
aI0
asVcifra
p4491
(lp4492
I5
aI0
asVdisagi
p4493
(lp4494
I2
aI5
asVvincere
p4495
(lp4496
I3
aI14
asVnorma
p4497
(lp4498
I12
aI4
asVnorme
p4499
(lp4500
I0
aI2
asVncd
p4501
(lp4502
I0
aI1
asVforestieri
p4503
(lp4504
I2
aI0
asVsto
p4505
(lp4506
I3
aI1
asVanticipata
p4507
(lp4508
I0
aI5
asVpuglia
p4509
(lp4510
I3
aI0
asVuruguagio
p4511
(lp4512
I0
aI2
asVsubstantiam
p4513
(lp4514
I2
aI2
asVeternamente
p4515
(lp4516
I2
aI2
asVmaledizione
p4517
(lp4518
I4
aI6
asVcavi
p4519
(lp4520
I4
aI0
asVratchford
p4521
(lp4522
I9
aI3
asVcatinelle
p4523
(lp4524
I6
aI15
asVquota
p4525
(lp4526
I9
aI10
asVbridle
p4527
(lp4528
I0
aI4
asVcinesi
p4529
(lp4530
I0
aI3
asVisspresso
p4531
(lp4532
I0
aI4
asVsoriano
p4533
(lp4534
I0
aI2
asVcinese
p4535
(lp4536
I7
aI8
asVyoutuning
p4537
(lp4538
I2
aI0
asVmobili
p4539
(lp4540
I0
aI5
asVribattere
p4541
(lp4542
I2
aI2
asVreparto
p4543
(lp4544
I0
aI2
asVsalari
p4545
(lp4546
I2
aI3
asVusufruito
p4547
(lp4548
I0
aI1
asVdanza
p4549
(lp4550
I4
aI3
asVvarando
p4551
(lp4552
I0
aI1
asVsportiva
p4553
(lp4554
I4
aI8
asVquei
p4555
(lp4556
I9
aI0
asVsportivo
p4557
(lp4558
I0
aI13
asVperugia
p4559
(lp4560
I2
aI0
asVriporta
p4561
(lp4562
I2
aI0
asVvillamor
p4563
(lp4564
I3
aI0
asVilluminazione
p4565
(lp4566
I0
aI7
asVxylella
p4567
(lp4568
I19
aI2
asVrocco
p4569
(lp4570
I6
aI6
asVviminale
p4571
(lp4572
I5
aI4
asVsciamadda
p4573
(lp4574
I2
aI0
asVvoler
p4575
(lp4576
I2
aI0
asVreligiose
p4577
(lp4578
I0
aI14
asVlocali
p4579
(lp4580
I12
aI0
asVlocale
p4581
(lp4582
I47
aI13
asVprodurre
p4583
(lp4584
I0
aI6
asVreligioso
p4585
(lp4586
I8
aI3
asVmonza
p4587
(lp4588
I2
aI0
asVgiugno
p4589
(lp4590
I5
aI6
asVmanning
p4591
(lp4592
I8
aI0
asVcultura
p4593
(lp4594
I2
aI4
asVveleni
p4595
(lp4596
I0
aI1
asVagosto
p4597
(lp4598
I66
aI60
asVpisa
p4599
(lp4600
I16
aI6
asVvitalizi
p4601
(lp4602
I14
aI14
asVspecializzata
p4603
(lp4604
I0
aI2
asVferrovia
p4605
(lp4606
I0
aI4
asVumidit
p4607
(lp4608
I2
aI0
asVleague
p4609
(lp4610
I65
aI101
asVistituzioni
p4611
(lp4612
I5
aI0
asVistituzione
p4613
(lp4614
I2
aI0
asVconsonni
p4615
(lp4616
I2
aI0
asVcapelli
p4617
(lp4618
I6
aI0
asVjovetic
p4619
(lp4620
I2
aI0
asVsuccessi
p4621
(lp4622
I0
aI1
asVprestazione
p4623
(lp4624
I5
aI0
asVsuccesso
p4625
(lp4626
I31
aI15
asVrispettive
p4627
(lp4628
I1
aI1
asVvorrebbe
p4629
(lp4630
I3
aI8
asVsaldare
p4631
(lp4632
I2
aI0
asVprestazioni
p4633
(lp4634
I0
aI2
asVsbagli
p4635
(lp4636
I2
aI4
asVferrero
p4637
(lp4638
I4
aI4
asVterritori
p4639
(lp4640
I1
aI0
asVvisualizza
p4641
(lp4642
I1
aI0
asVwalter
p4643
(lp4644
I4
aI2
asVscalfarotto
p4645
(lp4646
I1
aI1
asVorari
p4647
(lp4648
I8
aI0
asVpagato
p4649
(lp4650
I4
aI2
asVrubavano
p4651
(lp4652
I2
aI2
asVpace
p4653
(lp4654
I7
aI4
asVmatch
p4655
(lp4656
I12
aI22
asVguida
p4657
(lp4658
I0
aI4
asVtutela
p4659
(lp4660
I10
aI8
asVchiede
p4661
(lp4662
I10
aI0
asVtutele
p4663
(lp4664
I0
aI2
asVsollecitazione
p4665
(lp4666
I0
aI1
asVskype
p4667
(lp4668
I5
aI0
asVsogin
p4669
(lp4670
I3
aI0
asVgrant
p4671
(lp4672
I50
aI0
asVturistico
p4673
(lp4674
I3
aI0
asVvogliano
p4675
(lp4676
I1
aI0
asVsalone
p4677
(lp4678
I10
aI29
asVturistica
p4679
(lp4680
I4
aI0
asVmarcello
p4681
(lp4682
I0
aI6
asVmoralit
p4683
(lp4684
I0
aI1
asVfede
p4685
(lp4686
I4
aI8
asVbonus
p4687
(lp4688
I7
aI10
asVpubalgia
p4689
(lp4690
I3
aI0
asVfatti
p4691
(lp4692
I0
aI6
asVvigilia
p4693
(lp4694
I14
aI14
asVfatta
p4695
(lp4696
I0
aI4
asVarturo
p4697
(lp4698
I16
aI4
asVciucci
p4699
(lp4700
I36
aI18
asVmilner
p4701
(lp4702
I0
aI3
asVsigilli
p4703
(lp4704
I0
aI1
asVipoteca
p4705
(lp4706
I4
aI0
asVatenei
p4707
(lp4708
I21
aI21
asVateneo
p4709
(lp4710
I18
aI15
asVcervello
p4711
(lp4712
I0
aI8
asVedizione
p4713
(lp4714
I6
aI3
asVcompetitivit
p4715
(lp4716
I5
aI0
asVrevoca
p4717
(lp4718
I0
aI2
asVtrovati
p4719
(lp4720
I0
aI1
asVtrovato
p4721
(lp4722
I22
aI23
asVtrovata
p4723
(lp4724
I1
aI0
asVtrovate
p4725
(lp4726
I1
aI1
asVcheryl
p4727
(lp4728
I139
aI142
asVstein
p4729
(lp4730
I4
aI0
asVgreenwolf
p4731
(lp4732
I0
aI2
asVtriste
p4733
(lp4734
I2
aI2
asVgame
p4735
(lp4736
I7
aI0
asVamare
p4737
(lp4738
I0
aI2
asVbeffa
p4739
(lp4740
I0
aI2
asVcamerini
p4741
(lp4742
I6
aI3
asVvolatilit
p4743
(lp4744
I1
aI0
asVdonne
p4745
(lp4746
I93
aI37
asVdonna
p4747
(lp4748
I223
aI149
asVtantissimo
p4749
(lp4750
I1
aI0
asVtantissimi
p4751
(lp4752
I1
aI3
asVsuccede
p4753
(lp4754
I7
aI4
asVtrasparenti
p4755
(lp4756
I0
aI1
asVneanche
p4757
(lp4758
I2
aI8
asVsenior
p4759
(lp4760
I0
aI2
asVmidollo
p4761
(lp4762
I0
aI2
asVproporre
p4763
(lp4764
I2
aI0
asVvincenti
p4765
(lp4766
I0
aI4
asVvincente
p4767
(lp4768
I21
aI18
asVclassico
p4769
(lp4770
I18
aI0
asVbufera
p4771
(lp4772
I0
aI2
asVassegno
p4773
(lp4774
I0
aI3
asVaires
p4775
(lp4776
I0
aI2
asVugualmente
p4777
(lp4778
I1
aI0
asVaffrontato
p4779
(lp4780
I0
aI2
asVdovizioso
p4781
(lp4782
I4
aI6
asVverrini
p4783
(lp4784
I0
aI4
asVfineco
p4785
(lp4786
I5
aI7
asVmoseley
p4787
(lp4788
I0
aI2
asVposseduto
p4789
(lp4790
I8
aI4
asVtenere
p4791
(lp4792
I6
aI3
asVdipr
p4793
(lp4794
I0
aI3
asVpolitecnico
p4795
(lp4796
I33
aI44
asVorientale
p4797
(lp4798
I5
aI0
asVpadova
p4799
(lp4800
I4
aI16
asVinfo
p4801
(lp4802
I22
aI0
asVinfn
p4803
(lp4804
I0
aI3
asVpaolo
p4805
(lp4806
I10
aI6
asVtunisino
p4807
(lp4808
I0
aI1
asVpaola
p4809
(lp4810
I0
aI5
asVmobile
p4811
(lp4812
I7
aI10
asVcircuito
p4813
(lp4814
I21
aI44
asVchelsea
p4815
(lp4816
I6
aI10
asVuber
p4817
(lp4818
I5
aI25
asVstagione
p4819
(lp4820
I106
aI125
asVcroato
p4821
(lp4822
I6
aI0
asVvictories
p4823
(lp4824
I1
aI0
asVsgomberati
p4825
(lp4826
I2
aI0
asVmoriva
p4827
(lp4828
I2
aI2
asVvescica
p4829
(lp4830
I0
aI1
asVcronologia
p4831
(lp4832
I0
aI2
asVricciardi
p4833
(lp4834
I3
aI0
asVportato
p4835
(lp4836
I0
aI8
asVmanhattan
p4837
(lp4838
I0
aI3
asVtelecamere
p4839
(lp4840
I2
aI0
asVtestata
p4841
(lp4842
I2
aI3
asVstanchi
p4843
(lp4844
I5
aI0
asVtestati
p4845
(lp4846
I2
aI0
asVperno
p4847
(lp4848
I2
aI2
asVseduta
p4849
(lp4850
I2
aI2
asVvisita
p4851
(lp4852
I8
aI4
asVvenendo
p4853
(lp4854
I1
aI0
asVdvd
p4855
(lp4856
I0
aI3
asVyoutube
p4857
(lp4858
I5
aI9
asVfosse
p4859
(lp4860
I7
aI7
asVdomiziano
p4861
(lp4862
I0
aI4
asVgt
p4863
(lp4864
I0
aI8
asVgq
p4865
(lp4866
I0
aI2
asVgp
p4867
(lp4868
I6
aI4
asVtermal
p4869
(lp4870
I0
aI1
asVgb
p4871
(lp4872
I6
aI0
asVvuole
p4873
(lp4874
I22
aI36
asVcolluttazioni
p4875
(lp4876
I10
aI20
asVgm
p4877
(lp4878
I16
aI24
asVvaccinazioni
p4879
(lp4880
I4
aI3
asVstava
p4881
(lp4882
I22
aI15
asVaria
p4883
(lp4884
I0
aI6
asVspesso
p4885
(lp4886
I12
aI14
asVrecuperare
p4887
(lp4888
I3
aI5
asVmegale
p4889
(lp4890
I2
aI0
asVfotocamera
p4891
(lp4892
I8
aI4
asVnomina
p4893
(lp4894
I6
aI0
asVg8
p4895
(lp4896
I5
aI0
asVtavolo
p4897
(lp4898
I1
aI1
asVfacebook
p4899
(lp4900
I54
aI68
asVga
p4901
(lp4902
I0
aI5
asVpatrimoniali
p4903
(lp4904
I2
aI0
asVtavola
p4905
(lp4906
I0
aI8
asVgender
p4907
(lp4908
I63
aI41
asVcongiunta
p4909
(lp4910
I2
aI0
asVbarbara
p4911
(lp4912
I3
aI0
asVcrescita
p4913
(lp4914
I15
aI8
asVriporre
p4915
(lp4916
I0
aI3
asVsultano
p4917
(lp4918
I1
aI1
asVblitz
p4919
(lp4920
I3
aI6
asVmutuo
p4921
(lp4922
I3
aI0
asVvolere
p4923
(lp4924
I1
aI3
asVcisl
p4925
(lp4926
I0
aI4
asVvales
p4927
(lp4928
I0
aI2
asVgiustizia
p4929
(lp4930
I7
aI16
asVcollina
p4931
(lp4932
I2
aI0
asVespresso
p4933
(lp4934
I0
aI4
asVscottature
p4935
(lp4936
I3
aI0
asVmalesia
p4937
(lp4938
I0
aI5
asVticketone
p4939
(lp4940
I0
aI1
asVpolveri
p4941
(lp4942
I2
aI2
asVcuneo
p4943
(lp4944
I0
aI3
asVcanale
p4945
(lp4946
I0
aI4
asVquell
p4947
(lp4948
I1
aI1
asVinfortunio
p4949
(lp4950
I0
aI14
asVtentato
p4951
(lp4952
I5
aI1
asVpatente
p4953
(lp4954
I7
aI0
asVlubitz
p4955
(lp4956
I0
aI4
asVjrue
p4957
(lp4958
I0
aI2
asVviolenta
p4959
(lp4960
I4
aI0
asVviolento
p4961
(lp4962
I3
aI0
asVviolenti
p4963
(lp4964
I2
aI0
asVdichiara
p4965
(lp4966
I6
aI0
asValessandria
p4967
(lp4968
I51
aI101
asVcamera
p4969
(lp4970
I4
aI0
asVburocrazia
p4971
(lp4972
I3
aI0
asVcamere
p4973
(lp4974
I10
aI10
asVverticistica
p4975
(lp4976
I0
aI1
asVavvocati
p4977
(lp4978
I10
aI20
asVvictory
p4979
(lp4980
I0
aI1
asVavvocato
p4981
(lp4982
I12
aI8
asVpunito
p4983
(lp4984
I4
aI6
asVattivit
p4985
(lp4986
I26
aI14
asVpiacentino
p4987
(lp4988
I0
aI2
asVdentisti
p4989
(lp4990
I0
aI2
asVcrollo
p4991
(lp4992
I3
aI0
asVcrolli
p4993
(lp4994
I4
aI0
asVtassisti
p4995
(lp4996
I14
aI9
asVdevono
p4997
(lp4998
I6
aI3
asVsalas
p4999
(lp5000
I0
aI2
asVjerkovic
p5001
(lp5002
I4
aI2
asVcantante
p5003
(lp5004
I10
aI4
asVsantuario
p5005
(lp5006
I0
aI17
asVeccessiva
p5007
(lp5008
I0
aI3
asVvolano
p5009
(lp5010
I0
aI1
asVishares
p5011
(lp5012
I1
aI0
asVhurriyet
p5013
(lp5014
I0
aI2
asVsentimenti
p5015
(lp5016
I1
aI1
asVgeorg
p5017
(lp5018
I0
aI5
asVvolant
p5019
(lp5020
I0
aI1
asVprogramma
p5021
(lp5022
I54
aI41
asVspelling
p5023
(lp5024
I0
aI4
asVmarylin
p5025
(lp5026
I0
aI2
asVpagare
p5027
(lp5028
I0
aI6
asVritrae
p5029
(lp5030
I1
aI0
asVoperazioni
p5031
(lp5032
I8
aI0
asVconoscenza
p5033
(lp5034
I8
aI6
asVprevidenziali
p5035
(lp5036
I0
aI2
asVoperazione
p5037
(lp5038
I13
aI27
asVuildm
p5039
(lp5040
I2
aI0
asVchiediamo
p5041
(lp5042
I16
aI8
asVlitri
p5043
(lp5044
I5
aI0
asVspero
p5045
(lp5046
I1
aI0
asVtafferugli
p5047
(lp5048
I0
aI2
asVpenalizzazione
p5049
(lp5050
I22
aI3
asVparroco
p5051
(lp5052
I0
aI2
asVmadre
p5053
(lp5054
I102
aI66
asVfitto
p5055
(lp5056
I3
aI3
asVconsenso
p5057
(lp5058
I0
aI3
asVpixel
p5059
(lp5060
I4
aI0
asVauto
p5061
(lp5062
I63
aI82
asVnokia
p5063
(lp5064
I53
aI39
asVusgs
p5065
(lp5066
I3
aI0
asVuniversity
p5067
(lp5068
I6
aI22
asVluna
p5069
(lp5070
I2
aI10
asVcrossing
p5071
(lp5072
I0
aI3
asVmodi
p5073
(lp5074
I2
aI4
asVcandela
p5075
(lp5076
I4
aI0
asVmodo
p5077
(lp5078
I40
aI51
asVgiuliani
p5079
(lp5080
I80
aI30
asVtrovare
p5081
(lp5082
I7
aI1
asVspecial
p5083
(lp5084
I2
aI0
asVcommesso
p5085
(lp5086
I5
aI0
asVcommessi
p5087
(lp5088
I3
aI0
asVcommessa
p5089
(lp5090
I3
aI0
asVspecialmente
p5091
(lp5092
I0
aI2
asVsiena
p5093
(lp5094
I0
aI4
asVcausa
p5095
(lp5096
I2
aI6
asViracheni
p5097
(lp5098
I0
aI2
asVeco
p5099
(lp5100
I13
aI0
asVceltics
p5101
(lp5102
I0
aI3
asVchecco
p5103
(lp5104
I6
aI15
asVbipop
p5105
(lp5106
I0
aI7
asVprotagoniste
p5107
(lp5108
I0
aI1
asVvolgare
p5109
(lp5110
I0
aI1
asVprotagonista
p5111
(lp5112
I0
aI3
asVgalline
p5113
(lp5114
I0
aI2
asVimbecille
p5115
(lp5116
I0
aI6
asVflorida
p5117
(lp5118
I2
aI0
asVprotagonisti
p5119
(lp5120
I0
aI1
asVtimes
p5121
(lp5122
I7
aI3
asVaustin
p5123
(lp5124
I0
aI2
asVcristian
p5125
(lp5126
I3
aI0
asVqualita
p5127
(lp5128
I3
aI0
asVart
p5129
(lp5130
I10
aI0
asVmanagement
p5131
(lp5132
I2
aI0
asVprivacy
p5133
(lp5134
I0
aI9
asVrigori
p5135
(lp5136
I0
aI11
asVveglie
p5137
(lp5138
I4
aI0
asVnorvegese
p5139
(lp5140
I16
aI0
asVpromosso
p5141
(lp5142
I0
aI2
asVtegola
p5143
(lp5144
I0
aI2
asVoggetto
p5145
(lp5146
I4
aI11
asVoggetti
p5147
(lp5148
I2
aI0
asVmariano
p5149
(lp5150
I0
aI6
asVrsa
p5151
(lp5152
I4
aI0
asVfuoco
p5153
(lp5154
I32
aI12
asVesecuzione
p5155
(lp5156
I1
aI0
asVbieber
p5157
(lp5158
I0
aI5
asVlista
p5159
(lp5160
I13
aI12
asVsentimentali
p5161
(lp5162
I0
aI2
asVultimatum
p5163
(lp5164
I1
aI1
asVstimato
p5165
(lp5166
I2
aI0
asVcostruzioni
p5167
(lp5168
I2
aI6
asVspurs
p5169
(lp5170
I3
aI2
asVneet
p5171
(lp5172
I0
aI2
asVriavere
p5173
(lp5174
I2
aI0
asVgranata
p5175
(lp5176
I8
aI15
asVudienze
p5177
(lp5178
I0
aI6
asVudienza
p5179
(lp5180
I0
aI2
asVpresenze
p5181
(lp5182
I3
aI0
asVpianoforte
p5183
(lp5184
I0
aI2
asVpresenza
p5185
(lp5186
I4
aI5
asVendurista
p5187
(lp5188
I2
aI0
asVvertice
p5189
(lp5190
I2
aI0
asVlapucci
p5191
(lp5192
I0
aI6
asVvertici
p5193
(lp5194
I2
aI14
asVdetector
p5195
(lp5196
I2
aI9
asVzaini
p5197
(lp5198
I0
aI1
asVzaino
p5199
(lp5200
I1
aI0
asVpensando
p5201
(lp5202
I0
aI1
asVgallery
p5203
(lp5204
I0
aI1
asVsilenzio
p5205
(lp5206
I0
aI12
asVcentinaia
p5207
(lp5208
I14
aI4
asVgirare
p5209
(lp5210
I4
aI0
asVdistanze
p5211
(lp5212
I0
aI3
asVprogettisti
p5213
(lp5214
I3
aI0
asVdistanza
p5215
(lp5216
I2
aI0
asVprotegge
p5217
(lp5218
I1
aI0
asVportare
p5219
(lp5220
I0
aI6
asVvenerd
p5221
(lp5222
I7
aI5
asVraikkonen
p5223
(lp5224
I3
aI2
asVpoggia
p5225
(lp5226
I1
aI0
asVpasso
p5227
(lp5228
I16
aI5
asVpassi
p5229
(lp5230
I0
aI4
asVfinanziari
p5231
(lp5232
I4
aI0
asVscuole
p5233
(lp5234
I10
aI11
asVtira
p5235
(lp5236
I3
aI0
asVscuola
p5237
(lp5238
I105
aI86
asVnotturna
p5239
(lp5240
I3
aI0
asVvisivo
p5241
(lp5242
I0
aI1
asVnotturno
p5243
(lp5244
I0
aI2
asVtiri
p5245
(lp5246
I5
aI2
asVtiro
p5247
(lp5248
I10
aI10
asVayew
p5249
(lp5250
I3
aI0
asVprofessori
p5251
(lp5252
I0
aI2
asVtestare
p5253
(lp5254
I1
aI0
asVpodio
p5255
(lp5256
I15
aI12
asVriconquistare
p5257
(lp5258
I6
aI2
asVfoglietti
p5259
(lp5260
I4
aI0
asVmagistrati
p5261
(lp5262
I3
aI5
asVmohammed
p5263
(lp5264
I4
aI0
asVurgenza
p5265
(lp5266
I0
aI2
asVfelipe
p5267
(lp5268
I5
aI0
asVgran
p5269
(lp5270
I0
aI8
asVcommovente
p5271
(lp5272
I0
aI2
asVassociazione
p5273
(lp5274
I4
aI3
asVproiezione
p5275
(lp5276
I4
aI0
asVvicepresidente
p5277
(lp5278
I0
aI1
asVrassegna
p5279
(lp5280
I3
aI0
asVripresa
p5281
(lp5282
I2
aI3
asVsterpaglia
p5283
(lp5284
I1
aI0
asVriprese
p5285
(lp5286
I11
aI0
asVripreso
p5287
(lp5288
I1
aI0
asVsughero
p5289
(lp5290
I3
aI0
asVrossoneri
p5291
(lp5292
I0
aI4
asVsottovuoto
p5293
(lp5294
I0
aI4
asVporzio
p5295
(lp5296
I0
aI2
asVinsomma
p5297
(lp5298
I0
aI4
asVmaga
p5299
(lp5300
I6
aI12
asVpromiscuit
p5301
(lp5302
I6
aI3
asVabbonati
p5303
(lp5304
I5
aI4
asVchinare
p5305
(lp5306
I2
aI0
asVmetano
p5307
(lp5308
I8
aI4
asVtrova
p5309
(lp5310
I12
aI6
asVlimite
p5311
(lp5312
I6
aI0
asVlimiti
p5313
(lp5314
I6
aI7
asVgita
p5315
(lp5316
I3
aI6
asVoria
p5317
(lp5318
I7
aI0
asVrimorchiatore
p5319
(lp5320
I0
aI2
asVgomma
p5321
(lp5322
I0
aI4
asVdortmund
p5323
(lp5324
I38
aI112
asVcortometraggi
p5325
(lp5326
I4
aI0
asVquiz
p5327
(lp5328
I17
aI6
asVwhedon
p5329
(lp5330
I0
aI1
asVindustriale
p5331
(lp5332
I14
aI14
asVmuseo
p5333
(lp5334
I0
aI4
asVcena
p5335
(lp5336
I0
aI2
asVovviamente
p5337
(lp5338
I2
aI6
asVhernandez
p5339
(lp5340
I0
aI4
asVvinci
p5341
(lp5342
I4
aI5
asVarginina
p5343
(lp5344
I18
aI46
asVvince
p5345
(lp5346
I0
aI1
asVmail
p5347
(lp5348
I2
aI6
asVott
p5349
(lp5350
I4
aI0
asVfondi
p5351
(lp5352
I0
aI6
asVmunicipale
p5353
(lp5354
I0
aI2
asVtramonto
p5355
(lp5356
I1
aI0
asVsimone
p5357
(lp5358
I5
aI7
asVdecine
p5359
(lp5360
I3
aI3
asVparti
p5361
(lp5362
I0
aI3
asVraccontato
p5363
(lp5364
I0
aI1
asVparto
p5365
(lp5366
I0
aI6
asVviaggio
p5367
(lp5368
I5
aI5
asVcondominio
p5369
(lp5370
I0
aI3
asVtatuaggi
p5371
(lp5372
I1
aI0
asVdrone
p5373
(lp5374
I2
aI0
asVsorgente
p5375
(lp5376
I0
aI2
asVdroni
p5377
(lp5378
I3
aI3
asVonda
p5379
(lp5380
I5
aI4
asVpensa
p5381
(lp5382
I2
aI0
asVtrattiene
p5383
(lp5384
I0
aI1
asVmiracoli
p5385
(lp5386
I0
aI4
asVmarocco
p5387
(lp5388
I3
aI3
asVlaurea
p5389
(lp5390
I0
aI3
asVdeposito
p5391
(lp5392
I4
aI0
asVatessa
p5393
(lp5394
I0
aI8
asVnata
p5395
(lp5396
I0
aI11
asVfate
p5397
(lp5398
I2
aI0
asVscientifica
p5399
(lp5400
I3
aI0
asVscientifico
p5401
(lp5402
I2
aI0
asVdefinitivo
p5403
(lp5404
I0
aI2
asVgiornali
p5405
(lp5406
I0
aI2
asVmilanese
p5407
(lp5408
I3
aI0
asVmegapixel
p5409
(lp5410
I0
aI2
asVrenegade
p5411
(lp5412
I0
aI3
asVcalcolo
p5413
(lp5414
I3
aI0
asVfernando
p5415
(lp5416
I11
aI0
asVrilasciare
p5417
(lp5418
I1
aI0
asVazioni
p5419
(lp5420
I34
aI4
asVpago
p5421
(lp5422
I8
aI2
asVpaga
p5423
(lp5424
I16
aI14
asVazione
p5425
(lp5426
I4
aI12
asVvincitore
p5427
(lp5428
I2
aI0
asVtwitter
p5429
(lp5430
I32
aI29
asVcongresso
p5431
(lp5432
I4
aI9
asVvincitori
p5433
(lp5434
I3
aI2
asVevasori
p5435
(lp5436
I2
aI0
asVrobredo
p5437
(lp5438
I3
aI0
asVcleveland
p5439
(lp5440
I0
aI2
asVpeiretti
p5441
(lp5442
I0
aI27
asVvrij
p5443
(lp5444
I0
aI14
asVsferrato
p5445
(lp5446
I0
aI1
asVorganizzazione
p5447
(lp5448
I5
aI0
asVfanno
p5449
(lp5450
I15
aI10
asVtwerking
p5451
(lp5452
I2
aI3
asVsubentrato
p5453
(lp5454
I0
aI1
asVevitare
p5455
(lp5456
I0
aI2
asVjournal
p5457
(lp5458
I0
aI4
asVrisarcimento
p5459
(lp5460
I0
aI2
asVcomunit
p5461
(lp5462
I6
aI4
asVbrodo
p5463
(lp5464
I4
aI0
asVautorit
p5465
(lp5466
I2
aI4
asVpalmanova
p5467
(lp5468
I3
aI0
asVtroverai
p5469
(lp5470
I1
aI2
asVpermette
p5471
(lp5472
I5
aI0
asVautostrada
p5473
(lp5474
I7
aI2
asVartista
p5475
(lp5476
I0
aI2
asVdisseccamento
p5477
(lp5478
I3
aI0
asVwashington
p5479
(lp5480
I21
aI13
asVartisti
p5481
(lp5482
I2
aI0
asVterence
p5483
(lp5484
I3
aI4
asVpistola
p5485
(lp5486
I6
aI0
asVlamanna
p5487
(lp5488
I4
aI10
asVlongevo
p5489
(lp5490
I0
aI2
asVversante
p5491
(lp5492
I0
aI1
asVmississippi
p5493
(lp5494
I4
aI0
asVspaziali
p5495
(lp5496
I3
aI0
asVtrattenute
p5497
(lp5498
I0
aI1
asVspaziale
p5499
(lp5500
I67
aI55
asVvedrebbe
p5501
(lp5502
I1
aI0
asVdaniele
p5503
(lp5504
I5
aI0
asVoffrir
p5505
(lp5506
I0
aI2
asVblocchetto
p5507
(lp5508
I16
aI24
asVscattata
p5509
(lp5510
I1
aI1
asVmerisi
p5511
(lp5512
I6
aI0
asVriparazione
p5513
(lp5514
I2
aI0
asVultima
p5515
(lp5516
I3
aI6
asVultime
p5517
(lp5518
I20
aI19
asVveicoli
p5519
(lp5520
I9
aI0
asVultimi
p5521
(lp5522
I19
aI42
asVhd
p5523
(lp5524
I0
aI2
asVpansa
p5525
(lp5526
I4
aI0
asVlineare
p5527
(lp5528
I5
aI0
asVsigned
p5529
(lp5530
I0
aI1
asVshowgirl
p5531
(lp5532
I2
aI0
asVpiech
p5533
(lp5534
I0
aI10
asVrivoluzione
p5535
(lp5536
I2
aI0
asVdisplay
p5537
(lp5538
I6
aI0
asVbeati
p5539
(lp5540
I4
aI0
asVpalcoscenico
p5541
(lp5542
I2
aI0
asVpenna
p5543
(lp5544
I3
aI0
asVgiro
p5545
(lp5546
I2
aI0
asVurne
p5547
(lp5548
I0
aI2
asVoffensivo
p5549
(lp5550
I0
aI1
asVcontest
p5551
(lp5552
I0
aI4
asVstrumento
p5553
(lp5554
I3
aI0
asVstrumenti
p5555
(lp5556
I0
aI5
asVingrediente
p5557
(lp5558
I0
aI5
asVrumore
p5559
(lp5560
I0
aI1
asVingredienti
p5561
(lp5562
I3
aI5
asVsamuelli
p5563
(lp5564
I0
aI3
asVstar
p5565
(lp5566
I11
aI17
asVscimmie
p5567
(lp5568
I8
aI0
asVinsulti
p5569
(lp5570
I2
aI0
asVadditionally
p5571
(lp5572
I11
aI7
asVtasso
p5573
(lp5574
I4
aI0
asVfinanziamento
p5575
(lp5576
I0
aI6
asVtasse
p5577
(lp5578
I10
aI9
asVfinanziamenti
p5579
(lp5580
I0
aI7
asVstai
p5581
(lp5582
I1
aI0
asVstazione
p5583
(lp5584
I26
aI25
asVsamsung
p5585
(lp5586
I16
aI3
asVbce
p5587
(lp5588
I139
aI86
asVstazioni
p5589
(lp5590
I0
aI4
asVsprecato
p5591
(lp5592
I0
aI1
asVscafisti
p5593
(lp5594
I0
aI2
asVprotesi
p5595
(lp5596
I9
aI0
asVmonorchio
p5597
(lp5598
I4
aI0
asVimmigrazione
p5599
(lp5600
I4
aI7
asVstellari
p5601
(lp5602
I0
aI1
asVporche
p5603
(lp5604
I1
aI0
asVpresenti
p5605
(lp5606
I0
aI2
asVsegmenti
p5607
(lp5608
I3
aI0
asVciao
p5609
(lp5610
I0
aI4
asVpopoli
p5611
(lp5612
I0
aI3
asVfronte
p5613
(lp5614
I23
aI18
asVpopolo
p5615
(lp5616
I3
aI0
asVsegmento
p5617
(lp5618
I11
aI0
asVpensioni
p5619
(lp5620
I19
aI18
asVpensione
p5621
(lp5622
I18
aI19
asVwinfrey
p5623
(lp5624
I1
aI0
asVvinceranno
p5625
(lp5626
I1
aI0
asVguardrail
p5627
(lp5628
I0
aI2
asVmonitoraggio
p5629
(lp5630
I0
aI2
asVadige
p5631
(lp5632
I0
aI3
asVmanifestanti
p5633
(lp5634
I3
aI0
asVmanifestante
p5635
(lp5636
I18
aI4
asVsconfitte
p5637
(lp5638
I0
aI3
asVuccidendo
p5639
(lp5640
I0
aI3
asVsconfitta
p5641
(lp5642
I8
aI6
asVfalco
p5643
(lp5644
I86
aI63
asVvasilyev
p5645
(lp5646
I0
aI1
asVmiur
p5647
(lp5648
I0
aI4
asVfisico
p5649
(lp5650
I0
aI8
asVberlino
p5651
(lp5652
I0
aI5
asVposizione
p5653
(lp5654
I37
aI48
asVposizioni
p5655
(lp5656
I1
aI0
asVcircolo
p5657
(lp5658
I2
aI0
asVtipi
p5659
(lp5660
I1
aI0
asVtipo
p5661
(lp5662
I9
aI1
asVsosta
p5663
(lp5664
I1
aI0
asVsefolosha
p5665
(lp5666
I0
aI8
asVpropri
p5667
(lp5668
I8
aI0
asVversati
p5669
(lp5670
I2
aI2
asVnet
p5671
(lp5672
I3
aI0
asVnanni
p5673
(lp5674
I0
aI6
asVsettimane
p5675
(lp5676
I4
aI0
asVviaggiavano
p5677
(lp5678
I1
aI0
asVvoter
p5679
(lp5680
I0
aI1
asVsafebike
p5681
(lp5682
I0
aI2
asVeconomici
p5683
(lp5684
I4
aI0
asVresti
p5685
(lp5686
I8
aI2
asVresto
p5687
(lp5688
I9
aI5
asVdedica
p5689
(lp5690
I3
aI9
asVmarotta
p5691
(lp5692
I6
aI18
asVtorcia
p5693
(lp5694
I2
aI0
asVvialli
p5695
(lp5696
I2
aI0
asVhachim
p5697
(lp5698
I0
aI3
asVvietato
p5699
(lp5700
I0
aI2
asVvietata
p5701
(lp5702
I0
aI1
asVcali
p5703
(lp5704
I0
aI3
asVarmi
p5705
(lp5706
I5
aI8
asVraggiungimento
p5707
(lp5708
I0
aI6
asVsnowden
p5709
(lp5710
I3
aI0
asVliguria
p5711
(lp5712
I11
aI18
asVwars
p5713
(lp5714
I0
aI1
asVteofilo
p5715
(lp5716
I0
aI3
asVlunga
p5717
(lp5718
I2
aI0
asVdeciso
p5719
(lp5720
I2
aI2
asVwestbrook
p5721
(lp5722
I3
aI3
asVvorreste
p5723
(lp5724
I1
aI0
asVcadore
p5725
(lp5726
I0
aI2
asVcarica
p5727
(lp5728
I0
aI4
asVcarico
p5729
(lp5730
I4
aI4
asVvariabile
p5731
(lp5732
I0
aI1
asVautonomi
p5733
(lp5734
I6
aI0
asVsportitalia
p5735
(lp5736
I1
aI0
asVuffici
p5737
(lp5738
I6
aI4
asVcacciola
p5739
(lp5740
I4
aI0
asVmantenimento
p5741
(lp5742
I2
aI0
asVcuriosity
p5743
(lp5744
I6
aI9
asVprogrammatori
p5745
(lp5746
I15
aI3
asVarrivano
p5747
(lp5748
I2
aI0
asVfiamme
p5749
(lp5750
I13
aI6
asVconsistente
p5751
(lp5752
I2
aI0
asVtagli
p5753
(lp5754
I5
aI2
asVtrazione
p5755
(lp5756
I0
aI4
asVoperata
p5757
(lp5758
I0
aI2
asVfifa
p5759
(lp5760
I2
aI0
asVdeterminate
p5761
(lp5762
I2
aI0
asVsospetta
p5763
(lp5764
I4
aI2
asVsospetto
p5765
(lp5766
I2
aI4
asVstronza
p5767
(lp5768
I0
aI2
asVweeks
p5769
(lp5770
I1
aI0
asVromene
p5771
(lp5772
I3
aI0
asVmaroni
p5773
(lp5774
I0
aI2
asVviolazioni
p5775
(lp5776
I2
aI0
asVamericani
p5777
(lp5778
I3
aI0
asVisee
p5779
(lp5780
I0
aI3
asVcantieri
p5781
(lp5782
I3
aI0
asVluce
p5783
(lp5784
I4
aI10
asVpanini
p5785
(lp5786
I12
aI0
asVluca
p5787
(lp5788
I4
aI19
asVluci
p5789
(lp5790
I8
aI4
asVbarletta
p5791
(lp5792
I0
aI9
asVnave
p5793
(lp5794
I4
aI4
asVantiprotoni
p5795
(lp5796
I0
aI3
asVverdone
p5797
(lp5798
I0
aI1
asVmilan
p5799
(lp5800
I14
aI9
asVsaitta
p5801
(lp5802
I0
aI2
asVraccomandazioni
p5803
(lp5804
I0
aI2
asVimmagine
p5805
(lp5806
I40
aI25
asVimmagini
p5807
(lp5808
I4
aI7
asVraffreddore
p5809
(lp5810
I4
aI0
asVvolare
p5811
(lp5812
I2
aI1
asVvenezuela
p5813
(lp5814
I1
aI0
asVfoto
p5815
(lp5816
I27
aI28
asVfoti
p5817
(lp5818
I5
aI0
asVsanremo
p5819
(lp5820
I3
aI2
asVramos
p5821
(lp5822
I22
aI10
asVabate
p5823
(lp5824
I0
aI3
asVtirocinio
p5825
(lp5826
I0
aI1
asVragusa
p5827
(lp5828
I3
aI0
asVtascabile
p5829
(lp5830
I1
aI1
asVstruccata
p5831
(lp5832
I1
aI0
asViss
p5833
(lp5834
I16
aI8
asVaccetta
p5835
(lp5836
I14
aI9
asVassalto
p5837
(lp5838
I3
aI3
asVgrado
p5839
(lp5840
I17
aI34
asVvivide
p5841
(lp5842
I0
aI1
asVgradi
p5843
(lp5844
I0
aI4
asVpesante
p5845
(lp5846
I6
aI0
asVvittoria
p5847
(lp5848
I42
aI57
asVvittorie
p5849
(lp5850
I1
aI6
asVvenezia
p5851
(lp5852
I2
aI7
asVcalore
p5853
(lp5854
I8
aI5
asVmondane
p5855
(lp5856
I1
aI1
asVungherese
p5857
(lp5858
I0
aI3
asVperduto
p5859
(lp5860
I2
aI0
asVmattina
p5861
(lp5862
I2
aI4
asVumanoidi
p5863
(lp5864
I2
aI0
asVmatteo
p5865
(lp5866
I5
aI3
asVwilliams
p5867
(lp5868
I5
aI3
asVnegozio
p5869
(lp5870
I3
aI5
asVpalace
p5871
(lp5872
I12
aI12
asVnadella
p5873
(lp5874
I3
aI0
asVmina
p5875
(lp5876
I0
aI2
asVasparagi
p5877
(lp5878
I0
aI20
asVtratti
p5879
(lp5880
I4
aI0
asVtrovano
p5881
(lp5882
I7
aI9
asVcarfora
p5883
(lp5884
I9
aI2
asVvideomaker
p5885
(lp5886
I1
aI0
asVspecialista
p5887
(lp5888
I3
aI4
asVtranslator
p5889
(lp5890
I5
aI0
asVmario
p5891
(lp5892
I32
aI41
asVregular
p5893
(lp5894
I0
aI9
asVmaria
p5895
(lp5896
I24
aI10
asValimenti
p5897
(lp5898
I6
aI0
asVsomma
p5899
(lp5900
I0
aI4
asVcoppa
p5901
(lp5902
I3
aI6
asVpronostici
p5903
(lp5904
I2
aI0
asVribattezzato
p5905
(lp5906
I1
aI0
asVpronostico
p5907
(lp5908
I5
aI0
asVdover
p5909
(lp5910
I3
aI0
asViniziato
p5911
(lp5912
I2
aI2
asVrispetteremo
p5913
(lp5914
I1
aI0
asVfiltri
p5915
(lp5916
I5
aI0
asVintegrato
p5917
(lp5918
I12
aI24
asVpolenta
p5919
(lp5920
I2
aI0
asVrimuovere
p5921
(lp5922
I3
aI0
asVricevuto
p5923
(lp5924
I4
aI4
asVvaresotto
p5925
(lp5926
I1
aI0
asVsconsiderato
p5927
(lp5928
I2
aI4
asVbarlow
p5929
(lp5930
I0
aI2
asVingrassia
p5931
(lp5932
I4
aI0
asVearl
p5933
(lp5934
I0
aI4
asVvestiti
p5935
(lp5936
I2
aI6
asVbar
p5937
(lp5938
I5
aI0
asVvestito
p5939
(lp5940
I2
aI16
asVterzino
p5941
(lp5942
I0
aI3
asVvestita
p5943
(lp5944
I1
aI0
asVvestite
p5945
(lp5946
I1
aI0
asVdisco
p5947
(lp5948
I2
aI0
asVfebbre
p5949
(lp5950
I2
aI0
asVcerca
p5951
(lp5952
I2
aI4
asVantinfiammatorio
p5953
(lp5954
I2
aI0
asVsufficientemente
p5955
(lp5956
I2
aI1
asVaffrontare
p5957
(lp5958
I2
aI0
asVinquinate
p5959
(lp5960
I0
aI3
asVsorta
p5961
(lp5962
I4
aI4
asVsorte
p5963
(lp5964
I0
aI1
asVvalorizzazione
p5965
(lp5966
I4
aI0
asVsoluzione
p5967
(lp5968
I97
aI93
asVsapere
p5969
(lp5970
I22
aI20
asVsoluzioni
p5971
(lp5972
I0
aI3
asVidroelettrica
p5973
(lp5974
I6
aI0
asVcredo
p5975
(lp5976
I0
aI8
asVstante
p5977
(lp5978
I1
aI0
asVrimanga
p5979
(lp5980
I2
aI4
asVtassati
p5981
(lp5982
I0
aI2
asVoms
p5983
(lp5984
I0
aI3
asVharvard
p5985
(lp5986
I0
aI3
asVavvicinato
p5987
(lp5988
I2
aI0
asVritengo
p5989
(lp5990
I1
aI0
asVolimpico
p5991
(lp5992
I0
aI2
asVconca
p5993
(lp5994
I4
aI0
asVerdogan
p5995
(lp5996
I34
aI49
asVurla
p5997
(lp5998
I0
aI2
asVanzianit
p5999
(lp6000
I7
aI0
asVrappresentato
p6001
(lp6002
I2
aI0
asVorganizzatori
p6003
(lp6004
I2
aI0
asVwinnie
p6005
(lp6006
I2
aI0
asVspezzato
p6007
(lp6008
I1
aI0
asVpiante
p6009
(lp6010
I11
aI0
asVperiscope
p6011
(lp6012
I0
aI3
asVtufetti
p6013
(lp6014
I2
aI0
asVmihajlovic
p6015
(lp6016
I2
aI2
asVstrappo
p6017
(lp6018
I1
aI0
asVproviamo
p6019
(lp6020
I0
aI2
asVraffaella
p6021
(lp6022
I0
aI4
asValcun
p6023
(lp6024
I2
aI0
asVtopics
p6025
(lp6026
I1
aI1
asVrischia
p6027
(lp6028
I8
aI9
asVmci
p6029
(lp6030
I5
aI0
asVargentario
p6031
(lp6032
I5
aI0
asVpista
p6033
(lp6034
I2
aI10
asVitinerari
p6035
(lp6036
I5
aI0
asVvendetta
p6037
(lp6038
I0
aI5
asVpolitiche
p6039
(lp6040
I3
aI4
asVurtano
p6041
(lp6042
I1
aI0
asVrecuperato
p6043
(lp6044
I0
aI3
asVcane
p6045
(lp6046
I8
aI3
asVbucarsi
p6047
(lp6048
I0
aI2
asVlinguaggio
p6049
(lp6050
I14
aI26
asVcani
p6051
(lp6052
I0
aI8
asVfarsi
p6053
(lp6054
I0
aI1
asVlavorare
p6055
(lp6056
I6
aI2
asVbelli
p6057
(lp6058
I3
aI4
asVparisi
p6059
(lp6060
I9
aI3
asVi8
p6061
(lp6062
I5
aI0
asVbloomberg
p6063
(lp6064
I4
aI0
asVgenerali
p6065
(lp6066
I2
aI8
asVpassato
p6067
(lp6068
I26
aI15
asVkid
p6069
(lp6070
I9
aI6
asVserata
p6071
(lp6072
I0
aI2
asVserate
p6073
(lp6074
I1
aI1
asVpresto
p6075
(lp6076
I5
aI4
asVmateriali
p6077
(lp6078
I6
aI15
asVqualit
p6079
(lp6080
I27
aI52
asVroma
p6081
(lp6082
I44
aI107
asVoneplus
p6083
(lp6084
I7
aI0
asVpubblicit
p6085
(lp6086
I7
aI9
asVemergenza
p6087
(lp6088
I6
aI9
asVfighters
p6089
(lp6090
I0
aI2
asVsogemi
p6091
(lp6092
I7
aI0
asVgrimaldi
p6093
(lp6094
I0
aI5
asVelkann
p6095
(lp6096
I0
aI5
asVvende
p6097
(lp6098
I0
aI2
asVmetropoli
p6099
(lp6100
I8
aI0
asVopportunit
p6101
(lp6102
I2
aI0
asVcandidati
p6103
(lp6104
I10
aI6
asVlicenziata
p6105
(lp6106
I2
aI0
asVtrasmissione
p6107
(lp6108
I1
aI1
asVnegozi
p6109
(lp6110
I6
aI9
asVbiella
p6111
(lp6112
I0
aI3
asVmassa
p6113
(lp6114
I16
aI9
asVwhatsapp
p6115
(lp6116
I5
aI0
asVstrinic
p6117
(lp6118
I0
aI2
asVvanessa
p6119
(lp6120
I2
aI0
asVscambiati
p6121
(lp6122
I0
aI1
asVscatti
p6123
(lp6124
I0
aI1
asVscatto
p6125
(lp6126
I0
aI1
asVscatta
p6127
(lp6128
I1
aI1
asVvanity
p6129
(lp6130
I0
aI1
asVpalermo
p6131
(lp6132
I6
aI12
asVnudi
p6133
(lp6134
I4
aI0
asVmaresciallo
p6135
(lp6136
I0
aI2
asVpotrebbero
p6137
(lp6138
I6
aI3
asVpacquiao
p6139
(lp6140
I4
aI0
asVtortosa
p6141
(lp6142
I404
aI340
asVwwf
p6143
(lp6144
I0
aI2
asVanello
p6145
(lp6146
I0
aI3
asVanatolia
p6147
(lp6148
I6
aI0
asVpaolillo
p6149
(lp6150
I0
aI2
asVvedr
p6151
(lp6152
I1
aI0
asVarmadio
p6153
(lp6154
I0
aI7
asVverona
p6155
(lp6156
I0
aI2
asVvede
p6157
(lp6158
I11
aI13
asVvedo
p6159
(lp6160
I2
aI0
asVcarta
p6161
(lp6162
I2
aI0
asVvedi
p6163
(lp6164
I3
aI4
asVaumento
p6165
(lp6166
I15
aI11
asVbolt
p6167
(lp6168
I0
aI7
asVanalisi
p6169
(lp6170
I2
aI2
asVtirreno
p6171
(lp6172
I0
aI1
asVmagazine
p6173
(lp6174
I3
aI5
asVbisogna
p6175
(lp6176
I6
aI12
asVtreviglio
p6177
(lp6178
I0
aI3
asVbisogno
p6179
(lp6180
I2
aI2
asVgiornalista
p6181
(lp6182
I3
aI9
asVcapacit
p6183
(lp6184
I4
aI0
asVtecnologia
p6185
(lp6186
I19
aI15
asVtecnologie
p6187
(lp6188
I2
aI0
asVcuor
p6189
(lp6190
I2
aI0
asVsergio
p6191
(lp6192
I8
aI1
asVsmantellamento
p6193
(lp6194
I3
aI0
asVcarrasco
p6195
(lp6196
I28
aI4
asVm4
p6197
(lp6198
I0
aI3
asVindice
p6199
(lp6200
I4
aI6
asVbattistolli
p6201
(lp6202
I0
aI2
asVruggeri
p6203
(lp6204
I13
aI0
asVvolati
p6205
(lp6206
I1
aI0
asVeditor
p6207
(lp6208
I7
aI0
asVrosticceria
p6209
(lp6210
I0
aI2
asVbert
p6211
(lp6212
I3
aI0
asVbagno
p6213
(lp6214
I64
aI0
asVbagni
p6215
(lp6216
I14
aI0
asVfarina
p6217
(lp6218
I8
aI0
asVabitanti
p6219
(lp6220
I2
aI2
asVpentito
p6221
(lp6222
I3
aI0
asVmarted
p6223
(lp6224
I0
aI3
asVbere
p6225
(lp6226
I9
aI11
asVmezzosangue
p6227
(lp6228
I3
aI0
asVdiventare
p6229
(lp6230
I0
aI2
asVcontenuto
p6231
(lp6232
I4
aI1
asVeconomia
p6233
(lp6234
I16
aI0
asVpasternak
p6235
(lp6236
I0
aI4
asVassessment
p6237
(lp6238
I2
aI0
asVcontenute
p6239
(lp6240
I3
aI1
asVtucson
p6241
(lp6242
I3
aI1
asVviolenza
p6243
(lp6244
I5
aI3
asVviolenze
p6245
(lp6246
I6
aI6
asVcarbonizzato
p6247
(lp6248
I0
aI2
asVrecupero
p6249
(lp6250
I2
aI0
asVgiardiello
p6251
(lp6252
I0
aI6
asVesposizione
p6253
(lp6254
I24
aI33
asVvista
p6255
(lp6256
I10
aI28
asVviste
p6257
(lp6258
I0
aI3
asVvisti
p6259
(lp6260
I1
aI1
asVtardi
p6261
(lp6262
I0
aI2
asVtossine
p6263
(lp6264
I5
aI10
asVrussa
p6265
(lp6266
I2
aI1
asVacqua
p6267
(lp6268
I81
aI77
asVfrodi
p6269
(lp6270
I7
aI0
asVrussi
p6271
(lp6272
I4
aI3
asVweekend
p6273
(lp6274
I0
aI4
asVrusso
p6275
(lp6276
I3
aI6
asVsostenere
p6277
(lp6278
I0
aI2
asVattivista
p6279
(lp6280
I3
aI6
asVduplice
p6281
(lp6282
I4
aI4
asVpseudo
p6283
(lp6284
I0
aI14
asVdaily
p6285
(lp6286
I2
aI0
asVlaura
p6287
(lp6288
I9
aI0
asVmanager
p6289
(lp6290
I3
aI0
asVsanno
p6291
(lp6292
I10
aI2
asVsuicide
p6293
(lp6294
I0
aI1
asVricostruire
p6295
(lp6296
I2
aI0
asVtorna
p6297
(lp6298
I4
aI6
asVpuok
p6299
(lp6300
I3
aI3
asVlibia
p6301
(lp6302
I0
aI2
asVsmartphone
p6303
(lp6304
I37
aI35
asVriservato
p6305
(lp6306
I2
aI2
asVdio
p6307
(lp6308
I47
aI14
asVspeciale
p6309
(lp6310
I4
aI1
asVristorazione
p6311
(lp6312
I8
aI0
asVspeciali
p6313
(lp6314
I0
aI5
asVsconosciuta
p6315
(lp6316
I1
aI0
asVvenissero
p6317
(lp6318
I1
aI1
asVstrasburgo
p6319
(lp6320
I9
aI14
asVdirettamente
p6321
(lp6322
I8
aI9
asVpiermario
p6323
(lp6324
I3
aI11
asVindagati
p6325
(lp6326
I0
aI2
asVvilli
p6327
(lp6328
I2
aI0
asVindagato
p6329
(lp6330
I0
aI4
asVcompravendite
p6331
(lp6332
I2
aI0
asVsfoga
p6333
(lp6334
I1
aI0
asVverificare
p6335
(lp6336
I0
aI1
asVsiriani
p6337
(lp6338
I2
aI0
asVinternational
p6339
(lp6340
I1
aI0
asVdieci
p6341
(lp6342
I5
aI4
asVraiuno
p6343
(lp6344
I3
aI0
asVtravolto
p6345
(lp6346
I0
aI1
asVtravolti
p6347
(lp6348
I2
aI0
asVmacchine
p6349
(lp6350
I5
aI2
asVmacchina
p6351
(lp6352
I5
aI6
asVvincitrici
p6353
(lp6354
I0
aI1
asVcaravaggio
p6355
(lp6356
I15
aI0
asVbox
p6357
(lp6358
I0
aI2
asVsfuggite
p6359
(lp6360
I0
aI1
asVrespirazione
p6361
(lp6362
I3
aI0
asVbob
p6363
(lp6364
I6
aI0
asVinvio
p6365
(lp6366
I0
aI3
asVkebab
p6367
(lp6368
I17
aI0
asVmuscoli
p6369
(lp6370
I8
aI6
asVpatriots
p6371
(lp6372
I0
aI3
asVintitoler
p6373
(lp6374
I2
aI0
asVcabrio
p6375
(lp6376
I0
aI3
asVfranco
p6377
(lp6378
I2
aI0
asVsegnalazioni
p6379
(lp6380
I2
aI1
asVsharing
p6381
(lp6382
I0
aI2
asVtifosi
p6383
(lp6384
I13
aI63
asVmalag
p6385
(lp6386
I0
aI2
asVvenduto
p6387
(lp6388
I0
aI1
asVallenamento
p6389
(lp6390
I3
aI0
asVmalore
p6391
(lp6392
I0
aI2
asVdormire
p6393
(lp6394
I13
aI0
asVveridicit
p6395
(lp6396
I0
aI1
asVarrivo
p6397
(lp6398
I8
aI12
asVsvolgimento
p6399
(lp6400
I3
aI0
asVolanda
p6401
(lp6402
I15
aI6
asVpresso
p6403
(lp6404
I10
aI10
asVprobabilit
p6405
(lp6406
I3
aI1
asVbohannon
p6407
(lp6408
I0
aI3
asVginocchio
p6409
(lp6410
I0
aI2
asVhiroshima
p6411
(lp6412
I2
aI9
asVbrescia
p6413
(lp6414
I9
aI4
asVarriva
p6415
(lp6416
I0
aI3
asVschwazer
p6417
(lp6418
I0
aI6
asVuruguay
p6419
(lp6420
I1
aI0
asVlobbying
p6421
(lp6422
I3
aI0
asVpericolo
p6423
(lp6424
I0
aI2
asVdennis
p6425
(lp6426
I2
aI0
asVtilt
p6427
(lp6428
I1
aI0
asVparco
p6429
(lp6430
I12
aI25
asVsunday
p6431
(lp6432
I0
aI1
asVmaestra
p6433
(lp6434
I2
aI0
asVmaestro
p6435
(lp6436
I3
aI2
asVpuro
p6437
(lp6438
I1
aI0
asVultimamente
p6439
(lp6440
I5
aI1
asVdesigner
p6441
(lp6442
I0
aI2
asVmax
p6443
(lp6444
I9
aI7
asVmab
p6445
(lp6446
I4
aI0
asVcollocamento
p6447
(lp6448
I2
aI0
asVmam
p6449
(lp6450
I4
aI0
asVmal
p6451
(lp6452
I6
aI0
asVjohnson
p6453
(lp6454
I5
aI0
asVunioncamere
p6455
(lp6456
I0
aI3
asVfacile
p6457
(lp6458
I11
aI6
asVbonatti
p6459
(lp6460
I4
aI0
asVkamenge
p6461
(lp6462
I4
aI0
asVtali
p6463
(lp6464
I2
aI2
asVchilometri
p6465
(lp6466
I2
aI0
asVjosephine
p6467
(lp6468
I10
aI6
asVrabbi
p6469
(lp6470
I0
aI4
asVpellicola
p6471
(lp6472
I0
aI2
asVpeterson
p6473
(lp6474
I7
aI0
asVlegame
p6475
(lp6476
I33
aI8
asVgroup
p6477
(lp6478
I1
aI0
asVmonitor
p6479
(lp6480
I5
aI0
asVyorkshire
p6481
(lp6482
I1
aI2
asVspettacolo
p6483
(lp6484
I9
aI3
asVspettacoli
p6485
(lp6486
I0
aI3
asVterrorizzato
p6487
(lp6488
I0
aI1
asVpolicy
p6489
(lp6490
I2
aI6
asVterrorizzata
p6491
(lp6492
I2
aI0
asVchiesa
p6493
(lp6494
I0
aI17
asVkiller
p6495
(lp6496
I7
aI10
asVsorriso
p6497
(lp6498
I17
aI17
asVsorrisi
p6499
(lp6500
I4
aI4
asVattuale
p6501
(lp6502
I3
aI3
asVlunghi
p6503
(lp6504
I0
aI6
asVzaia
p6505
(lp6506
I4
aI15
asVolio
p6507
(lp6508
I0
aI38
asVrock
p6509
(lp6510
I20
aI0
asVindaga
p6511
(lp6512
I0
aI2
asVsaliva
p6513
(lp6514
I3
aI0
asVpersonaggi
p6515
(lp6516
I6
aI0
asValessio
p6517
(lp6518
I3
aI0
asVtempore
p6519
(lp6520
I0
aI1
asVsventriamo
p6521
(lp6522
I1
aI0
asVcanada
p6523
(lp6524
I2
aI0
asVmanduki
p6525
(lp6526
I8
aI2
asVpizzeria
p6527
(lp6528
I0
aI4
asVpizzerie
p6529
(lp6530
I6
aI3
asVromana
p6531
(lp6532
I5
aI0
asVnavale
p6533
(lp6534
I0
aI3
asVorologio
p6535
(lp6536
I4
aI0
asVromano
p6537
(lp6538
I0
aI2
asVfisica
p6539
(lp6540
I16
aI17
asVstarebbe
p6541
(lp6542
I0
aI2
asVcomunicato
p6543
(lp6544
I0
aI2
asVscheletri
p6545
(lp6546
I0
aI1
asVnicolosi
p6547
(lp6548
I3
aI0
asVprincipe
p6549
(lp6550
I4
aI0
asVsorvola
p6551
(lp6552
I0
aI2
asVprincipi
p6553
(lp6554
I6
aI0
asVlascia
p6555
(lp6556
I2
aI3
asVcentrale
p6557
(lp6558
I14
aI8
asVamericana
p6559
(lp6560
I0
aI3
asVsansa
p6561
(lp6562
I1
aI0
asVcentrali
p6563
(lp6564
I4
aI0
asVcarro
p6565
(lp6566
I2
aI0
asVlong
p6567
(lp6568
I14
aI4
asVsepang
p6569
(lp6570
I0
aI1
asVformale
p6571
(lp6572
I3
aI0
asVfiere
p6573
(lp6574
I0
aI3
asVibrahimovic
p6575
(lp6576
I7
aI5
asVraccontare
p6577
(lp6578
I2
aI2
asVmeme
p6579
(lp6580
I12
aI8
asVtommasi
p6581
(lp6582
I0
aI3
asVsenti
p6583
(lp6584
I0
aI4
asVsento
p6585
(lp6586
I6
aI12
asVtommaso
p6587
(lp6588
I2
aI0
asVsente
p6589
(lp6590
I2
aI2
asValtra
p6591
(lp6592
I3
aI2
asVhillary
p6593
(lp6594
I13
aI8
asVtrascorso
p6595
(lp6596
I2
aI0
asVtrascorsi
p6597
(lp6598
I0
aI1
asVtecnica
p6599
(lp6600
I5
aI6
asVtecnici
p6601
(lp6602
I0
aI1
asVwhitesnake
p6603
(lp6604
I7
aI0
asVatleta
p6605
(lp6606
I2
aI2
asVtecnico
p6607
(lp6608
I24
aI34
asVventura
p6609
(lp6610
I9
aI21
asVventure
p6611
(lp6612
I0
aI2
asVpregher
p6613
(lp6614
I0
aI2
asVpiccola
p6615
(lp6616
I8
aI6
asVcasale
p6617
(lp6618
I27
aI0
asVpiccolo
p6619
(lp6620
I8
aI0
asVpiccoli
p6621
(lp6622
I6
aI0
asVmarijuana
p6623
(lp6624
I14
aI6
asVsanzioni
p6625
(lp6626
I0
aI5
asVpubblicazione
p6627
(lp6628
I0
aI5
asVgiacca
p6629
(lp6630
I2
aI0
asVsassuolo
p6631
(lp6632
I0
aI2
asVpromotori
p6633
(lp6634
I0
aI3
asVsquad
p6635
(lp6636
I0
aI2
asVperformance
p6637
(lp6638
I0
aI3
asVcontrasto
p6639
(lp6640
I8
aI0
asVroster
p6641
(lp6642
I0
aI1
asVvarese
p6643
(lp6644
I3
aI3
asVdigestione
p6645
(lp6646
I3
aI0
asVcorrente
p6647
(lp6648
I0
aI2
asVpremi
p6649
(lp6650
I2
aI0
asVzeb
p6651
(lp6652
I0
aI1
asVfuorisalone
p6653
(lp6654
I3
aI9
asVbellerin
p6655
(lp6656
I0
aI5
asVagenzia
p6657
(lp6658
I84
aI90
asVpassando
p6659
(lp6660
I2
aI0
asVaddome
p6661
(lp6662
I0
aI2
asVges
p6663
(lp6664
I2
aI0
asVranking
p6665
(lp6666
I32
aI21
asVincivilt
p6667
(lp6668
I0
aI2
asVraggiunto
p6669
(lp6670
I3
aI0
asVsegni
p6671
(lp6672
I0
aI2
asVsegno
p6673
(lp6674
I4
aI0
asVmiles
p6675
(lp6676
I6
aI0
asVtesoro
p6677
(lp6678
I2
aI0
asVpezzopane
p6679
(lp6680
I5
aI0
asVblurred
p6681
(lp6682
I3
aI0
asVrelative
p6683
(lp6684
I9
aI3
asVturbata
p6685
(lp6686
I2
aI0
asVrelativo
p6687
(lp6688
I1
aI0
asVgiulio
p6689
(lp6690
I0
aI4
asVproposte
p6691
(lp6692
I5
aI7
asVproposta
p6693
(lp6694
I5
aI1
asVmarvin
p6695
(lp6696
I3
aI0
asVvanno
p6697
(lp6698
I5
aI7
asVveramente
p6699
(lp6700
I5
aI0
asVvanni
p6701
(lp6702
I0
aI1
asVquadro
p6703
(lp6704
I0
aI7
asVspremuto
p6705
(lp6706
I5
aI10
asVprospetto
p6707
(lp6708
I2
aI0
asVvento
p6709
(lp6710
I1
aI0
asVelefante
p6711
(lp6712
I5
aI2
asVrugby
p6713
(lp6714
I4
aI4
asVtrasferimento
p6715
(lp6716
I13
aI10
asVdedicata
p6717
(lp6718
I4
aI0
asVantisemita
p6719
(lp6720
I0
aI4
asVtour
p6721
(lp6722
I7
aI6
asVstorico
p6723
(lp6724
I9
aI2
asVstorici
p6725
(lp6726
I0
aI9
asVspano
p6727
(lp6728
I5
aI0
asVamore
p6729
(lp6730
I5
aI21
asVscherzo
p6731
(lp6732
I9
aI0
asVverificate
p6733
(lp6734
I1
aI1
asVmare
p6735
(lp6736
I0
aI7
asVverificata
p6737
(lp6738
I0
aI2
asVbarry
p6739
(lp6740
I3
aI0
asVmark
p6741
(lp6742
I0
aI3
asVbarra
p6743
(lp6744
I0
aI25
asVaustriaco
p6745
(lp6746
I3
aI0
asVworkshop
p6747
(lp6748
I0
aI3
asVarte
p6749
(lp6750
I4
aI5
asVmars
p6751
(lp6752
I4
aI0
asVvillaggio
p6753
(lp6754
I0
aI3
asVmarx
p6755
(lp6756
I3
aI0
asVindustria
p6757
(lp6758
I0
aI4
asVshopping
p6759
(lp6760
I16
aI28
asVvitalit
p6761
(lp6762
I0
aI1
asVbmw
p6763
(lp6764
I5
aI0
asVvendere
p6765
(lp6766
I0
aI6
asVcatania
p6767
(lp6768
I0
aI2
asVviaggi
p6769
(lp6770
I3
aI1
asVimpero
p6771
(lp6772
I4
aI0
asVcoca
p6773
(lp6774
I2
aI4
asVcaracalla
p6775
(lp6776
I0
aI7
asVmarcel
p6777
(lp6778
I5
aI0
asVsahara
p6779
(lp6780
I4
aI4
asVteatrale
p6781
(lp6782
I0
aI2
asVpirlo
p6783
(lp6784
I55
aI30
asVpap
p6785
(lp6786
I6
aI5
asVrifarei
p6787
(lp6788
I0
aI2
asVintermediari
p6789
(lp6790
I7
aI0
asVrifugio
p6791
(lp6792
I6
aI4
asVsindacati
p6793
(lp6794
I4
aI0
asVmastour
p6795
(lp6796
I0
aI2
asVrispecchia
p6797
(lp6798
I0
aI1
asVtitone
p6799
(lp6800
I0
aI5
asVbrachetti
p6801
(lp6802
I5
aI0
asVvertebra
p6803
(lp6804
I0
aI2
asVtrasparenza
p6805
(lp6806
I3
aI5
asVzagabria
p6807
(lp6808
I0
aI1
asVscelto
p6809
(lp6810
I5
aI2
asVscelta
p6811
(lp6812
I11
aI2
asVnick
p6813
(lp6814
I4
aI0
asVmcdonald
p6815
(lp6816
I98
aI70
asVvetrata
p6817
(lp6818
I0
aI1
asVtrucco
p6819
(lp6820
I5
aI0
asVtrenord
p6821
(lp6822
I4
aI4
asVvetrina
p6823
(lp6824
I0
aI1
asVricerca
p6825
(lp6826
I86
aI70
asVattrice
p6827
(lp6828
I39
aI33
asVparlato
p6829
(lp6830
I2
aI9
asVcapire
p6831
(lp6832
I2
aI0
asVpietre
p6833
(lp6834
I3
aI0
asVviraffinatezza
p6835
(lp6836
I1
aI0
asVserver
p6837
(lp6838
I11
aI7
asVproprie
p6839
(lp6840
I0
aI3
asVpropria
p6841
(lp6842
I16
aI7
asVrapinatore
p6843
(lp6844
I0
aI2
asVdeterioramento
p6845
(lp6846
I3
aI0
asVmerlino
p6847
(lp6848
I3
aI0
asVstaffe
p6849
(lp6850
I1
aI0
asVmeccanico
p6851
(lp6852
I0
aI3
asVfluidi
p6853
(lp6854
I6
aI0
asVabercrombie
p6855
(lp6856
I6
aI9
asVzigomi
p6857
(lp6858
I2
aI0
asVpirellone
p6859
(lp6860
I2
aI0
asVinterdizione
p6861
(lp6862
I3
aI0
asVsostegno
p6863
(lp6864
I5
aI1
asVsecondi
p6865
(lp6866
I3
aI6
asVsqualo
p6867
(lp6868
I6
aI2
asVsquali
p6869
(lp6870
I1
aI0
asVsquale
p6871
(lp6872
I1
aI1
asVseconda
p6873
(lp6874
I29
aI10
asVansia
p6875
(lp6876
I4
aI0
asVspazzatura
p6877
(lp6878
I7
aI0
asVroar
p6879
(lp6880
I4
aI0
asVgarante
p6881
(lp6882
I3
aI0
asVmixer
p6883
(lp6884
I0
aI2
asVdemonio
p6885
(lp6886
I6
aI0
asVmemoriale
p6887
(lp6888
I0
aI4
asVeinstein
p6889
(lp6890
I0
aI9
asVlandi
p6891
(lp6892
I3
aI0
asVwolfalps
p6893
(lp6894
I1
aI0
asVlione
p6895
(lp6896
I2
aI8
asVshiller
p6897
(lp6898
I3
aI0
asVsostituto
p6899
(lp6900
I0
aI1
asVdecisivo
p6901
(lp6902
I4
aI0
asVbalti
p6903
(lp6904
I7
aI10
asVgravit
p6905
(lp6906
I5
aI0
asVistria
p6907
(lp6908
I0
aI2
asVtobike
p6909
(lp6910
I0
aI2
asVcorso
p6911
(lp6912
I2
aI0
asVcorse
p6913
(lp6914
I0
aI5
asVmediale
p6915
(lp6916
I0
aI2
asVcorsa
p6917
(lp6918
I19
aI5
asVsolvente
p6919
(lp6920
I12
aI0
asVronaldo
p6921
(lp6922
I9
aI7
asVqualifiche
p6923
(lp6924
I4
aI3
asVcessioni
p6925
(lp6926
I0
aI1
asVvhs
p6927
(lp6928
I7
aI0
asVemissioni
p6929
(lp6930
I11
aI0
asVadriano
p6931
(lp6932
I0
aI4
asVcontagio
p6933
(lp6934
I3
aI0
asVinteressi
p6935
(lp6936
I8
aI6
asVlitigio
p6937
(lp6938
I0
aI3
asVcarpa
p6939
(lp6940
I4
aI0
asVgeneral
p6941
(lp6942
I16
aI24
asVfila
p6943
(lp6944
I0
aI1
asVmisure
p6945
(lp6946
I7
aI0
asVturchia
p6947
(lp6948
I54
aI101
asVfilm
p6949
(lp6950
I65
aI98
asVgiappone
p6951
(lp6952
I2
aI6
asVeuroparlamento
p6953
(lp6954
I0
aI3
asVcollegandola
p6955
(lp6956
I0
aI3
asVflussi
p6957
(lp6958
I0
aI12
asVbersani
p6959
(lp6960
I10
aI0
asVobbligo
p6961
(lp6962
I0
aI3
asVpioli
p6963
(lp6964
I0
aI17
asVsegnale
p6965
(lp6966
I0
aI2
asVdoppietta
p6967
(lp6968
I1
aI0
asVmassaggi
p6969
(lp6970
I0
aI3
asVstudenti
p6971
(lp6972
I67
aI43
asVchris
p6973
(lp6974
I2
aI8
asVnetwork
p6975
(lp6976
I7
aI9
asVnaso
p6977
(lp6978
I4
aI2
asVmettere
p6979
(lp6980
I2
aI2
asVhusky
p6981
(lp6982
I0
aI4
asVzincografie
p6983
(lp6984
I0
aI1
asVdiffuso
p6985
(lp6986
I0
aI2
asVcooperativa
p6987
(lp6988
I0
aI2
asVregno
p6989
(lp6990
I15
aI12
asVcooperativo
p6991
(lp6992
I7
aI0
asVsung
p6993
(lp6994
I0
aI1
asVritenute
p6995
(lp6996
I0
aI1
asVritenuta
p6997
(lp6998
I1
aI0
asVforte
p6999
(lp7000
I0
aI2
asVamante
p7001
(lp7002
I2
aI0
asVricetta
p7003
(lp7004
I1
aI0
asVritenuti
p7005
(lp7006
I1
aI0
asVricette
p7007
(lp7008
I1
aI0
asVtwittato
p7009
(lp7010
I1
aI0
asVcoltivati
p7011
(lp7012
I0
aI3
asVpremium
p7013
(lp7014
I2
aI0
asVpersonnel
p7015
(lp7016
I0
aI2
asVmensili
p7017
(lp7018
I2
aI0
asVscout
p7019
(lp7020
I0
aI4
asVius
p7021
(lp7022
I0
aI2
asVinnovazione
p7023
(lp7024
I6
aI2
asVsicure
p7025
(lp7026
I0
aI4
asVsicura
p7027
(lp7028
I3
aI0
asV500x
p7029
(lp7030
I0
aI4
asVventimiglia
p7031
(lp7032
I8
aI31
asVpadrone
p7033
(lp7034
I0
aI2
asV500e
p7035
(lp7036
I0
aI3
asVhayes
p7037
(lp7038
I0
aI3
asVeurocup
p7039
(lp7040
I0
aI2
asVresidui
p7041
(lp7042
I0
aI4
asVdiaz
p7043
(lp7044
I363
aI260
asVgenocidio
p7045
(lp7046
I94
aI107
asVveltroni
p7047
(lp7048
I18
aI8
asVproduttivit
p7049
(lp7050
I0
aI8
asVmontovoli
p7051
(lp7052
I9
aI3
asVchiudere
p7053
(lp7054
I2
aI3
asVtrasferita
p7055
(lp7056
I0
aI5
asVtrezeguet
p7057
(lp7058
I2
aI2
asVseguiti
p7059
(lp7060
I0
aI1
asVtrasferiti
p7061
(lp7062
I0
aI4
asVseguite
p7063
(lp7064
I1
aI0
asVseguita
p7065
(lp7066
I2
aI1
asVconte
p7067
(lp7068
I16
aI4
asVsearch
p7069
(lp7070
I3
aI0
asVmedico
p7071
(lp7072
I3
aI0
asVconta
p7073
(lp7074
I0
aI4
asVmedici
p7075
(lp7076
I2
aI2
asVconti
p7077
(lp7078
I3
aI11
asVbehnaz
p7079
(lp7080
I9
aI0
asVstella
p7081
(lp7082
I1
aI2
asVstelle
p7083
(lp7084
I1
aI2
asVfemen
p7085
(lp7086
I4
aI0
asVsalvare
p7087
(lp7088
I5
aI3
asVsentiero
p7089
(lp7090
I2
aI0
asVsentieri
p7091
(lp7092
I2
aI0
asVafrica
p7093
(lp7094
I6
aI0
asVimmondizia
p7095
(lp7096
I0
aI2
asVasta
p7097
(lp7098
I11
aI4
asVrafa
p7099
(lp7100
I0
aI3
asVtorre
p7101
(lp7102
I2
aI1
asVapertura
p7103
(lp7104
I0
aI2
asVgaal
p7105
(lp7106
I0
aI1
asVriscoperti
p7107
(lp7108
I0
aI1
asVribalta
p7109
(lp7110
I0
aI2
asVkaraoke
p7111
(lp7112
I2
aI0
asVvladimir
p7113
(lp7114
I2
aI0
asVarchitettura
p7115
(lp7116
I4
aI3
asVchiarire
p7117
(lp7118
I0
aI2
asVtabelle
p7119
(lp7120
I5
aI1
asVhamburger
p7121
(lp7122
I18
aI19
asVmorti
p7123
(lp7124
I6
aI4
asVmorto
p7125
(lp7126
I6
aI6
asVtruccata
p7127
(lp7128
I1
aI0
asVsharp
p7129
(lp7130
I6
aI6
asVmorta
p7131
(lp7132
I6
aI17
asVmorte
p7133
(lp7134
I5
aI7
asVcausato
p7135
(lp7136
I0
aI8
asVgassman
p7137
(lp7138
I14
aI8
asVventina
p7139
(lp7140
I1
aI0
asVpianeta
p7141
(lp7142
I18
aI19
asVresistito
p7143
(lp7144
I1
aI1
asVviene
p7145
(lp7146
I73
aI49
asVraggiungere
p7147
(lp7148
I3
aI0
asVsistema
p7149
(lp7150
I55
aI49
asVcomini
p7151
(lp7152
I2
aI0
asVwave
p7153
(lp7154
I3
aI0
asVstimano
p7155
(lp7156
I1
aI0
asVsistemi
p7157
(lp7158
I4
aI0
asVtornando
p7159
(lp7160
I0
aI1
asVpozzo
p7161
(lp7162
I2
aI0
asVdragon
p7163
(lp7164
I0
aI5
asVcrowder
p7165
(lp7166
I0
aI3
asVparagone
p7167
(lp7168
I0
aI2
asVenergetico
p7169
(lp7170
I3
aI6
asVcivile
p7171
(lp7172
I4
aI7
asVradiatore
p7173
(lp7174
I10
aI0
asVtradotto
p7175
(lp7176
I0
aI2
asVgaranzie
p7177
(lp7178
I0
aI4
asVtesoretto
p7179
(lp7180
I10
aI0
asVpeste
p7181
(lp7182
I0
aI7
asVpene
p7183
(lp7184
I4
aI3
asVreuters
p7185
(lp7186
I4
aI2
asVpena
p7187
(lp7188
I5
aI0
asViraniana
p7189
(lp7190
I12
aI0
asVlibido
p7191
(lp7192
I4
aI0
asVvecchio
p7193
(lp7194
I0
aI5
asVrepetti
p7195
(lp7196
I0
aI9
asVoki
p7197
(lp7198
I3
aI0
asVvecchie
p7199
(lp7200
I5
aI0
asVtitolo
p7201
(lp7202
I10
aI28
asVtitoli
p7203
(lp7204
I53
aI31
asVvecchia
p7205
(lp7206
I1
aI3
asVporto
p7207
(lp7208
I15
aI16
asVbiglietto
p7209
(lp7210
I2
aI3
asVspiegato
p7211
(lp7212
I33
aI26
asVcrollano
p7213
(lp7214
I5
aI0
asVporte
p7215
(lp7216
I0
aI3
asVdrake
p7217
(lp7218
I0
aI10
asVporta
p7219
(lp7220
I26
aI24
asVpazienti
p7221
(lp7222
I2
aI0
asVuniversit
p7223
(lp7224
I49
aI52
asVidee
p7225
(lp7226
I5
aI2
asVenergy
p7227
(lp7228
I1
aI0
asVhard
p7229
(lp7230
I6
aI6
asVidea
p7231
(lp7232
I12
aI12
asVflavia
p7233
(lp7234
I0
aI3
asVportland
p7235
(lp7236
I3
aI0
asVsvolgendo
p7237
(lp7238
I4
aI2
asVvendicatori
p7239
(lp7240
I0
aI1
asVfoxconn
p7241
(lp7242
I8
aI0
asVutilizzare
p7243
(lp7244
I2
aI11
asVborgo
p7245
(lp7246
I18
aI0
asVtempelhof
p7247
(lp7248
I0
aI4
asVerrordocument
p7249
(lp7250
I11
aI7
asVfretta
p7251
(lp7252
I3
aI0
asVpaschi
p7253
(lp7254
I0
aI4
asVparlava
p7255
(lp7256
I0
aI1
asVluogo
p7257
(lp7258
I4
aI0
asVappaltanti
p7259
(lp7260
I6
aI0
asVpiloti
p7261
(lp7262
I7
aI5
asVpilota
p7263
(lp7264
I10
aI13
asVcomando
p7265
(lp7266
I6
aI3
asVcomanda
p7267
(lp7268
I2
aI0
asVproprietario
p7269
(lp7270
I6
aI7
asVvalentini
p7271
(lp7272
I1
aI0
asVvalentino
p7273
(lp7274
I3
aI18
asVvalentina
p7275
(lp7276
I5
aI18
asVstivaletti
p7277
(lp7278
I0
aI2
asVgoccia
p7279
(lp7280
I0
aI2
asVsequenza
p7281
(lp7282
I1
aI2
asVlanghe
p7283
(lp7284
I3
aI0
asVmrquez
p7285
(lp7286
I2
aI2
asVpare
p7287
(lp7288
I3
aI3
asVwolfsburg
p7289
(lp7290
I0
aI11
asVpari
p7291
(lp7292
I4
aI0
asVhiba
p7293
(lp7294
I6
aI6
asVvinovo
p7295
(lp7296
I0
aI1
asVregole
p7297
(lp7298
I25
aI21
asVrendimento
p7299
(lp7300
I3
aI0
asVgiudizio
p7301
(lp7302
I2
aI4
asVingegneria
p7303
(lp7304
I2
aI0
asVelicottero
p7305
(lp7306
I4
aI0
asVinvernale
p7307
(lp7308
I0
aI2
asVocchio
p7309
(lp7310
I4
aI0
asVostruzionismo
p7311
(lp7312
I0
aI1
asVtelecomunicazioni
p7313
(lp7314
I4
aI11
asVovunque
p7315
(lp7316
I2
aI0
asVzucchine
p7317
(lp7318
I2
aI0
asVscendere
p7319
(lp7320
I1
aI0
asVfondazioni
p7321
(lp7322
I3
aI0
asVfondazione
p7323
(lp7324
I4
aI14
asVservices
p7325
(lp7326
I0
aI2
asVesso
p7327
(lp7328
I4
aI0
asVsouthampton
p7329
(lp7330
I0
aI1
asVufficiali
p7331
(lp7332
I0
aI3
asVsettimanale
p7333
(lp7334
I0
aI2
asVkm
p7335
(lp7336
I3
aI3
asVkw
p7337
(lp7338
I0
aI5
asVpornostar
p7339
(lp7340
I8
aI6
asVproseguito
p7341
(lp7342
I2
aI2
asVthomas
p7343
(lp7344
I0
aI2
asVspogliatoi
p7345
(lp7346
I0
aI2
asVsummer
p7347
(lp7348
I10
aI1
asVvincono
p7349
(lp7350
I0
aI2
asVrispondere
p7351
(lp7352
I35
aI31
asVcarne
p7353
(lp7354
I4
aI0
asVvacci
p7355
(lp7356
I14
aI14
asVscrittrice
p7357
(lp7358
I2
aI0
asVcommissione
p7359
(lp7360
I60
aI70
asVgilli
p7361
(lp7362
I3
aI0
asVrecidiva
p7363
(lp7364
I12
aI0
asVspiedi
p7365
(lp7366
I0
aI2
asVtempesta
p7367
(lp7368
I3
aI0
asVidiots
p7369
(lp7370
I0
aI8
asVelettronici
p7371
(lp7372
I2
aI0
asVsantoro
p7373
(lp7374
I1
aI0
asVbarile
p7375
(lp7376
I5
aI0
asVquargnento
p7377
(lp7378
I2
aI0
asVelettronica
p7379
(lp7380
I0
aI2
asVrestare
p7381
(lp7382
I0
aI2
asVtrofeo
p7383
(lp7384
I2
aI0
asVautore
p7385
(lp7386
I7
aI0
asVm5s
p7387
(lp7388
I0
aI6
asVsuarez
p7389
(lp7390
I17
aI9
asVdante
p7391
(lp7392
I50
aI0
asVsuggerisco
p7393
(lp7394
I0
aI1
asVgarcia
p7395
(lp7396
I0
aI3
asValimentazione
p7397
(lp7398
I5
aI0
asVspiega
p7399
(lp7400
I15
aI9
asVvino
p7401
(lp7402
I0
aI2
asVcontrolli
p7403
(lp7404
I12
aI12
asVvine
p7405
(lp7406
I1
aI0
asVdiventato
p7407
(lp7408
I3
aI3
asVdovrebbero
p7409
(lp7410
I2
aI0
asVchampagne
p7411
(lp7412
I6
aI15
asVcreativit
p7413
(lp7414
I0
aI5
asVprendere
p7415
(lp7416
I2
aI6
asVcatena
p7417
(lp7418
I0
aI3
asVimpegnata
p7419
(lp7420
I2
aI0
asVtermostatiche
p7421
(lp7422
I6
aI7
asVincubatori
p7423
(lp7424
I6
aI0
asVimpegnati
p7425
(lp7426
I0
aI2
asVprovocherebbe
p7427
(lp7428
I0
aI2
asVit0005086886
p7429
(lp7430
I0
aI2
asVrestaurant
p7431
(lp7432
I4
aI0
asVumore
p7433
(lp7434
I0
aI2
asVforeign
p7435
(lp7436
I4
aI2
asVlimone
p7437
(lp7438
I15
aI30
asVlungostura
p7439
(lp7440
I2
aI0
asVstoria
p7441
(lp7442
I62
aI30
asVstorie
p7443
(lp7444
I6
aI0
asVpoint
p7445
(lp7446
I0
aI1
asVconsumi
p7447
(lp7448
I3
aI7
asVconsumo
p7449
(lp7450
I9
aI2
asVpollici
p7451
(lp7452
I9
aI2
asVzeta
p7453
(lp7454
I1
aI0
asVinquinamento
p7455
(lp7456
I0
aI9
asVcreato
p7457
(lp7458
I6
aI0
asVtruffe
p7459
(lp7460
I1
aI2
asVrete
p7461
(lp7462
I27
aI18
asVrivale
p7463
(lp7464
I0
aI1
asVcreate
p7465
(lp7466
I4
aI4
asVriscaldamento
p7467
(lp7468
I0
aI3
asVrivals
p7469
(lp7470
I0
aI1
asVsecret
p7471
(lp7472
I3
aI0
asVgay
p7473
(lp7474
I3
aI7
asVgas
p7475
(lp7476
I12
aI9
asVfiscale
p7477
(lp7478
I3
aI3
asVfiscali
p7479
(lp7480
I3
aI0
asVsoddisfazione
p7481
(lp7482
I0
aI1
asVraoul
p7483
(lp7484
I13
aI4
asVprodotto
p7485
(lp7486
I13
aI20
asVprodotti
p7487
(lp7488
I21
aI30
asVfui
p7489
(lp7490
I2
aI0
asVsubire
p7491
(lp7492
I0
aI1
asVencountered
p7493
(lp7494
I11
aI7
asVsardo
p7495
(lp7496
I0
aI3
asVsarde
p7497
(lp7498
I0
aI6
asVscambista
p7499
(lp7500
I0
aI1
asVitaly
p7501
(lp7502
I0
aI9
asVvogliono
p7503
(lp7504
I4
aI8
asValunni
p7505
(lp7506
I26
aI0
asVpallone
p7507
(lp7508
I6
aI0
asVregistrato
p7509
(lp7510
I0
aI1
asVtrentina
p7511
(lp7512
I1
aI0
asVsorella
p7513
(lp7514
I3
aI0
asVfrosinone
p7515
(lp7516
I0
aI4
asVentra
p7517
(lp7518
I2
aI2
asVsacca
p7519
(lp7520
I3
aI0
asVtask
p7521
(lp7522
I0
aI2
asVnoli
p7523
(lp7524
I3
aI0
asVsacco
p7525
(lp7526
I4
aI0
asVentro
p7527
(lp7528
I6
aI10
asVjuventus
p7529
(lp7530
I80
aI149
asVtass
p7531
(lp7532
I1
aI0
asVandare
p7533
(lp7534
I12
aI7
asVstessa
p7535
(lp7536
I7
aI12
asVassolutamente
p7537
(lp7538
I6
aI11
asVstesse
p7539
(lp7540
I2
aI4
asVstessi
p7541
(lp7542
I2
aI3
asVrinnovabili
p7543
(lp7544
I0
aI6
asVtrascinare
p7545
(lp7546
I0
aI1
asVcup
p7547
(lp7548
I3
aI0
asVstabilit
p7549
(lp7550
I5
aI4
asVsource
p7551
(lp7552
I5
aI0
asVapp
p7553
(lp7554
I21
aI4
asVrimedi
p7555
(lp7556
I3
aI4
asVbio
p7557
(lp7558
I0
aI4
asVbic
p7559
(lp7560
I11
aI0
asVincendio
p7561
(lp7562
I17
aI4
asVprogrammazione
p7563
(lp7564
I1
aI3
asVnozze
p7565
(lp7566
I3
aI0
asVtibia
p7567
(lp7568
I4
aI2
asVterritoriale
p7569
(lp7570
I1
aI0
asVgoogle
p7571
(lp7572
I128
aI127
asVmartial
p7573
(lp7574
I30
aI4
asVbenessere
p7575
(lp7576
I8
aI0
asVfiglio
p7577
(lp7578
I9
aI14
asVscale
p7579
(lp7580
I0
aI3
asVpet
p7581
(lp7582
I6
aI0
asVscalo
p7583
(lp7584
I1
aI3
asVulteriore
p7585
(lp7586
I3
aI8
asVavviene
p7587
(lp7588
I8
aI4
asVpep
p7589
(lp7590
I0
aI2
asVfiglia
p7591
(lp7592
I87
aI64
asVenergia
p7593
(lp7594
I12
aI37
asVcatamarano
p7595
(lp7596
I0
aI4
asVpei
p7597
(lp7598
I2
aI0
asVeliminato
p7599
(lp7600
I4
aI0
asVsperimentare
p7601
(lp7602
I2
aI0
asVvigoria
p7603
(lp7604
I8
aI15
asVavversari
p7605
(lp7606
I4
aI10
asVfumare
p7607
(lp7608
I5
aI0
asVgioco
p7609
(lp7610
I6
aI6
asVesterno
p7611
(lp7612
I0
aI1
asVurto
p7613
(lp7614
I1
aI0
asVurti
p7615
(lp7616
I1
aI0
asVtifo
p7617
(lp7618
I0
aI1
asVaquila
p7619
(lp7620
I0
aI4
asVrivestite
p7621
(lp7622
I1
aI0
asVbenevento
p7623
(lp7624
I0
aI2
asVproblematiche
p7625
(lp7626
I3
aI0
asVabdelhadi
p7627
(lp7628
I8
aI12
asVingaggio
p7629
(lp7630
I4
aI10
asVrobusta
p7631
(lp7632
I1
aI0
asVmorata
p7633
(lp7634
I33
aI41
asVinvita
p7635
(lp7636
I6
aI0
asVcosmici
p7637
(lp7638
I52
aI41
asVserie
p7639
(lp7640
I29
aI16
asVvolevo
p7641
(lp7642
I18
aI1
asVfotografo
p7643
(lp7644
I0
aI2
asVserio
p7645
(lp7646
I0
aI4
asVsostanza
p7647
(lp7648
I0
aI1
asVvalore
p7649
(lp7650
I14
aI24
asVvalori
p7651
(lp7652
I8
aI3
asVcerebrali
p7653
(lp7654
I2
aI0
asVrosmarino
p7655
(lp7656
I1
aI0
asVsingle
p7657
(lp7658
I2
aI4
asVcure
p7659
(lp7660
I0
aI4
asVcura
p7661
(lp7662
I9
aI30
asVcaff
p7663
(lp7664
I8
aI19
asVscalzi
p7665
(lp7666
I3
aI0
asVmateria
p7667
(lp7668
I97
aI132
asVsignificative
p7669
(lp7670
I1
aI0
asVritmo
p7671
(lp7672
I1
aI0
asVpapa
p7673
(lp7674
I123
aI111
asVpassaggio
p7675
(lp7676
I2
aI1
asVregionale
p7677
(lp7678
I7
aI6
asVregionali
p7679
(lp7680
I14
aI8
asVsottoscrivo
p7681
(lp7682
I0
aI1
asVdonadoni
p7683
(lp7684
I0
aI3
asVservizi
p7685
(lp7686
I38
aI55
asVprossima
p7687
(lp7688
I2
aI2
asVsostengono
p7689
(lp7690
I0
aI2
asVprossimo
p7691
(lp7692
I5
aI13
asVserale
p7693
(lp7694
I8
aI0
asVlotto
p7695
(lp7696
I0
aI2
asVfitch
p7697
(lp7698
I6
aI9
asVpulsanti
p7699
(lp7700
I4
aI0
asVpolemica
p7701
(lp7702
I7
aI6
asVminori
p7703
(lp7704
I5
aI0
asVturbolenza
p7705
(lp7706
I1
aI0
asVcarcassa
p7707
(lp7708
I3
aI0
asVreligione
p7709
(lp7710
I1
aI8
asVsaga
p7711
(lp7712
I0
aI17
asVankara
p7713
(lp7714
I4
aI14
asVaccusa
p7715
(lp7716
I2
aI7
asVmobilit
p7717
(lp7718
I15
aI21
asVaccuse
p7719
(lp7720
I12
aI24
asVempedocle
p7721
(lp7722
I2
aI0
asVevidenza
p7723
(lp7724
I2
aI0
asValesi
p7725
(lp7726
I2
aI0
asVquindici
p7727
(lp7728
I4
aI2
asVspazio
p7729
(lp7730
I16
aI17
asVthiago
p7731
(lp7732
I0
aI5
asVvelo
p7733
(lp7734
I2
aI1
asVvincoli
p7735
(lp7736
I2
aI4
asVcarly
p7737
(lp7738
I0
aI5
asVkobane
p7739
(lp7740
I0
aI14
asVvela
p7741
(lp7742
I1
aI1
asVinglese
p7743
(lp7744
I14
aI11
asVappena
p7745
(lp7746
I7
aI0
asVcarlo
p7747
(lp7748
I47
aI25
asVelisa
p7749
(lp7750
I3
aI0
asVmappa
p7751
(lp7752
I5
aI5
asVchicago
p7753
(lp7754
I3
aI6
asVaz
p7755
(lp7756
I2
aI0
asVfurti
p7757
(lp7758
I6
aI2
asVhuawei
p7759
(lp7760
I13
aI6
asVvigili
p7761
(lp7762
I24
aI8
asV3d
p7763
(lp7764
I0
aI2
asVtenue
p7765
(lp7766
I2
aI0
asVsino
p7767
(lp7768
I7
aI4
asVtalent
p7769
(lp7770
I1
aI0
asVpunizione
p7771
(lp7772
I0
aI3
asVcera
p7773
(lp7774
I0
aI3
asVcern
p7775
(lp7776
I40
aI32
asVpunizioni
p7777
(lp7778
I3
aI0
asValaska
p7779
(lp7780
I0
aI2
asVdebito
p7781
(lp7782
I6
aI4
asVschermo
p7783
(lp7784
I9
aI7
asVpresidente
p7785
(lp7786
I229
aI171
asVnobel
p7787
(lp7788
I3
aI0
asVvaluteranno
p7789
(lp7790
I0
aI1
asVoperatrici
p7791
(lp7792
I2
aI2
asVconferenza
p7793
(lp7794
I38
aI16
asVversamenti
p7795
(lp7796
I2
aI1
asVsiderurgia
p7797
(lp7798
I0
aI2
asVuscir
p7799
(lp7800
I0
aI1
asVbritney
p7801
(lp7802
I2
aI0
asVpedrosa
p7803
(lp7804
I3
aI0
asVnativi
p7805
(lp7806
I0
aI6
asVumberto
p7807
(lp7808
I0
aI8
asVcoscia
p7809
(lp7810
I0
aI5
asVgiubileo
p7811
(lp7812
I0
aI5
asVsalvini
p7813
(lp7814
I5
aI0
asVregione
p7815
(lp7816
I22
aI38
asVregioni
p7817
(lp7818
I10
aI8
asVafc
p7819
(lp7820
I0
aI4
asVinghilterra
p7821
(lp7822
I20
aI40
asVprofilo
p7823
(lp7824
I2
aI5
asVlicenziamento
p7825
(lp7826
I2
aI0
asVpiace
p7827
(lp7828
I0
aI2
asVvelocit
p7829
(lp7830
I16
aI4
asVcalalzo
p7831
(lp7832
I0
aI2
asVlines
p7833
(lp7834
I3
aI0
asVpiacere
p7835
(lp7836
I12
aI14
asVsentimento
p7837
(lp7838
I0
aI3
asVtirocini
p7839
(lp7840
I0
aI1
asVdivent
p7841
(lp7842
I3
aI0
asVfurious
p7843
(lp7844
I0
aI18
asVprofessionista
p7845
(lp7846
I2
aI10
asVlinee
p7847
(lp7848
I0
aI3
asVprofessioniste
p7849
(lp7850
I0
aI2
asVlinea
p7851
(lp7852
I16
aI14
asVlingue
p7853
(lp7854
I7
aI2
asVlingua
p7855
(lp7856
I15
aI0
asVtronco
p7857
(lp7858
I0
aI1
asVpensionati
p7859
(lp7860
I13
aI14
asVmeteo
p7861
(lp7862
I0
aI4
asVruota
p7863
(lp7864
I16
aI16
asVspinto
p7865
(lp7866
I2
aI2
asVgalaxy
p7867
(lp7868
I11
aI0
asVlm
p7869
(lp7870
I0
aI7
asVandata
p7871
(lp7872
I0
aI11
asVfiesta
p7873
(lp7874
I5
aI0
asVtechpeaks
p7875
(lp7876
I0
aI10
asVpaura
p7877
(lp7878
I2
aI0
asVrispetta
p7879
(lp7880
I0
aI2
asVreati
p7881
(lp7882
I19
aI6
asVintervento
p7883
(lp7884
I11
aI9
asVprigione
p7885
(lp7886
I16
aI0
asVreato
p7887
(lp7888
I8
aI5
asVwarner
p7889
(lp7890
I0
aI1
asVcalabro
p7891
(lp7892
I0
aI2
asVvotano
p7893
(lp7894
I1
aI1
asVpubblicato
p7895
(lp7896
I0
aI9
asVindicazioni
p7897
(lp7898
I1
aI0
asVgiordano
p7899
(lp7900
I0
aI2
asVistituto
p7901
(lp7902
I9
aI0
asVposteriore
p7903
(lp7904
I0
aI2
asVfrane
p7905
(lp7906
I2
aI0
asVparamano
p7907
(lp7908
I2
aI0
asVfranz
p7909
(lp7910
I2
aI0
asVsorride
p7911
(lp7912
I8
aI8
asVricercati
p7913
(lp7914
I0
aI1
asVstreamago
p7915
(lp7916
I0
aI3
asVmonache
p7917
(lp7918
I0
aI2
asVfantallenatori
p7919
(lp7920
I0
aI6
asVriapertura
p7921
(lp7922
I2
aI0
asVmonumentale
p7923
(lp7924
I4
aI0
asVjustine
p7925
(lp7926
I4
aI0
asVstrategia
p7927
(lp7928
I3
aI0
asVplastica
p7929
(lp7930
I3
aI0
asVcalderon
p7931
(lp7932
I4
aI4
asVhee
p7933
(lp7934
I4
aI2
asVbologna
p7935
(lp7936
I2
aI14
asVtribali
p7937
(lp7938
I4
aI2
asVteoricamente
p7939
(lp7940
I11
aI7
asVpotr
p7941
(lp7942
I19
aI9
asVfortezza
p7943
(lp7944
I2
aI0
asVpelle
p7945
(lp7946
I23
aI15
asVpreparato
p7947
(lp7948
I2
aI0
asVcomplesso
p7949
(lp7950
I3
aI0
asVogr
p7951
(lp7952
I0
aI10
asVballare
p7953
(lp7954
I2
aI0
asVpartenopei
p7955
(lp7956
I2
aI0
asVtrento
p7957
(lp7958
I4
aI13
asVperquisizioni
p7959
(lp7960
I4
aI0
asVpresentatore
p7961
(lp7962
I2
aI2
asVuova
p7963
(lp7964
I1
aI1
asVuovo
p7965
(lp7966
I4
aI1
asVparlare
p7967
(lp7968
I6
aI6
asVtomaso
p7969
(lp7970
I3
aI0
asVcuore
p7971
(lp7972
I44
aI28
asVestrazione
p7973
(lp7974
I6
aI3
asVgravity
p7975
(lp7976
I4
aI0
asVtrattarsi
p7977
(lp7978
I4
aI0
asVbravata
p7979
(lp7980
I2
aI0
asVmit
p7981
(lp7982
I0
aI14
asVpreliminari
p7983
(lp7984
I0
aI3
asVprocura
p7985
(lp7986
I2
aI5
asVpuntata
p7987
(lp7988
I61
aI0
asVmonetarie
p7989
(lp7990
I2
aI0
asVpreferito
p7991
(lp7992
I0
aI3
asVcompleanno
p7993
(lp7994
I112
aI105
asVrequest
p7995
(lp7996
I11
aI7
asVfilangieri
p7997
(lp7998
I0
aI2
asVriconoscimento
p7999
(lp8000
I15
aI10
asVriforma
p8001
(lp8002
I19
aI15
asVcapito
p8003
(lp8004
I0
aI2
asVriforme
p8005
(lp8006
I23
aI27
asVpiacerebbe
p8007
(lp8008
I0
aI3
asVridolfi
p8009
(lp8010
I3
aI0
asVstaff
p8011
(lp8012
I0
aI2
asVimmortalare
p8013
(lp8014
I0
aI2
asVtoccher
p8015
(lp8016
I0
aI2
asVfrattempo
p8017
(lp8018
I6
aI0
asVvariazioni
p8019
(lp8020
I7
aI1
asVquiete
p8021
(lp8022
I2
aI0
asVvariazione
p8023
(lp8024
I0
aI2
asVdifferenze
p8025
(lp8026
I0
aI3
asVdifferenza
p8027
(lp8028
I76
aI30
asVrecuperando
p8029
(lp8030
I0
aI2
asVdistilleria
p8031
(lp8032
I3
aI0
asVrazza
p8033
(lp8034
I1
aI1
asVrappresentanti
p8035
(lp8036
I0
aI2
asVcicero
p8037
(lp8038
I3
aI0
asVpartecipare
p8039
(lp8040
I4
aI2
asVrubato
p8041
(lp8042
I0
aI3
asVmercedes
p8043
(lp8044
I0
aI4
asVrubata
p8045
(lp8046
I2
aI0
asVmilanello
p8047
(lp8048
I0
aI3
asVoscura
p8049
(lp8050
I77
aI86
asVcontestato
p8051
(lp8052
I0
aI8
asVgrosso
p8053
(lp8054
I0
aI3
asVnational
p8055
(lp8056
I2
aI0
asVgrossa
p8057
(lp8058
I0
aI2
asVscusa
p8059
(lp8060
I12
aI0
asVeleonora
p8061
(lp8062
I14
aI0
asVorientamento
p8063
(lp8064
I0
aI4
asVrapimento
p8065
(lp8066
I2
aI0
asVnonostante
p8067
(lp8068
I7
aI8
asVcavani
p8069
(lp8070
I0
aI8
asVprecedente
p8071
(lp8072
I0
aI4
asVbruno
p8073
(lp8074
I0
aI3
asVroutine
p8075
(lp8076
I0
aI4
asVmondaini
p8077
(lp8078
I3
aI3
asVsinistri
p8079
(lp8080
I0
aI1
asVsinistra
p8081
(lp8082
I1
aI11
asVarmenia
p8083
(lp8084
I0
aI6
asVselena
p8085
(lp8086
I0
aI1
asVantica
p8087
(lp8088
I13
aI5
asVwiggo
p8089
(lp8090
I0
aI2
asVcoppia
p8091
(lp8092
I4
aI3
asVlyxor
p8093
(lp8094
I2
aI0
asVformazioni
p8095
(lp8096
I2
aI0
asVformazione
p8097
(lp8098
I9
aI3
asVrima
p8099
(lp8100
I2
aI0
asVimprenditore
p8101
(lp8102
I2
aI0
asVvent
p8103
(lp8104
I2
aI4
asVdavvero
p8105
(lp8106
I14
aI21
asVvene
p8107
(lp8108
I6
aI6
asVricordare
p8109
(lp8110
I0
aI2
asVvedere
p8111
(lp8112
I18
aI28
asVvena
p8113
(lp8114
I2
aI1
asVvogliamo
p8115
(lp8116
I19
aI12
asVraddoppio
p8117
(lp8118
I0
aI1
asVpoter
p8119
(lp8120
I2
aI0
asVal
p8121
(lp8122
I0
aI4
asVparcheggiato
p8123
(lp8124
I0
aI1
asVdeep
p8125
(lp8126
I7
aI0
asVmulta
p8127
(lp8128
I14
aI4
asVmulte
p8129
(lp8130
I3
aI0
asVarchitetti
p8131
(lp8132
I6
aI4
asVarchitetto
p8133
(lp8134
I0
aI4
asVvirt
p8135
(lp8136
I1
aI0
asVpartner
p8137
(lp8138
I12
aI3
asVproxima
p8139
(lp8140
I2
aI0
asVrapido
p8141
(lp8142
I0
aI4
asVabbattimento
p8143
(lp8144
I3
aI0
asVfinito
p8145
(lp8146
I9
aI5
asVtroveremo
p8147
(lp8148
I4
aI0
asVdieta
p8149
(lp8150
I0
aI10
asVios
p8151
(lp8152
I11
aI7
asVknbel
p8153
(lp8154
I0
aI2
asVgestire
p8155
(lp8156
I0
aI2
asVdomande
p8157
(lp8158
I2
aI3
asVsete
p8159
(lp8160
I2
aI0
asVripartitore
p8161
(lp8162
I5
aI0
asVnucleare
p8163
(lp8164
I0
aI5
asVantonio
p8165
(lp8166
I2
aI0
asVsets
p8167
(lp8168
I0
aI1
asVstanchezza
p8169
(lp8170
I0
aI4
asValghe
p8171
(lp8172
I2
aI0
asVquattordici
p8173
(lp8174
I0
aI2
asVmoretti
p8175
(lp8176
I7
aI24
asVcanottaggio
p8177
(lp8178
I4
aI0
asVlotteria
p8179
(lp8180
I5
aI0
asVsmart
p8181
(lp8182
I0
aI27
asVaradori
p8183
(lp8184
I0
aI4
asVtesta
p8185
(lp8186
I21
aI11
asVteste
p8187
(lp8188
I0
aI2
asVtesti
p8189
(lp8190
I0
aI7
asVtesto
p8191
(lp8192
I8
aI1
asVsoftair
p8193
(lp8194
I0
aI1
asVsuccess
p8195
(lp8196
I9
aI6
asVparapendio
p8197
(lp8198
I2
aI0
asVpoetico
p8199
(lp8200
I1
aI0
asVozono
p8201
(lp8202
I0
aI7
asVsoft
p8203
(lp8204
I0
aI1
asVsegreto
p8205
(lp8206
I20
aI0
asVragazzi
p8207
(lp8208
I37
aI14
asVsegreti
p8209
(lp8210
I0
aI3
asVregolamento
p8211
(lp8212
I24
aI0
asVstimolare
p8213
(lp8214
I6
aI0
asVtemporaneamente
p8215
(lp8216
I1
aI0
asVcoverdale
p8217
(lp8218
I12
aI0
asVtmw
p8219
(lp8220
I1
aI0
asVtmz
p8221
(lp8222
I0
aI2
asVutilizzando
p8223
(lp8224
I5
aI0
asVbazoli
p8225
(lp8226
I7
aI0
asVvivevano
p8227
(lp8228
I1
aI0
asVcontratto
p8229
(lp8230
I23
aI20
asVcontratti
p8231
(lp8232
I0
aI5
asVnotaio
p8233
(lp8234
I3
aI0
asVinteressato
p8235
(lp8236
I0
aI2
asVscoliosi
p8237
(lp8238
I0
aI2
asVpaesi
p8239
(lp8240
I26
aI14
asVinizia
p8241
(lp8242
I3
aI0
asVjustin
p8243
(lp8244
I0
aI2
asVveicolo
p8245
(lp8246
I0
aI1
asVbrasile
p8247
(lp8248
I0
aI3
asVplayoff
p8249
(lp8250
I8
aI27
asVtermini
p8251
(lp8252
I5
aI0
asVmarika
p8253
(lp8254
I2
aI0
asVmidfielder
p8255
(lp8256
I0
aI1
asVtermine
p8257
(lp8258
I0
aI3
asVpadiglione
p8259
(lp8260
I0
aI10
asVpadiglioni
p8261
(lp8262
I0
aI12
asVrcs
p8263
(lp8264
I5
aI0
asVgenitore
p8265
(lp8266
I0
aI3
asVlinciaggio
p8267
(lp8268
I0
aI3
asVgenitori
p8269
(lp8270
I11
aI13
asVbrano
p8271
(lp8272
I4
aI0
asVbrani
p8273
(lp8274
I9
aI0
asVventilazione
p8275
(lp8276
I4
aI0
asVbus
p8277
(lp8278
I12
aI0
asVdavids
p8279
(lp8280
I3
aI3
asVdisgustata
p8281
(lp8282
I0
aI4
asVritirata
p8283
(lp8284
I2
aI0
asVritirati
p8285
(lp8286
I0
aI5
asVcasalinga
p8287
(lp8288
I0
aI2
asVdavide
p8289
(lp8290
I2
aI0
asVmisto
p8291
(lp8292
I0
aI2
asVprovato
p8293
(lp8294
I6
aI3
asVduro
p8295
(lp8296
I2
aI2
asVzellweger
p8297
(lp8298
I1
aI0
asVpil
p8299
(lp8300
I15
aI6
asVpin
p8301
(lp8302
I18
aI15
asVperiodo
p8303
(lp8304
I8
aI10
asVdure
p8305
(lp8306
I0
aI3
asVtopless
p8307
(lp8308
I5
aI6
asVfiladelfia
p8309
(lp8310
I6
aI0
asVnazionali
p8311
(lp8312
I0
aI2
asVpip
p8313
(lp8314
I2
aI2
asVschiacceremo
p8315
(lp8316
I2
aI0
asVsbagliato
p8317
(lp8318
I8
aI2
asVpensanti
p8319
(lp8320
I2
aI0
asVmertens
p8321
(lp8322
I4
aI0
asVmembro
p8323
(lp8324
I0
aI9
asVphilips
p8325
(lp8326
I0
aI2
asVmancini
p8327
(lp8328
I2
aI6
asVpezzi
p8329
(lp8330
I0
aI3
asVdomani
p8331
(lp8332
I2
aI0
asVristrutturata
p8333
(lp8334
I2
aI0
asVobiettivo
p8335
(lp8336
I11
aI11
asVparole
p8337
(lp8338
I23
aI18
asVporre
p8339
(lp8340
I4
aI6
asVparola
p8341
(lp8342
I6
aI11
asVutilizzata
p8343
(lp8344
I5
aI16
asVutilizzate
p8345
(lp8346
I3
aI1
asVsposini
p8347
(lp8348
I2
aI0
asVutilizzato
p8349
(lp8350
I2
aI3
asVspeculazione
p8351
(lp8352
I1
aI0
asVassemblea
p8353
(lp8354
I34
aI21
asVspeculazioni
p8355
(lp8356
I0
aI1
asVparis
p8357
(lp8358
I0
aI4
asVtweet
p8359
(lp8360
I12
aI6
asVrandagio
p8361
(lp8362
I2
aI0
asVparit
p8363
(lp8364
I3
aI0
asVmultirank
p8365
(lp8366
I24
aI20
asVtrentenne
p8367
(lp8368
I0
aI1
asVsvedese
p8369
(lp8370
I3
aI2
asVrisk
p8371
(lp8372
I2
aI0
asVcalcio
p8373
(lp8374
I38
aI23
asVillegittimo
p8375
(lp8376
I2
aI0
asVquantit
p8377
(lp8378
I3
aI0
asVvederti
p8379
(lp8380
I0
aI2
asVverit
p8381
(lp8382
I172
aI93
asVterroristiche
p8383
(lp8384
I0
aI2
asVcomincia
p8385
(lp8386
I0
aI2
asVvocazione
p8387
(lp8388
I2
aI1
asVenjoy
p8389
(lp8390
I0
aI36
asVparigi
p8391
(lp8392
I9
aI5
asVazimut
p8393
(lp8394
I2
aI0
asVesibizione
p8395
(lp8396
I2
aI0
asVstreet
p8397
(lp8398
I13
aI3
asVdelitto
p8399
(lp8400
I0
aI20
asVespulsione
p8401
(lp8402
I0
aI3
asVbanche
p8403
(lp8404
I0
aI5
asVorganismo
p8405
(lp8406
I5
aI4
asVdisney
p8407
(lp8408
I0
aI3
asVstarei
p8409
(lp8410
I1
aI0
asVsisde
p8411
(lp8412
I0
aI5
asVprato
p8413
(lp8414
I2
aI1
asVserviva
p8415
(lp8416
I0
aI4
asVmcrae
p8417
(lp8418
I4
aI6
asVucraino
p8419
(lp8420
I7
aI0
asVstudio
p8421
(lp8422
I28
aI51
asVucraina
p8423
(lp8424
I11
aI0
asVesordio
p8425
(lp8426
I0
aI7
asVcondizioni
p8427
(lp8428
I10
aI4
asVcondizione
p8429
(lp8430
I2
aI0
asVborussia
p8431
(lp8432
I44
aI115
asVwikilao
p8433
(lp8434
I0
aI1
asVnapoletani
p8435
(lp8436
I0
aI4
asVgenerale
p8437
(lp8438
I15
aI6
asVschiantare
p8439
(lp8440
I0
aI3
asVnapoletana
p8441
(lp8442
I6
aI6
asVparlamento
p8443
(lp8444
I11
aI0
asVverdure
p8445
(lp8446
I3
aI0
asVverdura
p8447
(lp8448
I5
aI0
asVvolesse
p8449
(lp8450
I2
aI0
asVtelevisori
p8451
(lp8452
I2
aI0
asVfallisce
p8453
(lp8454
I4
aI24
asVriguardano
p8455
(lp8456
I1
aI0
asVpulizie
p8457
(lp8458
I9
aI0
asVtimori
p8459
(lp8460
I2
aI1
asVtimore
p8461
(lp8462
I1
aI1
asVbisagno
p8463
(lp8464
I2
aI0
asVtirreni
p8465
(lp8466
I1
aI0
asVvolontariato
p8467
(lp8468
I16
aI16
asVcaluso
p8469
(lp8470
I4
aI0
asVm3
p8471
(lp8472
I4
aI0
asVvinse
p8473
(lp8474
I1
aI1
asVm9
p8475
(lp8476
I3
aI0
asVgarca
p8477
(lp8478
I2
aI2
asVmusk
p8479
(lp8480
I3
aI0
asVabbiamo
p8481
(lp8482
I115
aI215
asVmc
p8483
(lp8484
I0
aI3
asVstadi
p8485
(lp8486
I0
aI13
asVmq
p8487
(lp8488
I16
aI4
asVelvetico
p8489
(lp8490
I0
aI2
asVesonerato
p8491
(lp8492
I0
aI2
asVconegliano
p8493
(lp8494
I0
aI3
asVvenivano
p8495
(lp8496
I2
aI2
asVeni
p8497
(lp8498
I0
aI3
asVwitsel
p8499
(lp8500
I1
aI2
asVregistrazione
p8501
(lp8502
I2
aI0
asVbottiglie
p8503
(lp8504
I4
aI4
asVvegana
p8505
(lp8506
I1
aI0
asVvegani
p8507
(lp8508
I0
aI2
asVedificio
p8509
(lp8510
I7
aI2
asVzzino
p8511
(lp8512
I1
aI0
asVtraforo
p8513
(lp8514
I1
aI0
asVmese
p8515
(lp8516
I18
aI35
asVvalvole
p8517
(lp8518
I8
aI11
asVvalvola
p8519
(lp8520
I8
aI0
asVhalden
p8521
(lp8522
I30
aI0
asVdaredevil
p8523
(lp8524
I0
aI2
asVcrioterapia
p8525
(lp8526
I3
aI0
asVvalso
p8527
(lp8528
I1
aI0
asVterni
p8529
(lp8530
I0
aI6
asVviti
p8531
(lp8532
I0
aI2
asVvito
p8533
(lp8534
I1
aI5
asVvite
p8535
(lp8536
I21
aI20
asVtrama
p8537
(lp8538
I0
aI12
asVtempio
p8539
(lp8540
I1
aI1
asVcallejon
p8541
(lp8542
I0
aI2
asVdirigenti
p8543
(lp8544
I0
aI4
asVdirigente
p8545
(lp8546
I3
aI6
asValex
p8547
(lp8548
I9
aI2
asVmusulmani
p8549
(lp8550
I2
aI3
asVdetroit
p8551
(lp8552
I0
aI18
asVinternazionale
p8553
(lp8554
I22
aI4
asVfitness
p8555
(lp8556
I0
aI2
asVinternazionali
p8557
(lp8558
I0
aI4
asVquiliano
p8559
(lp8560
I6
aI0
asVfismic
p8561
(lp8562
I3
aI0
asVmondoni
p8563
(lp8564
I4
aI0
asVrevisione
p8565
(lp8566
I0
aI14
asVconferma
p8567
(lp8568
I4
aI9
asVmolestie
p8569
(lp8570
I3
aI0
asVancelotti
p8571
(lp8572
I5
aI5
asVgol
p8573
(lp8574
I76
aI86
asVgustare
p8575
(lp8576
I2
aI0
asVfisco
p8577
(lp8578
I12
aI5
asVgod
p8579
(lp8580
I0
aI2
asVcimitero
p8581
(lp8582
I9
aI3
asVclassificata
p8583
(lp8584
I0
aI5
asVcimiteri
p8585
(lp8586
I2
aI0
asVsegnali
p8587
(lp8588
I1
aI1
asVcibo
p8589
(lp8590
I39
aI20
asVfree
p8591
(lp8592
I2
aI0
asVtravisate
p8593
(lp8594
I0
aI1
asVinvestito
p8595
(lp8596
I0
aI2
asVprevenire
p8597
(lp8598
I3
aI0
asVtagliare
p8599
(lp8600
I2
aI1
asVfantasy
p8601
(lp8602
I0
aI5
asVcalorie
p8603
(lp8604
I4
aI0
asVgenova
p8605
(lp8606
I116
aI31
asVmovimenti
p8607
(lp8608
I3
aI0
asVtor
p8609
(lp8610
I3
aI8
asVschrrle
p8611
(lp8612
I0
aI8
asVtot
p8613
(lp8614
I4
aI1
asVallevamenti
p8615
(lp8616
I0
aI3
asVquinta
p8617
(lp8618
I3
aI0
asVitalicum
p8619
(lp8620
I68
aI44
asVaffitto
p8621
(lp8622
I3
aI0
asVconsob
p8623
(lp8624
I5
aI2
asVserve
p8625
(lp8626
I2
aI0
asVwestern
p8627
(lp8628
I1
aI0
asVcuscino
p8629
(lp8630
I3
aI3
asVabbandonato
p8631
(lp8632
I0
aI2
asVto1
p8633
(lp8634
I0
aI1
asVexpo
p8635
(lp8636
I61
aI101
asVcrescer
p8637
(lp8638
I0
aI3
asVrag
p8639
(lp8640
I0
aI2
asVtridente
p8641
(lp8642
I0
aI2
asVram
p8643
(lp8644
I5
aI0
asVrai
p8645
(lp8646
I12
aI5
asVsocio
p8647
(lp8648
I1
aI4
asVspade
p8649
(lp8650
I5
aI0
asVnomisma
p8651
(lp8652
I4
aI0
asVmontaggio
p8653
(lp8654
I3
aI0
asVdiretta
p8655
(lp8656
I8
aI3
asVmaxi
p8657
(lp8658
I0
aI6
asVsnob
p8659
(lp8660
I1
aI0
asVmediaset
p8661
(lp8662
I11
aI2
asVdiretto
p8663
(lp8664
I0
aI2
asVscambio
p8665
(lp8666
I2
aI0
asVschiena
p8667
(lp8668
I0
aI2
asVvisionare
p8669
(lp8670
I0
aI2
asVmodifiche
p8671
(lp8672
I2
aI0
asVscheda
p8673
(lp8674
I4
aI12
asVmetal
p8675
(lp8676
I2
aI9
asVcambio
p8677
(lp8678
I0
aI6
asVesclusiva
p8679
(lp8680
I0
aI2
asVrivista
p8681
(lp8682
I3
aI2
asVcenni
p8683
(lp8684
I2
aI0
asVcambia
p8685
(lp8686
I2
aI2
asVtoccare
p8687
(lp8688
I0
aI1
asVcolore
p8689
(lp8690
I32
aI43
asVcolori
p8691
(lp8692
I3
aI4
asVpagnani
p8693
(lp8694
I0
aI4
asVradio
p8695
(lp8696
I2
aI0
asVinseguimento
p8697
(lp8698
I2
aI0
asVsorveglianza
p8699
(lp8700
I0
aI4
asVstanza
p8701
(lp8702
I4
aI5
asVcapriolo
p8703
(lp8704
I4
aI0
asVmorosini
p8705
(lp8706
I14
aI29
asVsquilibri
p8707
(lp8708
I0
aI3
asVsottili
p8709
(lp8710
I2
aI2
asVwatch
p8711
(lp8712
I7
aI8
asVsardegna
p8713
(lp8714
I2
aI23
asVmigliaia
p8715
(lp8716
I2
aI0
asVconsiderati
p8717
(lp8718
I8
aI10
asVamazon
p8719
(lp8720
I7
aI0
asVlamborghini
p8721
(lp8722
I0
aI3
asVagostino
p8723
(lp8724
I6
aI6
asVreport
p8725
(lp8726
I7
aI0
asVsabrina
p8727
(lp8728
I1
aI8
asVubriaco
p8729
(lp8730
I0
aI2
asVubriaca
p8731
(lp8732
I1
aI0
asVfabbisogno
p8733
(lp8734
I1
aI0
asVcollegamento
p8735
(lp8736
I0
aI2
asVferita
p8737
(lp8738
I2
aI0
asVferiti
p8739
(lp8740
I4
aI12
asVrende
p8741
(lp8742
I0
aI1
asVvendite
p8743
(lp8744
I3
aI10
asVcitato
p8745
(lp8746
I0
aI3
asVlupo
p8747
(lp8748
I4
aI0
asVvendita
p8749
(lp8750
I19
aI16
asVboss
p8751
(lp8752
I8
aI0
asVdecathlon
p8753
(lp8754
I4
aI2
asVnews
p8755
(lp8756
I1
aI3
asVesproprio
p8757
(lp8758
I0
aI7
asVterreno
p8759
(lp8760
I6
aI2
asVseguito
p8761
(lp8762
I2
aI9
asVorti
p8763
(lp8764
I0
aI3
asVscusate
p8765
(lp8766
I0
aI1
asVkwh
p8767
(lp8768
I0
aI16
asVepidemia
p8769
(lp8770
I0
aI3
asVkatarina
p8771
(lp8772
I2
aI0
asVconference
p8773
(lp8774
I7
aI0
asVconcepito
p8775
(lp8776
I0
aI5
asVuniversali
p8777
(lp8778
I1
aI0
asVsupereroi
p8779
(lp8780
I0
aI1
asVsappiamo
p8781
(lp8782
I50
aI10
asVstavano
p8783
(lp8784
I7
aI13
asVpezzo
p8785
(lp8786
I1
aI0
asVservita
p8787
(lp8788
I1
aI0
asVservito
p8789
(lp8790
I0
aI2
asVserviti
p8791
(lp8792
I5
aI4
asVfidanzato
p8793
(lp8794
I3
aI2
asVfidanzate
p8795
(lp8796
I0
aI3
asVfidanzata
p8797
(lp8798
I1
aI0
asVbatterie
p8799
(lp8800
I0
aI13
asVsacro
p8801
(lp8802
I0
aI2
asVbatteria
p8803
(lp8804
I0
aI15
asVbatterio
p8805
(lp8806
I10
aI0
asVsacri
p8807
(lp8808
I3
aI0
asVveronica
p8809
(lp8810
I0
aI1
asVpittore
p8811
(lp8812
I7
aI0
asVscrive
p8813
(lp8814
I6
aI4
asVresponsabili
p8815
(lp8816
I7
aI7
asVcoachella
p8817
(lp8818
I8
aI6
asVresponsabile
p8819
(lp8820
I6
aI14
asVvelocista
p8821
(lp8822
I0
aI3
asVsviluppatori
p8823
(lp8824
I5
aI1
asVcycle
p8825
(lp8826
I2
aI0
asVsiviglia
p8827
(lp8828
I8
aI4
asVboldrini
p8829
(lp8830
I2
aI0
asVinstallazione
p8831
(lp8832
I6
aI9
asVocean
p8833
(lp8834
I3
aI0
asVricorso
p8835
(lp8836
I6
aI15
asVwestfalen
p8837
(lp8838
I2
aI1
asVpensile
p8839
(lp8840
I3
aI0
asVottanta
p8841
(lp8842
I2
aI8
asVlca
p8843
(lp8844
I2
aI0
asVscoperti
p8845
(lp8846
I4
aI0
asVscoperto
p8847
(lp8848
I1
aI4
asVpicasso
p8849
(lp8850
I0
aI3
asVdisegni
p8851
(lp8852
I0
aI5
asVscoperta
p8853
(lp8854
I5
aI4
asVdisegno
p8855
(lp8856
I0
aI7
asVvoglia
p8857
(lp8858
I10
aI7
asVripetuto
p8859
(lp8860
I2
aI0
asVcapitolato
p8861
(lp8862
I5
aI0
asVvoglio
p8863
(lp8864
I16
aI3
asVdiscernere
p8865
(lp8866
I2
aI2
asVfocaccia
p8867
(lp8868
I3
aI0
asVcucina
p8869
(lp8870
I17
aI6
asVtrino
p8871
(lp8872
I3
aI0
asVvincita
p8873
(lp8874
I4
aI0
asVbando
p8875
(lp8876
I4
aI0
asVottenuto
p8877
(lp8878
I0
aI1
asVexxon
p8879
(lp8880
I6
aI3
asVcaselle
p8881
(lp8882
I0
aI9
asVorlandi
p8883
(lp8884
I0
aI12
asVditta
p8885
(lp8886
I2
aI0
asVorlando
p8887
(lp8888
I0
aI2
asVfollower
p8889
(lp8890
I2
aI0
asVgodin
p8891
(lp8892
I4
aI0
asVtrovarne
p8893
(lp8894
I7
aI7
asVsezione
p8895
(lp8896
I3
aI7
asVsorvolata
p8897
(lp8898
I0
aI2
asVrealizzazione
p8899
(lp8900
I10
aI4
asValdrich
p8901
(lp8902
I4
aI0
asVfacendo
p8903
(lp8904
I2
aI0
asVvalidazione
p8905
(lp8906
I1
aI2
asVcooper
p8907
(lp8908
I0
aI13
asVtifare
p8909
(lp8910
I0
aI1
asVherbalife
p8911
(lp8912
I0
aI11
asVtotali
p8913
(lp8914
I2
aI0
asVtotale
p8915
(lp8916
I14
aI14
asVcentri
p8917
(lp8918
I0
aI3
asVmangiare
p8919
(lp8920
I6
aI3
asVfarinetti
p8921
(lp8922
I0
aI2
asVpordenone
p8923
(lp8924
I19
aI13
asVponderale
p8925
(lp8926
I2
aI0
asVtribuna
p8927
(lp8928
I9
aI5
asVrotto
p8929
(lp8930
I1
aI0
asVprovenienti
p8931
(lp8932
I2
aI2
asVrotte
p8933
(lp8934
I1
aI0
asVvaltellinese
p8935
(lp8936
I0
aI1
asVfininvest
p8937
(lp8938
I0
aI3
asVeccellenze
p8939
(lp8940
I3
aI0
asVvirgin
p8941
(lp8942
I0
aI2
asVanderson
p8943
(lp8944
I6
aI0
asVscudo
p8945
(lp8946
I0
aI2
asVparametri
p8947
(lp8948
I2
aI0
asVparticolare
p8949
(lp8950
I1
aI2
asVcandidato
p8951
(lp8952
I12
aI10
asVviva
p8953
(lp8954
I26
aI1
asVesodati
p8955
(lp8956
I0
aI3
asVvivi
p8957
(lp8958
I1
aI2
asVpediatri
p8959
(lp8960
I3
aI0
asVvivo
p8961
(lp8962
I7
aI5
asVversione
p8963
(lp8964
I18
aI19
asVpagina
p8965
(lp8966
I2
aI3
asVatto
p8967
(lp8968
I0
aI3
asVversioni
p8969
(lp8970
I3
aI1
asVatti
p8971
(lp8972
I4
aI0
asVpercezione
p8973
(lp8974
I2
aI7
asVtris
p8975
(lp8976
I0
aI1
asVmotovedetta
p8977
(lp8978
I0
aI2
asVtit
p8979
(lp8980
I0
aI1
asVtiv
p8981
(lp8982
I2
aI0
asVcestini
p8983
(lp8984
I0
aI2
asVtim
p8985
(lp8986
I2
aI0
asVtie
p8987
(lp8988
I0
aI2
asVcommerciale
p8989
(lp8990
I0
aI2
asVtappi
p8991
(lp8992
I4
aI0
asVtappo
p8993
(lp8994
I2
aI0
asVdobbiamo
p8995
(lp8996
I4
aI14
asVpagani
p8997
(lp8998
I3
aI0
asVanticipazioni
p8999
(lp9000
I23
aI0
asVvietnam
p9001
(lp9002
I0
aI1
asVvorrebbero
p9003
(lp9004
I1
aI0
asVnuclei
p9005
(lp9006
I0
aI2
asVnucleo
p9007
(lp9008
I18
aI35
asVcoach
p9009
(lp9010
I5
aI0
asVrom
p9011
(lp9012
I10
aI14
asVsfiora
p9013
(lp9014
I0
aI1
asVrob
p9015
(lp9016
I1
aI0
asVroe
p9017
(lp9018
I4
aI0
asVebrei
p9019
(lp9020
I0
aI7
asVmalika
p9021
(lp9022
I0
aI2
asVleghista
p9023
(lp9024
I2
aI0
asVavvenuto
p9025
(lp9026
I0
aI4
asVvalyriano
p9027
(lp9028
I5
aI0
asVsostiene
p9029
(lp9030
I0
aI1
asVzingari
p9031
(lp9032
I6
aI0
asVcoop
p9033
(lp9034
I3
aI0
asVambientalisti
p9035
(lp9036
I12
aI0
asVfratelli
p9037
(lp9038
I0
aI3
asVcool
p9039
(lp9040
I0
aI4
asVmeritato
p9041
(lp9042
I0
aI8
asVgatti
p9043
(lp9044
I4
aI0
asVprelazione
p9045
(lp9046
I7
aI14
asVgatto
p9047
(lp9048
I3
aI0
asVposto
p9049
(lp9050
I34
aI55
asVposti
p9051
(lp9052
I4
aI18
asVposte
p9053
(lp9054
I6
aI10
asVfunzioni
p9055
(lp9056
I6
aI3
asVtreno
p9057
(lp9058
I20
aI14
asVtreni
p9059
(lp9060
I0
aI7
asVtrend
p9061
(lp9062
I3
aI2
asVfunzione
p9063
(lp9064
I6
aI3
asVrestrittivo
p9065
(lp9066
I0
aI1
asVmontare
p9067
(lp9068
I4
aI4
asVvoucher
p9069
(lp9070
I0
aI6
asVzucchelli
p9071
(lp9072
I1
aI0
asVpoveglia
p9073
(lp9074
I6
aI0
asVsunseri
p9075
(lp9076
I0
aI5
asVstando
p9077
(lp9078
I1
aI1
asVwayel
p9079
(lp9080
I0
aI1
asVvalido
p9081
(lp9082
I1
aI3
asVtutelare
p9083
(lp9084
I2
aI5
asVfabrizio
p9085
(lp9086
I14
aI18
asVpotrebbe
p9087
(lp9088
I58
aI51
asVtagliata
p9089
(lp9090
I4
aI0
asVlibro
p9091
(lp9092
I11
aI29
asVparma
p9093
(lp9094
I0
aI15
asVmaltrattamento
p9095
(lp9096
I0
aI3
asVprecisato
p9097
(lp9098
I0
aI2
asVmackay
p9099
(lp9100
I0
aI13
asVpopstar
p9101
(lp9102
I0
aI2
asVvorremmo
p9103
(lp9104
I2
aI0
asVrussell
p9105
(lp9106
I2
aI8
asVyouhanabad
p9107
(lp9108
I1
aI0
asVusate
p9109
(lp9110
I1
aI0
asViphone
p9111
(lp9112
I7
aI0
asVmemory
p9113
(lp9114
I4
aI0
asVtecnologici
p9115
(lp9116
I0
aI1
asVusato
p9117
(lp9118
I3
aI0
asVusati
p9119
(lp9120
I1
aI0
asVpisapia
p9121
(lp9122
I17
aI2
asVandr
p9123
(lp9124
I0
aI12
asVristoranti
p9125
(lp9126
I2
aI0
asVristorante
p9127
(lp9128
I22
aI7
asVteaser
p9129
(lp9130
I0
aI1
asVunomattima
p9131
(lp9132
I2
aI0
asVpancia
p9133
(lp9134
I5
aI1
asVpiano
p9135
(lp9136
I22
aI29
asVantimateria
p9137
(lp9138
I7
aI33
asVmonegaschi
p9139
(lp9140
I3
aI6
asVsheds
p9141
(lp9142
I0
aI1
asVvalle
p9143
(lp9144
I6
aI0
asVferro
p9145
(lp9146
I12
aI12
asVpranzo
p9147
(lp9148
I0
aI5
asVjesolo
p9149
(lp9150
I3
aI0
asVeuroleague
p9151
(lp9152
I0
aI4
asVrubio
p9153
(lp9154
I0
aI2
asVterzetto
p9155
(lp9156
I1
aI0
asVtrattori
p9157
(lp9158
I3
aI3
asVstoccarda
p9159
(lp9160
I0
aI2
asVserbo
p9161
(lp9162
I4
aI0
asVazzurri
p9163
(lp9164
I3
aI0
asVfrustrazione
p9165
(lp9166
I30
aI6
asVavengers
p9167
(lp9168
I0
aI14
asVnonna
p9169
(lp9170
I2
aI0
asVmayweather
p9171
(lp9172
I9
aI3
asVnonni
p9173
(lp9174
I3
aI3
asVgiardino
p9175
(lp9176
I0
aI11
asVpartecipato
p9177
(lp9178
I2
aI0
asVrovente
p9179
(lp9180
I0
aI2
asVfango
p9181
(lp9182
I2
aI0
asVpiroscafo
p9183
(lp9184
I2
aI0
asVreggina
p9185
(lp9186
I35
aI0
asVtrattato
p9187
(lp9188
I0
aI1
asVlegge
p9189
(lp9190
I187
aI105
asVgti
p9191
(lp9192
I0
aI9
asVleggi
p9193
(lp9194
I1
aI0
asVfelicit
p9195
(lp9196
I7
aI10
asVurlando
p9197
(lp9198
I3
aI2
asVstabilimento
p9199
(lp9200
I0
aI6
asVvenire
p9201
(lp9202
I5
aI0
asVcorporea
p9203
(lp9204
I0
aI6
asVhamilton
p9205
(lp9206
I18
aI33
asVnomadi
p9207
(lp9208
I17
aI0
asVintraprendenza
p9209
(lp9210
I0
aI2
asVopera
p9211
(lp9212
I10
aI0
asVopere
p9213
(lp9214
I11
aI4
asVvedendo
p9215
(lp9216
I2
aI0
asVbattistero
p9217
(lp9218
I3
aI0
asVentrambi
p9219
(lp9220
I4
aI24
asVrestauro
p9221
(lp9222
I4
aI6
asVbusta
p9223
(lp9224
I8
aI0
asVhacker
p9225
(lp9226
I7
aI11
asVriuscita
p9227
(lp9228
I0
aI1
asVriusciti
p9229
(lp9230
I1
aI2
asVconvegno
p9231
(lp9232
I6
aI0
asVstupidissima
p9233
(lp9234
I1
aI0
asVqe
p9235
(lp9236
I2
aI0
asVtensione
p9237
(lp9238
I0
aI2
asVsimile
p9239
(lp9240
I6
aI5
asVstretto
p9241
(lp9242
I1
aI1
asVsogna
p9243
(lp9244
I0
aI1
asVstretta
p9245
(lp9246
I0
aI2
asVsogno
p9247
(lp9248
I22
aI14
asVbicarbonato
p9249
(lp9250
I3
aI0
asVzuckerberg
p9251
(lp9252
I0
aI3
asVaccoglienza
p9253
(lp9254
I0
aI12
asVpreoccupazioni
p9255
(lp9256
I4
aI0
asVinviato
p9257
(lp9258
I3
aI0
asVdinamo
p9259
(lp9260
I0
aI2
asVgusto
p9261
(lp9262
I0
aI2
asVfabbrica
p9263
(lp9264
I6
aI0
asVcommedia
p9265
(lp9266
I38
aI0
asVcubana
p9267
(lp9268
I19
aI22
asVsoffuse
p9269
(lp9270
I0
aI1
asVgeorge
p9271
(lp9272
I8
aI0
asVstipendio
p9273
(lp9274
I20
aI3
asVriserva
p9275
(lp9276
I0
aI3
asVassociazioni
p9277
(lp9278
I0
aI3
asVmodric
p9279
(lp9280
I4
aI0
asVcirco
p9281
(lp9282
I4
aI2
asVwhite
p9283
(lp9284
I0
aI2
asVmoscovici
p9285
(lp9286
I0
aI3
asVcampionato
p9287
(lp9288
I6
aI18
asVsiciliani
p9289
(lp9290
I4
aI0
asVseason
p9291
(lp9292
I6
aI11
asVdettaglio
p9293
(lp9294
I0
aI2
asVsalvator
p9295
(lp9296
I3
aI0
asVvedete
p9297
(lp9298
I1
aI0
asVsert
p9299
(lp9300
I9
aI0
asVnathan
p9301
(lp9302
I0
aI4
asVbuzzfeed
p9303
(lp9304
I2
aI2
asVdidamatica
p9305
(lp9306
I5
aI0
asVpotenza
p9307
(lp9308
I0
aI5
asVretata
p9309
(lp9310
I2
aI0
asVspalla
p9311
(lp9312
I3
aI0
asVspalle
p9313
(lp9314
I4
aI0
asVseri
p9315
(lp9316
I1
aI6
asVpre
p9317
(lp9318
I8
aI0
asVmichele
p9319
(lp9320
I5
aI4
asVsavigliano
p9321
(lp9322
I0
aI6
asVpubblicitario
p9323
(lp9324
I4
aI2
asVeccezione
p9325
(lp9326
I3
aI0
asVmarathon
p9327
(lp9328
I4
aI4
asVsuperman
p9329
(lp9330
I0
aI1
asVruggine
p9331
(lp9332
I7
aI0
asVgiovane
p9333
(lp9334
I10
aI6
asVgiovani
p9335
(lp9336
I35
aI23
asVterrorismo
p9337
(lp9338
I82
aI38
asVsherman
p9339
(lp9340
I0
aI1
asVfca
p9341
(lp9342
I7
aI7
asVnormalizzato
p9343
(lp9344
I2
aI0
asVannuo
p9345
(lp9346
I4
aI0
asVannui
p9347
(lp9348
I0
aI3
asVbicchiere
p9349
(lp9350
I3
aI0
asVturchi
p9351
(lp9352
I40
aI19
asVpolverina
p9353
(lp9354
I4
aI0
asVcollegio
p9355
(lp9356
I0
aI3
asVlingotto
p9357
(lp9358
I0
aI3
asVvettel
p9359
(lp9360
I1
aI2
asVklopp
p9361
(lp9362
I98
aI174
asVprovvedimento
p9363
(lp9364
I0
aI4
asVbriga
p9365
(lp9366
I5
aI0
asVprovvedimenti
p9367
(lp9368
I0
aI6
asVwook
p9369
(lp9370
I0
aI1
asVsubasic
p9371
(lp9372
I36
aI15
asVchiamato
p9373
(lp9374
I0
aI2
asVhiller
p9375
(lp9376
I7
aI0
asVchiamate
p9377
(lp9378
I4
aI0
asVssd
p9379
(lp9380
I4
aI0
asVportiere
p9381
(lp9382
I9
aI4
asVraccolta
p9383
(lp9384
I14
aI0
asVretribuzione
p9385
(lp9386
I8
aI10
asVlatitudini
p9387
(lp9388
I0
aI2
asVretribuzioni
p9389
(lp9390
I3
aI0
asVcontatti
p9391
(lp9392
I3
aI2
asVcontatto
p9393
(lp9394
I8
aI4
asVnetto
p9395
(lp9396
I8
aI0
asVnetta
p9397
(lp9398
I5
aI0
asVsiria
p9399
(lp9400
I3
aI9
asVocse
p9401
(lp9402
I14
aI0
asVvalligiani
p9403
(lp9404
I0
aI1
asVportafoglio
p9405
(lp9406
I21
aI15
asVwilshere
p9407
(lp9408
I1
aI0
asVsindone
p9409
(lp9410
I12
aI8
asVcantare
p9411
(lp9412
I3
aI0
asVturbina
p9413
(lp9414
I2
aI4
asVorario
p9415
(lp9416
I0
aI2
asVvinile
p9417
(lp9418
I4
aI3
asVguitar
p9419
(lp9420
I6
aI0
asVstima
p9421
(lp9422
I6
aI3
asVstime
p9423
(lp9424
I6
aI0
asVproteico
p9425
(lp9426
I2
aI0
asVafferma
p9427
(lp9428
I2
aI0
asVcallegaro
p9429
(lp9430
I0
aI6
asVryanair
p9431
(lp9432
I0
aI5
asVsicilia
p9433
(lp9434
I7
aI2
asVmissione
p9435
(lp9436
I3
aI3
asVpakistan
p9437
(lp9438
I6
aI3
asVcaduta
p9439
(lp9440
I3
aI6
asVavevamo
p9441
(lp9442
I5
aI0
asVperiod
p9443
(lp9444
I1
aI1
asVpole
p9445
(lp9446
I2
aI0
asVtrappola
p9447
(lp9448
I2
aI0
asVpolo
p9449
(lp9450
I0
aI4
asVmenisco
p9451
(lp9452
I0
aI2
asVmezzi
p9453
(lp9454
I6
aI2
asVcecina
p9455
(lp9456
I2
aI0
asVcentoquarantasette
p9457
(lp9458
I0
aI4
asVviaccia
p9459
(lp9460
I10
aI0
asVtecnicamente
p9461
(lp9462
I0
aI1
asVsimeone
p9463
(lp9464
I16
aI12
asVcalcolatore
p9465
(lp9466
I6
aI0
asVandrea
p9467
(lp9468
I0
aI5
asVgesto
p9469
(lp9470
I16
aI20
asVcase
p9471
(lp9472
I4
aI0
asVhughes
p9473
(lp9474
I6
aI0
asVvedono
p9475
(lp9476
I6
aI7
asVpoletti
p9477
(lp9478
I0
aI5
asVtrasferta
p9479
(lp9480
I14
aI18
asVfinestra
p9481
(lp9482
I2
aI0
asVjahlil
p9483
(lp9484
I0
aI5
asVbrutto
p9485
(lp9486
I2
aI0
asVpippo
p9487
(lp9488
I0
aI1
asVfiliera
p9489
(lp9490
I4
aI0
asVtrentin
p9491
(lp9492
I3
aI0
asVutilizzano
p9493
(lp9494
I2
aI2
asVpiccinini
p9495
(lp9496
I0
aI3
asVevento
p9497
(lp9498
I11
aI8
asVeventi
p9499
(lp9500
I8
aI12
asVbalotelli
p9501
(lp9502
I5
aI5
asVsedia
p9503
(lp9504
I2
aI2
asVpirelli
p9505
(lp9506
I0
aI3
asVusare
p9507
(lp9508
I4
aI2
asVweek
p9509
(lp9510
I0
aI1
asVpersona
p9511
(lp9512
I0
aI6
asVritiro
p9513
(lp9514
I2
aI0
asVpalmas
p9515
(lp9516
I2
aI0
asVpatita
p9517
(lp9518
I0
aI1
asVdriver
p9519
(lp9520
I0
aI4
asVsaldo
p9521
(lp9522
I0
aI8
asVmodella
p9523
(lp9524
I15
aI10
asVmodello
p9525
(lp9526
I48
aI49
asVmodelli
p9527
(lp9528
I6
aI9
asVcomponenti
p9529
(lp9530
I0
aI2
asVpintus
p9531
(lp9532
I2
aI0
asVmodel
p9533
(lp9534
I2
aI2
asVgrappa
p9535
(lp9536
I2
aI0
asVguardiola
p9537
(lp9538
I0
aI2
asVbaldwin
p9539
(lp9540
I0
aI2
asVaspettative
p9541
(lp9542
I10
aI5
asVrose
p9543
(lp9544
I0
aI6
asVrosa
p9545
(lp9546
I2
aI0
asVpetrolio
p9547
(lp9548
I10
aI0
asVblog
p9549
(lp9550
I4
aI8
asVvirginia
p9551
(lp9552
I4
aI3
asVtanti
p9553
(lp9554
I14
aI9
asVprezziari
p9555
(lp9556
I6
aI0
asVtanta
p9557
(lp9558
I1
aI0
asVtante
p9559
(lp9560
I3
aI1
asVvirgolettate
p9561
(lp9562
I4
aI5
asVpizzaioli
p9563
(lp9564
I7
aI7
asVantisemitismo
p9565
(lp9566
I0
aI6
asVfrattura
p9567
(lp9568
I3
aI2
asVnissan
p9569
(lp9570
I0
aI13
asVvirgolettati
p9571
(lp9572
I4
aI8
asVhiguain
p9573
(lp9574
I5
aI2
asVwinterkorn
p9575
(lp9576
I0
aI8
asVturco
p9577
(lp9578
I53
aI39
asVmadrid
p9579
(lp9580
I7
aI11
asVcircolare
p9581
(lp9582
I16
aI0
asVturca
p9583
(lp9584
I0
aI5
asVteoria
p9585
(lp9586
I57
aI32
asVterribile
p9587
(lp9588
I2
aI1
asVporter
p9589
(lp9590
I1
aI0
asVtrimestre
p9591
(lp9592
I9
aI7
asV100mila
p9593
(lp9594
I2
aI0
asVimmigrati
p9595
(lp9596
I0
aI10
asVpopulista
p9597
(lp9598
I3
aI0
asVpresentato
p9599
(lp9600
I12
aI21
asVcarrozza
p9601
(lp9602
I12
aI6
asVtributari
p9603
(lp9604
I3
aI0
asVtariffe
p9605
(lp9606
I2
aI2
asValema
p9607
(lp9608
I0
aI2
asVerrebaibi
p9609
(lp9610
I3
aI3
asVcalciatori
p9611
(lp9612
I4
aI4
asVgare
p9613
(lp9614
I0
aI7
asVgara
p9615
(lp9616
I49
aI85
asVgary
p9617
(lp9618
I5
aI2
asVrisposte
p9619
(lp9620
I7
aI1
asVmoratti
p9621
(lp9622
I4
aI24
asVrisposta
p9623
(lp9624
I9
aI11
asVrisposto
p9625
(lp9626
I2
aI2
asVbianchi
p9627
(lp9628
I3
aI4
asVfodera
p9629
(lp9630
I3
aI0
asVhouse
p9631
(lp9632
I1
aI0
asVvalley
p9633
(lp9634
I0
aI5
asVmandzukic
p9635
(lp9636
I18
aI17
asVmedaglie
p9637
(lp9638
I3
aI0
asVriduce
p9639
(lp9640
I0
aI2
asVtrattava
p9641
(lp9642
I0
aI1
asVassistenza
p9643
(lp9644
I18
aI0
asVinterrotto
p9645
(lp9646
I26
aI16
asVtentano
p9647
(lp9648
I2
aI0
asVutente
p9649
(lp9650
I1
aI2
asVutenti
p9651
(lp9652
I23
aI5
asVpolitici
p9653
(lp9654
I2
aI4
asVtasti
p9655
(lp9656
I0
aI3
asVpolitico
p9657
(lp9658
I2
aI5
asVcinema
p9659
(lp9660
I13
aI5
asVbertoli
p9661
(lp9662
I0
aI7
asVpolitica
p9663
(lp9664
I56
aI7
asVbaiji
p9665
(lp9666
I2
aI0
asVbuttiamo
p9667
(lp9668
I2
aI0
asVrequested
p9669
(lp9670
I11
aI7
asVfinale
p9671
(lp9672
I16
aI15
asVdashi
p9673
(lp9674
I3
aI0
asVrizzieri
p9675
(lp9676
I1
aI0
asVmente
p9677
(lp9678
I4
aI0
asVcurva
p9679
(lp9680
I0
aI27
asVrimasti
p9681
(lp9682
I0
aI1
asVrimasto
p9683
(lp9684
I2
aI2
asVvigonovo
p9685
(lp9686
I0
aI4
asVpotente
p9687
(lp9688
I2
aI0
asVrimaste
p9689
(lp9690
I1
aI3
asVbarone
p9691
(lp9692
I3
aI0
asVdecisioni
p9693
(lp9694
I0
aI4
asVcrozza
p9695
(lp9696
I4
aI4
asVdecisione
p9697
(lp9698
I12
aI31
asVsottolineate
p9699
(lp9700
I0
aI1
asVsottolineato
p9701
(lp9702
I6
aI4
asVschifo
p9703
(lp9704
I0
aI2
asVbenko
p9705
(lp9706
I20
aI0
asVlavori
p9707
(lp9708
I53
aI33
asVsaluto
p9709
(lp9710
I0
aI2
asVviolasse
p9711
(lp9712
I2
aI1
asVglobal
p9713
(lp9714
I1
aI2
asVspumanti
p9715
(lp9716
I0
aI1
asVcolposo
p9717
(lp9718
I0
aI4
asVprende
p9719
(lp9720
I2
aI0
asVtnas
p9721
(lp9722
I2
aI0
asVfai
p9723
(lp9724
I3
aI2
asVfan
p9725
(lp9726
I7
aI3
asVrelazioni
p9727
(lp9728
I0
aI4
asVpasticceria
p9729
(lp9730
I2
aI0
asVrelazione
p9731
(lp9732
I44
aI16
asVfaa
p9733
(lp9734
I2
aI0
asVappassionato
p9735
(lp9736
I0
aI2
asVtelecronaca
p9737
(lp9738
I0
aI2
asVvolevamo
p9739
(lp9740
I2
aI2
asVlist
p9741
(lp9742
I2
aI0
asVpiscaglia
p9743
(lp9744
I0
aI2
asVquegli
p9745
(lp9746
I3
aI0
asVintervista
p9747
(lp9748
I3
aI3
asVinvestire
p9749
(lp9750
I2
aI4
asVlisa
p9751
(lp9752
I0
aI3
asVpatologie
p9753
(lp9754
I2
aI2
asVrisolverlo
p9755
(lp9756
I0
aI1
asVbianconeri
p9757
(lp9758
I3
aI17
asVtea
p9759
(lp9760
I86
aI63
asVbullismo
p9761
(lp9762
I7
aI4
asVospedale
p9763
(lp9764
I12
aI10
asVpoliticizzata
p9765
(lp9766
I4
aI0
asVdesign
p9767
(lp9768
I10
aI22
asVnba
p9769
(lp9770
I2
aI19
asVsud
p9771
(lp9772
I48
aI12
asVsupermercato
p9773
(lp9774
I0
aI2
asVsun
p9775
(lp9776
I4
aI0
asVmagnolia
p9777
(lp9778
I0
aI5
asVsuv
p9779
(lp9780
I5
aI2
asVpalestra
p9781
(lp9782
I8
aI0
asVtheresa
p9783
(lp9784
I0
aI1
asVcappello
p9785
(lp9786
I40
aI38
asVsolare
p9787
(lp9788
I12
aI7
asVslittare
p9789
(lp9790
I0
aI2
asVconvincere
p9791
(lp9792
I2
aI2
asVpellegrini
p9793
(lp9794
I12
aI5
asVpochi
p9795
(lp9796
I5
aI13
asVvietnamita
p9797
(lp9798
I0
aI1
asVservizio
p9799
(lp9800
I26
aI38
asVsettembre
p9801
(lp9802
I6
aI6
asVcosplayer
p9803
(lp9804
I0
aI3
asVtondo
p9805
(lp9806
I1
aI2
asVstatali
p9807
(lp9808
I0
aI3
asVpartite
p9809
(lp9810
I12
aI11
asVpartita
p9811
(lp9812
I61
aI54
asVpartito
p9813
(lp9814
I2
aI8
asVstatale
p9815
(lp9816
I0
aI3
asVpartiti
p9817
(lp9818
I12
aI2
asVisrael
p9819
(lp9820
I3
aI0
asVattacchi
p9821
(lp9822
I2
aI4
asVoperatori
p9823
(lp9824
I13
aI5
asVfloyd
p9825
(lp9826
I0
aI2
asVflai
p9827
(lp9828
I3
aI0
asVsbarchi
p9829
(lp9830
I2
aI0
asVvivaista
p9831
(lp9832
I2
aI0
asVwizards
p9833
(lp9834
I4
aI2
asVbancarotta
p9835
(lp9836
I0
aI4
asVbevande
p9837
(lp9838
I0
aI4
asVfenomeno
p9839
(lp9840
I13
aI0
asVrenato
p9841
(lp9842
I2
aI0
asVvideogiochi
p9843
(lp9844
I1
aI0
asVspendere
p9845
(lp9846
I6
aI0
asVszalai
p9847
(lp9848
I0
aI8
asVtoccato
p9849
(lp9850
I0
aI1
asVbanchette
p9851
(lp9852
I0
aI6
asVgoal
p9853
(lp9854
I0
aI2
asVmusica
p9855
(lp9856
I12
aI5
asVbuenos
p9857
(lp9858
I0
aI2
asVsandwich
p9859
(lp9860
I0
aI2
asVbarnum
p9861
(lp9862
I0
aI3
asVpregiudizi
p9863
(lp9864
I8
aI0
asVmanital
p9865
(lp9866
I4
aI0
asVconducenti
p9867
(lp9868
I0
aI2
asVorbita
p9869
(lp9870
I0
aI8
asVbarba
p9871
(lp9872
I10
aI10
asVshort
p9873
(lp9874
I2
aI0
asVbarbe
p9875
(lp9876
I3
aI3
asVfesta
p9877
(lp9878
I0
aI4
asVdorme
p9879
(lp9880
I0
aI3
asVgrandi
p9881
(lp9882
I27
aI14
asVsudorazione
p9883
(lp9884
I0
aI2
asVdiscarica
p9885
(lp9886
I8
aI0
asVvercelli
p9887
(lp9888
I1
aI0
asVunite
p9889
(lp9890
I1
aI0
asVsvela
p9891
(lp9892
I3
aI4
asVhavre
p9893
(lp9894
I5
aI0
asVcanavese
p9895
(lp9896
I0
aI4
asVislam
p9897
(lp9898
I6
aI3
asVagnelli
p9899
(lp9900
I0
aI6
asVquartieri
p9901
(lp9902
I0
aI3
asVquartiere
p9903
(lp9904
I5
aI21
asVargentina
p9905
(lp9906
I10
aI8
asVelettriche
p9907
(lp9908
I7
aI0
asVscheletro
p9909
(lp9910
I0
aI2
asVjihadisti
p9911
(lp9912
I9
aI0
asVclippers
p9913
(lp9914
I0
aI3
asVcellule
p9915
(lp9916
I3
aI3
asVsanzionare
p9917
(lp9918
I0
aI1
asVtrigoria
p9919
(lp9920
I0
aI5
asVcalo
p9921
(lp9922
I0
aI2
asVweight
p9923
(lp9924
I0
aI1
asVaula
p9925
(lp9926
I5
aI4
asVnuove
p9927
(lp9928
I6
aI13
asVnuova
p9929
(lp9930
I60
aI25
asVsignifica
p9931
(lp9932
I1
aI1
asVvediamo
p9933
(lp9934
I2
aI1
asVcadavere
p9935
(lp9936
I2
aI2
asVparadiso
p9937
(lp9938
I3
aI0
asVmuscolare
p9939
(lp9940
I4
aI0
asVcarcere
p9941
(lp9942
I19
aI6
asVrilevazione
p9943
(lp9944
I0
aI5
asVcookie
p9945
(lp9946
I0
aI6
asVfiat
p9947
(lp9948
I11
aI26
asVpunture
p9949
(lp9950
I2
aI0
asVveloce
p9951
(lp9952
I4
aI6
asVsuperato
p9953
(lp9954
I4
aI4
asVsonnaz
p9955
(lp9956
I2
aI0
asVintervenuto
p9957
(lp9958
I0
aI2
asVmerda
p9959
(lp9960
I0
aI10
asVcorrere
p9961
(lp9962
I3
aI3
asVpablo
p9963
(lp9964
I0
aI2
asVhtc
p9965
(lp9966
I3
aI0
asVblanc
p9967
(lp9968
I0
aI3
asVtemperatura
p9969
(lp9970
I12
aI4
asVtemperature
p9971
(lp9972
I2
aI2
asVcrusca
p9973
(lp9974
I3
aI0
asVstore
p9975
(lp9976
I0
aI3
asVsegue
p9977
(lp9978
I4
aI4
asVvaleria
p9979
(lp9980
I2
aI3
asVmoglie
p9981
(lp9982
I38
aI46
asVholtby
p9983
(lp9984
I0
aI8
asVcolorata
p9985
(lp9986
I2
aI2
asVgiudice
p9987
(lp9988
I3
aI0
asVdouble
p9989
(lp9990
I2
aI0
asVgiudici
p9991
(lp9992
I5
aI6
asVgiudico
p9993
(lp9994
I16
aI3
asVdani
p9995
(lp9996
I2
aI0
asVnismo
p9997
(lp9998
I0
aI7
asVprendono
p9999
(lp10000
I4
aI4
asVtoccasana
p10001
(lp10002
I5
aI10
asVtetto
p10003
(lp10004
I2
aI3
asVimporto
p10005
(lp10006
I15
aI6
asVwilson
p10007
(lp10008
I3
aI0
asVvolantino
p10009
(lp10010
I4
aI0
asVfaccia
p10011
(lp10012
I12
aI15
asVunisce
p10013
(lp10014
I2
aI0
asVsandra
p10015
(lp10016
I7
aI8
asVwindows
p10017
(lp10018
I23
aI50
asVsalt
p10019
(lp10020
I0
aI2
asVliberati
p10021
(lp10022
I2
aI0
asVliberato
p10023
(lp10024
I2
aI6
asVcda
p10025
(lp10026
I6
aI0
asVstonex
p10027
(lp10028
I10
aI23
asVprovincia
p10029
(lp10030
I19
aI4
asVcanarie
p10031
(lp10032
I3
aI0
asVdeserta
p10033
(lp10034
I2
aI2
asVdeserto
p10035
(lp10036
I7
aI7
asVedile
p10037
(lp10038
I3
aI0
asVpenso
p10039
(lp10040
I6
aI2
asVrapite
p10041
(lp10042
I3
aI0
asVbambina
p10043
(lp10044
I4
aI4
asVbambino
p10045
(lp10046
I6
aI4
asVrizzinelli
p10047
(lp10048
I2
aI0
asVbambini
p10049
(lp10050
I29
aI12
asVamici
p10051
(lp10052
I16
aI2
asVamico
p10053
(lp10054
I4
aI8
asVpessime
p10055
(lp10056
I0
aI2
asVamica
p10057
(lp10058
I5
aI0
asVdifesa
p10059
(lp10060
I8
aI11
asVmette
p10061
(lp10062
I35
aI5
asVstapleton
p10063
(lp10064
I4
aI0
asVfognini
p10065
(lp10066
I4
aI0
asValluvioni
p10067
(lp10068
I8
aI0
asVprogetti
p10069
(lp10070
I11
aI4
asVstefania
p10071
(lp10072
I3
aI0
asVprogetto
p10073
(lp10074
I58
aI53
asVscrittore
p10075
(lp10076
I3
aI3
asVara
p10077
(lp10078
I0
aI4
asVbare
p10079
(lp10080
I10
aI0
asVbari
p10081
(lp10082
I6
aI0
asVriduzione
p10083
(lp10084
I6
aI0
asVunione
p10085
(lp10086
I8
aI29
asVgestisce
p10087
(lp10088
I0
aI2
asVlanciata
p10089
(lp10090
I2
aI0
asVlanciato
p10091
(lp10092
I10
aI6
asVcolloricchio
p10093
(lp10094
I11
aI0
asVtestuale
p10095
(lp10096
I1
aI0
asVcrema
p10097
(lp10098
I0
aI2
asVquindicenni
p10099
(lp10100
I6
aI0
asVklum
p10101
(lp10102
I2
aI0
asVsoli
p10103
(lp10104
I6
aI2
asVsold
p10105
(lp10106
I0
aI2
asVsole
p10107
(lp10108
I17
aI27
asVsola
p10109
(lp10110
I2
aI0
asVtassazione
p10111
(lp10112
I0
aI3
asVsughi
p10113
(lp10114
I0
aI2
asVattore
p10115
(lp10116
I0
aI2
asVtecno
p10117
(lp10118
I0
aI1
asVsmith
p10119
(lp10120
I3
aI3
asVprefetture
p10121
(lp10122
I2
aI4
asVps
p10123
(lp10124
I8
aI4
asVjava
p10125
(lp10126
I5
aI0
asVdud
p10127
(lp10128
I8
aI10
asVviaggiava
p10129
(lp10130
I1
aI0
asVpc
p10131
(lp10132
I17
aI13
asVpd
p10133
(lp10134
I103
aI77
asVaccedere
p10135
(lp10136
I6
aI1
asVpm
p10137
(lp10138
I0
aI10
asVasino
p10139
(lp10140
I3
aI0
asVocchi
p10141
(lp10142
I18
aI8
asVcomitato
p10143
(lp10144
I0
aI11
asVp8
p10145
(lp10146
I22
aI10
asVmarchi
p10147
(lp10148
I0
aI6
asVsimbolo
p10149
(lp10150
I1
aI0
asVtelefonia
p10151
(lp10152
I4
aI0
asVincognito
p10153
(lp10154
I0
aI2
asVverticale
p10155
(lp10156
I1
aI0
asVscorsa
p10157
(lp10158
I1
aI2
asVprostituzione
p10159
(lp10160
I4
aI4
asVscorsi
p10161
(lp10162
I3
aI3
asVquaid
p10163
(lp10164
I3
aI0
asVsperanze
p10165
(lp10166
I4
aI2
asVsperanza
p10167
(lp10168
I45
aI22
asVviola
p10169
(lp10170
I4
aI5
asVcantiere
p10171
(lp10172
I0
aI3
asVfederer
p10173
(lp10174
I0
aI4
asVtramite
p10175
(lp10176
I19
aI13
asVspears
p10177
(lp10178
I2
aI1
asVcpap
p10179
(lp10180
I4
aI0
asVarriver
p10181
(lp10182
I0
aI3
asVliquido
p10183
(lp10184
I6
aI10
asVliquidi
p10185
(lp10186
I5
aI2
asVsettanta
p10187
(lp10188
I1
aI4
asVscientifici
p10189
(lp10190
I0
aI1
asVtratte
p10191
(lp10192
I4
aI3
asVsolide
p10193
(lp10194
I0
aI1
asVtratta
p10195
(lp10196
I28
aI11
asVtratto
p10197
(lp10198
I5
aI1
asVpiccanti
p10199
(lp10200
I3
aI0
asVsolido
p10201
(lp10202
I0
aI2
asVedge
p10203
(lp10204
I14
aI0
asVquestione
p10205
(lp10206
I0
aI7
asVvirtualmente
p10207
(lp10208
I0
aI1
asVcompetitiva
p10209
(lp10210
I0
aI3
asVtronisti
p10211
(lp10212
I0
aI6
asVaiuter
p10213
(lp10214
I0
aI3
asVspaccato
p10215
(lp10216
I0
aI4
asVfluad
p10217
(lp10218
I0
aI3
asVtablet
p10219
(lp10220
I0
aI8
asVconcluso
p10221
(lp10222
I2
aI0
asVdifficile
p10223
(lp10224
I0
aI2
asVscriviamo
p10225
(lp10226
I0
aI2
asVrischio
p10227
(lp10228
I27
aI28
asVscoprono
p10229
(lp10230
I0
aI2
asVglobalizzazione
p10231
(lp10232
I3
aI0
asVsaltare
p10233
(lp10234
I2
aI0
asVricordiamo
p10235
(lp10236
I0
aI1
asVdniepropetrosk
p10237
(lp10238
I3
aI0
asVmariah
p10239
(lp10240
I5
aI7
asVyorker
p10241
(lp10242
I0
aI1
asVcampagna
p10243
(lp10244
I12
aI10
asVcapitale
p10245
(lp10246
I8
aI49
asVribaltabilissimo
p10247
(lp10248
I0
aI2
asVfucking
p10249
(lp10250
I0
aI6
asVstreaming
p10251
(lp10252
I14
aI9
asVhunziker
p10253
(lp10254
I2
aI0
asVlogge
p10255
(lp10256
I2
aI0
asVdottorato
p10257
(lp10258
I9
aI0
asVdottorati
p10259
(lp10260
I3
aI0
asVsconosciuti
p10261
(lp10262
I2
aI0
asVboko
p10263
(lp10264
I2
aI0
asVillegale
p10265
(lp10266
I0
aI3
asVurtato
p10267
(lp10268
I1
aI2
asVanna
p10269
(lp10270
I0
aI3
asVtendenziale
p10271
(lp10272
I6
aI0
asVvaccini
p10273
(lp10274
I6
aI0
asVvaccino
p10275
(lp10276
I3
aI3
asVzelanda
p10277
(lp10278
I0
aI1
asVorlo
p10279
(lp10280
I0
aI1
asVbayern
p10281
(lp10282
I0
aI2
asVcontardi
p10283
(lp10284
I0
aI2
asVbrooklyn
p10285
(lp10286
I2
aI10
asVspuntano
p10287
(lp10288
I1
aI0
asVvariare
p10289
(lp10290
I2
aI2
asVfantasia
p10291
(lp10292
I3
aI4
asVwanna
p10293
(lp10294
I0
aI2
asVsaranno
p10295
(lp10296
I32
aI22
asVreciproca
p10297
(lp10298
I1
aI1
asVcombustibile
p10299
(lp10300
I0
aI3
asVcavalli
p10301
(lp10302
I0
aI4
asVspiagge
p10303
(lp10304
I4
aI0
asVfast
p10305
(lp10306
I4
aI18
asVsonno
p10307
(lp10308
I19
aI8
asVritocchi
p10309
(lp10310
I2
aI0
asVfase
p10311
(lp10312
I0
aI3
asVfabio
p10313
(lp10314
I94
aI76
asVsuperare
p10315
(lp10316
I0
aI3
asVtrebbia
p10317
(lp10318
I0
aI3
asVsanteria
p10319
(lp10320
I10
aI12
asVsorridere
p10321
(lp10322
I6
aI5
asVcartello
p10323
(lp10324
I0
aI2
asVghiacciata
p10325
(lp10326
I5
aI0
asVaumentare
p10327
(lp10328
I0
aI2
asVcoltello
p10329
(lp10330
I0
aI4
asVidrovia
p10331
(lp10332
I0
aI6
asVtoday
p10333
(lp10334
I1
aI1
asVesce
p10335
(lp10336
I4
aI2
asVriferimento
p10337
(lp10338
I4
aI0
asVstruttura
p10339
(lp10340
I17
aI18
asVimposta
p10341
(lp10342
I12
aI14
asVstrutture
p10343
(lp10344
I4
aI8
asVrally
p10345
(lp10346
I0
aI2
asVgru
p10347
(lp10348
I0
aI3
asVtentativi
p10349
(lp10350
I6
aI0
asVtanguy
p10351
(lp10352
I2
aI2
asVtentativo
p10353
(lp10354
I6
aI3
asVclub
p10355
(lp10356
I40
aI61
asVnico
p10357
(lp10358
I2
aI0
asVottomani
p10359
(lp10360
I4
aI2
asVtornerebbe
p10361
(lp10362
I2
aI2
asVcompagnia
p10363
(lp10364
I11
aI2
asVsmetterla
p10365
(lp10366
I1
aI0
asVproblemi
p10367
(lp10368
I12
aI2
asVstanotte
p10369
(lp10370
I3
aI0
asVproblema
p10371
(lp10372
I11
aI32
asVvice
p10373
(lp10374
I2
aI3
asVpeculato
p10375
(lp10376
I1
aI0
asVscadenza
p10377
(lp10378
I7
aI12
asVscroll
p10379
(lp10380
I0
aI1
asVesplosivi
p10381
(lp10382
I3
aI0
asVsteve
p10383
(lp10384
I2
aI0
asVpuntare
p10385
(lp10386
I0
aI3
asVhedren
p10387
(lp10388
I10
aI0
asVsuperfici
p10389
(lp10390
I3
aI0
asVpericolosa
p10391
(lp10392
I0
aI1
asVvalidare
p10393
(lp10394
I1
aI2
asVshanghai
p10395
(lp10396
I0
aI3
asVriscoperto
p10397
(lp10398
I0
aI1
asVdissidenti
p10399
(lp10400
I0
aI3
asVinvisibile
p10401
(lp10402
I0
aI4
asVtuta
p10403
(lp10404
I1
aI5
asVtute
p10405
(lp10406
I3
aI0
asVrendere
p10407
(lp10408
I3
aI0
asVsfoggiare
p10409
(lp10410
I4
aI2
asVtutt
p10411
(lp10412
I0
aI1
asVbiglietti
p10413
(lp10414
I4
aI6
asVmalattia
p10415
(lp10416
I19
aI57
asVbistrot
p10417
(lp10418
I0
aI2
asVpossono
p10419
(lp10420
I9
aI17
asVleader
p10421
(lp10422
I8
aI6
asVlunare
p10423
(lp10424
I0
aI3
asVgiochi
p10425
(lp10426
I0
aI2
asVtortuosa
p10427
(lp10428
I0
aI1
asVatletico
p10429
(lp10430
I14
aI9
asVclaudia
p10431
(lp10432
I14
aI0
asVflagranza
p10433
(lp10434
I0
aI2
asVredditivit
p10435
(lp10436
I1
aI0
asVnosiglia
p10437
(lp10438
I0
aI3
asVgavazzi
p10439
(lp10440
I3
aI0
asVusando
p10441
(lp10442
I3
aI0
asVsables
p10443
(lp10444
I4
aI4
asVletto
p10445
(lp10446
I0
aI2
asVfassino
p10447
(lp10448
I0
aI3
asVesistenza
p10449
(lp10450
I10
aI8
asVepilessia
p10451
(lp10452
I0
aI2
asVmansionario
p10453
(lp10454
I2
aI0
asVsexy
p10455
(lp10456
I9
aI4
asVmetri
p10457
(lp10458
I4
aI20
asVmetro
p10459
(lp10460
I10
aI6
asVcalvin
p10461
(lp10462
I0
aI2
asVsvogliatezza
p10463
(lp10464
I3
aI3
asVvarallo
p10465
(lp10466
I2
aI0
asVvola
p10467
(lp10468
I1
aI2
asVapple
p10469
(lp10470
I14
aI11
asVvolo
p10471
(lp10472
I9
aI4
asVvoli
p10473
(lp10474
I2
aI3
asVzlatan
p10475
(lp10476
I3
aI11
asVindirizzo
p10477
(lp10478
I5
aI12
asVusa
p10479
(lp10480
I20
aI14
asVuso
p10481
(lp10482
I23
aI6
asVusi
p10483
(lp10484
I0
aI1
asVrisparmiatori
p10485
(lp10486
I0
aI2
asVcoriandoli
p10487
(lp10488
I3
aI6
asVdetrazioni
p10489
(lp10490
I10
aI10
asVimprese
p10491
(lp10492
I6
aI0
asVsangue
p10493
(lp10494
I6
aI0
asVimpresa
p10495
(lp10496
I25
aI12
asVtar
p10497
(lp10498
I5
aI1
asVscorrimento
p10499
(lp10500
I2
aI0
asVsapevano
p10501
(lp10502
I1
aI1
asVtag
p10503
(lp10504
I7
aI0
asVtal
p10505
(lp10506
I0
aI3
asVsondaggi
p10507
(lp10508
I0
aI6
asVsir
p10509
(lp10510
I3
aI0
asVunited
p10511
(lp10512
I5
aI14
asVannuncia
p10513
(lp10514
I3
aI0
asVrosolina
p10515
(lp10516
I0
aI2
asVespressione
p10517
(lp10518
I9
aI0
asVterminare
p10519
(lp10520
I0
aI13
asVgalli
p10521
(lp10522
I0
aI5
asVusain
p10523
(lp10524
I0
aI4
asVpotere
p10525
(lp10526
I0
aI3
asVsim
p10527
(lp10528
I0
aI5
asVrallentamento
p10529
(lp10530
I3
aI0
asVattenzione
p10531
(lp10532
I5
aI0
asVfotografato
p10533
(lp10534
I0
aI4
asVvengono
p10535
(lp10536
I17
aI21
asVasilo
p10537
(lp10538
I3
aI0
asVcivica
p10539
(lp10540
I0
aI3
asVsassarese
p10541
(lp10542
I2
aI0
asVarticolo
p10543
(lp10544
I6
aI10
asVcritiche
p10545
(lp10546
I7
aI4
asVsegretario
p10547
(lp10548
I8
aI10
asVdenunce
p10549
(lp10550
I3
aI2
asVrazzo
p10551
(lp10552
I2
aI0
asVholiday
p10553
(lp10554
I0
aI2
asVdottor
p10555
(lp10556
I6
aI0
asVsparire
p10557
(lp10558
I2
aI0
asVvisualizzazioni
p10559
(lp10560
I1
aI0
asVvisualizzazione
p10561
(lp10562
I0
aI1
asVventisette
p10563
(lp10564
I0
aI4
asVragazza
p10565
(lp10566
I15
aI24
asVlacrime
p10567
(lp10568
I0
aI2
asVragazze
p10569
(lp10570
I4
aI14
asVtram
p10571
(lp10572
I3
aI0
asVnfl
p10573
(lp10574
I0
aI2
asVragazzo
p10575
(lp10576
I9
aI14
asVatmosfera
p10577
(lp10578
I6
aI6
asVelettorale
p10579
(lp10580
I66
aI18
asVnotizie
p10581
(lp10582
I2
aI0
asVtemporale
p10583
(lp10584
I0
aI12
asVschneiderlin
p10585
(lp10586
I0
aI1
asVspaccare
p10587
(lp10588
I1
aI0
asVsiano
p10589
(lp10590
I2
aI5
asVtemporalmente
p10591
(lp10592
I1
aI0
asVtrattore
p10593
(lp10594
I2
aI0
asVsupporto
p10595
(lp10596
I1
aI0
asVlitorale
p10597
(lp10598
I3
aI0
asVsegnalato
p10599
(lp10600
I3
aI1
asVceneri
p10601
(lp10602
I3
aI0
asVsupporta
p10603
(lp10604
I1
aI0
asVpallacanestro
p10605
(lp10606
I7
aI0
asVstilettata
p10607
(lp10608
I2
aI1
asVsupports
p10609
(lp10610
I0
aI1
asVnaypyidaw
p10611
(lp10612
I3
aI3
asVtatuaggio
p10613
(lp10614
I0
aI3
asVmolla
p10615
(lp10616
I16
aI24
asVyork
p10617
(lp10618
I8
aI21
asVmalvivente
p10619
(lp10620
I0
aI2
asVquotata
p10621
(lp10622
I3
aI0
asVquotate
p10623
(lp10624
I2
aI0
asVcucinelli
p10625
(lp10626
I3
aI1
asVquotati
p10627
(lp10628
I1
aI0
asVspazi
p10629
(lp10630
I4
aI5
asVlivello
p10631
(lp10632
I11
aI21
asVlivelli
p10633
(lp10634
I0
aI3
asVuccisa
p10635
(lp10636
I5
aI0
asVfurono
p10637
(lp10638
I10
aI9
asVuccisi
p10639
(lp10640
I2
aI1
asVucciso
p10641
(lp10642
I5
aI40
asVparalizzata
p10643
(lp10644
I0
aI2
asVmondiale
p10645
(lp10646
I6
aI4
asVvagone
p10647
(lp10648
I6
aI3
asVvagoni
p10649
(lp10650
I1
aI0
asVabbia
p10651
(lp10652
I8
aI4
asVsalutare
p10653
(lp10654
I0
aI1
asVshell
p10655
(lp10656
I8
aI3
asVpalafantozzi
p10657
(lp10658
I0
aI2
asVtransistor
p10659
(lp10660
I27
aI54
asVsessola
p10661
(lp10662
I3
aI0
asVgenswein
p10663
(lp10664
I0
aI4
asVromagna
p10665
(lp10666
I0
aI5
asVmonferrato
p10667
(lp10668
I7
aI0
asVsuzuki
p10669
(lp10670
I0
aI2
asVusiamo
p10671
(lp10672
I0
aI1
asVidentici
p10673
(lp10674
I4
aI4
asVbenny
p10675
(lp10676
I0
aI6
asVnobile
p10677
(lp10678
I0
aI2
asVnuora
p10679
(lp10680
I3
aI0
asVscattato
p10681
(lp10682
I3
aI0
asVeuropee
p10683
(lp10684
I2
aI0
asVeuropea
p10685
(lp10686
I8
aI21
asVeuropeo
p10687
(lp10688
I9
aI0
asVeuropei
p10689
(lp10690
I4
aI9
asVprevenzione
p10691
(lp10692
I5
aI0
asVfrontman
p10693
(lp10694
I1
aI2
asVcentro
p10695
(lp10696
I14
aI0
asVsvago
p10697
(lp10698
I1
aI0
asVclass
p10699
(lp10700
I0
aI3
asVrimangono
p10701
(lp10702
I3
aI6
asVpanoramica
p10703
(lp10704
I6
aI6
asVsolidariet
p10705
(lp10706
I3
aI0
asVvigenti
p10707
(lp10708
I0
aI2
asVlutto
p10709
(lp10710
I4
aI0
asVvalutati
p10711
(lp10712
I8
aI4
asVstatuto
p10713
(lp10714
I2
aI5
asVvalutato
p10715
(lp10716
I1
aI0
asVmondadori
p10717
(lp10718
I4
aI0
asVdattoli
p10719
(lp10720
I8
aI0
asVschulz
p10721
(lp10722
I2
aI0
asVsessanta
p10723
(lp10724
I0
aI2
asVottant
p10725
(lp10726
I0
aI2
asVuefa
p10727
(lp10728
I17
aI8
asVbacia
p10729
(lp10730
I0
aI4
asVsopratutto
p10731
(lp10732
I0
aI1
asVbacio
p10733
(lp10734
I0
aI8
asVreggiana
p10735
(lp10736
I5
aI0
asVmassoni
p10737
(lp10738
I2
aI0
asVmangiatoia
p10739
(lp10740
I2
aI0
asVcarpinteri
p10741
(lp10742
I10
aI0
asVingegnere
p10743
(lp10744
I3
aI0
asVraffinata
p10745
(lp10746
I3
aI0
asVscopri
p10747
(lp10748
I1
aI0
asVpascoli
p10749
(lp10750
I2
aI0
asVsolingo
p10751
(lp10752
I0
aI1
asVarrivato
p10753
(lp10754
I2
aI2
asVlocal
p10755
(lp10756
I0
aI1
asVnauman
p10757
(lp10758
I2
aI0
asVmassacro
p10759
(lp10760
I3
aI0
asVcuba
p10761
(lp10762
I8
aI5
asVuscente
p10763
(lp10764
I0
aI3
asVstoviglie
p10765
(lp10766
I7
aI0
asVpartir
p10767
(lp10768
I0
aI2
asVwatzke
p10769
(lp10770
I17
aI44
asVview
p10771
(lp10772
I14
aI5
asVmoduli
p10773
(lp10774
I0
aI4
asVvirale
p10775
(lp10776
I1
aI0
asVsuocera
p10777
(lp10778
I0
aI2
asVtristan
p10779
(lp10780
I14
aI0
asVsportiello
p10781
(lp10782
I0
aI2
asVaddio
p10783
(lp10784
I0
aI3
asVjoy
p10785
(lp10786
I1
aI0
asVmirco
p10787
(lp10788
I0
aI2
asVspeso
p10789
(lp10790
I7
aI7
asVspesi
p10791
(lp10792
I1
aI1
asVsfidarsi
p10793
(lp10794
I0
aI3
asVspese
p10795
(lp10796
I35
aI33
asVspesa
p10797
(lp10798
I0
aI4
asVcondotta
p10799
(lp10800
I0
aI4
asVpiece
p10801
(lp10802
I2
aI0
asVallarme
p10803
(lp10804
I8
aI9
asVfarmaco
p10805
(lp10806
I4
aI2
asVpersonaggio
p10807
(lp10808
I4
aI4
asVsupportato
p10809
(lp10810
I1
aI0
asVbenzema
p10811
(lp10812
I0
aI9
asVcellulari
p10813
(lp10814
I0
aI3
asVconfronti
p10815
(lp10816
I3
aI4
asVsfigato
p10817
(lp10818
I2
aI2
asVwall
p10819
(lp10820
I13
aI5
asVpackaging
p10821
(lp10822
I3
aI0
asVstatunitense
p10823
(lp10824
I5
aI0
asVbbc
p10825
(lp10826
I3
aI0
asVsuolo
p10827
(lp10828
I4
aI1
asVmontecarlo
p10829
(lp10830
I0
aI4
asVhindi
p10831
(lp10832
I8
aI6
asVfilippo
p10833
(lp10834
I0
aI4
asVliverpool
p10835
(lp10836
I3
aI3
asVlecce
p10837
(lp10838
I3
aI0
asVemirati
p10839
(lp10840
I2
aI0
asVmaterasso
p10841
(lp10842
I13
aI0
asViannone
p10843
(lp10844
I4
aI0
asVsbarco
p10845
(lp10846
I0
aI2
asVpositroni
p10847
(lp10848
I0
aI3
asVpesce
p10849
(lp10850
I5
aI0
asVdual
p10851
(lp10852
I0
aI4
asVthor
p10853
(lp10854
I3
aI0
asVuniti
p10855
(lp10856
I32
aI22
asVunito
p10857
(lp10858
I16
aI10
asVpasseggero
p10859
(lp10860
I3
aI3
asVvintage
p10861
(lp10862
I0
aI2
asVunita
p10863
(lp10864
I0
aI1
asVpasseggeri
p10865
(lp10866
I16
aI8
asVcina
p10867
(lp10868
I11
aI4
asVfalde
p10869
(lp10870
I0
aI2
asVmidorykawa
p10871
(lp10872
I2
aI0
asVrogozin
p10873
(lp10874
I0
aI3
asVpremiere
p10875
(lp10876
I1
aI2
asVgesap
p10877
(lp10878
I0
aI2
asVromeo
p10879
(lp10880
I2
aI0
asVcimici
p10881
(lp10882
I0
aI5
asVyoox
p10883
(lp10884
I3
aI0
asVcimice
p10885
(lp10886
I0
aI4
asVudibile
p10887
(lp10888
I4
aI0
asVlobby
p10889
(lp10890
I7
aI0
asVsfuriata
p10891
(lp10892
I1
aI0
asVculturale
p10893
(lp10894
I0
aI4
asVculturali
p10895
(lp10896
I2
aI8
asVformaggio
p10897
(lp10898
I10
aI0
asVterze
p10899
(lp10900
I0
aI2
asVterza
p10901
(lp10902
I1
aI4
asVliotta
p10903
(lp10904
I4
aI0
asVtendenze
p10905
(lp10906
I8
aI7
asVtendenza
p10907
(lp10908
I3
aI3
asVripensamenti
p10909
(lp10910
I1
aI0
asVminorenni
p10911
(lp10912
I3
aI0
asValmeno
p10913
(lp10914
I2
aI0
asVsky
p10915
(lp10916
I14
aI16
asVacquistato
p10917
(lp10918
I8
aI0
asVbiagio
p10919
(lp10920
I2
aI0
asVusage
p10921
(lp10922
I0
aI1
asVdispositivi
p10923
(lp10924
I10
aI11
asVdispositivo
p10925
(lp10926
I4
aI0
asVpreparati
p10927
(lp10928
I1
aI2
asVviaggiare
p10929
(lp10930
I0
aI1
asVinvenzioni
p10931
(lp10932
I0
aI2
asVvarianti
p10933
(lp10934
I15
aI6
asVpreso
p10935
(lp10936
I2
aI16
asVpresa
p10937
(lp10938
I3
aI2
asVvariante
p10939
(lp10940
I0
aI4
asVprese
p10941
(lp10942
I0
aI2
asVmasih
p10943
(lp10944
I3
aI0
asVagenti
p10945
(lp10946
I0
aI8
asVsilletti
p10947
(lp10948
I0
aI1
asVmiami
p10949
(lp10950
I0
aI2
asVsaluzzo
p10951
(lp10952
I0
aI4
asVsaluzzi
p10953
(lp10954
I7
aI14
asVpartire
p10955
(lp10956
I2
aI1
asVgavetta
p10957
(lp10958
I2
aI0
asVtrasportati
p10959
(lp10960
I0
aI1
asVcavoretto
p10961
(lp10962
I2
aI0
asVtrapianto
p10963
(lp10964
I9
aI6
asVexport
p10965
(lp10966
I5
aI0
asVdottore
p10967
(lp10968
I3
aI3
asVjeremy
p10969
(lp10970
I9
aI3
asVmistero
p10971
(lp10972
I6
aI6
asVsobrero
p10973
(lp10974
I1
aI0
asVsuperdrive
p10975
(lp10976
I0
aI7
asVstaccati
p10977
(lp10978
I2
aI0
asVsetto
p10979
(lp10980
I4
aI0
asVsetta
p10981
(lp10982
I6
aI24
asVstaccata
p10983
(lp10984
I2
aI4
asVmurdoch
p10985
(lp10986
I0
aI4
asVventricoli
p10987
(lp10988
I1
aI0
asVschiavit
p10989
(lp10990
I14
aI0
asVpasti
p10991
(lp10992
I2
aI2
asVobem
p10993
(lp10994
I0
aI2
asVsarre
p10995
(lp10996
I0
aI4
asVpasto
p10997
(lp10998
I4
aI2
asVvetro
p10999
(lp11000
I1
aI2
asVvetri
p11001
(lp11002
I0
aI2
asVuniverso
p11003
(lp11004
I15
aI27
asVgratien
p11005
(lp11006
I0
aI2
asVstrasser
p11007
(lp11008
I3
aI0
asVndr
p11009
(lp11010
I0
aI2
asVreti
p11011
(lp11012
I13
aI22
asVgabanelli
p11013
(lp11014
I6
aI4
asVstanno
p11015
(lp11016
I14
aI4
asVnovosibirsk
p11017
(lp11018
I2
aI0
asVvan
p11019
(lp11020
I1
aI2
asVval
p11021
(lp11022
I1
aI6
asVtransfer
p11023
(lp11024
I18
aI15
asVricerche
p11025
(lp11026
I0
aI4
asVricordo
p11027
(lp11028
I3
aI0
asVwoodlab
p11029
(lp11030
I0
aI5
asVricorda
p11031
(lp11032
I2
aI4
asVvolume
p11033
(lp11034
I0
aI1
asVabusivismo
p11035
(lp11036
I0
aI3
asVmatematica
p11037
(lp11038
I20
aI16
asVtaglio
p11039
(lp11040
I5
aI6
asVrademenesa
p11041
(lp11042
I5
aI5
asVnaviga
p11043
(lp11044
I0
aI2
asVrecord
p11045
(lp11046
I6
aI12
asVtema
p11047
(lp11048
I16
aI17
asVsentito
p11049
(lp11050
I1
aI0
asVscoppia
p11051
(lp11052
I1
aI0
asVsottotitolato
p11053
(lp11054
I1
aI0
asVebraico
p11055
(lp11056
I0
aI2
asVrivela
p11057
(lp11058
I0
aI4
asVabigail
p11059
(lp11060
I9
aI3
asVrimane
p11061
(lp11062
I0
aI2
asVsomministrazione
p11063
(lp11064
I0
aI1
asVlance
p11065
(lp11066
I7
aI0
asVscivolo
p11067
(lp11068
I4
aI0
asVscivola
p11069
(lp11070
I0
aI2
asVottobre
p11071
(lp11072
I0
aI3
asVriferito
p11073
(lp11074
I5
aI3
asVheidi
p11075
(lp11076
I2
aI0
asVnasale
p11077
(lp11078
I4
aI0
as.