(dp0
Vgabrielli
p1
(lp2
I2
aI0
asVjihad
p3
(lp4
I0
aI2
asVfrancesco
p5
(lp6
I21
aI6
asVfrancesca
p7
(lp8
I12
aI24
asVgabriella
p9
(lp10
I0
aI2
asVsessuali
p11
(lp12
I3
aI1
asVscola
p13
(lp14
I39
aI16
asVzampe
p15
(lp16
I5
aI4
asVstipulati
p17
(lp18
I0
aI2
asVfigc
p19
(lp20
I7
aI5
asVrappresentano
p21
(lp22
I0
aI2
asVoceano
p23
(lp24
I0
aI2
asVsovracup
p25
(lp26
I0
aI3
asVcianci
p27
(lp28
I3
aI0
asVsoddisfazione
p29
(lp30
I1
aI0
asVnigeriano
p31
(lp32
I2
aI0
asVdestinato
p33
(lp34
I3
aI0
asVvarchi
p35
(lp36
I0
aI1
asVmessicana
p37
(lp38
I3
aI4
asVorbassano
p39
(lp40
I0
aI8
asVerrore
p41
(lp42
I3
aI0
asVundici
p43
(lp44
I1
aI0
asVhero
p45
(lp46
I2
aI3
asVtessitore
p47
(lp48
I0
aI3
asVlgbt
p49
(lp50
I4
aI0
asVospiti
p51
(lp52
I4
aI4
asVtranciato
p53
(lp54
I0
aI1
asVmilitare
p55
(lp56
I0
aI2
asVesposto
p57
(lp58
I2
aI4
asVstupisco
p59
(lp60
I2
aI0
asVdovuto
p61
(lp62
I3
aI5
asVscoprire
p63
(lp64
I0
aI2
asVkarim
p65
(lp66
I4
aI0
asVretromarcia
p67
(lp68
I1
aI0
asVgolden
p69
(lp70
I2
aI0
asVbattisti
p71
(lp72
I0
aI5
asVorenburg
p73
(lp74
I3
aI6
asVunit
p75
(lp76
I5
aI0
asVcocaina
p77
(lp78
I7
aI10
asVnessun
p79
(lp80
I6
aI3
asVpiemonte
p81
(lp82
I20
aI18
asVtelegraph
p83
(lp84
I0
aI2
asVrelax
p85
(lp86
I5
aI2
asVyahoo
p87
(lp88
I4
aI0
asVsniffando
p89
(lp90
I1
aI0
asVgiunta
p91
(lp92
I0
aI5
asVspinale
p93
(lp94
I0
aI2
asVthales
p95
(lp96
I0
aI14
asVmatilda
p97
(lp98
I3
aI3
asVriguardo
p99
(lp100
I0
aI4
asVcredenza
p101
(lp102
I0
aI3
asVriguarda
p103
(lp104
I2
aI9
asVesorta
p105
(lp106
I0
aI2
asVmeloni
p107
(lp108
I43
aI18
asVpinto
p109
(lp110
I2
aI0
asVdeterminazione
p111
(lp112
I0
aI3
asVsintonizzati
p113
(lp114
I1
aI0
asVsalmone
p115
(lp116
I6
aI0
asVsettemila
p117
(lp118
I0
aI1
asVfastidioso
p119
(lp120
I0
aI2
asVprendiamo
p121
(lp122
I0
aI4
asVtagliarsi
p123
(lp124
I0
aI1
asVdinosauri
p125
(lp126
I0
aI39
asVsede
p127
(lp128
I7
aI3
asVdiritto
p129
(lp130
I137
aI60
asVdiritti
p131
(lp132
I0
aI6
asVkralovec
p133
(lp134
I0
aI2
asVpontefice
p135
(lp136
I6
aI0
asVdirettiva
p137
(lp138
I10
aI0
asVmicroglia
p139
(lp140
I4
aI0
asVsenatore
p141
(lp142
I20
aI6
asVpermetterti
p143
(lp144
I1
aI1
asVvivono
p145
(lp146
I3
aI5
asVvari
p147
(lp148
I3
aI3
asVormai
p149
(lp150
I18
aI7
asVparlamentare
p151
(lp152
I30
aI0
asVparlamentari
p153
(lp154
I25
aI0
asVqualcosa
p155
(lp156
I4
aI10
asVportiere
p157
(lp158
I0
aI11
asVbattiston
p159
(lp160
I9
aI6
asVthrones
p161
(lp162
I13
aI0
asVtornano
p163
(lp164
I0
aI1
asVgiusto
p165
(lp166
I8
aI0
asVverifiche
p167
(lp168
I1
aI6
asVvillarceaux
p169
(lp170
I1
aI0
asVlabbadia
p171
(lp172
I0
aI3
asVpoteva
p173
(lp174
I8
aI6
asVfinancial
p175
(lp176
I0
aI2
asVknockout
p177
(lp178
I2
aI0
asVpotevo
p179
(lp180
I4
aI2
asVmarchesini
p181
(lp182
I0
aI2
asVurbani
p183
(lp184
I0
aI3
asVurbano
p185
(lp186
I1
aI3
asVsembrano
p187
(lp188
I1
aI1
asVrecensioni
p189
(lp190
I1
aI0
asVsms
p191
(lp192
I0
aI2
asVcentauro
p193
(lp194
I0
aI3
asVricavi
p195
(lp196
I2
aI14
asVrientra
p197
(lp198
I0
aI3
asVminoranza
p199
(lp200
I88
aI69
asVbonelli
p201
(lp202
I0
aI4
asVgonfiore
p203
(lp204
I2
aI0
asVchiaro
p205
(lp206
I2
aI4
asVdischi
p207
(lp208
I0
aI6
asVinformazioni
p209
(lp210
I7
aI2
asVchiara
p211
(lp212
I6
aI28
asVscolastica
p213
(lp214
I0
aI2
asVatp
p215
(lp216
I20
aI5
asVavrebbe
p217
(lp218
I26
aI13
asVrosberg
p219
(lp220
I5
aI9
asVfiumesanto
p221
(lp222
I9
aI0
asVquattrocchi
p223
(lp224
I20
aI27
asVservice
p225
(lp226
I0
aI2
asVlego
p227
(lp228
I2
aI3
asVlega
p229
(lp230
I12
aI0
asVcarnivoro
p231
(lp232
I0
aI3
asVmaster
p233
(lp234
I0
aI3
asVxiv
p235
(lp236
I1
aI0
asVragione
p237
(lp238
I0
aI4
asVquotidiane
p239
(lp240
I3
aI6
asVtasi
p241
(lp242
I6
aI0
asVquotidiano
p243
(lp244
I28
aI20
asVsussurra
p245
(lp246
I2
aI0
asVmodena
p247
(lp248
I0
aI4
asVresponsabilit
p249
(lp250
I36
aI11
asVmercato
p251
(lp252
I38
aI36
asVwawrinka
p253
(lp254
I2
aI2
asVmercati
p255
(lp256
I11
aI7
asVritrovata
p257
(lp258
I2
aI0
asVdisallineamento
p259
(lp260
I0
aI5
asVritrovato
p261
(lp262
I0
aI2
asVapre
p263
(lp264
I23
aI2
asVboston
p265
(lp266
I0
aI3
asVzecca
p267
(lp268
I55
aI76
asVprecompilata
p269
(lp270
I24
aI31
asVspiaggia
p271
(lp272
I6
aI5
asVvicinanze
p273
(lp274
I1
aI1
asVvietro
p275
(lp276
I12
aI16
asVklose
p277
(lp278
I5
aI0
asVjuventus
p279
(lp280
I59
aI51
asVobject
p281
(lp282
I0
aI2
asVignoto
p283
(lp284
I0
aI3
asVspena
p285
(lp286
I0
aI1
asVguardaroba
p287
(lp288
I2
aI0
asVmacbook
p289
(lp290
I0
aI2
asVantitrust
p291
(lp292
I18
aI32
asVepisodi
p293
(lp294
I11
aI4
asVprofessor
p295
(lp296
I3
aI0
asVsegnalando
p297
(lp298
I2
aI0
asVtech
p299
(lp300
I0
aI2
asVborgonovi
p301
(lp302
I0
aI3
asVvicini
p303
(lp304
I0
aI1
asVvicine
p305
(lp306
I1
aI0
asVteresa
p307
(lp308
I14
aI4
asVsigari
p309
(lp310
I3
aI0
asVpincar
p311
(lp312
I1
aI0
asVpriv
p313
(lp314
I2
aI4
asVsosta
p315
(lp316
I1
aI0
asVrihanna
p317
(lp318
I24
aI6
asVsbarchi
p319
(lp320
I3
aI3
asVbush
p321
(lp322
I0
aI5
asVrick
p323
(lp324
I8
aI0
asVscanzi
p325
(lp326
I0
aI5
asVscriminante
p327
(lp328
I5
aI0
asVseminarista
p329
(lp330
I2
aI0
asVfirenze
p331
(lp332
I6
aI0
asVspalare
p333
(lp334
I2
aI1
asVperizoma
p335
(lp336
I0
aI2
asVsituazione
p337
(lp338
I15
aI10
asVsituazioni
p339
(lp340
I6
aI0
asVtolleranza
p341
(lp342
I0
aI1
asVguerra
p343
(lp344
I21
aI34
asVwetherby
p345
(lp346
I0
aI1
asVragazzine
p347
(lp348
I0
aI4
asVragazzino
p349
(lp350
I0
aI2
asVragazzini
p351
(lp352
I0
aI3
asVstilista
p353
(lp354
I2
aI0
asVstampa
p355
(lp356
I56
aI54
asVscomparsa
p357
(lp358
I5
aI0
asVscomparso
p359
(lp360
I0
aI10
asVmelissa
p361
(lp362
I9
aI9
asVdichiarazione
p363
(lp364
I84
aI62
asVnatura
p365
(lp366
I4
aI7
asVnovembre
p367
(lp368
I2
aI6
asVscudetto
p369
(lp370
I1
aI1
asVrappresenta
p371
(lp372
I9
aI6
asVtendone
p373
(lp374
I0
aI1
asVscudetti
p375
(lp376
I2
aI4
asVumanitaria
p377
(lp378
I0
aI3
asVflessibilit
p379
(lp380
I4
aI0
asVdeciso
p381
(lp382
I0
aI2
asVcolombiani
p383
(lp384
I2
aI0
asVsignificati
p385
(lp386
I3
aI1
asVsalario
p387
(lp388
I4
aI16
asVtradiscono
p389
(lp390
I0
aI1
asVseparazione
p391
(lp392
I9
aI6
asVsecolo
p393
(lp394
I8
aI8
asVkhaled
p395
(lp396
I3
aI0
asVracchetta
p397
(lp398
I3
aI3
asVstadium
p399
(lp400
I13
aI10
asVpeschereccio
p401
(lp402
I0
aI2
asVmichele
p403
(lp404
I10
aI2
asVgunon
p405
(lp406
I23
aI0
asVobesi
p407
(lp408
I4
aI0
asVcostanzo
p409
(lp410
I0
aI8
asVomosessuali
p411
(lp412
I5
aI0
asVchili
p413
(lp414
I9
aI2
asVmateo
p415
(lp416
I0
aI12
asVcostanza
p417
(lp418
I8
aI24
asVsanitaria
p419
(lp420
I10
aI0
asVcastro
p421
(lp422
I5
aI2
asVsanitarie
p423
(lp424
I7
aI2
asVscusarsi
p425
(lp426
I0
aI1
asVattraverso
p427
(lp428
I5
aI0
asVmadonna
p429
(lp430
I4
aI9
asVtrustee
p431
(lp432
I0
aI13
asVprincipali
p433
(lp434
I0
aI10
asVdanushi
p435
(lp436
I0
aI4
asVprovinciale
p437
(lp438
I2
aI0
asVsconto
p439
(lp440
I4
aI0
asV10elotto
p441
(lp442
I11
aI0
asVretroscena
p443
(lp444
I2
aI3
asVmemoria
p445
(lp446
I10
aI6
asVconsente
p447
(lp448
I2
aI0
asVtopi
p449
(lp450
I8
aI4
asVspremere
p451
(lp452
I0
aI1
asVdedica
p453
(lp454
I9
aI6
asVdemagogia
p455
(lp456
I4
aI0
asVelezioni
p457
(lp458
I4
aI5
asVtrueclear
p459
(lp460
I3
aI0
asVgiudicare
p461
(lp462
I2
aI6
asVquantitative
p463
(lp464
I30
aI6
asVoutfit
p465
(lp466
I2
aI2
asVetica
p467
(lp468
I12
aI0
asVsvelati
p469
(lp470
I1
aI0
asVsvelata
p471
(lp472
I6
aI0
asVpreparando
p473
(lp474
I6
aI0
asVergastolo
p475
(lp476
I0
aI2
asVsassari
p477
(lp478
I12
aI0
asVtrono
p479
(lp480
I29
aI1
asVsanit
p481
(lp482
I6
aI0
asVcortometraggio
p483
(lp484
I4
aI0
asVgiovani
p485
(lp486
I12
aI0
asVsatriano
p487
(lp488
I0
aI3
asVistat
p489
(lp490
I0
aI6
asVcodice
p491
(lp492
I4
aI4
asVextraconiugale
p493
(lp494
I4
aI0
asVarbitro
p495
(lp496
I0
aI6
asVpeople
p497
(lp498
I2
aI0
asVaziende
p499
(lp500
I0
aI18
asVfissi
p501
(lp502
I0
aI3
asVazienda
p503
(lp504
I56
aI48
asVcognitivo
p505
(lp506
I0
aI2
asVtotalit
p507
(lp508
I0
aI1
asVfox
p509
(lp510
I0
aI5
asVcreative
p511
(lp512
I0
aI7
asVnumeri
p513
(lp514
I15
aI1
asVlibica
p515
(lp516
I7
aI2
asVciro
p517
(lp518
I0
aI5
asVristretta
p519
(lp520
I10
aI0
asVmalpensa
p521
(lp522
I0
aI3
asVdamiano
p523
(lp524
I4
aI0
asVdollari
p525
(lp526
I36
aI114
asVemilia
p527
(lp528
I4
aI0
asVnixon
p529
(lp530
I7
aI0
asVuccide
p531
(lp532
I5
aI2
asVumana
p533
(lp534
I0
aI2
asVavvenendo
p535
(lp536
I0
aI2
asVmarshall
p537
(lp538
I14
aI0
asVumano
p539
(lp540
I13
aI0
asVumani
p541
(lp542
I0
aI5
asVuccidi
p543
(lp544
I4
aI0
asVsvelerer
p545
(lp546
I1
aI0
asVcasellario
p547
(lp548
I0
aI2
asVtriplete
p549
(lp550
I6
aI2
asVredditi
p551
(lp552
I56
aI58
asVfiume
p553
(lp554
I0
aI3
asVrisponde
p555
(lp556
I8
aI8
asVjane
p557
(lp558
I2
aI0
asVleiden
p559
(lp560
I5
aI0
asVfacchinetti
p561
(lp562
I2
aI5
asVtalento
p563
(lp564
I2
aI2
asVspunta
p565
(lp566
I2
aI0
asVverde
p567
(lp568
I2
aI8
asVverdi
p569
(lp570
I4
aI7
asVami
p571
(lp572
I5
aI0
asVimmediatamente
p573
(lp574
I2
aI0
asVpeso
p575
(lp576
I24
aI10
asVscacchi
p577
(lp578
I0
aI4
asVferma
p579
(lp580
I0
aI2
asVcalciomercato
p581
(lp582
I2
aI0
asVavvisi
p583
(lp584
I0
aI5
asVscaricato
p585
(lp586
I1
aI0
asVprefetto
p587
(lp588
I3
aI0
asVsanatoria
p589
(lp590
I2
aI0
asVscritta
p591
(lp592
I2
aI0
asVpotuto
p593
(lp594
I0
aI2
asVscritte
p595
(lp596
I3
aI0
asVscritto
p597
(lp598
I30
aI42
asVmelanoma
p599
(lp600
I6
aI19
asVpubbliche
p601
(lp602
I2
aI0
asVtroveranno
p603
(lp604
I1
aI0
asVdiurno
p605
(lp606
I0
aI5
asVpassare
p607
(lp608
I0
aI2
asVrichiamo
p609
(lp610
I0
aI9
asVhamburgheria
p611
(lp612
I0
aI4
asVsbaglia
p613
(lp614
I0
aI4
asVchiusa
p615
(lp616
I3
aI0
asVyellowstone
p617
(lp618
I0
aI1
asVcollegio
p619
(lp620
I3
aI0
asVsbaglio
p621
(lp622
I0
aI2
asVsociet
p623
(lp624
I126
aI115
asVzamparini
p625
(lp626
I0
aI2
asVscalo
p627
(lp628
I1
aI0
asVfiglie
p629
(lp630
I14
aI0
asV13enne
p631
(lp632
I3
aI0
asVtrappi
p633
(lp634
I0
aI2
asVraggi
p635
(lp636
I29
aI23
asVfiglia
p637
(lp638
I39
aI80
asVcorpo
p639
(lp640
I36
aI40
asVretrofit
p641
(lp642
I5
aI0
asVviceversa
p643
(lp644
I0
aI2
asVesilarante
p645
(lp646
I0
aI4
asVfritto
p647
(lp648
I5
aI0
asVarchivio
p649
(lp650
I0
aI5
asVenergia
p651
(lp652
I20
aI8
asVmaggioli
p653
(lp654
I36
aI36
asVpugno
p655
(lp656
I6
aI4
asVvotare
p657
(lp658
I2
aI0
asVpugni
p659
(lp660
I7
aI2
asVminuti
p661
(lp662
I17
aI11
asVminuto
p663
(lp664
I0
aI3
asVreschigna
p665
(lp666
I6
aI6
asVpogba
p667
(lp668
I6
aI12
asVteam
p669
(lp670
I4
aI0
asVverificano
p671
(lp672
I1
aI0
asVguardando
p673
(lp674
I3
aI0
asVtedesca
p675
(lp676
I4
aI4
asVtouria
p677
(lp678
I48
aI46
asVpenale
p679
(lp680
I2
aI2
asVabilitazione
p681
(lp682
I2
aI0
asVmaschera
p683
(lp684
I0
aI3
asVsequestrati
p685
(lp686
I1
aI0
asVprevisto
p687
(lp688
I0
aI3
asVsequestrato
p689
(lp690
I0
aI1
asVcassa
p691
(lp692
I6
aI13
asVgiambattista
p693
(lp694
I0
aI10
asVjuventino
p695
(lp696
I2
aI6
asVconvertito
p697
(lp698
I24
aI0
asVvenisse
p699
(lp700
I0
aI1
asVbelpietro
p701
(lp702
I4
aI8
asVristoro
p703
(lp704
I2
aI0
asVfallimento
p705
(lp706
I4
aI8
asVvicentino
p707
(lp708
I2
aI0
asVrisultati
p709
(lp710
I35
aI18
asVstudies
p711
(lp712
I3
aI1
asVrisultato
p713
(lp714
I36
aI26
asVlove
p715
(lp716
I2
aI2
asVliquidazione
p717
(lp718
I2
aI2
asVbloody
p719
(lp720
I0
aI7
asVeffettuazione
p721
(lp722
I7
aI0
asVpresunzione
p723
(lp724
I10
aI0
asVampio
p725
(lp726
I2
aI0
asVworking
p727
(lp728
I4
aI3
asVpositiva
p729
(lp730
I0
aI6
asVdruidi
p731
(lp732
I0
aI2
asVcuriose
p733
(lp734
I6
aI6
asVtelecamere
p735
(lp736
I0
aI2
asVoregon
p737
(lp738
I0
aI2
asVtelecamera
p739
(lp740
I0
aI1
asVdemocrazia
p741
(lp742
I22
aI18
asVdragons
p743
(lp744
I3
aI0
asVeradicazione
p745
(lp746
I2
aI4
asVgenoveva
p747
(lp748
I0
aI2
asVbolletta
p749
(lp750
I4
aI0
asVmunroe
p751
(lp752
I1
aI0
asVvisitato
p753
(lp754
I1
aI0
asVruspe
p755
(lp756
I2
aI0
asVs6
p757
(lp758
I3
aI0
asVcomposizione
p759
(lp760
I0
aI5
asVbramieri
p761
(lp762
I3
aI6
asVdovr
p763
(lp764
I11
aI4
asVspot
p765
(lp766
I18
aI18
asVlatte
p767
(lp768
I6
aI0
asVrigore
p769
(lp770
I46
aI60
asVdato
p771
(lp772
I17
aI11
asVdati
p773
(lp774
I195
aI195
asVrigori
p775
(lp776
I6
aI4
asVstress
p777
(lp778
I3
aI0
asVconvoglio
p779
(lp780
I11
aI20
asVchirurgia
p781
(lp782
I12
aI3
asVss
p783
(lp784
I2
aI0
asVrisparmio
p785
(lp786
I5
aI4
asVst
p787
(lp788
I35
aI20
asVstresa
p789
(lp790
I0
aI5
asVworldhotel
p791
(lp792
I1
aI0
asVscaraventata
p793
(lp794
I0
aI2
asVlondra
p795
(lp796
I0
aI2
asVabusivo
p797
(lp798
I3
aI0
asValenia
p799
(lp800
I0
aI12
asVpiede
p801
(lp802
I6
aI0
asVmonateri
p803
(lp804
I0
aI7
asVsquadre
p805
(lp806
I4
aI14
asVrosanero
p807
(lp808
I0
aI1
asVsquadra
p809
(lp810
I38
aI57
asVauguri
p811
(lp812
I0
aI3
asVservono
p813
(lp814
I1
aI2
asVavio
p815
(lp816
I0
aI17
asVtoro
p817
(lp818
I13
aI12
asVspeziale
p819
(lp820
I0
aI6
asVtori
p821
(lp822
I6
aI3
asVhot
p823
(lp824
I6
aI2
asVroccaforte
p825
(lp826
I1
aI0
asVvisitatori
p827
(lp828
I0
aI5
asVmusei
p829
(lp830
I3
aI0
asVmuseo
p831
(lp832
I16
aI6
asVtavolozza
p833
(lp834
I2
aI3
asVexor
p835
(lp836
I5
aI37
asVgroningen
p837
(lp838
I3
aI3
asVtenuit
p839
(lp840
I11
aI4
asVgemelli
p841
(lp842
I0
aI2
asVconvinto
p843
(lp844
I0
aI1
asVesame
p845
(lp846
I8
aI0
asVesami
p847
(lp848
I12
aI0
asVstranieri
p849
(lp850
I2
aI0
asVsponsor
p851
(lp852
I0
aI4
asVproduzione
p853
(lp854
I20
aI13
asVblu
p855
(lp856
I4
aI15
asVassessore
p857
(lp858
I0
aI3
asVtrauma
p859
(lp860
I0
aI1
asVinternet
p861
(lp862
I8
aI8
asVtraumi
p863
(lp864
I0
aI1
asVvegetariano
p865
(lp866
I0
aI5
asVsettimana
p867
(lp868
I9
aI7
asVvantaggi
p869
(lp870
I2
aI2
asVdraghi
p871
(lp872
I244
aI145
asVallevatori
p873
(lp874
I3
aI0
asVsuperiore
p875
(lp876
I0
aI1
asVpunk
p877
(lp878
I0
aI4
asVtrombare
p879
(lp880
I0
aI1
asVbassi
p881
(lp882
I0
aI2
asVpotter
p883
(lp884
I2
aI8
asVesempio
p885
(lp886
I13
aI19
asVparkinson
p887
(lp888
I0
aI3
asVvoto
p889
(lp890
I6
aI31
asVvoti
p891
(lp892
I7
aI62
asVonu
p893
(lp894
I0
aI3
asVcity
p895
(lp896
I3
aI4
asVletterari
p897
(lp898
I0
aI3
asVcitt
p899
(lp900
I50
aI61
asVfmi
p901
(lp902
I4
aI0
asVmodificata
p903
(lp904
I2
aI2
asVindicati
p905
(lp906
I0
aI3
asVvittimista
p907
(lp908
I11
aI7
asVschiattarella
p909
(lp910
I3
aI0
asVqualora
p911
(lp912
I3
aI0
asVlucent
p913
(lp914
I0
aI12
asVsvolgere
p915
(lp916
I3
aI2
asVmorata
p917
(lp918
I36
aI33
asVsechi
p919
(lp920
I8
aI4
asVfutura
p921
(lp922
I6
aI6
asVritengo
p923
(lp924
I0
aI1
asVrussia
p925
(lp926
I3
aI9
asVsan
p927
(lp928
I5
aI23
asVacquistare
p929
(lp930
I6
aI2
asVauchan
p931
(lp932
I2
aI0
asVzoo
p933
(lp934
I1
aI0
asVgennaio
p935
(lp936
I4
aI4
asVtorinesi
p937
(lp938
I3
aI2
asVnota
p939
(lp940
I5
aI5
asVnoto
p941
(lp942
I2
aI0
asVpotenziale
p943
(lp944
I10
aI8
asVtorinese
p945
(lp946
I11
aI11
asVmaternit
p947
(lp948
I0
aI6
asVsoppressione
p949
(lp950
I0
aI2
asVcontrollati
p951
(lp952
I0
aI2
asVbolshoi
p953
(lp954
I0
aI2
asVallevi
p955
(lp956
I0
aI21
asVsala
p957
(lp958
I17
aI9
asVvasta
p959
(lp960
I1
aI0
asVpiattaforma
p961
(lp962
I0
aI2
asVsuccedere
p963
(lp964
I2
aI0
asVgrillini
p965
(lp966
I0
aI3
asVedicola
p967
(lp968
I0
aI7
asVvescovi
p969
(lp970
I0
aI2
asVarrivati
p971
(lp972
I0
aI4
asVfetale
p973
(lp974
I2
aI0
asVvescovo
p975
(lp976
I2
aI4
asVpopolarit
p977
(lp978
I0
aI3
asVumorismo
p979
(lp980
I0
aI3
asVsottoposta
p981
(lp982
I5
aI5
asVrisolvere
p983
(lp984
I0
aI6
asVmaggioranza
p985
(lp986
I0
aI3
asVfornero
p987
(lp988
I12
aI5
asVbiblioteca
p989
(lp990
I0
aI2
asVkellmer
p991
(lp992
I3
aI6
asVambientale
p993
(lp994
I0
aI5
asVpressi
p995
(lp996
I2
aI8
asVpresso
p997
(lp998
I20
aI12
asVcarolina
p999
(lp1000
I2
aI2
asVgrafica
p1001
(lp1002
I6
aI0
asVbeatrice
p1003
(lp1004
I2
aI0
asVnonch
p1005
(lp1006
I0
aI6
asVgenere
p1007
(lp1008
I46
aI38
asVplatti
p1009
(lp1010
I84
aI116
asVoutlet
p1011
(lp1012
I0
aI2
asVbellocco
p1013
(lp1014
I14
aI0
asVprime
p1015
(lp1016
I0
aI4
asVartist
p1017
(lp1018
I0
aI3
asVprimi
p1019
(lp1020
I0
aI16
asVborriello
p1021
(lp1022
I8
aI32
asVpubblica
p1023
(lp1024
I4
aI3
asVpubblici
p1025
(lp1026
I11
aI5
asVpubblico
p1027
(lp1028
I22
aI24
asVsingoli
p1029
(lp1030
I0
aI2
asVsingolo
p1031
(lp1032
I0
aI2
asVsingole
p1033
(lp1034
I2
aI1
asVvenier
p1035
(lp1036
I0
aI1
asVsimultanea
p1037
(lp1038
I1
aI0
asVjobs
p1039
(lp1040
I2
aI6
asVterzani
p1041
(lp1042
I4
aI5
asVtopolino
p1043
(lp1044
I0
aI7
asVpunti
p1045
(lp1046
I28
aI43
asVspartan
p1047
(lp1048
I0
aI10
asVcentrodestra
p1049
(lp1050
I7
aI0
asVpunto
p1051
(lp1052
I21
aI39
asVvotata
p1053
(lp1054
I4
aI3
asVawards
p1055
(lp1056
I3
aI0
asVamore
p1057
(lp1058
I10
aI12
asVvotato
p1059
(lp1060
I2
aI0
asVstima
p1061
(lp1062
I2
aI3
asVsindacati
p1063
(lp1064
I0
aI2
asVbossola
p1065
(lp1066
I4
aI0
asVkahlo
p1067
(lp1068
I5
aI0
asVmani
p1069
(lp1070
I0
aI3
asVportavoce
p1071
(lp1072
I5
aI0
asVmano
p1073
(lp1074
I18
aI7
asVcarvajal
p1075
(lp1076
I4
aI8
asVparere
p1077
(lp1078
I4
aI6
asVmarchionne
p1079
(lp1080
I26
aI7
asVminimi
p1081
(lp1082
I8
aI0
asVprofessore
p1083
(lp1084
I2
aI0
asVdroga
p1085
(lp1086
I9
aI2
asVminimo
p1087
(lp1088
I3
aI8
asVanti
p1089
(lp1090
I0
aI2
asVseeding
p1091
(lp1092
I0
aI3
asVbilanci
p1093
(lp1094
I0
aI3
asVprestiti
p1095
(lp1096
I0
aI3
asVviale
p1097
(lp1098
I0
aI1
asVstretch
p1099
(lp1100
I1
aI0
asVwest
p1101
(lp1102
I0
aI1
asVantoniassi
p1103
(lp1104
I0
aI7
asVconfindustria
p1105
(lp1106
I3
aI0
asVdifficolt
p1107
(lp1108
I2
aI8
asVvenir
p1109
(lp1110
I1
aI0
asVhashtag
p1111
(lp1112
I3
aI0
asVvomito
p1113
(lp1114
I0
aI2
asVbudelli
p1115
(lp1116
I4
aI8
asVreebok
p1117
(lp1118
I0
aI6
asVvigilata
p1119
(lp1120
I0
aI1
asVvecchi
p1121
(lp1122
I0
aI6
asVbufala
p1123
(lp1124
I0
aI2
asVargomenti
p1125
(lp1126
I30
aI0
asVarcivescovo
p1127
(lp1128
I18
aI0
asVoccupata
p1129
(lp1130
I0
aI2
asViva
p1131
(lp1132
I19
aI51
asVcarrara
p1133
(lp1134
I0
aI5
asVpanchina
p1135
(lp1136
I2
aI13
asVtechnology
p1137
(lp1138
I6
aI2
asVfame
p1139
(lp1140
I0
aI3
asVpoliziotto
p1141
(lp1142
I154
aI111
asVsterling
p1143
(lp1144
I0
aI5
asVselezionato
p1145
(lp1146
I0
aI1
asVesperti
p1147
(lp1148
I4
aI0
asVsterlina
p1149
(lp1150
I7
aI0
asVsingapore
p1151
(lp1152
I5
aI9
asVwired
p1153
(lp1154
I1
aI2
asVparasubordinati
p1155
(lp1156
I3
aI3
asVcosta
p1157
(lp1158
I0
aI2
asVcosti
p1159
(lp1160
I0
aI8
asVcosto
p1161
(lp1162
I0
aI8
asVgenio
p1163
(lp1164
I6
aI0
asVufficiale
p1165
(lp1166
I1
aI12
asVufficiali
p1167
(lp1168
I4
aI2
asVpersonali
p1169
(lp1170
I48
aI51
asVprocesso
p1171
(lp1172
I10
aI28
asVprocessi
p1173
(lp1174
I9
aI14
asVcaduta
p1175
(lp1176
I5
aI4
asVscontenti
p1177
(lp1178
I0
aI2
asVpartnerre
p1179
(lp1180
I11
aI51
asVreso
p1181
(lp1182
I2
aI2
asVvisitare
p1183
(lp1184
I2
aI0
asVweekly
p1185
(lp1186
I0
aI1
asVperdere
p1187
(lp1188
I7
aI3
asVrover
p1189
(lp1190
I0
aI2
asVsisport
p1191
(lp1192
I2
aI0
asVaborto
p1193
(lp1194
I12
aI0
asVlahmar
p1195
(lp1196
I3
aI0
asVcategoria
p1197
(lp1198
I0
aI2
asVmanubrio
p1199
(lp1200
I0
aI27
asVregis
p1201
(lp1202
I0
aI3
asVneuer
p1203
(lp1204
I8
aI4
asVregio
p1205
(lp1206
I3
aI3
asVunesco
p1207
(lp1208
I4
aI4
asVregia
p1209
(lp1210
I0
aI12
asVintegrale
p1211
(lp1212
I3
aI0
asVpaita
p1213
(lp1214
I0
aI18
asVmillennials
p1215
(lp1216
I0
aI6
asVinter
p1217
(lp1218
I4
aI10
asVlegalizzato
p1219
(lp1220
I2
aI0
asVlavoratrici
p1221
(lp1222
I0
aI5
asVscholzen
p1223
(lp1224
I6
aI6
asVtechnopole
p1225
(lp1226
I0
aI2
asVkolo
p1227
(lp1228
I0
aI2
asVcristina
p1229
(lp1230
I0
aI3
asVheidegger
p1231
(lp1232
I24
aI29
asVcittadini
p1233
(lp1234
I6
aI14
asVpatrimonio
p1235
(lp1236
I3
aI3
asVtoti
p1237
(lp1238
I6
aI0
asVvicenza
p1239
(lp1240
I2
aI2
asVpallavoliste
p1241
(lp1242
I20
aI20
asVcannabis
p1243
(lp1244
I0
aI6
asVddl
p1245
(lp1246
I5
aI0
asVdimensioni
p1247
(lp1248
I8
aI0
asVincassato
p1249
(lp1250
I7
aI0
asVmigliorare
p1251
(lp1252
I0
aI2
asVlocazione
p1253
(lp1254
I2
aI4
asVstone
p1255
(lp1256
I2
aI0
asVfestini
p1257
(lp1258
I6
aI3
asVorigine
p1259
(lp1260
I0
aI4
asVluigi
p1261
(lp1262
I6
aI13
asVporsche
p1263
(lp1264
I4
aI0
asVpotranno
p1265
(lp1266
I0
aI2
asVrosse
p1267
(lp1268
I0
aI1
asVvelivoli
p1269
(lp1270
I0
aI2
asVvelivolo
p1271
(lp1272
I2
aI0
asVhomeless
p1273
(lp1274
I4
aI0
asVrosso
p1275
(lp1276
I10
aI29
asVrossi
p1277
(lp1278
I7
aI4
asVvedrai
p1279
(lp1280
I0
aI2
asVnotevole
p1281
(lp1282
I4
aI0
asVmisseri
p1283
(lp1284
I0
aI2
asVmatrimonio
p1285
(lp1286
I5
aI9
asVitalia
p1287
(lp1288
I194
aI141
asVscibona
p1289
(lp1290
I0
aI7
asVwitt
p1291
(lp1292
I8
aI12
asVcompleta
p1293
(lp1294
I0
aI2
asVbotte
p1295
(lp1296
I2
aI0
asVfascisti
p1297
(lp1298
I5
aI0
asVyaya
p1299
(lp1300
I0
aI2
asVquaresma
p1301
(lp1302
I4
aI11
asVmica
p1303
(lp1304
I0
aI2
asVcastelli
p1305
(lp1306
I0
aI3
asVmarni
p1307
(lp1308
I2
aI0
asVstriscione
p1309
(lp1310
I2
aI0
asVinterrogazione
p1311
(lp1312
I3
aI0
asVnasce
p1313
(lp1314
I1
aI0
asVrilanciare
p1315
(lp1316
I0
aI2
asVdemenza
p1317
(lp1318
I10
aI0
asVvorr
p1319
(lp1320
I2
aI1
asVuil
p1321
(lp1322
I5
aI0
asVpreparazione
p1323
(lp1324
I0
aI2
asVpadelli
p1325
(lp1326
I3
aI0
asVchiavetta
p1327
(lp1328
I0
aI3
asVtight
p1329
(lp1330
I0
aI1
asVtornata
p1331
(lp1332
I0
aI1
asVtornato
p1333
(lp1334
I0
aI1
asVvideocamere
p1335
(lp1336
I0
aI5
asVterra
p1337
(lp1338
I29
aI24
asVrealizzato
p1339
(lp1340
I2
aI5
asVcpl
p1341
(lp1342
I4
aI0
asVsciita
p1343
(lp1344
I0
aI5
asVadam
p1345
(lp1346
I7
aI3
asVinfluenza
p1347
(lp1348
I10
aI0
asVsci
p1349
(lp1350
I0
aI1
asVferreira
p1351
(lp1352
I8
aI20
asVwelfare
p1353
(lp1354
I3
aI0
asVasteroide
p1355
(lp1356
I9
aI0
asVrialzo
p1357
(lp1358
I4
aI6
asVtv
p1359
(lp1360
I27
aI46
asVgesto
p1361
(lp1362
I2
aI8
asVnord
p1363
(lp1364
I5
aI0
asVhomepage
p1365
(lp1366
I1
aI0
asVferie
p1367
(lp1368
I0
aI8
asVstrano
p1369
(lp1370
I2
aI0
asVelena
p1371
(lp1372
I6
aI14
asVstrana
p1373
(lp1374
I3
aI2
asVminogue
p1375
(lp1376
I2
aI2
asVsant
p1377
(lp1378
I0
aI2
asVgiallonero
p1379
(lp1380
I0
aI4
asVappare
p1381
(lp1382
I3
aI0
asVlaus
p1383
(lp1384
I0
aI3
asVlargo
p1385
(lp1386
I2
aI3
asVcasi
p1387
(lp1388
I19
aI9
asVmaggio
p1389
(lp1390
I19
aI19
asVflamengo
p1391
(lp1392
I0
aI2
asVforestale
p1393
(lp1394
I4
aI12
asVvillanova
p1395
(lp1396
I3
aI3
asVrichard
p1397
(lp1398
I0
aI3
asVcast
p1399
(lp1400
I5
aI2
asVrientro
p1401
(lp1402
I4
aI2
asVstudentessa
p1403
(lp1404
I0
aI2
asVruolo
p1405
(lp1406
I19
aI5
asVfiorentino
p1407
(lp1408
I2
aI0
asVsuperficie
p1409
(lp1410
I2
aI6
asVfiorentina
p1411
(lp1412
I0
aI2
asVbersaglieri
p1413
(lp1414
I4
aI0
asVrinvio
p1415
(lp1416
I6
aI6
asVmacachi
p1417
(lp1418
I0
aI6
asVperfetto
p1419
(lp1420
I0
aI2
asVperso
p1421
(lp1422
I3
aI0
asVsocial
p1423
(lp1424
I26
aI52
asVsalito
p1425
(lp1426
I2
aI0
asVperfetta
p1427
(lp1428
I2
aI0
asVperse
p1429
(lp1430
I6
aI0
asVipotesi
p1431
(lp1432
I8
aI11
asVvie
p1433
(lp1434
I1
aI0
asVvii
p1435
(lp1436
I21
aI20
asVvin
p1437
(lp1438
I10
aI0
asVtiziano
p1439
(lp1440
I0
aI4
asVvip
p1441
(lp1442
I2
aI5
asVcorte
p1443
(lp1444
I19
aI12
asVvoter
p1445
(lp1446
I0
aI1
asVcontinueranno
p1447
(lp1448
I0
aI2
asVpediatra
p1449
(lp1450
I4
aI0
asVspettatori
p1451
(lp1452
I16
aI11
asVpenitenziaria
p1453
(lp1454
I0
aI7
asVlettori
p1455
(lp1456
I2
aI3
asVturisti
p1457
(lp1458
I2
aI0
asVteen
p1459
(lp1460
I0
aI2
asVvideoclip
p1461
(lp1462
I0
aI1
asVscolastici
p1463
(lp1464
I6
aI4
asVtradito
p1465
(lp1466
I6
aI6
asVcaci
p1467
(lp1468
I0
aI2
asVdelrio
p1469
(lp1470
I6
aI10
asVsociale
p1471
(lp1472
I14
aI0
asVbelga
p1473
(lp1474
I2
aI0
asVsociali
p1475
(lp1476
I17
aI26
asVboschi
p1477
(lp1478
I8
aI14
asVponte
p1479
(lp1480
I0
aI5
asVrodriguez
p1481
(lp1482
I2
aI0
asVallegri
p1483
(lp1484
I71
aI73
asVagevolazione
p1485
(lp1486
I0
aI3
asVstaten
p1487
(lp1488
I0
aI4
asVregisti
p1489
(lp1490
I0
aI3
asVregista
p1491
(lp1492
I8
aI12
asVinfortuni
p1493
(lp1494
I2
aI0
asVsensi
p1495
(lp1496
I2
aI3
asVdress
p1497
(lp1498
I0
aI2
asVsenso
p1499
(lp1500
I11
aI3
asVaxis
p1501
(lp1502
I3
aI12
asVjuve
p1503
(lp1504
I122
aI137
asVscontro
p1505
(lp1506
I4
aI5
asVscontri
p1507
(lp1508
I3
aI0
asVviventi
p1509
(lp1510
I6
aI4
asVaosta
p1511
(lp1512
I0
aI3
asVritardo
p1513
(lp1514
I2
aI0
asVritardi
p1515
(lp1516
I2
aI0
asVtrattamento
p1517
(lp1518
I60
aI65
asVmancata
p1519
(lp1520
I0
aI7
asVmoncalieri
p1521
(lp1522
I0
aI4
asVvalenza
p1523
(lp1524
I1
aI2
asVuffizi
p1525
(lp1526
I0
aI3
asVvestager
p1527
(lp1528
I5
aI13
asVloud
p1529
(lp1530
I4
aI0
asVaggiunto
p1531
(lp1532
I3
aI9
asVragno
p1533
(lp1534
I0
aI2
asVcliccare
p1535
(lp1536
I2
aI10
asVbirmania
p1537
(lp1538
I2
aI0
asVingiustamente
p1539
(lp1540
I0
aI2
asVscavo
p1541
(lp1542
I4
aI0
asVpassiamo
p1543
(lp1544
I0
aI3
asVmobilit
p1545
(lp1546
I0
aI5
asVcompensi
p1547
(lp1548
I2
aI0
asVbocca
p1549
(lp1550
I6
aI0
asVteatrib
p1551
(lp1552
I2
aI0
asVspirituale
p1553
(lp1554
I4
aI0
asVscott
p1555
(lp1556
I0
aI4
asVpane
p1557
(lp1558
I12
aI0
asVpotersi
p1559
(lp1560
I2
aI0
asVturbina
p1561
(lp1562
I6
aI6
asVpronta
p1563
(lp1564
I2
aI0
asVduomo
p1565
(lp1566
I30
aI12
asVpronti
p1567
(lp1568
I6
aI5
asVprotezione
p1569
(lp1570
I0
aI11
asVzilli
p1571
(lp1572
I1
aI0
asVeducazione
p1573
(lp1574
I4
aI4
asVfatica
p1575
(lp1576
I0
aI12
asVcomune
p1577
(lp1578
I9
aI26
asVfinmeccanica
p1579
(lp1580
I0
aI4
asVfaraone
p1581
(lp1582
I4
aI0
asVcomuni
p1583
(lp1584
I4
aI16
asVacquisto
p1585
(lp1586
I4
aI4
asVacquisti
p1587
(lp1588
I0
aI8
asVdenuncia
p1589
(lp1590
I4
aI3
asVimperia
p1591
(lp1592
I3
aI0
asVinesistenti
p1593
(lp1594
I5
aI0
asVinvestigatori
p1595
(lp1596
I24
aI10
asVvanto
p1597
(lp1598
I0
aI1
asVinesistente
p1599
(lp1600
I0
aI2
asVproposito
p1601
(lp1602
I0
aI1
asVpresentata
p1603
(lp1604
I0
aI2
asVrosarno
p1605
(lp1606
I4
aI0
asVpresentato
p1607
(lp1608
I18
aI3
asVastensione
p1609
(lp1610
I0
aI20
asVcarvalho
p1611
(lp1612
I24
aI14
asVpiatti
p1613
(lp1614
I6
aI8
asVtipologie
p1615
(lp1616
I1
aI1
asVpomeriggio
p1617
(lp1618
I2
aI0
asVpiatto
p1619
(lp1620
I6
aI0
asVsalute
p1621
(lp1622
I22
aI14
asVvenditore
p1623
(lp1624
I1
aI0
asVsaldo
p1625
(lp1626
I2
aI4
asVpromuove
p1627
(lp1628
I0
aI1
asVbookies
p1629
(lp1630
I2
aI0
asVmogol
p1631
(lp1632
I0
aI5
asVzawahiri
p1633
(lp1634
I2
aI1
asVguai
p1635
(lp1636
I0
aI3
asVkobe
p1637
(lp1638
I4
aI4
asVgennaro
p1639
(lp1640
I0
aI6
asVnomi
p1641
(lp1642
I2
aI0
asVmodelli
p1643
(lp1644
I18
aI12
asVpescato
p1645
(lp1646
I0
aI1
asVvicenda
p1647
(lp1648
I11
aI3
asVsaint
p1649
(lp1650
I2
aI0
asVniang
p1651
(lp1652
I2
aI0
asVobbligazione
p1653
(lp1654
I9
aI0
asVragioni
p1655
(lp1656
I0
aI2
asVobama
p1657
(lp1658
I17
aI0
asVgiuristi
p1659
(lp1660
I40
aI0
asVskytg24
p1661
(lp1662
I1
aI1
asVtossici
p1663
(lp1664
I1
aI0
asVunicredit
p1665
(lp1666
I0
aI3
asVregolare
p1667
(lp1668
I0
aI10
asVcomponenti
p1669
(lp1670
I0
aI2
asVtedeschi
p1671
(lp1672
I2
aI11
asVtestando
p1673
(lp1674
I1
aI0
asVpolmone
p1675
(lp1676
I3
aI0
asVjacinta
p1677
(lp1678
I6
aI4
asVsaggezza
p1679
(lp1680
I0
aI2
asVinsegnante
p1681
(lp1682
I0
aI2
asVplacche
p1683
(lp1684
I4
aI0
asVfrattura
p1685
(lp1686
I0
aI2
asVinsegnanti
p1687
(lp1688
I23
aI0
asVvirus
p1689
(lp1690
I6
aI0
asVviolentata
p1691
(lp1692
I2
aI4
asVviadotto
p1693
(lp1694
I0
aI4
asVmicrosoft
p1695
(lp1696
I0
aI11
asVlanciamissili
p1697
(lp1698
I0
aI3
asVhedren
p1699
(lp1700
I10
aI0
asVfiano
p1701
(lp1702
I3
aI9
asVfilmava
p1703
(lp1704
I18
aI15
asVprelievi
p1705
(lp1706
I0
aI7
asVignoranza
p1707
(lp1708
I10
aI0
asVquestura
p1709
(lp1710
I6
aI6
asVcompetenze
p1711
(lp1712
I13
aI0
asVwayne
p1713
(lp1714
I0
aI1
asVgrecia
p1715
(lp1716
I15
aI3
asVultron
p1717
(lp1718
I4
aI1
asVraimondo
p1719
(lp1720
I5
aI5
asVhamburgeria
p1721
(lp1722
I12
aI0
asVgratis
p1723
(lp1724
I1
aI0
asVurso
p1725
(lp1726
I6
aI5
asVarticolo
p1727
(lp1728
I43
aI118
asVarticoli
p1729
(lp1730
I0
aI2
asVbarcone
p1731
(lp1732
I3
aI0
asVdisoccupazione
p1733
(lp1734
I3
aI0
asVgriglia
p1735
(lp1736
I6
aI3
asVcrt
p1737
(lp1738
I8
aI6
asVomelia
p1739
(lp1740
I3
aI0
asVmaniera
p1741
(lp1742
I2
aI0
asVtumori
p1743
(lp1744
I4
aI0
asVscombicchierati
p1745
(lp1746
I1
aI0
asVcre
p1747
(lp1748
I9
aI6
asVtumore
p1749
(lp1750
I4
aI13
asVset
p1751
(lp1752
I7
aI3
asVser
p1753
(lp1754
I1
aI0
asVsez
p1755
(lp1756
I0
aI3
asVsex
p1757
(lp1758
I4
aI2
asVpassphrase
p1759
(lp1760
I2
aI0
asVseo
p1761
(lp1762
I1
aI0
asVtangenziale
p1763
(lp1764
I3
aI0
asVsel
p1765
(lp1766
I0
aI10
asVpossibilit
p1767
(lp1768
I3
aI12
asVguinea
p1769
(lp1770
I0
aI3
asVingegnere
p1771
(lp1772
I3
aI2
asVvitamine
p1773
(lp1774
I0
aI5
asVvitamina
p1775
(lp1776
I0
aI6
asVspirito
p1777
(lp1778
I0
aI2
asVrita
p1779
(lp1780
I0
aI12
asVprosegue
p1781
(lp1782
I0
aI4
asVtristan
p1783
(lp1784
I1
aI2
asVallarme
p1785
(lp1786
I2
aI0
asVaspettative
p1787
(lp1788
I0
aI4
asVnecessaria
p1789
(lp1790
I1
aI0
asVnatale
p1791
(lp1792
I0
aI2
asVlegislatura
p1793
(lp1794
I0
aI4
asVspasso
p1795
(lp1796
I4
aI4
asVtroppi
p1797
(lp1798
I0
aI2
asVpatto
p1799
(lp1800
I3
aI2
asVspigen
p1801
(lp1802
I2
aI0
asVconsapevolezza
p1803
(lp1804
I0
aI14
asVscazzi
p1805
(lp1806
I0
aI2
asVthor
p1807
(lp1808
I0
aI1
asVsgominato
p1809
(lp1810
I1
aI0
asVcolpo
p1811
(lp1812
I0
aI12
asVvolanti
p1813
(lp1814
I1
aI1
asVagente
p1815
(lp1816
I12
aI19
asVcelebre
p1817
(lp1818
I3
aI4
asVbell
p1819
(lp1820
I18
aI12
asVstupendo
p1821
(lp1822
I0
aI1
asVbiagio
p1823
(lp1824
I0
aI2
asVagenti
p1825
(lp1826
I11
aI9
asVrengoni
p1827
(lp1828
I3
aI15
asVchievo
p1829
(lp1830
I2
aI0
asVscaricare
p1831
(lp1832
I2
aI5
asVsfruttare
p1833
(lp1834
I0
aI2
asVgrattacielo
p1835
(lp1836
I8
aI2
asVracconta
p1837
(lp1838
I4
aI8
asVracconto
p1839
(lp1840
I4
aI0
asVvuol
p1841
(lp1842
I9
aI8
asVforza
p1843
(lp1844
I29
aI10
asVzalone
p1845
(lp1846
I15
aI17
asVforze
p1847
(lp1848
I43
aI24
asVhostess
p1849
(lp1850
I0
aI5
asVstadio
p1851
(lp1852
I15
aI23
asVeremenko
p1853
(lp1854
I2
aI0
asVsalire
p1855
(lp1856
I2
aI2
asVerror
p1857
(lp1858
I5
aI3
asVsgargianti
p1859
(lp1860
I1
aI0
asVmotors
p1861
(lp1862
I0
aI12
asVverranno
p1863
(lp1864
I3
aI3
asVcampioni
p1865
(lp1866
I0
aI5
asVmotori
p1867
(lp1868
I14
aI11
asVcampione
p1869
(lp1870
I0
aI5
asVmotore
p1871
(lp1872
I11
aI32
asVtradizionale
p1873
(lp1874
I2
aI2
asValeppo
p1875
(lp1876
I0
aI8
asVnovara
p1877
(lp1878
I3
aI19
asVconsumatori
p1879
(lp1880
I3
aI0
asVpsg
p1881
(lp1882
I45
aI16
asVesperienza
p1883
(lp1884
I0
aI16
asVnickname
p1885
(lp1886
I1
aI0
asVstack
p1887
(lp1888
I0
aI1
asVeuro
p1889
(lp1890
I249
aI287
asVnormale
p1891
(lp1892
I9
aI10
asVpianeta
p1893
(lp1894
I0
aI15
asVquerce
p1895
(lp1896
I0
aI2
asVbelen
p1897
(lp1898
I10
aI8
asVkelly
p1899
(lp1900
I8
aI32
asVpiacciono
p1901
(lp1902
I8
aI4
asVufficio
p1903
(lp1904
I37
aI18
asVsalva
p1905
(lp1906
I14
aI14
asVarresti
p1907
(lp1908
I9
aI6
asVcabine
p1909
(lp1910
I0
aI5
asVvedremo
p1911
(lp1912
I7
aI3
asVcabina
p1913
(lp1914
I0
aI10
asVpresentazione
p1915
(lp1916
I11
aI1
asVvederla
p1917
(lp1918
I0
aI1
asVromanzi
p1919
(lp1920
I0
aI3
asVyuhei
p1921
(lp1922
I0
aI1
asVvederlo
p1923
(lp1924
I1
aI0
asVmaria
p1925
(lp1926
I10
aI14
asVnotte
p1927
(lp1928
I50
aI40
asVfalcon
p1929
(lp1930
I2
aI0
asVvinto
p1931
(lp1932
I2
aI7
asVscientifiche
p1933
(lp1934
I1
aI0
asVnotiziefree
p1935
(lp1936
I0
aI1
asVvinte
p1937
(lp1938
I6
aI0
asVvinta
p1939
(lp1940
I1
aI0
asVcontinua
p1941
(lp1942
I2
aI0
asVsenato
p1943
(lp1944
I3
aI1
asVsight
p1945
(lp1946
I2
aI2
asVparchi
p1947
(lp1948
I2
aI0
asValimentare
p1949
(lp1950
I4
aI3
asVpassaggi
p1951
(lp1952
I12
aI11
asVtempli
p1953
(lp1954
I0
aI2
asVindagine
p1955
(lp1956
I0
aI12
asVdettagli
p1957
(lp1958
I0
aI2
asVcondensazione
p1959
(lp1960
I0
aI7
asVveterinari
p1961
(lp1962
I3
aI0
asVindagini
p1963
(lp1964
I4
aI2
asVsovrappeso
p1965
(lp1966
I20
aI10
asVvitale
p1967
(lp1968
I1
aI0
asVjovovich
p1969
(lp1970
I2
aI2
asVpresentare
p1971
(lp1972
I18
aI8
asVvitali
p1973
(lp1974
I7
aI7
asVtedesco
p1975
(lp1976
I5
aI17
asVideologia
p1977
(lp1978
I8
aI8
asVpietro
p1979
(lp1980
I0
aI5
asVbasilicata
p1981
(lp1982
I2
aI0
asVsanta
p1983
(lp1984
I4
aI0
asVsanto
p1985
(lp1986
I4
aI3
asVmontero
p1987
(lp1988
I2
aI6
asVcapitolo
p1989
(lp1990
I2
aI0
asVnetflix
p1991
(lp1992
I4
aI4
asVlibero
p1993
(lp1994
I0
aI5
asVlibert
p1995
(lp1996
I2
aI2
asVpolizia
p1997
(lp1998
I201
aI202
asVmassimo
p1999
(lp2000
I0
aI3
asVpolizie
p2001
(lp2002
I3
aI9
asVtambora
p2003
(lp2004
I0
aI4
asVtradizione
p2005
(lp2006
I17
aI3
asVclinton
p2007
(lp2008
I0
aI7
asVtradizioni
p2009
(lp2010
I3
aI0
asVformaggi
p2011
(lp2012
I3
aI0
asVfrequentato
p2013
(lp2014
I0
aI2
asVterroristi
p2015
(lp2016
I1
aI0
asVchiesto
p2017
(lp2018
I4
aI15
asVseger
p2019
(lp2020
I2
aI0
asVsemplice
p2021
(lp2022
I3
aI3
asVsemplici
p2023
(lp2024
I0
aI1
asVsoccorsi
p2025
(lp2026
I2
aI0
asVsoccorso
p2027
(lp2028
I3
aI7
asVsoci
p2029
(lp2030
I22
aI11
asVumiliante
p2031
(lp2032
I0
aI2
asVposter
p2033
(lp2034
I8
aI0
asVlink
p2035
(lp2036
I4
aI0
asVlibano
p2037
(lp2038
I2
aI0
asVmaturita
p2039
(lp2040
I11
aI0
asVyellen
p2041
(lp2042
I2
aI0
asVuk
p2043
(lp2044
I2
aI6
asVue
p2045
(lp2046
I23
aI42
asVrettangolo
p2047
(lp2048
I0
aI3
asVinoltre
p2049
(lp2050
I2
aI5
asVsvolto
p2051
(lp2052
I0
aI1
asVsvolta
p2053
(lp2054
I2
aI4
asVdiversi
p2055
(lp2056
I8
aI3
asVtari
p2057
(lp2058
I5
aI0
asVparretti
p2059
(lp2060
I0
aI2
asVvissuto
p2061
(lp2062
I2
aI2
asVpiloni
p2063
(lp2064
I0
aI3
asVlezioni
p2065
(lp2066
I3
aI0
asVstangata
p2067
(lp2068
I0
aI2
asVlucio
p2069
(lp2070
I0
aI5
asVredattrice
p2071
(lp2072
I1
aI0
asVpagamento
p2073
(lp2074
I6
aI21
asVbianca
p2075
(lp2076
I15
aI3
asVbianco
p2077
(lp2078
I2
aI2
asVelemento
p2079
(lp2080
I9
aI0
asVwalcott
p2081
(lp2082
I4
aI0
asVage
p2083
(lp2084
I4
aI0
asVterremoti
p2085
(lp2086
I6
aI5
asVwalker
p2087
(lp2088
I10
aI0
asVarmadillo
p2089
(lp2090
I0
aI3
asVputter
p2091
(lp2092
I2
aI0
asVsperimentazione
p2093
(lp2094
I0
aI7
asVastronauti
p2095
(lp2096
I0
aI5
asVfunzionario
p2097
(lp2098
I0
aI5
asVastronauta
p2099
(lp2100
I0
aI7
asVmestiere
p2101
(lp2102
I4
aI0
asVseni
p2103
(lp2104
I0
aI2
asVseno
p2105
(lp2106
I12
aI23
asVcurdi
p2107
(lp2108
I3
aI0
asVscarlett
p2109
(lp2110
I6
aI0
asVtortura
p2111
(lp2112
I36
aI32
asVlombardi
p2113
(lp2114
I0
aI3
asVrace
p2115
(lp2116
I0
aI8
asVleonardo
p2117
(lp2118
I16
aI5
asVgoji
p2119
(lp2120
I0
aI3
asVdibattito
p2121
(lp2122
I4
aI0
asVvisuali
p2123
(lp2124
I2
aI2
asVistruttore
p2125
(lp2126
I2
aI0
asVfirme
p2127
(lp2128
I0
aI3
asVturismo
p2129
(lp2130
I4
aI4
asVtragedia
p2131
(lp2132
I2
aI0
asVlea
p2133
(lp2134
I0
aI2
asVlee
p2135
(lp2136
I2
aI2
asVleo
p2137
(lp2138
I16
aI2
asVsvalutato
p2139
(lp2140
I0
aI2
asVperderanno
p2141
(lp2142
I0
aI1
asVtrimestre
p2143
(lp2144
I2
aI8
asVvolante
p2145
(lp2146
I0
aI1
asVresidenti
p2147
(lp2148
I0
aI5
asVscienza
p2149
(lp2150
I6
aI3
asVresidente
p2151
(lp2152
I0
aI2
asVmicrogravit
p2153
(lp2154
I0
aI8
asVderby
p2155
(lp2156
I6
aI5
asVcto
p2157
(lp2158
I2
aI3
asVstephanie
p2159
(lp2160
I1
aI0
asVstoriche
p2161
(lp2162
I0
aI4
asVboxe
p2163
(lp2164
I2
aI0
asVcassano
p2165
(lp2166
I5
aI0
asVtipica
p2167
(lp2168
I0
aI2
asVsiro
p2169
(lp2170
I0
aI4
asVdogless
p2171
(lp2172
I4
aI0
asVministero
p2173
(lp2174
I5
aI16
asVcapri
p2175
(lp2176
I0
aI2
asVzil
p2177
(lp2178
I0
aI1
asVvolont
p2179
(lp2180
I6
aI4
asVprezzo
p2181
(lp2182
I10
aI34
asVcircolazione
p2183
(lp2184
I6
aI0
asVprezzi
p2185
(lp2186
I0
aI23
asVgamba
p2187
(lp2188
I2
aI3
asVcambiare
p2189
(lp2190
I0
aI2
asVclienti
p2191
(lp2192
I7
aI0
asVanimale
p2193
(lp2194
I4
aI0
asVcliente
p2195
(lp2196
I4
aI4
asVanimali
p2197
(lp2198
I46
aI22
asVbens
p2199
(lp2200
I0
aI6
asVsalentina
p2201
(lp2202
I0
aI3
asVloco
p2203
(lp2204
I5
aI5
asVhigh
p2205
(lp2206
I3
aI0
asVbeni
p2207
(lp2208
I18
aI33
asVslip
p2209
(lp2210
I3
aI3
asVcrespi
p2211
(lp2212
I0
aI5
asVfinanza
p2213
(lp2214
I1
aI0
asVtecniche
p2215
(lp2216
I0
aI1
asVpensano
p2217
(lp2218
I2
aI0
asVevra
p2219
(lp2220
I4
aI0
asVconsorzio
p2221
(lp2222
I3
aI0
asVreggio
p2223
(lp2224
I4
aI2
asVinsetti
p2225
(lp2226
I0
aI6
asVtemeva
p2227
(lp2228
I2
aI2
asVcosce
p2229
(lp2230
I4
aI0
asVcosca
p2231
(lp2232
I0
aI6
asVclarkson
p2233
(lp2234
I0
aI6
asVdirettore
p2235
(lp2236
I15
aI8
asVeutelsat
p2237
(lp2238
I0
aI3
asVnapoleone
p2239
(lp2240
I3
aI0
asVminacce
p2241
(lp2242
I4
aI5
asVautoritratto
p2243
(lp2244
I4
aI0
asVbordo
p2245
(lp2246
I0
aI11
asVpoliclinico
p2247
(lp2248
I6
aI0
asVzakharova
p2249
(lp2250
I0
aI1
asVmuti
p2251
(lp2252
I0
aI2
asVcomma
p2253
(lp2254
I55
aI100
asVvolto
p2255
(lp2256
I6
aI6
asVfinanziaria
p2257
(lp2258
I3
aI6
asVoperativa
p2259
(lp2260
I0
aI2
asVatterraggio
p2261
(lp2262
I4
aI5
asVfederica
p2263
(lp2264
I14
aI0
asVvestiti
p2265
(lp2266
I7
aI10
asVsparato
p2267
(lp2268
I0
aI6
asVfederico
p2269
(lp2270
I0
aI9
asVpreferenze
p2271
(lp2272
I14
aI7
asVcondannato
p2273
(lp2274
I0
aI4
asVpreferenza
p2275
(lp2276
I8
aI4
asVdisastro
p2277
(lp2278
I0
aI2
asVwrangler
p2279
(lp2280
I1
aI0
asVdenzel
p2281
(lp2282
I2
aI0
asVsemplificazione
p2283
(lp2284
I2
aI0
asVpersie
p2285
(lp2286
I0
aI2
asVluglio
p2287
(lp2288
I35
aI8
asVhathaway
p2289
(lp2290
I0
aI2
asVcassazione
p2291
(lp2292
I25
aI3
asVdiventa
p2293
(lp2294
I0
aI3
asVparete
p2295
(lp2296
I0
aI4
asVvelocemente
p2297
(lp2298
I1
aI1
asVaggredita
p2299
(lp2300
I0
aI4
asVannunziata
p2301
(lp2302
I4
aI0
asVsentenze
p2303
(lp2304
I5
aI0
asVtevez
p2305
(lp2306
I29
aI25
asVsentenza
p2307
(lp2308
I52
aI51
asVsparatoria
p2309
(lp2310
I3
aI6
asVtempi
p2311
(lp2312
I5
aI9
asVhyundai
p2313
(lp2314
I0
aI4
asVlavoratori
p2315
(lp2316
I17
aI22
asVlavoratore
p2317
(lp2318
I9
aI8
asVincinta
p2319
(lp2320
I0
aI7
asVbarca
p2321
(lp2322
I0
aI2
asVnapoli
p2323
(lp2324
I20
aI18
asVfreni
p2325
(lp2326
I0
aI32
asVvalutarlo
p2327
(lp2328
I0
aI2
asVscena
p2329
(lp2330
I12
aI1
asVmerate
p2331
(lp2332
I0
aI2
asVscene
p2333
(lp2334
I2
aI2
asVoccupare
p2335
(lp2336
I2
aI0
asVrischiano
p2337
(lp2338
I2
aI0
asVpellegrini
p2339
(lp2340
I6
aI0
asVsharon
p2341
(lp2342
I2
aI0
asVdrogati
p2343
(lp2344
I0
aI2
asVversando
p2345
(lp2346
I0
aI1
asVfestival
p2347
(lp2348
I15
aI4
asVlegislativo
p2349
(lp2350
I3
aI0
asVtrattativa
p2351
(lp2352
I2
aI0
asVverifica
p2353
(lp2354
I4
aI11
asVtrattative
p2355
(lp2356
I3
aI0
asVmessaggio
p2357
(lp2358
I19
aI13
asVvirtuale
p2359
(lp2360
I0
aI2
asVsorpresa
p2361
(lp2362
I5
aI4
asVsarebbero
p2363
(lp2364
I20
aI10
asVcgil
p2365
(lp2366
I5
aI10
asVroberta
p2367
(lp2368
I0
aI2
asVroberto
p2369
(lp2370
I27
aI22
asVgentile
p2371
(lp2372
I0
aI3
asVrispettivamente
p2373
(lp2374
I2
aI0
asVattaccante
p2375
(lp2376
I0
aI2
asVclasse
p2377
(lp2378
I10
aI0
asVfalso
p2379
(lp2380
I0
aI4
asVtroviamo
p2381
(lp2382
I1
aI5
asVfinlandesi
p2383
(lp2384
I4
aI0
asVserrano
p2385
(lp2386
I0
aI2
asVfinlandese
p2387
(lp2388
I0
aI2
asVdubbi
p2389
(lp2390
I0
aI5
asVkokorin
p2391
(lp2392
I2
aI0
asVdelibera
p2393
(lp2394
I0
aI4
asVsottopasso
p2395
(lp2396
I0
aI3
asVomicidio
p2397
(lp2398
I7
aI6
asVlatina
p2399
(lp2400
I0
aI4
asVseggi
p2401
(lp2402
I0
aI177
asVdocumenti
p2403
(lp2404
I4
aI0
asVmilla
p2405
(lp2406
I4
aI4
asVaprile
p2407
(lp2408
I58
aI61
asVopzione
p2409
(lp2410
I14
aI11
asVcaserma
p2411
(lp2412
I4
aI0
asVritiene
p2413
(lp2414
I1
aI1
asVgiallorossa
p2415
(lp2416
I0
aI2
asVfides
p2417
(lp2418
I3
aI0
asVviso
p2419
(lp2420
I9
aI7
asVconcorso
p2421
(lp2422
I3
aI0
asVvantaggio
p2423
(lp2424
I13
aI12
asVpalloncini
p2425
(lp2426
I2
aI2
asVtransessuali
p2427
(lp2428
I1
aI1
asViscritti
p2429
(lp2430
I0
aI2
asVnaturale
p2431
(lp2432
I0
aI3
asVnaturali
p2433
(lp2434
I11
aI12
asVmanchester
p2435
(lp2436
I4
aI4
asVpertanto
p2437
(lp2438
I0
aI1
asVpiuttosto
p2439
(lp2440
I6
aI2
asVscotti
p2441
(lp2442
I0
aI1
asVzanda
p2443
(lp2444
I2
aI4
asVtape
p2445
(lp2446
I4
aI0
asVadriatico
p2447
(lp2448
I2
aI0
asVcondotte
p2449
(lp2450
I2
aI0
asVhandle
p2451
(lp2452
I5
aI3
asVconduttrice
p2453
(lp2454
I0
aI6
asVpatrocinio
p2455
(lp2456
I7
aI0
asVinnamorare
p2457
(lp2458
I2
aI0
asVrapper
p2459
(lp2460
I4
aI4
asVspinta
p2461
(lp2462
I6
aI0
asVoperativo
p2463
(lp2464
I0
aI6
asVpensiero
p2465
(lp2466
I8
aI0
asVpartigiani
p2467
(lp2468
I2
aI0
asVbtp
p2469
(lp2470
I0
aI5
asVstijl
p2471
(lp2472
I0
aI3
asVripartire
p2473
(lp2474
I3
aI0
asVedition
p2475
(lp2476
I0
aI4
asValessandro
p2477
(lp2478
I5
aI0
asVbtf
p2479
(lp2480
I5
aI0
asVconfermato
p2481
(lp2482
I0
aI2
asVnuovamente
p2483
(lp2484
I0
aI3
asVlehotska
p2485
(lp2486
I2
aI0
asValessandra
p2487
(lp2488
I2
aI0
asVjardim
p2489
(lp2490
I2
aI9
asVsessi
p2491
(lp2492
I1
aI1
asVposso
p2493
(lp2494
I13
aI16
asVjurassic
p2495
(lp2496
I0
aI106
asVversati
p2497
(lp2498
I3
aI4
asVpossa
p2499
(lp2500
I0
aI14
asVdestino
p2501
(lp2502
I4
aI0
asVappartamento
p2503
(lp2504
I10
aI2
asVmassaggiare
p2505
(lp2506
I2
aI0
asVpolfer
p2507
(lp2508
I0
aI2
asVcristiano
p2509
(lp2510
I4
aI2
asVverratti
p2511
(lp2512
I0
aI5
asVriassunto
p2513
(lp2514
I0
aI3
asVdogging
p2515
(lp2516
I2
aI0
asVfiorello
p2517
(lp2518
I0
aI3
asVpallotta
p2519
(lp2520
I76
aI60
asVsistemazione
p2521
(lp2522
I0
aI1
asVfiorella
p2523
(lp2524
I2
aI2
asVzanzare
p2525
(lp2526
I0
aI1
asVdimitrov
p2527
(lp2528
I16
aI0
asVetf
p2529
(lp2530
I1
aI0
asVrami
p2531
(lp2532
I0
aI2
asVmotta
p2533
(lp2534
I0
aI2
asVmarte
p2535
(lp2536
I0
aI22
asVtornare
p2537
(lp2538
I3
aI14
asVquintina
p2539
(lp2540
I4
aI0
asVci
p2541
(lp2542
I2
aI10
asVmaturit
p2543
(lp2544
I2
aI0
asVcd
p2545
(lp2546
I0
aI13
asVspagna
p2547
(lp2548
I3
aI2
asVpolitici
p2549
(lp2550
I3
aI9
asVuci
p2551
(lp2552
I0
aI5
asVct
p2553
(lp2554
I2
aI4
asVscontrini
p2555
(lp2556
I3
aI1
asVscontrino
p2557
(lp2558
I2
aI4
asVesselunga
p2559
(lp2560
I0
aI4
asVsilvia
p2561
(lp2562
I0
aI1
asVbilancio
p2563
(lp2564
I5
aI5
asVzuccheri
p2565
(lp2566
I3
aI0
asVvalico
p2567
(lp2568
I0
aI1
asVmariti
p2569
(lp2570
I3
aI0
asVmarito
p2571
(lp2572
I22
aI33
asVeurozona
p2573
(lp2574
I4
aI0
asVstrisce
p2575
(lp2576
I0
aI1
asVvolontario
p2577
(lp2578
I0
aI3
asVvolontarie
p2579
(lp2580
I7
aI7
asVletteratura
p2581
(lp2582
I0
aI5
asVvolontaria
p2583
(lp2584
I0
aI1
asVlaser
p2585
(lp2586
I0
aI4
asVgreco
p2587
(lp2588
I19
aI5
asVgreci
p2589
(lp2590
I2
aI2
asVultra
p2591
(lp2592
I0
aI1
asVdipendente
p2593
(lp2594
I3
aI17
asVsiti
p2595
(lp2596
I7
aI3
asVpatriottici
p2597
(lp2598
I3
aI6
asVsito
p2599
(lp2600
I52
aI17
asVsita
p2601
(lp2602
I1
aI0
asVdipendenti
p2603
(lp2604
I8
aI19
asVarmeno
p2605
(lp2606
I4
aI0
asVstraordinario
p2607
(lp2608
I1
aI0
asVarmeni
p2609
(lp2610
I55
aI19
asVulivo
p2611
(lp2612
I1
aI0
asVmanica
p2613
(lp2614
I4
aI0
asVfelice
p2615
(lp2616
I1
aI0
asVsitu
p2617
(lp2618
I0
aI6
asVarmena
p2619
(lp2620
I0
aI5
asVreferente
p2621
(lp2622
I1
aI0
asVdetergente
p2623
(lp2624
I10
aI0
asVmatthew
p2625
(lp2626
I10
aI2
asVvolersi
p2627
(lp2628
I1
aI1
asVindennit
p2629
(lp2630
I2
aI0
asVmostra
p2631
(lp2632
I14
aI0
asVtrastevere
p2633
(lp2634
I2
aI0
asVbali
p2635
(lp2636
I0
aI3
asVdusk
p2637
(lp2638
I0
aI6
asVbale
p2639
(lp2640
I0
aI7
asVkillander
p2641
(lp2642
I0
aI2
asViago
p2643
(lp2644
I2
aI0
asVzelman
p2645
(lp2646
I0
aI1
asVikea
p2647
(lp2648
I4
aI4
asVsacchetto
p2649
(lp2650
I0
aI2
asVcontribuente
p2651
(lp2652
I26
aI18
asVcontribuenti
p2653
(lp2654
I20
aI15
asVrocio
p2655
(lp2656
I0
aI2
asVzaman
p2657
(lp2658
I3
aI0
asVmomenti
p2659
(lp2660
I0
aI2
asVmomento
p2661
(lp2662
I8
aI46
asVpaul
p2663
(lp2664
I13
aI3
asVweb
p2665
(lp2666
I40
aI21
asVdisponibilit
p2667
(lp2668
I2
aI0
asVcrack
p2669
(lp2670
I4
aI0
asVtitolari
p2671
(lp2672
I6
aI6
asVattraenti
p2673
(lp2674
I3
aI0
asVturistico
p2675
(lp2676
I0
aI1
asVsabatini
p2677
(lp2678
I0
aI3
asVinnocente
p2679
(lp2680
I0
aI2
asVpassword
p2681
(lp2682
I7
aI13
asVpier
p2683
(lp2684
I4
aI8
asVemma
p2685
(lp2686
I4
aI4
asVgestante
p2687
(lp2688
I6
aI0
asVspoleto
p2689
(lp2690
I1
aI0
asVzambese
p2691
(lp2692
I0
aI1
asVlamezia
p2693
(lp2694
I0
aI6
asVpublifast
p2695
(lp2696
I2
aI0
asVfamiglie
p2697
(lp2698
I0
aI8
asVfamiglia
p2699
(lp2700
I48
aI56
asVfedez
p2701
(lp2702
I4
aI0
asVlegato
p2703
(lp2704
I2
aI0
asVsvago
p2705
(lp2706
I1
aI0
asVmanta
p2707
(lp2708
I4
aI0
asVsparare
p2709
(lp2710
I1
aI0
asVmanto
p2711
(lp2712
I10
aI0
asVparatissima
p2713
(lp2714
I4
aI0
asVamiche
p2715
(lp2716
I21
aI12
asVtracce
p2717
(lp2718
I9
aI2
asVoroscopo
p2719
(lp2720
I1
aI5
asVcontagiati
p2721
(lp2722
I2
aI0
asVclooney
p2723
(lp2724
I2
aI2
asVsoftware
p2725
(lp2726
I1
aI2
asVcatherine
p2727
(lp2728
I6
aI15
asVbruxelles
p2729
(lp2730
I2
aI4
asVbanca
p2731
(lp2732
I78
aI13
asVlettera
p2733
(lp2734
I3
aI28
asVcoppa
p2735
(lp2736
I2
aI5
asVbanco
p2737
(lp2738
I3
aI0
asVirlanda
p2739
(lp2740
I0
aI4
asVaccertamento
p2741
(lp2742
I26
aI10
asVdecreto
p2743
(lp2744
I20
aI62
asVuyuni
p2745
(lp2746
I3
aI0
asVcu
p2747
(lp2748
I3
aI0
asVdenaro
p2749
(lp2750
I0
aI5
asVproblem
p2751
(lp2752
I1
aI1
asVatalanta
p2753
(lp2754
I0
aI7
asVcontributo
p2755
(lp2756
I8
aI0
asVcontributi
p2757
(lp2758
I4
aI9
asVplagio
p2759
(lp2760
I3
aI0
asVpoveretto
p2761
(lp2762
I3
aI0
asVreplica
p2763
(lp2764
I2
aI6
asVesagerata
p2765
(lp2766
I0
aI2
asVfamosi
p2767
(lp2768
I0
aI2
asVchiabotto
p2769
(lp2770
I0
aI3
asVsussidio
p2771
(lp2772
I1
aI0
asVinvestitori
p2773
(lp2774
I14
aI3
asVforeste
p2775
(lp2776
I0
aI3
asVvignetta
p2777
(lp2778
I3
aI0
asVpanino
p2779
(lp2780
I0
aI6
asVquarti
p2781
(lp2782
I24
aI0
asVkirkwood
p2783
(lp2784
I6
aI0
asVquarta
p2785
(lp2786
I0
aI8
asVcardiochirurgia
p2787
(lp2788
I6
aI0
asVmilione
p2789
(lp2790
I3
aI8
asVbuon
p2791
(lp2792
I7
aI2
asVunica
p2793
(lp2794
I10
aI12
asVaeroporto
p2795
(lp2796
I4
aI0
asVcomunque
p2797
(lp2798
I4
aI20
asVsfera
p2799
(lp2800
I0
aI4
asVunici
p2801
(lp2802
I5
aI0
asVunico
p2803
(lp2804
I32
aI20
asVinps
p2805
(lp2806
I36
aI25
asVstriscia
p2807
(lp2808
I5
aI0
asVporno
p2809
(lp2810
I10
aI7
asVedward
p2811
(lp2812
I2
aI0
asVfirmati
p2813
(lp2814
I0
aI7
asVuccider
p2815
(lp2816
I1
aI1
asVaurora
p2817
(lp2818
I13
aI11
asVistituto
p2819
(lp2820
I9
aI3
asVpartecipanti
p2821
(lp2822
I3
aI0
asVprotettivo
p2823
(lp2824
I4
aI0
asVmonti
p2825
(lp2826
I3
aI3
asVagnoletto
p2827
(lp2828
I3
aI0
asVspessore
p2829
(lp2830
I2
aI0
asVamministrazione
p2831
(lp2832
I3
aI4
asVosservazione
p2833
(lp2834
I0
aI4
asVdelegato
p2835
(lp2836
I4
aI0
asVossessione
p2837
(lp2838
I2
aI2
asVmorozov
p2839
(lp2840
I0
aI5
asVhorn
p2841
(lp2842
I0
aI9
asVchef
p2843
(lp2844
I4
aI11
asVfederazione
p2845
(lp2846
I0
aI2
asVgalan
p2847
(lp2848
I0
aI8
asVaeronautici
p2849
(lp2850
I0
aI8
asVpanda
p2851
(lp2852
I0
aI3
asVpiemontese
p2853
(lp2854
I2
aI0
asVtacchi
p2855
(lp2856
I8
aI1
asVfatturato
p2857
(lp2858
I2
aI0
asVpignoramento
p2859
(lp2860
I0
aI6
asVinterno
p2861
(lp2862
I42
aI26
asVottenne
p2863
(lp2864
I0
aI3
asVgerry
p2865
(lp2866
I0
aI1
asVtelefonate
p2867
(lp2868
I0
aI2
asVtelefonata
p2869
(lp2870
I3
aI0
asVgla
p2871
(lp2872
I6
aI0
asVriassicurativo
p2873
(lp2874
I0
aI4
asVenvoy
p2875
(lp2876
I0
aI3
asVtaodue
p2877
(lp2878
I9
aI14
asVschiacciata
p2879
(lp2880
I2
aI0
asVstudi
p2881
(lp2882
I30
aI28
asVattualit
p2883
(lp2884
I0
aI2
asVgassmann
p2885
(lp2886
I10
aI0
asVcapricorno
p2887
(lp2888
I0
aI5
asVrompicapo
p2889
(lp2890
I4
aI4
asVvapore
p2891
(lp2892
I20
aI0
asVfrasi
p2893
(lp2894
I6
aI4
asVsarah
p2895
(lp2896
I0
aI3
asVnegativo
p2897
(lp2898
I3
aI5
asVcontrada
p2899
(lp2900
I0
aI9
asVindiano
p2901
(lp2902
I0
aI2
asVindiana
p2903
(lp2904
I5
aI4
asVgiovanna
p2905
(lp2906
I6
aI0
asVgiovanni
p2907
(lp2908
I0
aI3
asVsomiglianza
p2909
(lp2910
I9
aI6
asVpiero
p2911
(lp2912
I0
aI2
asVtransparency
p2913
(lp2914
I5
aI0
asVjamal
p2915
(lp2916
I3
aI0
asVero
p2917
(lp2918
I8
aI0
asVcomunicazione
p2919
(lp2920
I4
aI9
asVtessuti
p2921
(lp2922
I4
aI0
asVrenzismo
p2923
(lp2924
I6
aI2
asVimperatore
p2925
(lp2926
I4
aI0
asVmannoia
p2927
(lp2928
I1
aI0
asVredazione
p2929
(lp2930
I1
aI0
asVnovit
p2931
(lp2932
I5
aI0
asVdavid
p2933
(lp2934
I0
aI3
asVstasera
p2935
(lp2936
I17
aI6
asVpizze
p2937
(lp2938
I6
aI0
asVulteriormente
p2939
(lp2940
I2
aI0
asVpizza
p2941
(lp2942
I22
aI28
asVstefano
p2943
(lp2944
I17
aI48
asVapplicazione
p2945
(lp2946
I15
aI0
asVlavorare
p2947
(lp2948
I13
aI8
asVlav
p2949
(lp2950
I0
aI3
asVronconi
p2951
(lp2952
I0
aI8
asVpadre
p2953
(lp2954
I72
aI17
asVcredenti
p2955
(lp2956
I16
aI16
asVberbel
p2957
(lp2958
I3
aI0
asVteatro
p2959
(lp2960
I13
aI26
asVnets
p2961
(lp2962
I6
aI0
asVrelazione
p2963
(lp2964
I39
aI15
asVventi
p2965
(lp2966
I2
aI2
asVdestra
p2967
(lp2968
I7
aI3
asVdestro
p2969
(lp2970
I16
aI8
asVavocado
p2971
(lp2972
I0
aI2
asVbuffon
p2973
(lp2974
I23
aI22
asVvero
p2975
(lp2976
I33
aI41
asVvinicola
p2977
(lp2978
I1
aI0
asVcoffee
p2979
(lp2980
I4
aI0
asVmozzafiato
p2981
(lp2982
I6
aI6
asVpopolazione
p2983
(lp2984
I4
aI5
asVband
p2985
(lp2986
I4
aI0
asVriesce
p2987
(lp2988
I0
aI4
asVmolecole
p2989
(lp2990
I3
aI0
asVsbancato
p2991
(lp2992
I0
aI1
asVbank
p2993
(lp2994
I0
aI4
asVgermania
p2995
(lp2996
I0
aI7
asVvidal
p2997
(lp2998
I90
aI105
asVpornhub
p2999
(lp3000
I4
aI0
asVanastasia
p3001
(lp3002
I0
aI6
asVostacoli
p3003
(lp3004
I0
aI7
asVmagdeleine
p3005
(lp3006
I0
aI2
asVansaldo
p3007
(lp3008
I0
aI4
asVmonteith
p3009
(lp3010
I0
aI2
asVnetwork
p3011
(lp3012
I0
aI2
asVdiesel
p3013
(lp3014
I11
aI3
asVsacerdote
p3015
(lp3016
I2
aI10
asVforte
p3017
(lp3018
I2
aI5
asVprogrammi
p3019
(lp3020
I4
aI4
asVmedicina
p3021
(lp3022
I5
aI0
asVpropone
p3023
(lp3024
I3
aI0
asVstandard
p3025
(lp3026
I2
aI2
asVrottamazione
p3027
(lp3028
I2
aI0
asVanziani
p3029
(lp3030
I4
aI0
asVrenee
p3031
(lp3032
I2
aI0
asVcerutti
p3033
(lp3034
I0
aI2
asVmuori
p3035
(lp3036
I4
aI0
asVmuore
p3037
(lp3038
I6
aI2
asVtrasporti
p3039
(lp3040
I0
aI1
asVbiologico
p3041
(lp3042
I12
aI0
asVtrasporto
p3043
(lp3044
I2
aI0
asVisole
p3045
(lp3046
I0
aI2
asVbiologica
p3047
(lp3048
I5
aI0
asVtorelli
p3049
(lp3050
I1
aI0
asVisola
p3051
(lp3052
I4
aI12
asVsicurezza
p3053
(lp3054
I14
aI25
asVperkins
p3055
(lp3056
I0
aI3
asVpratica
p3057
(lp3058
I2
aI0
asVlusso
p3059
(lp3060
I0
aI2
asVvivere
p3061
(lp3062
I17
aI11
asVpratici
p3063
(lp3064
I1
aI0
asVtimothy
p3065
(lp3066
I1
aI0
asVcastaneda
p3067
(lp3068
I0
aI2
asVarmato
p3069
(lp3070
I0
aI2
asVjohn
p3071
(lp3072
I8
aI0
asVcanestri
p3073
(lp3074
I0
aI4
asVscorpione
p3075
(lp3076
I0
aI1
asValonso
p3077
(lp3078
I3
aI3
asValbert
p3079
(lp3080
I47
aI23
asValberi
p3081
(lp3082
I0
aI5
asVprimavera
p3083
(lp3084
I6
aI2
asVmateriale
p3085
(lp3086
I15
aI3
asVtoronto
p3087
(lp3088
I3
aI0
asVaerei
p3089
(lp3090
I0
aI4
asVaereo
p3091
(lp3092
I5
aI0
asVdomestico
p3093
(lp3094
I0
aI4
asVsabato
p3095
(lp3096
I5
aI14
asVdigitale
p3097
(lp3098
I5
aI4
asVtruffa
p3099
(lp3100
I2
aI4
asVlegionella
p3101
(lp3102
I11
aI13
asVcontenta
p3103
(lp3104
I0
aI2
asVsmettere
p3105
(lp3106
I0
aI3
asVreali
p3107
(lp3108
I6
aI3
asVprimarie
p3109
(lp3110
I0
aI4
asVreale
p3111
(lp3112
I6
aI4
asVypg
p3113
(lp3114
I2
aI0
asVrealt
p3115
(lp3116
I7
aI12
asVaspetto
p3117
(lp3118
I18
aI12
asVaccesso
p3119
(lp3120
I6
aI6
asVanatomy
p3121
(lp3122
I3
aI0
asVgravi
p3123
(lp3124
I2
aI0
asVcarboidrati
p3125
(lp3126
I3
aI0
asVguasto
p3127
(lp3128
I3
aI0
asValcatel
p3129
(lp3130
I5
aI15
asVtelevisivo
p3131
(lp3132
I1
aI0
asVtelevisive
p3133
(lp3134
I0
aI2
asVbimba
p3135
(lp3136
I3
aI6
asVallenatore
p3137
(lp3138
I19
aI49
asVdisturbo
p3139
(lp3140
I0
aI3
asVlewis
p3141
(lp3142
I0
aI4
asVbimbi
p3143
(lp3144
I3
aI0
asVbimbo
p3145
(lp3146
I17
aI20
asVdisturbi
p3147
(lp3148
I0
aI3
asVkroc
p3149
(lp3150
I4
aI0
asVricarica
p3151
(lp3152
I8
aI7
asVtestimonia
p3153
(lp3154
I0
aI1
asVscreening
p3155
(lp3156
I0
aI2
asVdj
p3157
(lp3158
I4
aI0
asVuscita
p3159
(lp3160
I8
aI12
asVuscito
p3161
(lp3162
I2
aI1
asVomologazione
p3163
(lp3164
I3
aI0
asVcardinale
p3165
(lp3166
I2
aI0
asVstimolando
p3167
(lp3168
I7
aI7
asVds
p3169
(lp3170
I2
aI0
asVstiamo
p3171
(lp3172
I12
aI14
asVordini
p3173
(lp3174
I0
aI3
asVordine
p3175
(lp3176
I49
aI29
asVparticelle
p3177
(lp3178
I32
aI19
asVdiscussione
p3179
(lp3180
I10
aI5
asVmoncler
p3181
(lp3182
I4
aI0
asVrettore
p3183
(lp3184
I13
aI4
asVinno
p3185
(lp3186
I6
aI3
asVshimano
p3187
(lp3188
I0
aI46
asVconcorrenza
p3189
(lp3190
I3
aI10
asVmonopattino
p3191
(lp3192
I0
aI2
asVzampagna
p3193
(lp3194
I0
aI2
asVmoggi
p3195
(lp3196
I5
aI0
asVwc
p3197
(lp3198
I0
aI1
asVscuse
p3199
(lp3200
I10
aI3
asVlicenza
p3201
(lp3202
I0
aI6
asVvianello
p3203
(lp3204
I5
aI5
asVwi
p3205
(lp3206
I2
aI6
asVcostretta
p3207
(lp3208
I0
aI2
asVterme
p3209
(lp3210
I15
aI17
asVincomincia
p3211
(lp3212
I12
aI6
asVcos
p3213
(lp3214
I87
aI52
asVcatalani
p3215
(lp3216
I0
aI3
asVspiffero
p3217
(lp3218
I0
aI2
asVinflazione
p3219
(lp3220
I76
aI53
asVpiacenza
p3221
(lp3222
I7
aI0
asVapuane
p3223
(lp3224
I0
aI5
asVcascate
p3225
(lp3226
I0
aI3
asVislamisti
p3227
(lp3228
I4
aI2
asVdarmian
p3229
(lp3230
I8
aI3
asValfano
p3231
(lp3232
I3
aI0
asVzitti
p3233
(lp3234
I1
aI0
asVrisorsa
p3235
(lp3236
I2
aI0
asVrisorse
p3237
(lp3238
I12
aI4
asVspagnolo
p3239
(lp3240
I6
aI6
asVintollerante
p3241
(lp3242
I0
aI1
asVcesare
p3243
(lp3244
I0
aI3
asVfest
p3245
(lp3246
I6
aI0
asVwhatsapp
p3247
(lp3248
I23
aI3
asVjohansson
p3249
(lp3250
I6
aI0
asVlauncher
p3251
(lp3252
I5
aI0
asVvoice
p3253
(lp3254
I3
aI4
asVpereyra
p3255
(lp3256
I2
aI0
asVpaglia
p3257
(lp3258
I0
aI2
asVbadola
p3259
(lp3260
I0
aI2
asVvigilanza
p3261
(lp3262
I6
aI7
asVwheel
p3263
(lp3264
I0
aI3
asVolimpiadi
p3265
(lp3266
I0
aI2
asVfurgone
p3267
(lp3268
I3
aI0
asVcaceres
p3269
(lp3270
I2
aI0
asVcampi
p3271
(lp3272
I2
aI3
asVcuscino
p3273
(lp3274
I3
aI3
asVcampo
p3275
(lp3276
I12
aI23
asVepisodio
p3277
(lp3278
I0
aI2
asVmonaci
p3279
(lp3280
I0
aI2
asVmamma
p3281
(lp3282
I33
aI56
asVmonaco
p3283
(lp3284
I136
aI149
asVborse
p3285
(lp3286
I2
aI0
asVborsa
p3287
(lp3288
I8
aI10
asVmusical
p3289
(lp3290
I2
aI9
asVnewton
p3291
(lp3292
I0
aI3
asVtrattarsi
p3293
(lp3294
I2
aI1
asVteorici
p3295
(lp3296
I0
aI3
asVhills
p3297
(lp3298
I6
aI24
asVvuoto
p3299
(lp3300
I1
aI1
asVoccupanti
p3301
(lp3302
I0
aI5
asVcervia
p3303
(lp3304
I0
aI2
asVcancro
p3305
(lp3306
I13
aI19
asVpassivi
p3307
(lp3308
I10
aI0
asVmigliori
p3309
(lp3310
I3
aI10
asVmigliore
p3311
(lp3312
I6
aI0
asVcapo
p3313
(lp3314
I18
aI15
asVfrancoforte
p3315
(lp3316
I2
aI5
asVgianluca
p3317
(lp3318
I2
aI0
asVmiliardo
p3319
(lp3320
I6
aI0
asVottenuto
p3321
(lp3322
I0
aI5
asVobblighi
p3323
(lp3324
I0
aI2
asVmit
p3325
(lp3326
I0
aI7
asVshaboo
p3327
(lp3328
I2
aI0
asVsecurity
p3329
(lp3330
I12
aI6
asVfilosofia
p3331
(lp3332
I7
aI0
asVparisse
p3333
(lp3334
I3
aI0
asVyounes
p3335
(lp3336
I2
aI0
asVamministratore
p3337
(lp3338
I4
aI6
asVincarico
p3339
(lp3340
I6
aI0
asVsondaggio
p3341
(lp3342
I18
aI2
asViezzi
p3343
(lp3344
I0
aI4
asVuscendo
p3345
(lp3346
I0
aI1
asVufficialmente
p3347
(lp3348
I2
aI1
asVgrosseto
p3349
(lp3350
I0
aI2
asVcommenti
p3351
(lp3352
I4
aI6
asVlahore
p3353
(lp3354
I3
aI0
asVstrade
p3355
(lp3356
I14
aI6
asVmeritato
p3357
(lp3358
I6
aI4
asVcommenta
p3359
(lp3360
I6
aI2
asVstrada
p3361
(lp3362
I5
aI11
asVfilmini
p3363
(lp3364
I3
aI0
asVseminario
p3365
(lp3366
I2
aI10
asVbarcellona
p3367
(lp3368
I49
aI12
asVdolce
p3369
(lp3370
I0
aI3
asVdolci
p3371
(lp3372
I0
aI4
asVmarketing
p3373
(lp3374
I0
aI3
asVpost
p3375
(lp3376
I15
aI29
asVanima
p3377
(lp3378
I0
aI11
asVsegnare
p3379
(lp3380
I27
aI12
asVtavecchio
p3381
(lp3382
I11
aI8
asVparticolarmente
p3383
(lp3384
I0
aI2
asVperdoni
p3385
(lp3386
I3
aI0
asVaccordo
p3387
(lp3388
I0
aI7
asVnoleggio
p3389
(lp3390
I3
aI0
asVstipendio
p3391
(lp3392
I21
aI19
asVsorteggio
p3393
(lp3394
I0
aI3
asVripiani
p3395
(lp3396
I1
aI0
asVcredenziali
p3397
(lp3398
I3
aI0
asVstrettoia
p3399
(lp3400
I0
aI1
asVdichiarante
p3401
(lp3402
I6
aI2
asVpressione
p3403
(lp3404
I10
aI12
asVfamiliari
p3405
(lp3406
I27
aI8
asVisis
p3407
(lp3408
I10
aI5
asVvorrei
p3409
(lp3410
I2
aI1
asVmtv
p3411
(lp3412
I3
aI0
asVfamiliare
p3413
(lp3414
I10
aI0
asVsindone
p3415
(lp3416
I8
aI12
asVmoore
p3417
(lp3418
I7
aI0
asVfebbraio
p3419
(lp3420
I0
aI12
asVrequest
p3421
(lp3422
I5
aI3
asVrifiuta
p3423
(lp3424
I1
aI1
asVgiornalistica
p3425
(lp3426
I1
aI0
asVriceverlo
p3427
(lp3428
I1
aI2
asVnullit
p3429
(lp3430
I3
aI0
asVfumatrice
p3431
(lp3432
I3
aI6
asVtest
p3433
(lp3434
I4
aI4
asVinserire
p3435
(lp3436
I1
aI0
asVfunerali
p3437
(lp3438
I13
aI16
asVupdate
p3439
(lp3440
I1
aI0
asVriconoscimento
p3441
(lp3442
I3
aI2
asVperiodico
p3443
(lp3444
I0
aI1
asVtroupe
p3445
(lp3446
I1
aI0
asVstoccata
p3447
(lp3448
I2
aI1
asVpicco
p3449
(lp3450
I0
aI4
asVtottenham
p3451
(lp3452
I0
aI1
asVtelescopio
p3453
(lp3454
I3
aI0
asVrimborsi
p3455
(lp3456
I6
aI0
asVpromessa
p3457
(lp3458
I2
aI0
asVsignora
p3459
(lp3460
I22
aI62
asVrimborso
p3461
(lp3462
I23
aI1
asVdenunciato
p3463
(lp3464
I6
aI9
asVdenunciati
p3465
(lp3466
I0
aI2
asVsoffre
p3467
(lp3468
I0
aI4
asVvacanze
p3469
(lp3470
I10
aI9
asVvacanza
p3471
(lp3472
I1
aI1
asVdifensore
p3473
(lp3474
I0
aI2
asVtribunale
p3475
(lp3476
I36
aI49
asVansiosa
p3477
(lp3478
I0
aI2
asVpalestra
p3479
(lp3480
I3
aI0
asVzona
p3481
(lp3482
I12
aI16
asVzone
p3483
(lp3484
I0
aI7
asVflash
p3485
(lp3486
I12
aI10
asVfinlandia
p3487
(lp3488
I2
aI0
asVimportante
p3489
(lp3490
I20
aI7
asVedilizia
p3491
(lp3492
I3
aI0
asVcopertura
p3493
(lp3494
I25
aI9
asVmaggiori
p3495
(lp3496
I8
aI4
asVtonalit
p3497
(lp3498
I2
aI2
asVaule
p3499
(lp3500
I3
aI0
asVmaggiore
p3501
(lp3502
I12
aI8
asVaperte
p3503
(lp3504
I0
aI3
asVturni
p3505
(lp3506
I2
aI0
asVturno
p3507
(lp3508
I23
aI11
asVlaglio
p3509
(lp3510
I0
aI2
asVinchiesta
p3511
(lp3512
I3
aI0
asVaperto
p3513
(lp3514
I7
aI0
asVaperti
p3515
(lp3516
I6
aI2
asVrespiratore
p3517
(lp3518
I0
aI2
asVcose
p3519
(lp3520
I19
aI15
asVparleremo
p3521
(lp3522
I2
aI0
asVmovente
p3523
(lp3524
I2
aI2
asVpinilla
p3525
(lp3526
I4
aI0
asVnina
p3527
(lp3528
I6
aI16
asVaffidamento
p3529
(lp3530
I3
aI0
asVriqualificazione
p3531
(lp3532
I2
aI0
asValina
p3533
(lp3534
I3
aI0
asVsessismo
p3535
(lp3536
I0
aI2
asVprobabilmente
p3537
(lp3538
I0
aI8
asVbuca
p3539
(lp3540
I2
aI0
asVrenzi
p3541
(lp3542
I141
aI157
asVrenzo
p3543
(lp3544
I3
aI0
asVitaliana
p3545
(lp3546
I44
aI21
asVsussistenza
p3547
(lp3548
I0
aI3
asVitaliani
p3549
(lp3550
I28
aI15
asVunnristorante
p3551
(lp3552
I1
aI0
asVitaliano
p3553
(lp3554
I18
aI17
asVsviluppo
p3555
(lp3556
I13
aI7
asVsindaci
p3557
(lp3558
I3
aI0
asVsindaco
p3559
(lp3560
I3
aI16
asVangelo
p3561
(lp3562
I2
aI0
asVrisso
p3563
(lp3564
I0
aI3
asVprova
p3565
(lp3566
I52
aI5
asVprove
p3567
(lp3568
I3
aI0
asVcavallo
p3569
(lp3570
I0
aI4
asVascani
p3571
(lp3572
I3
aI6
asVfrancese
p3573
(lp3574
I3
aI0
asVfrancesi
p3575
(lp3576
I13
aI10
asVcolleghi
p3577
(lp3578
I0
aI3
asVclub
p3579
(lp3580
I17
aI41
asVschiantandosi
p3581
(lp3582
I6
aI4
asVruffini
p3583
(lp3584
I2
aI2
asVsponde
p3585
(lp3586
I0
aI2
asVridurre
p3587
(lp3588
I7
aI2
asVtrani
p3589
(lp3590
I0
aI4
asVrendere
p3591
(lp3592
I0
aI3
asVslogan
p3593
(lp3594
I1
aI0
asVsgambettavano
p3595
(lp3596
I1
aI0
asVcav
p3597
(lp3598
I0
aI3
asVcal
p3599
(lp3600
I3
aI3
asVmigranti
p3601
(lp3602
I16
aI15
asVcaf
p3603
(lp3604
I18
aI15
asVregala
p3605
(lp3606
I0
aI2
asVnastri
p3607
(lp3608
I3
aI0
asVgrassi
p3609
(lp3610
I0
aI3
asVspa
p3611
(lp3612
I1
aI2
asVtentando
p3613
(lp3614
I4
aI3
asVdomenico
p3615
(lp3616
I4
aI0
asVcompensazione
p3617
(lp3618
I0
aI5
asVdomenica
p3619
(lp3620
I7
aI13
asVdutton
p3621
(lp3622
I4
aI0
asVprotocollo
p3623
(lp3624
I5
aI2
asVesperimento
p3625
(lp3626
I16
aI26
asVesperimenti
p3627
(lp3628
I3
aI0
asVcostituzione
p3629
(lp3630
I0
aI4
asVproduce
p3631
(lp3632
I0
aI2
asVdeputata
p3633
(lp3634
I2
aI4
asVdeputato
p3635
(lp3636
I12
aI0
asVdeputati
p3637
(lp3638
I17
aI26
asVvoci
p3639
(lp3640
I3
aI1
asVvoce
p3641
(lp3642
I9
aI14
asVcorona
p3643
(lp3644
I7
aI0
asVmeerkat
p3645
(lp3646
I0
aI2
asVtaormina
p3647
(lp3648
I0
aI8
asVstile
p3649
(lp3650
I16
aI14
asVvergogna
p3651
(lp3652
I2
aI2
asVfacolt
p3653
(lp3654
I4
aI0
asVforma
p3655
(lp3656
I18
aI6
asVenne
p3657
(lp3658
I0
aI2
asVazionisti
p3659
(lp3660
I11
aI20
asVvueling
p3661
(lp3662
I1
aI0
asVmarzo
p3663
(lp3664
I2
aI16
asVclasico
p3665
(lp3666
I0
aI2
asVgonfio
p3667
(lp3668
I2
aI0
asVconcerto
p3669
(lp3670
I3
aI0
asVconcerti
p3671
(lp3672
I0
aI2
asVtrovava
p3673
(lp3674
I4
aI3
asVsettimo
p3675
(lp3676
I2
aI8
asVgotica
p3677
(lp3678
I0
aI5
asVrivelli
p3679
(lp3680
I0
aI2
asVreplay
p3681
(lp3682
I0
aI3
asVet
p3683
(lp3684
I3
aI10
asVthohir
p3685
(lp3686
I0
aI3
asVspace
p3687
(lp3688
I0
aI13
asVzeppa
p3689
(lp3690
I3
aI0
asVvoluto
p3691
(lp3692
I8
aI8
asVbenitez
p3693
(lp3694
I0
aI9
asVsessuale
p3695
(lp3696
I16
aI16
asVlegrottaglie
p3697
(lp3698
I2
aI0
asVcontusioni
p3699
(lp3700
I0
aI2
asVcarr
p3701
(lp3702
I2
aI0
asVmarino
p3703
(lp3704
I0
aI13
asVcartellino
p3705
(lp3706
I8
aI0
asVmarina
p3707
(lp3708
I0
aI6
asVreddito
p3709
(lp3710
I27
aI35
asVmarine
p3711
(lp3712
I4
aI0
asVoscura
p3713
(lp3714
I64
aI45
asVromania
p3715
(lp3716
I3
aI6
asVvolete
p3717
(lp3718
I0
aI11
asVtippi
p3719
(lp3720
I3
aI0
asVbloccare
p3721
(lp3722
I6
aI0
asVmacerie
p3723
(lp3724
I0
aI3
asVinvestimento
p3725
(lp3726
I3
aI0
asVinvestimenti
p3727
(lp3728
I8
aI3
asVprecompilato
p3729
(lp3730
I97
aI82
asVqual
p3731
(lp3732
I6
aI2
asVfucilati
p3733
(lp3734
I0
aI3
asVcolognola
p3735
(lp3736
I3
aI0
asVtubercolosi
p3737
(lp3738
I2
aI0
asVshatush
p3739
(lp3740
I2
aI2
asVprofessionale
p3741
(lp3742
I0
aI5
asVstradale
p3743
(lp3744
I7
aI0
asVbrowser
p3745
(lp3746
I2
aI0
asVterritorio
p3747
(lp3748
I6
aI3
asVgrotta
p3749
(lp3750
I4
aI0
asVsesso
p3751
(lp3752
I23
aI36
asVinibizione
p3753
(lp3754
I0
aI6
asVbalti
p3755
(lp3756
I20
aI4
asVlavanderia
p3757
(lp3758
I2
aI0
asVonline
p3759
(lp3760
I42
aI8
asVpalazzo
p3761
(lp3762
I7
aI7
asVsantiago
p3763
(lp3764
I3
aI6
asVsledge
p3765
(lp3766
I0
aI13
asVparla
p3767
(lp3768
I8
aI15
asVprice
p3769
(lp3770
I11
aI22
asVvivamente
p3771
(lp3772
I0
aI1
asVnumero
p3773
(lp3774
I31
aI178
asVlobulare
p3775
(lp3776
I4
aI8
asVamerica
p3777
(lp3778
I2
aI0
asVmichelle
p3779
(lp3780
I2
aI0
asVverbale
p3781
(lp3782
I0
aI5
asVviaggiano
p3783
(lp3784
I2
aI0
asVdipendenza
p3785
(lp3786
I0
aI8
asVfemminile
p3787
(lp3788
I3
aI0
asVsoggetto
p3789
(lp3790
I0
aI3
asVuomini
p3791
(lp3792
I63
aI47
asVferrari
p3793
(lp3794
I12
aI26
asVsoggetti
p3795
(lp3796
I81
aI66
asVmuove
p3797
(lp3798
I0
aI3
asVaiuta
p3799
(lp3800
I0
aI2
asVspingendoci
p3801
(lp3802
I0
aI2
asVinstallare
p3803
(lp3804
I0
aI4
asVamedeo
p3805
(lp3806
I14
aI0
asVcolombo
p3807
(lp3808
I0
aI5
asVnaike
p3809
(lp3810
I4
aI8
asVmoneta
p3811
(lp3812
I0
aI4
asVcarreggiate
p3813
(lp3814
I0
aI3
asVutilizzo
p3815
(lp3816
I11
aI0
asVtelefoni
p3817
(lp3818
I3
aI0
asVtelefono
p3819
(lp3820
I16
aI3
asVcattivo
p3821
(lp3822
I0
aI6
asVtorner
p3823
(lp3824
I1
aI1
asVtelevisione
p3825
(lp3826
I0
aI3
asVsoltanto
p3827
(lp3828
I2
aI3
asVdoccia
p3829
(lp3830
I10
aI2
asVsvincolo
p3831
(lp3832
I0
aI2
asVcioccolato
p3833
(lp3834
I9
aI0
asVgiornata
p3835
(lp3836
I6
aI5
asVamanda
p3837
(lp3838
I6
aI15
asVdanae
p3839
(lp3840
I2
aI2
asVdbat
p3841
(lp3842
I5
aI0
asVsport
p3843
(lp3844
I5
aI11
asVvisibile
p3845
(lp3846
I7
aI7
asVcristiani
p3847
(lp3848
I6
aI3
asVsettore
p3849
(lp3850
I55
aI62
asVfarmaceutico
p3851
(lp3852
I10
aI0
asVisraele
p3853
(lp3854
I0
aI6
asVsettori
p3855
(lp3856
I0
aI5
asVagricoltura
p3857
(lp3858
I5
aI3
asVsuicidio
p3859
(lp3860
I11
aI12
asVomonima
p3861
(lp3862
I4
aI0
asVambienti
p3863
(lp3864
I10
aI0
asVtraduzione
p3865
(lp3866
I10
aI0
asVmisteriosa
p3867
(lp3868
I2
aI0
asVambiente
p3869
(lp3870
I5
aI0
asVsollecitato
p3871
(lp3872
I0
aI1
asVdisponibile
p3873
(lp3874
I12
aI5
asVoffese
p3875
(lp3876
I0
aI6
asVoffesa
p3877
(lp3878
I2
aI2
asVvui
p3879
(lp3880
I0
aI1
asVricorrente
p3881
(lp3882
I0
aI3
asVvergata
p3883
(lp3884
I6
aI0
asVstipendi
p3885
(lp3886
I3
aI3
asVdisposizione
p3887
(lp3888
I2
aI7
asVsforzo
p3889
(lp3890
I1
aI0
asVsuccessivi
p3891
(lp3892
I0
aI1
asVantitaccheggio
p3893
(lp3894
I0
aI3
asVwiel
p3895
(lp3896
I0
aI2
asVcarey
p3897
(lp3898
I1
aI4
asVruba
p3899
(lp3900
I4
aI0
asVaero
p3901
(lp3902
I0
aI11
asVdiagnosticato
p3903
(lp3904
I7
aI14
asVruby
p3905
(lp3906
I0
aI7
asVmorfina
p3907
(lp3908
I3
aI0
asVvespa
p3909
(lp3910
I10
aI0
asVvieppi
p3911
(lp3912
I1
aI0
asVvalere
p3913
(lp3914
I3
aI0
asVsusa
p3915
(lp3916
I11
aI3
asVsoldi
p3917
(lp3918
I4
aI14
asVutili
p3919
(lp3920
I22
aI5
asVtempestivamente
p3921
(lp3922
I0
aI1
asVkenya
p3923
(lp3924
I0
aI3
asVinserir
p3925
(lp3926
I0
aI3
asVutile
p3927
(lp3928
I3
aI17
asVteheran
p3929
(lp3930
I3
aI0
asVmedia
p3931
(lp3932
I27
aI48
asVcarabinieri
p3933
(lp3934
I25
aI46
asVritocco
p3935
(lp3936
I0
aI3
asVceo
p3937
(lp3938
I18
aI12
asVfollowers
p3939
(lp3940
I6
aI6
asVgovernatore
p3941
(lp3942
I53
aI16
asVallerta
p3943
(lp3944
I0
aI10
asVdavutoglu
p3945
(lp3946
I9
aI6
asVvista
p3947
(lp3948
I20
aI17
asVvalidato
p3949
(lp3950
I1
aI5
asVvolley
p3951
(lp3952
I5
aI5
asVandamento
p3953
(lp3954
I0
aI4
asVconiuge
p3955
(lp3956
I9
aI3
asVeccesso
p3957
(lp3958
I3
aI0
asVcodacons
p3959
(lp3960
I0
aI5
asVconiugi
p3961
(lp3962
I0
aI3
asVtossina
p3963
(lp3964
I0
aI2
asVccc
p3965
(lp3966
I0
aI2
asVtroverete
p3967
(lp3968
I4
aI0
asVemicrania
p3969
(lp3970
I0
aI9
asVtelefonini
p3971
(lp3972
I5
aI0
asVtelefonino
p3973
(lp3974
I0
aI2
asVsovraperformare
p3975
(lp3976
I3
aI0
asVsoffrire
p3977
(lp3978
I0
aI1
asVsufficiente
p3979
(lp3980
I1
aI0
asVtouch
p3981
(lp3982
I0
aI9
asVwebank
p3983
(lp3984
I0
aI2
asVidentit
p3985
(lp3986
I14
aI14
asVrabiot
p3987
(lp3988
I0
aI6
asVbretella
p3989
(lp3990
I4
aI0
asVrinnovo
p3991
(lp3992
I4
aI12
asVvaglio
p3993
(lp3994
I2
aI4
asVreal
p3995
(lp3996
I15
aI19
asVream
p3997
(lp3998
I0
aI2
asVumiliazione
p3999
(lp4000
I2
aI2
asVnielsen
p4001
(lp4002
I3
aI3
asVama
p4003
(lp4004
I0
aI4
asVdavvero
p4005
(lp4006
I32
aI29
asVvasco
p4007
(lp4008
I1
aI0
asVdita
p4009
(lp4010
I2
aI2
asVams
p4011
(lp4012
I70
aI53
asVconsentire
p4013
(lp4014
I2
aI0
asVdiscorso
p4015
(lp4016
I3
aI3
asVvedere
p4017
(lp4018
I20
aI24
asVtessere
p4019
(lp4020
I0
aI1
asVtessera
p4021
(lp4022
I2
aI0
asVmattarella
p4023
(lp4024
I6
aI12
asVrapporti
p4025
(lp4026
I10
aI2
asVrapporto
p4027
(lp4028
I67
aI48
asVrepubblica
p4029
(lp4030
I3
aI5
asVregina
p4031
(lp4032
I4
aI4
asVwillis
p4033
(lp4034
I0
aI1
asVveneto
p4035
(lp4036
I4
aI2
asVpassione
p4037
(lp4038
I3
aI4
asVdeficit
p4039
(lp4040
I0
aI2
asVbusiness
p4041
(lp4042
I9
aI0
asVepsom
p4043
(lp4044
I0
aI2
asVdiligenza
p4045
(lp4046
I11
aI0
asVfrancia
p4047
(lp4048
I18
aI6
asVcrediti
p4049
(lp4050
I13
aI4
asVcredito
p4051
(lp4052
I32
aI11
asVcaffetteria
p4053
(lp4054
I3
aI0
asVsilvio
p4055
(lp4056
I4
aI3
asVlombardia
p4057
(lp4058
I4
aI0
asVvarco
p4059
(lp4060
I2
aI0
asVspuntino
p4061
(lp4062
I2
aI0
asVflessibile
p4063
(lp4064
I0
aI3
asVtestimoni
p4065
(lp4066
I3
aI3
asVentrate
p4067
(lp4068
I93
aI75
asVtestimone
p4069
(lp4070
I2
aI0
asVvicolo
p4071
(lp4072
I0
aI2
asVsrl
p4073
(lp4074
I32
aI52
asVprevisioni
p4075
(lp4076
I1
aI2
asVraggio
p4077
(lp4078
I0
aI2
asVvenuto
p4079
(lp4080
I1
aI3
asVoutlook
p4081
(lp4082
I0
aI2
asVmoric
p4083
(lp4084
I8
aI8
asVvenuti
p4085
(lp4086
I0
aI1
asVsiffredi
p4087
(lp4088
I0
aI2
asVprotesta
p4089
(lp4090
I0
aI3
asVreclusione
p4091
(lp4092
I4
aI0
asVstare
p4093
(lp4094
I2
aI8
asVneymar
p4095
(lp4096
I20
aI9
asVspaak
p4097
(lp4098
I0
aI2
asVpremio
p4099
(lp4100
I8
aI5
asVarea
p4101
(lp4102
I3
aI12
asVgiocatori
p4103
(lp4104
I40
aI28
asVcats
p4105
(lp4106
I0
aI3
asVfascia
p4107
(lp4108
I4
aI0
asVgiocatore
p4109
(lp4110
I5
aI12
asVvettura
p4111
(lp4112
I4
aI2
asVequipe
p4113
(lp4114
I2
aI0
asVpastiglie
p4115
(lp4116
I2
aI0
asVrichieste
p4117
(lp4118
I0
aI9
asVrichiesta
p4119
(lp4120
I22
aI16
asVcomics
p4121
(lp4122
I0
aI3
asVofferta
p4123
(lp4124
I4
aI28
asVofferte
p4125
(lp4126
I0
aI2
asVofferti
p4127
(lp4128
I1
aI1
asVrivalutato
p4129
(lp4130
I0
aI2
asVscanner
p4131
(lp4132
I2
aI0
asVvolevo
p4133
(lp4134
I2
aI4
asVvoleva
p4135
(lp4136
I14
aI11
asVsales
p4137
(lp4138
I0
aI2
asVneri
p4139
(lp4140
I18
aI13
asVventre
p4141
(lp4142
I0
aI2
asVnero
p4143
(lp4144
I6
aI5
asVnera
p4145
(lp4146
I2
aI0
asVfusione
p4147
(lp4148
I0
aI3
asVtemono
p4149
(lp4150
I1
aI0
asVantenna
p4151
(lp4152
I2
aI0
asVrepubblicani
p4153
(lp4154
I0
aI4
asVegitto
p4155
(lp4156
I4
aI0
asVcolli
p4157
(lp4158
I3
aI0
asVregistro
p4159
(lp4160
I3
aI0
asVtiepida
p4161
(lp4162
I7
aI7
asVsollevato
p4163
(lp4164
I1
aI0
asVtaranto
p4165
(lp4166
I3
aI3
asVstringa
p4167
(lp4168
I0
aI2
asVcedolare
p4169
(lp4170
I0
aI8
asVcorep
p4171
(lp4172
I0
aI5
asVmessa
p4173
(lp4174
I3
aI0
asVgiorgio
p4175
(lp4176
I6
aI8
asVqualsiasi
p4177
(lp4178
I5
aI5
asVfigli
p4179
(lp4180
I13
aI50
asVpensate
p4181
(lp4182
I0
aI2
asVmessi
p4183
(lp4184
I0
aI3
asValluminio
p4185
(lp4186
I15
aI0
asVpensato
p4187
(lp4188
I2
aI1
asVarrestato
p4189
(lp4190
I2
aI0
asVgiorgia
p4191
(lp4192
I0
aI7
asVproveremo
p4193
(lp4194
I0
aI2
asVmp3
p4195
(lp4196
I0
aI8
asVproteggere
p4197
(lp4198
I0
aI2
asVfiducia
p4199
(lp4200
I41
aI51
asVistruzione
p4201
(lp4202
I0
aI8
asVterapie
p4203
(lp4204
I0
aI5
asVchiellini
p4205
(lp4206
I0
aI3
asVcanzone
p4207
(lp4208
I0
aI11
asVfortina
p4209
(lp4210
I3
aI0
asVcollaborazione
p4211
(lp4212
I10
aI5
asVverr
p4213
(lp4214
I5
aI8
asVventiquattr
p4215
(lp4216
I1
aI2
asVvera
p4217
(lp4218
I27
aI18
asVvere
p4219
(lp4220
I0
aI3
asVmps
p4221
(lp4222
I0
aI7
asVveri
p4223
(lp4224
I33
aI18
asVsegway
p4225
(lp4226
I0
aI4
asVbova
p4227
(lp4228
I4
aI6
asVanas
p4229
(lp4230
I9
aI14
asVlazio
p4231
(lp4232
I15
aI14
asVappalti
p4233
(lp4234
I3
aI0
asVscissione
p4235
(lp4236
I2
aI2
asVvorrai
p4237
(lp4238
I0
aI1
asVscarpine
p4239
(lp4240
I2
aI0
asVinfedeli
p4241
(lp4242
I2
aI0
asVinstagram
p4243
(lp4244
I6
aI6
asVovvero
p4245
(lp4246
I6
aI6
asVemendamento
p4247
(lp4248
I3
aI17
asVguasti
p4249
(lp4250
I4
aI0
asVdarkness
p4251
(lp4252
I0
aI2
asVtraguardo
p4253
(lp4254
I1
aI2
asVleggere
p4255
(lp4256
I3
aI0
asVrimanere
p4257
(lp4258
I1
aI1
asViran
p4259
(lp4260
I3
aI0
asVliquidit
p4261
(lp4262
I2
aI0
asVpoundland
p4263
(lp4264
I6
aI0
asVirap
p4265
(lp4266
I5
aI0
asViraq
p4267
(lp4268
I0
aI4
asVmarilia
p4269
(lp4270
I14
aI42
asVricercatori
p4271
(lp4272
I4
aI4
asVtranquillo
p4273
(lp4274
I0
aI3
asVtranquilli
p4275
(lp4276
I0
aI1
asVgestione
p4277
(lp4278
I6
aI8
asVprofughi
p4279
(lp4280
I12
aI18
asVmetabolismo
p4281
(lp4282
I3
aI2
asVpuok
p4283
(lp4284
I1
aI2
asVimpianto
p4285
(lp4286
I0
aI3
asVminerba
p4287
(lp4288
I3
aI0
asVimpianti
p4289
(lp4290
I9
aI0
asVpercentuali
p4291
(lp4292
I0
aI8
asVdios
p4293
(lp4294
I0
aI3
asVredatto
p4295
(lp4296
I1
aI1
asVtatangelo
p4297
(lp4298
I0
aI3
asVrintracciabile
p4299
(lp4300
I1
aI0
asVvittima
p4301
(lp4302
I5
aI15
asVvittime
p4303
(lp4304
I41
aI32
asVdivinit
p4305
(lp4306
I2
aI2
asVf8
p4307
(lp4308
I3
aI0
asVheselden
p4309
(lp4310
I0
aI2
asVioni
p4311
(lp4312
I4
aI0
asVbacche
p4313
(lp4314
I0
aI3
asVeataly
p4315
(lp4316
I10
aI0
asVstraordinaria
p4317
(lp4318
I3
aI0
asVuniversitari
p4319
(lp4320
I0
aI3
asVprocessore
p4321
(lp4322
I5
aI3
asVcompagno
p4323
(lp4324
I2
aI3
asVulivi
p4325
(lp4326
I1
aI4
asVconsiglieri
p4327
(lp4328
I3
aI0
asVcompagna
p4329
(lp4330
I11
aI6
asVconsigliere
p4331
(lp4332
I6
aI0
asVfondamentale
p4333
(lp4334
I6
aI0
asVpersonalizzazione
p4335
(lp4336
I2
aI0
asVuscire
p4337
(lp4338
I5
aI3
asVfb
p4339
(lp4340
I2
aI0
asVsoglia
p4341
(lp4342
I0
aI6
asVcapogruppo
p4343
(lp4344
I34
aI28
asVphotoshop
p4345
(lp4346
I0
aI8
asVzanetti
p4347
(lp4348
I0
aI9
asVbici
p4349
(lp4350
I0
aI30
asVeroe
p4351
(lp4352
I4
aI4
asVurine
p4353
(lp4354
I1
aI0
asVtorneo
p4355
(lp4356
I14
aI0
asVvalerio
p4357
(lp4358
I3
aI3
asVrevigliasco
p4359
(lp4360
I0
aI1
asVeros
p4361
(lp4362
I2
aI4
asValbergo
p4363
(lp4364
I8
aI4
asVpubblicitari
p4365
(lp4366
I0
aI14
asVsolving
p4367
(lp4368
I1
aI1
asVvaticano
p4369
(lp4370
I16
aI0
asVpeanuts
p4371
(lp4372
I3
aI0
asVtocca
p4373
(lp4374
I0
aI2
asVcurtis
p4375
(lp4376
I4
aI4
asVfood
p4377
(lp4378
I7
aI0
asVtocco
p4379
(lp4380
I0
aI4
asVscampati
p4381
(lp4382
I0
aI1
asVstarbucks
p4383
(lp4384
I6
aI0
asVfolco
p4385
(lp4386
I0
aI8
asVpercorso
p4387
(lp4388
I9
aI2
asVvendola
p4389
(lp4390
I2
aI18
asVoccasioni
p4391
(lp4392
I2
aI0
asVoccasione
p4393
(lp4394
I1
aI0
asVgutgeld
p4395
(lp4396
I2
aI0
asVtodd
p4397
(lp4398
I0
aI1
asVgoering
p4399
(lp4400
I0
aI4
asVbuoni
p4401
(lp4402
I2
aI0
asVrobert
p4403
(lp4404
I2
aI2
asVtremendo
p4405
(lp4406
I2
aI0
asVoffre
p4407
(lp4408
I3
aI12
asVdesiderio
p4409
(lp4410
I0
aI3
asVpub
p4411
(lp4412
I0
aI3
asVtimbrato
p4413
(lp4414
I2
aI1
asVconsentito
p4415
(lp4416
I3
aI0
asVbase
p4417
(lp4418
I14
aI5
asVsiljamki
p4419
(lp4420
I0
aI2
asVpropriet
p4421
(lp4422
I6
aI0
asVmoutinho
p4423
(lp4424
I2
aI0
asVgriner
p4425
(lp4426
I9
aI3
asVsemifinali
p4427
(lp4428
I0
aI5
asVvisione
p4429
(lp4430
I8
aI3
asVvilla
p4431
(lp4432
I5
aI0
asVcifra
p4433
(lp4434
I0
aI78
asVtormentarla
p4435
(lp4436
I1
aI0
asVinadempimento
p4437
(lp4438
I13
aI0
asVstation
p4439
(lp4440
I4
aI0
asVvincere
p4441
(lp4442
I11
aI3
asVeconomiche
p4443
(lp4444
I0
aI2
asVnorma
p4445
(lp4446
I2
aI8
asVnorme
p4447
(lp4448
I0
aI6
asVtfr
p4449
(lp4450
I0
aI8
asVottenere
p4451
(lp4452
I0
aI3
asVsto
p4453
(lp4454
I1
aI2
asVgrey
p4455
(lp4456
I5
aI3
asVanticipata
p4457
(lp4458
I0
aI6
asVmiglior
p4459
(lp4460
I10
aI6
asVutopie
p4461
(lp4462
I1
aI3
asVsts
p4463
(lp4464
I0
aI2
asVpuglia
p4465
(lp4466
I13
aI13
asVrubavano
p4467
(lp4468
I4
aI4
asVmaledizione
p4469
(lp4470
I2
aI0
asVmodalit
p4471
(lp4472
I3
aI0
asVmilner
p4473
(lp4474
I0
aI3
asVumbre
p4475
(lp4476
I1
aI0
asVschwarze
p4477
(lp4478
I0
aI2
asVcompensazioni
p4479
(lp4480
I4
aI0
asVcatinelle
p4481
(lp4482
I6
aI6
asVquote
p4483
(lp4484
I0
aI3
asVquota
p4485
(lp4486
I1
aI0
asVimpegni
p4487
(lp4488
I0
aI2
asVimpegno
p4489
(lp4490
I0
aI4
asVisspresso
p4491
(lp4492
I4
aI13
asVcinese
p4493
(lp4494
I5
aI7
asVpreviste
p4495
(lp4496
I2
aI0
asVribattere
p4497
(lp4498
I4
aI0
asVreparto
p4499
(lp4500
I5
aI2
asVsalari
p4501
(lp4502
I0
aI14
asVshalakhova
p4503
(lp4504
I0
aI1
asVusufruite
p4505
(lp4506
I0
aI1
asVfosse
p4507
(lp4508
I6
aI20
asVgiocare
p4509
(lp4510
I0
aI2
asVsoddisfare
p4511
(lp4512
I0
aI2
asVvarando
p4513
(lp4514
I1
aI2
asVsportive
p4515
(lp4516
I3
aI0
asVvivente
p4517
(lp4518
I0
aI1
asVtentato
p4519
(lp4520
I10
aI6
asVsportivo
p4521
(lp4522
I7
aI0
asVperugia
p4523
(lp4524
I2
aI3
asVhuanglong
p4525
(lp4526
I0
aI3
asVriporta
p4527
(lp4528
I0
aI1
asVmasterfile
p4529
(lp4530
I0
aI3
asVallegria
p4531
(lp4532
I2
aI0
asVilluminazione
p4533
(lp4534
I0
aI7
asVxylella
p4535
(lp4536
I4
aI5
asVbrigata
p4537
(lp4538
I3
aI0
asVcapsula
p4539
(lp4540
I2
aI6
asVrocco
p4541
(lp4542
I0
aI3
asVviminale
p4543
(lp4544
I2
aI4
asVinterruzione
p4545
(lp4546
I5
aI0
asVvoler
p4547
(lp4548
I3
aI1
asVpneumatici
p4549
(lp4550
I0
aI3
asVreligiose
p4551
(lp4552
I16
aI12
asVlocali
p4553
(lp4554
I15
aI3
asVlocale
p4555
(lp4556
I13
aI15
asVprodurre
p4557
(lp4558
I3
aI0
asVpromosso
p4559
(lp4560
I0
aI2
asVgiugno
p4561
(lp4562
I4
aI2
asVcultura
p4563
(lp4564
I3
aI9
asVmussa
p4565
(lp4566
I3
aI0
asVveleni
p4567
(lp4568
I0
aI3
asVveleno
p4569
(lp4570
I1
aI0
asVvitalizi
p4571
(lp4572
I35
aI0
asVstudentesco
p4573
(lp4574
I0
aI2
asVconsapevole
p4575
(lp4576
I0
aI6
asVtrionfo
p4577
(lp4578
I1
aI0
asVleague
p4579
(lp4580
I46
aI18
asVistituzioni
p4581
(lp4582
I2
aI0
asVacceca
p4583
(lp4584
I7
aI0
asVcapelli
p4585
(lp4586
I0
aI22
asVrodgers
p4587
(lp4588
I0
aI2
asVgiudiziario
p4589
(lp4590
I0
aI8
asVsuccessi
p4591
(lp4592
I2
aI0
asVprestazione
p4593
(lp4594
I11
aI0
asVsuccesso
p4595
(lp4596
I10
aI17
asVtredicenne
p4597
(lp4598
I0
aI1
asVvorrebbe
p4599
(lp4600
I14
aI12
asVadebayor
p4601
(lp4602
I0
aI2
asVaggressori
p4603
(lp4604
I2
aI0
asVprestazioni
p4605
(lp4606
I13
aI0
asVtogolese
p4607
(lp4608
I0
aI1
asVquaderni
p4609
(lp4610
I7
aI11
asVcugi
p4611
(lp4612
I0
aI2
asVwalter
p4613
(lp4614
I2
aI4
asVoccupazione
p4615
(lp4616
I0
aI6
asVdudina
p4617
(lp4618
I8
aI7
asVlapresse
p4619
(lp4620
I1
aI0
asVorari
p4621
(lp4622
I0
aI8
asVpagato
p4623
(lp4624
I4
aI2
asVtoccasana
p4625
(lp4626
I7
aI7
asVpace
p4627
(lp4628
I2
aI4
asVsmart
p4629
(lp4630
I6
aI0
asVchiedo
p4631
(lp4632
I0
aI2
asVluciano
p4633
(lp4634
I11
aI0
asVguida
p4635
(lp4636
I2
aI23
asVtutela
p4637
(lp4638
I4
aI8
asVchiede
p4639
(lp4640
I10
aI2
asVtutele
p4641
(lp4642
I6
aI5
asVspiegazioni
p4643
(lp4644
I0
aI2
asVsollecitazione
p4645
(lp4646
I1
aI1
asVvertono
p4647
(lp4648
I0
aI1
asVscaglia
p4649
(lp4650
I4
aI0
asVtette
p4651
(lp4652
I1
aI0
asVfattura
p4653
(lp4654
I0
aI10
asVvesuvio
p4655
(lp4656
I0
aI1
asVsalone
p4657
(lp4658
I5
aI2
asVmarcello
p4659
(lp4660
I3
aI0
asVfede
p4661
(lp4662
I2
aI2
asVbonifico
p4663
(lp4664
I0
aI6
asVbonus
p4665
(lp4666
I26
aI3
asVeffetti
p4667
(lp4668
I6
aI10
asVfatti
p4669
(lp4670
I6
aI14
asVspecialit
p4671
(lp4672
I3
aI0
asVvigilia
p4673
(lp4674
I8
aI4
asVbilocale
p4675
(lp4676
I18
aI4
asVarturo
p4677
(lp4678
I8
aI4
asVciucci
p4679
(lp4680
I0
aI8
asVtorpedine
p4681
(lp4682
I2
aI0
asVdaranno
p4683
(lp4684
I2
aI0
asVatenei
p4685
(lp4686
I0
aI3
asVateneo
p4687
(lp4688
I3
aI3
asVcervello
p4689
(lp4690
I6
aI19
asVqualificazione
p4691
(lp4692
I2
aI2
asVedizione
p4693
(lp4694
I0
aI2
asVtaiwan
p4695
(lp4696
I2
aI0
asVrevoca
p4697
(lp4698
I0
aI3
asVtrovati
p4699
(lp4700
I0
aI5
asVtrovato
p4701
(lp4702
I18
aI10
asVcheryl
p4703
(lp4704
I53
aI33
asVmarco
p4705
(lp4706
I3
aI0
asVrende
p4707
(lp4708
I0
aI2
asVtriste
p4709
(lp4710
I14
aI2
asVgame
p4711
(lp4712
I15
aI0
asVconsigli
p4713
(lp4714
I3
aI0
asVhipolito
p4715
(lp4716
I5
aI0
asVbeffa
p4717
(lp4718
I2
aI0
asVmoira
p4719
(lp4720
I0
aI3
asVcamerini
p4721
(lp4722
I18
aI21
asVcamerino
p4723
(lp4724
I0
aI2
asVdonne
p4725
(lp4726
I68
aI69
asVdonna
p4727
(lp4728
I196
aI162
asVvesti
p4729
(lp4730
I0
aI1
asVtantissimi
p4731
(lp4732
I2
aI2
asVpierre
p4733
(lp4734
I4
aI2
asVstilato
p4735
(lp4736
I1
aI0
asVsuccede
p4737
(lp4738
I8
aI0
asVfanfara
p4739
(lp4740
I2
aI0
asVneanche
p4741
(lp4742
I4
aI0
asVchiedere
p4743
(lp4744
I13
aI3
asVucits
p4745
(lp4746
I1
aI0
asVmidollo
p4747
(lp4748
I0
aI2
asVboullier
p4749
(lp4750
I2
aI0
asVvincente
p4751
(lp4752
I9
aI6
asVeverolimus
p4753
(lp4754
I0
aI3
asVclassico
p4755
(lp4756
I20
aI0
asVtrivela
p4757
(lp4758
I0
aI5
asVsnellire
p4759
(lp4760
I2
aI0
asVrolla
p4761
(lp4762
I0
aI2
asVdovizioso
p4763
(lp4764
I4
aI0
asVlucarelli
p4765
(lp4766
I0
aI3
asVfossero
p4767
(lp4768
I0
aI2
asVwintour
p4769
(lp4770
I0
aI1
asVinfrastrutture
p4771
(lp4772
I3
aI2
asVtenera
p4773
(lp4774
I1
aI0
asVtenere
p4775
(lp4776
I1
aI2
asVdipr
p4777
(lp4778
I0
aI3
asVpolitecnico
p4779
(lp4780
I0
aI12
asVsegreta
p4781
(lp4782
I2
aI0
asVorientale
p4783
(lp4784
I2
aI0
asVlimena
p4785
(lp4786
I0
aI3
asVpadova
p4787
(lp4788
I5
aI0
asVinfo
p4789
(lp4790
I22
aI0
asVpaolo
p4791
(lp4792
I0
aI5
asVdeodoranti
p4793
(lp4794
I0
aI2
asVunieco
p4795
(lp4796
I0
aI2
asVmobile
p4797
(lp4798
I0
aI2
asVcircuito
p4799
(lp4800
I15
aI9
asVstagione
p4801
(lp4802
I57
aI87
asVmattiello
p4803
(lp4804
I3
aI0
asVsgomberata
p4805
(lp4806
I2
aI0
asVcaldoro
p4807
(lp4808
I3
aI0
asVmoriva
p4809
(lp4810
I2
aI2
asVdrusian
p4811
(lp4812
I2
aI0
asVtito
p4813
(lp4814
I2
aI0
asVcronologia
p4815
(lp4816
I2
aI0
asVnas
p4817
(lp4818
I0
aI2
asVportato
p4819
(lp4820
I3
aI6
asVmanhattan
p4821
(lp4822
I0
aI7
asVmerlino
p4823
(lp4824
I6
aI0
asVtecom
p4825
(lp4826
I0
aI3
asVdrag
p4827
(lp4828
I0
aI1
asVseduta
p4829
(lp4830
I2
aI2
asVvisite
p4831
(lp4832
I0
aI3
asVvisita
p4833
(lp4834
I10
aI19
asVvaccari
p4835
(lp4836
I4
aI0
asVdvd
p4837
(lp4838
I2
aI0
asVyoutube
p4839
(lp4840
I6
aI6
asVusufruito
p4841
(lp4842
I2
aI1
asVdvt
p4843
(lp4844
I4
aI0
asVizzo
p4845
(lp4846
I0
aI3
asVgt
p4847
(lp4848
I0
aI2
asVvenduto
p4849
(lp4850
I0
aI1
asVgb
p4851
(lp4852
I14
aI5
asVvuole
p4853
(lp4854
I25
aI37
asVgm
p4855
(lp4856
I0
aI12
asVkate
p4857
(lp4858
I3
aI0
asVgi
p4859
(lp4860
I0
aI3
asVvaccinazioni
p4861
(lp4862
I3
aI15
asVstava
p4863
(lp4864
I5
aI0
asVdanza
p4865
(lp4866
I3
aI8
asVspesso
p4867
(lp4868
I11
aI20
asVsuite
p4869
(lp4870
I0
aI3
asVrecuperare
p4871
(lp4872
I0
aI6
asVfotocamera
p4873
(lp4874
I5
aI4
asVnomine
p4875
(lp4876
I3
aI0
asVnomina
p4877
(lp4878
I3
aI0
asVg8
p4879
(lp4880
I3
aI0
asVtavolo
p4881
(lp4882
I4
aI4
asVfacebook
p4883
(lp4884
I36
aI48
asVtavole
p4885
(lp4886
I2
aI0
asVgender
p4887
(lp4888
I45
aI27
asVcongiunta
p4889
(lp4890
I6
aI2
asVbarbara
p4891
(lp4892
I3
aI7
asVcrescita
p4893
(lp4894
I2
aI0
asVmuffe
p4895
(lp4896
I9
aI0
asVmuffa
p4897
(lp4898
I11
aI0
asVsultano
p4899
(lp4900
I6
aI0
asVblitz
p4901
(lp4902
I14
aI6
asVmutuo
p4903
(lp4904
I6
aI6
asVmutui
p4905
(lp4906
I0
aI2
asVdownload
p4907
(lp4908
I4
aI0
asVvolere
p4909
(lp4910
I2
aI2
asVedifici
p4911
(lp4912
I0
aI16
asVgiustizia
p4913
(lp4914
I4
aI0
asVespresso
p4915
(lp4916
I9
aI0
asVscottature
p4917
(lp4918
I3
aI6
asVcuneo
p4919
(lp4920
I2
aI20
asVquell
p4921
(lp4922
I0
aI7
asVsportiva
p4923
(lp4924
I6
aI0
asVnigalidze
p4925
(lp4926
I0
aI3
asVsposasse
p4927
(lp4928
I0
aI1
asVsalterello
p4929
(lp4930
I2
aI0
asVkissinger
p4931
(lp4932
I13
aI0
asVlamentele
p4933
(lp4934
I0
aI2
asVviolento
p4935
(lp4936
I2
aI4
asVormezzano
p4937
(lp4938
I1
aI0
asVdichiara
p4939
(lp4940
I12
aI0
asVorgogliosi
p4941
(lp4942
I2
aI0
asValessandria
p4943
(lp4944
I93
aI71
asVcamera
p4945
(lp4946
I2
aI30
asVmaschi
p4947
(lp4948
I3
aI7
asVfrida
p4949
(lp4950
I6
aI0
asVavvocati
p4951
(lp4952
I14
aI11
asVavvocato
p4953
(lp4954
I7
aI7
asVpunito
p4955
(lp4956
I0
aI2
asVattivit
p4957
(lp4958
I36
aI32
asVdentista
p4959
(lp4960
I5
aI4
asVdentisti
p4961
(lp4962
I2
aI5
asVtassista
p4963
(lp4964
I2
aI2
asVcrollo
p4965
(lp4966
I3
aI0
asVammesso
p4967
(lp4968
I4
aI0
asVdevono
p4969
(lp4970
I6
aI0
asVzuffa
p4971
(lp4972
I0
aI1
asVsalar
p4973
(lp4974
I2
aI0
asVsalas
p4975
(lp4976
I2
aI0
asVjerkovic
p4977
(lp4978
I4
aI2
asVskira
p4979
(lp4980
I0
aI2
asVcantante
p4981
(lp4982
I15
aI9
asVsantuario
p4983
(lp4984
I0
aI6
asVradioattivit
p4985
(lp4986
I0
aI3
asVvolano
p4987
(lp4988
I0
aI1
asVpertosse
p4989
(lp4990
I0
aI12
asVsentimenti
p4991
(lp4992
I4
aI0
asVgalleria
p4993
(lp4994
I8
aI0
asValiquote
p4995
(lp4996
I3
aI0
asValiquota
p4997
(lp4998
I6
aI0
asVintenzioni
p4999
(lp5000
I0
aI2
asVchisso
p5001
(lp5002
I0
aI7
asVspelling
p5003
(lp5004
I8
aI4
asVpagare
p5005
(lp5006
I4
aI5
asVoperazioni
p5007
(lp5008
I0
aI16
asVscoop
p5009
(lp5010
I0
aI2
asVconoscenza
p5011
(lp5012
I0
aI12
asVprevidenziali
p5013
(lp5014
I0
aI2
asVottimo
p5015
(lp5016
I0
aI3
asVoperazione
p5017
(lp5018
I29
aI20
asVgiovanissimi
p5019
(lp5020
I0
aI2
asVspero
p5021
(lp5022
I1
aI0
asVcruise
p5023
(lp5024
I0
aI4
asVaffleck
p5025
(lp5026
I0
aI2
asVdebitore
p5027
(lp5028
I0
aI13
asVpenalizzazione
p5029
(lp5030
I2
aI8
asVmadre
p5031
(lp5032
I54
aI75
asVzecche
p5033
(lp5034
I0
aI1
asVegizio
p5035
(lp5036
I7
aI0
asVauto
p5037
(lp5038
I42
aI14
asVnokia
p5039
(lp5040
I5
aI10
asVgwyneth
p5041
(lp5042
I0
aI2
asVuniversity
p5043
(lp5044
I14
aI5
asVlettere
p5045
(lp5046
I11
aI1
asVmoda
p5047
(lp5048
I4
aI2
asVnazareno
p5049
(lp5050
I0
aI3
asVmodi
p5051
(lp5052
I6
aI0
asVcandela
p5053
(lp5054
I2
aI0
asVmodo
p5055
(lp5056
I32
aI24
asVmargini
p5057
(lp5058
I0
aI2
asVtrovare
p5059
(lp5060
I9
aI1
asVinteramente
p5061
(lp5062
I4
aI0
asVrayhons
p5063
(lp5064
I6
aI0
asVmorton
p5065
(lp5066
I3
aI0
asVriproduzione
p5067
(lp5068
I7
aI0
asVcommesso
p5069
(lp5070
I2
aI4
asVvicedirettore
p5071
(lp5072
I3
aI0
asVcausa
p5073
(lp5074
I2
aI6
asVtorres
p5075
(lp5076
I3
aI0
asVwatermark
p5077
(lp5078
I3
aI0
asVeco
p5079
(lp5080
I5
aI0
asVapprofittato
p5081
(lp5082
I2
aI2
asVchecco
p5083
(lp5084
I8
aI6
asVetero
p5085
(lp5086
I0
aI7
asVlevaldigi
p5087
(lp5088
I0
aI2
asVvacci
p5089
(lp5090
I3
aI2
asVprotagonista
p5091
(lp5092
I6
aI6
asVgalline
p5093
(lp5094
I3
aI0
asVimbecille
p5095
(lp5096
I6
aI6
asVtimes
p5097
(lp5098
I2
aI9
asVscioglimento
p5099
(lp5100
I5
aI0
asVapprovato
p5101
(lp5102
I0
aI9
asVsbarramento
p5103
(lp5104
I2
aI0
asVdifetti
p5105
(lp5106
I4
aI0
asVart
p5107
(lp5108
I123
aI43
asVsemestrali
p5109
(lp5110
I1
aI0
asVestreme
p5111
(lp5112
I0
aI2
asVdata
p5113
(lp5114
I2
aI4
asVveglio
p5115
(lp5116
I0
aI3
asVuccisione
p5117
(lp5118
I1
aI0
asVoggetto
p5119
(lp5120
I4
aI7
asVfuoco
p5121
(lp5122
I8
aI12
asVesecuzione
p5123
(lp5124
I0
aI7
asVsecca
p5125
(lp5126
I4
aI8
asVliste
p5127
(lp5128
I3
aI163
asVoicr
p5129
(lp5130
I6
aI0
asVlista
p5131
(lp5132
I8
aI144
asVscriveva
p5133
(lp5134
I0
aI2
asVstimate
p5135
(lp5136
I4
aI0
asVsulas
p5137
(lp5138
I3
aI4
asVspurs
p5139
(lp5140
I0
aI1
asVesposito
p5141
(lp5142
I0
aI4
asVfumetti
p5143
(lp5144
I0
aI6
asVfumetto
p5145
(lp5146
I3
aI0
asVsacro
p5147
(lp5148
I4
aI0
asVgranata
p5149
(lp5150
I14
aI4
asVtakashima
p5151
(lp5152
I0
aI1
asVrecupererai
p5153
(lp5154
I1
aI1
asVudienze
p5155
(lp5156
I5
aI6
asVudienza
p5157
(lp5158
I2
aI16
asVrubricarle
p5159
(lp5160
I0
aI1
asVlaterale
p5161
(lp5162
I2
aI0
asVverrebbe
p5163
(lp5164
I1
aI0
asVvertice
p5165
(lp5166
I0
aI5
asVlapucci
p5167
(lp5168
I6
aI4
asVvertici
p5169
(lp5170
I3
aI6
asVdetector
p5171
(lp5172
I11
aI0
asVsedere
p5173
(lp5174
I1
aI0
asVveronique
p5175
(lp5176
I0
aI2
asVmangiare
p5177
(lp5178
I17
aI7
asVgallery
p5179
(lp5180
I0
aI4
asVwilcox
p5181
(lp5182
I0
aI2
asVesplosione
p5183
(lp5184
I0
aI6
asVsilenzio
p5185
(lp5186
I0
aI6
asVcentinaia
p5187
(lp5188
I6
aI0
asVanticipazioni
p5189
(lp5190
I19
aI23
asVdistanza
p5191
(lp5192
I4
aI8
asVportare
p5193
(lp5194
I0
aI2
asVbelkin
p5195
(lp5196
I4
aI0
asVvenerd
p5197
(lp5198
I1
aI7
asVvenere
p5199
(lp5200
I1
aI2
asVpasso
p5201
(lp5202
I9
aI6
asVfinanziari
p5203
(lp5204
I3
aI2
asVscuole
p5205
(lp5206
I23
aI13
asVtira
p5207
(lp5208
I4
aI0
asVscuola
p5209
(lp5210
I76
aI64
asVnotturna
p5211
(lp5212
I3
aI6
asVnotturno
p5213
(lp5214
I3
aI0
asVtiri
p5215
(lp5216
I2
aI2
asVriaprire
p5217
(lp5218
I3
aI0
asVlibri
p5219
(lp5220
I3
aI4
asVprofessori
p5221
(lp5222
I0
aI3
asVdodge
p5223
(lp5224
I2
aI0
asVsasse
p5225
(lp5226
I2
aI2
asVsiberiano
p5227
(lp5228
I4
aI0
asVpodio
p5229
(lp5230
I2
aI3
asVreperibilit
p5231
(lp5232
I0
aI1
asVcondominiale
p5233
(lp5234
I3
aI0
asVmagistrati
p5235
(lp5236
I6
aI6
asVpellicola
p5237
(lp5238
I7
aI0
asV730ex
p5239
(lp5240
I3
aI0
asVurgenza
p5241
(lp5242
I4
aI2
asVfelipe
p5243
(lp5244
I5
aI2
asVgran
p5245
(lp5246
I2
aI2
asVentrare
p5247
(lp5248
I2
aI0
asVassociazione
p5249
(lp5250
I8
aI0
asVproiezione
p5251
(lp5252
I4
aI0
asVassociazioni
p5253
(lp5254
I0
aI3
asVmarchisio
p5255
(lp5256
I0
aI3
asVriprese
p5257
(lp5258
I8
aI0
asVporzio
p5259
(lp5260
I0
aI2
asVinsomma
p5261
(lp5262
I0
aI8
asVshabab
p5263
(lp5264
I2
aI0
asVmaga
p5265
(lp5266
I6
aI4
asVpromiscuit
p5267
(lp5268
I3
aI3
asVabbonati
p5269
(lp5270
I2
aI10
asVchinare
p5271
(lp5272
I4
aI0
asVmetano
p5273
(lp5274
I4
aI4
asVtrova
p5275
(lp5276
I7
aI2
asVlimite
p5277
(lp5278
I0
aI5
asVswarovski
p5279
(lp5280
I4
aI0
asVimpiegato
p5281
(lp5282
I2
aI6
asVperturbazione
p5283
(lp5284
I0
aI2
asVricorrere
p5285
(lp5286
I24
aI19
asVsbarcati
p5287
(lp5288
I5
aI3
asVlimiti
p5289
(lp5290
I0
aI21
asVdimagrire
p5291
(lp5292
I5
aI4
asVrimorchiatore
p5293
(lp5294
I0
aI2
asVdortmund
p5295
(lp5296
I19
aI27
asVgomme
p5297
(lp5298
I0
aI3
asVquiz
p5299
(lp5300
I0
aI8
asVbianchi
p5301
(lp5302
I0
aI3
asVindustriale
p5303
(lp5304
I0
aI4
asVovviamente
p5305
(lp5306
I0
aI3
asVhernandez
p5307
(lp5308
I0
aI2
asVvinci
p5309
(lp5310
I7
aI0
asVarginina
p5311
(lp5312
I22
aI8
asVvince
p5313
(lp5314
I1
aI0
asVterrorizzata
p5315
(lp5316
I2
aI4
asVsovrintendente
p5317
(lp5318
I0
aI2
asVtormentone
p5319
(lp5320
I0
aI1
asVgozi
p5321
(lp5322
I5
aI0
asVmasiello
p5323
(lp5324
I2
aI0
asVfondi
p5325
(lp5326
I0
aI8
asVspiccherai
p5327
(lp5328
I1
aI1
asVfondo
p5329
(lp5330
I0
aI13
asVmazzacurati
p5331
(lp5332
I0
aI10
asVattacchi
p5333
(lp5334
I0
aI4
asVtramonto
p5335
(lp5336
I0
aI2
asVsimone
p5337
(lp5338
I16
aI6
asVsimoni
p5339
(lp5340
I2
aI0
asVviarie
p5341
(lp5342
I0
aI1
asVdecine
p5343
(lp5344
I0
aI3
asVschittulli
p5345
(lp5346
I6
aI2
asVparto
p5347
(lp5348
I4
aI0
asVviaggio
p5349
(lp5350
I2
aI2
asVparty
p5351
(lp5352
I0
aI2
asVviaggia
p5353
(lp5354
I1
aI1
asVanimazione
p5355
(lp5356
I5
aI0
asVcondominio
p5357
(lp5358
I0
aI3
asVcuoco
p5359
(lp5360
I0
aI3
asVodontotecnico
p5361
(lp5362
I2
aI3
asVtatuaggi
p5363
(lp5364
I2
aI0
asVrifo
p5365
(lp5366
I0
aI4
asVsorgenti
p5367
(lp5368
I4
aI4
asVonda
p5369
(lp5370
I8
aI4
asVpensa
p5371
(lp5372
I0
aI2
asVonde
p5373
(lp5374
I2
aI2
asVtrattiene
p5375
(lp5376
I0
aI2
asVpenso
p5377
(lp5378
I3
aI2
asVsofia
p5379
(lp5380
I0
aI2
asVdovere
p5381
(lp5382
I2
aI0
asVmarocco
p5383
(lp5384
I9
aI8
asVlaurea
p5385
(lp5386
I0
aI2
asVstudenski
p5387
(lp5388
I1
aI0
asVortopediche
p5389
(lp5390
I0
aI3
asVcaldaia
p5391
(lp5392
I0
aI5
asVdeposito
p5393
(lp5394
I0
aI2
asVnati
p5395
(lp5396
I0
aI3
asVcaldaie
p5397
(lp5398
I0
aI6
asVdepositi
p5399
(lp5400
I4
aI0
asVnata
p5401
(lp5402
I8
aI4
asVsottratti
p5403
(lp5404
I2
aI0
asVfate
p5405
(lp5406
I2
aI0
asVscientifici
p5407
(lp5408
I1
aI0
asVgiornali
p5409
(lp5410
I0
aI2
asVmilanese
p5411
(lp5412
I6
aI0
asVmegapixel
p5413
(lp5414
I7
aI0
asVgiornale
p5415
(lp5416
I0
aI2
asVcalcolo
p5417
(lp5418
I0
aI5
asVpolisportiva
p5419
(lp5420
I3
aI0
asVfernando
p5421
(lp5422
I0
aI3
asVazioni
p5423
(lp5424
I73
aI40
asVpago
p5425
(lp5426
I16
aI8
asVpaga
p5427
(lp5428
I13
aI10
asVazione
p5429
(lp5430
I3
aI8
asVvincitore
p5431
(lp5432
I4
aI3
asVtwitter
p5433
(lp5434
I44
aI33
asVcongresso
p5435
(lp5436
I4
aI0
asVpeiretti
p5437
(lp5438
I0
aI10
asVsferrato
p5439
(lp5440
I2
aI2
asVorganizzazione
p5441
(lp5442
I9
aI0
asVfanno
p5443
(lp5444
I4
aI26
asVsicuramente
p5445
(lp5446
I0
aI2
asVvarcato
p5447
(lp5448
I1
aI0
asVnida
p5449
(lp5450
I0
aI3
asVevitare
p5451
(lp5452
I0
aI2
asVjournal
p5453
(lp5454
I0
aI2
asVrisarcimento
p5455
(lp5456
I6
aI2
asVautorit
p5457
(lp5458
I0
aI5
asVtroverai
p5459
(lp5460
I0
aI1
asVautostrada
p5461
(lp5462
I20
aI7
asVartista
p5463
(lp5464
I8
aI0
asVwashington
p5465
(lp5466
I8
aI3
asVinterstellar
p5467
(lp5468
I2
aI0
asVpistola
p5469
(lp5470
I8
aI0
asVlamanna
p5471
(lp5472
I2
aI4
asVmississippi
p5473
(lp5474
I2
aI0
asVtrattenute
p5475
(lp5476
I1
aI1
asVtrevorrow
p5477
(lp5478
I0
aI31
asVspaziale
p5479
(lp5480
I60
aI75
asVsuzuka
p5481
(lp5482
I0
aI2
asVmiliardari
p5483
(lp5484
I0
aI2
asVgluteo
p5485
(lp5486
I0
aI3
asVscattato
p5487
(lp5488
I0
aI2
asVmerisi
p5489
(lp5490
I3
aI0
asVdartmoor
p5491
(lp5492
I0
aI2
asVriparazione
p5493
(lp5494
I0
aI5
asVultima
p5495
(lp5496
I5
aI7
asVliberazione
p5497
(lp5498
I3
aI0
asVultime
p5499
(lp5500
I10
aI12
asVveicoli
p5501
(lp5502
I2
aI5
asVultimi
p5503
(lp5504
I17
aI11
asVschieramento
p5505
(lp5506
I0
aI1
asVhd
p5507
(lp5508
I0
aI8
asVsucco
p5509
(lp5510
I2
aI0
asVanteprime
p5511
(lp5512
I4
aI0
asVshowgirl
p5513
(lp5514
I2
aI0
asVventennio
p5515
(lp5516
I1
aI0
asVutensili
p5517
(lp5518
I3
aI0
asVpenna
p5519
(lp5520
I0
aI2
asVurne
p5521
(lp5522
I3
aI0
asVstrumento
p5523
(lp5524
I6
aI13
asVstumpo
p5525
(lp5526
I0
aI2
asVstrumenti
p5527
(lp5528
I16
aI6
asVrumore
p5529
(lp5530
I0
aI4
asVfinch
p5531
(lp5532
I6
aI6
asVpacifico
p5533
(lp5534
I0
aI3
asVingredienti
p5535
(lp5536
I5
aI6
asVstar
p5537
(lp5538
I15
aI17
asVtredici
p5539
(lp5540
I0
aI1
asVadditionally
p5541
(lp5542
I5
aI3
asVtasso
p5543
(lp5544
I0
aI2
asVfinanziamento
p5545
(lp5546
I0
aI6
asVtasse
p5547
(lp5548
I10
aI10
asVfinanziamenti
p5549
(lp5550
I2
aI0
asVstai
p5551
(lp5552
I1
aI1
asVstazione
p5553
(lp5554
I25
aI33
asVsamsung
p5555
(lp5556
I13
aI6
asVbce
p5557
(lp5558
I202
aI142
asVscafisti
p5559
(lp5560
I0
aI2
asVprotesi
p5561
(lp5562
I0
aI12
asVschiacciandola
p5563
(lp5564
I0
aI2
asVimmigrazione
p5565
(lp5566
I5
aI2
asVpresenta
p5567
(lp5568
I4
aI0
asVpresente
p5569
(lp5570
I21
aI2
asVciao
p5571
(lp5572
I0
aI3
asVfronte
p5573
(lp5574
I4
aI14
asVpopolo
p5575
(lp5576
I5
aI18
asVpensioni
p5577
(lp5578
I29
aI10
asVpensione
p5579
(lp5580
I14
aI14
asVwinfrey
p5581
(lp5582
I2
aI0
asVindossare
p5583
(lp5584
I6
aI4
asVcavaliere
p5585
(lp5586
I5
aI5
asVcredono
p5587
(lp5588
I0
aI4
asVcommons
p5589
(lp5590
I0
aI5
asVmanifestante
p5591
(lp5592
I32
aI32
asVuccidendo
p5593
(lp5594
I3
aI3
asVazionario
p5595
(lp5596
I0
aI4
asVsconfitta
p5597
(lp5598
I2
aI2
asVfalco
p5599
(lp5600
I35
aI78
asVpalpa
p5601
(lp5602
I0
aI2
asVente
p5603
(lp5604
I9
aI0
asVenti
p5605
(lp5606
I12
aI0
asVposizione
p5607
(lp5608
I14
aI41
asVposizioni
p5609
(lp5610
I0
aI3
asVtipo
p5611
(lp5612
I4
aI3
asVscriveteci
p5613
(lp5614
I1
aI0
asVfuga
p5615
(lp5616
I3
aI11
asVpropri
p5617
(lp5618
I2
aI2
asVcorteccia
p5619
(lp5620
I0
aI3
asVnanni
p5621
(lp5622
I5
aI0
asVsettimane
p5623
(lp5624
I3
aI0
asVmet
p5625
(lp5626
I0
aI2
asVpedro
p5627
(lp5628
I3
aI0
asVmetanfetamina
p5629
(lp5630
I3
aI0
asVresto
p5631
(lp5632
I1
aI1
asVresta
p5633
(lp5634
I4
aI4
asVmarotta
p5635
(lp5636
I8
aI10
asVkeita
p5637
(lp5638
I0
aI3
asVjoshua
p5639
(lp5640
I1
aI0
asVscaduto
p5641
(lp5642
I0
aI2
asVsvizzera
p5643
(lp5644
I4
aI0
asVsvizzeri
p5645
(lp5646
I0
aI2
asVvietato
p5647
(lp5648
I0
aI1
asVpolietilene
p5649
(lp5650
I0
aI9
asVtela
p5651
(lp5652
I0
aI4
asVroviner
p5653
(lp5654
I0
aI2
asVarma
p5655
(lp5656
I5
aI0
asVsnowden
p5657
(lp5658
I3
aI0
asVliguria
p5659
(lp5660
I23
aI8
asValitalia
p5661
(lp5662
I5
aI2
asVteofilo
p5663
(lp5664
I0
aI1
asVlunga
p5665
(lp5666
I2
aI0
asVlungi
p5667
(lp5668
I4
aI0
asVquaid
p5669
(lp5670
I3
aI0
asVwestbrook
p5671
(lp5672
I3
aI3
asVsuggestivo
p5673
(lp5674
I0
aI1
asVperdita
p5675
(lp5676
I0
aI2
asVcandidatura
p5677
(lp5678
I0
aI7
asVvorreste
p5679
(lp5680
I1
aI0
asVhoney
p5681
(lp5682
I0
aI2
asVcarico
p5683
(lp5684
I12
aI14
asVprincipe
p5685
(lp5686
I4
aI4
asVlicenziare
p5687
(lp5688
I0
aI3
asVautonomi
p5689
(lp5690
I0
aI2
asVuffici
p5691
(lp5692
I12
aI0
asVbandiera
p5693
(lp5694
I0
aI5
asVbraida
p5695
(lp5696
I6
aI5
asVcacciola
p5697
(lp5698
I8
aI0
asVrd180
p5699
(lp5700
I4
aI0
asVprogrammatori
p5701
(lp5702
I0
aI3
asVtrucchi
p5703
(lp5704
I2
aI0
asVcataldi
p5705
(lp5706
I0
aI2
asVfiamme
p5707
(lp5708
I2
aI2
asVcogne
p5709
(lp5710
I0
aI3
asVvariabili
p5711
(lp5712
I0
aI3
asVtagli
p5713
(lp5714
I5
aI4
asVtrazione
p5715
(lp5716
I3
aI1
asVsiedemzero
p5717
(lp5718
I0
aI1
asVoperata
p5719
(lp5720
I4
aI2
asVfifa
p5721
(lp5722
I0
aI2
asVsospetta
p5723
(lp5724
I2
aI0
asVsospetto
p5725
(lp5726
I2
aI0
asVcentrale
p5727
(lp5728
I20
aI4
asVstronza
p5729
(lp5730
I2
aI0
asVceduto
p5731
(lp5732
I0
aI2
asVmaneggio
p5733
(lp5734
I0
aI3
asValcune
p5735
(lp5736
I3
aI0
asVdimostrare
p5737
(lp5738
I2
aI2
asVviolazione
p5739
(lp5740
I9
aI10
asVviolazioni
p5741
(lp5742
I1
aI5
asVpianisti
p5743
(lp5744
I0
aI6
asVisee
p5745
(lp5746
I3
aI0
asVpatracchini
p5747
(lp5748
I0
aI3
asVcantieri
p5749
(lp5750
I5
aI0
asVcommestibili
p5751
(lp5752
I0
aI2
asVluce
p5753
(lp5754
I4
aI8
asVpanini
p5755
(lp5756
I2
aI4
asVluca
p5757
(lp5758
I9
aI8
asVmeal
p5759
(lp5760
I0
aI2
asVbond
p5761
(lp5762
I2
aI4
asVbarletta
p5763
(lp5764
I0
aI6
asVnave
p5765
(lp5766
I7
aI9
asVaida
p5767
(lp5768
I0
aI3
asVverdone
p5769
(lp5770
I0
aI1
asVmilan
p5771
(lp5772
I2
aI7
asVvelvet
p5773
(lp5774
I4
aI32
asVraccomandazioni
p5775
(lp5776
I2
aI2
asVimmagine
p5777
(lp5778
I34
aI30
asVimmagini
p5779
(lp5780
I6
aI13
asVcolazione
p5781
(lp5782
I3
aI0
asVsciiti
p5783
(lp5784
I0
aI11
asVvolare
p5785
(lp5786
I0
aI2
asVvenezuela
p5787
(lp5788
I2
aI0
asVfoto
p5789
(lp5790
I41
aI43
asVcorteggiatore
p5791
(lp5792
I2
aI0
asVsanremo
p5793
(lp5794
I2
aI8
asVtrequartista
p5795
(lp5796
I0
aI2
asVramos
p5797
(lp5798
I0
aI4
asVrendono
p5799
(lp5800
I2
aI2
asViss
p5801
(lp5802
I12
aI16
asVaccetta
p5803
(lp5804
I15
aI16
asVmahindra
p5805
(lp5806
I1
aI0
asVassalto
p5807
(lp5808
I3
aI0
asVaccusati
p5809
(lp5810
I2
aI0
asVprofessione
p5811
(lp5812
I2
aI2
asVgrado
p5813
(lp5814
I14
aI22
asVvittorio
p5815
(lp5816
I1
aI3
asVpesante
p5817
(lp5818
I0
aI4
asVvittoria
p5819
(lp5820
I31
aI15
asVvittorie
p5821
(lp5822
I3
aI0
asVvenezia
p5823
(lp5824
I1
aI9
asVlucciole
p5825
(lp5826
I2
aI0
asVcalore
p5827
(lp5828
I0
aI3
asVdipartimento
p5829
(lp5830
I3
aI0
asVfatta
p5831
(lp5832
I3
aI5
asVusufruiranno
p5833
(lp5834
I0
aI1
asVhollywood
p5835
(lp5836
I2
aI3
asVungherese
p5837
(lp5838
I3
aI3
asVrequisito
p5839
(lp5840
I3
aI0
asVmattino
p5841
(lp5842
I2
aI3
asVmattina
p5843
(lp5844
I2
aI3
asVspoiler
p5845
(lp5846
I3
aI0
asVmatteo
p5847
(lp5848
I9
aI8
asVnegozio
p5849
(lp5850
I0
aI3
asVmini
p5851
(lp5852
I2
aI3
asVasparagi
p5853
(lp5854
I0
aI8
asVtrovano
p5855
(lp5856
I5
aI2
asVaeronautico
p5857
(lp5858
I0
aI6
asVcarfora
p5859
(lp5860
I3
aI0
asVsvendita
p5861
(lp5862
I1
aI0
asVmario
p5863
(lp5864
I6
aI22
asVregular
p5865
(lp5866
I0
aI3
asVriservare
p5867
(lp5868
I1
aI0
asVtenerezze
p5869
(lp5870
I1
aI0
asVsomme
p5871
(lp5872
I0
aI4
asVtradir
p5873
(lp5874
I0
aI1
asVdog
p5875
(lp5876
I0
aI7
asVaglio
p5877
(lp5878
I0
aI4
asVcomunismo
p5879
(lp5880
I6
aI18
asVdover
p5881
(lp5882
I6
aI8
asViniziato
p5883
(lp5884
I2
aI4
asVrispetteremo
p5885
(lp5886
I1
aI0
asVdeducibile
p5887
(lp5888
I5
aI0
asVsolitudine
p5889
(lp5890
I2
aI0
asVintegrato
p5891
(lp5892
I4
aI0
asVquadrati
p5893
(lp5894
I2
aI0
asVricevuto
p5895
(lp5896
I7
aI2
asVvendeva
p5897
(lp5898
I1
aI0
asVconvive
p5899
(lp5900
I0
aI2
asVvattene
p5901
(lp5902
I0
aI2
asVdicendo
p5903
(lp5904
I0
aI3
asVsorvegliano
p5905
(lp5906
I2
aI0
asVbar
p5907
(lp5908
I31
aI21
asVvestito
p5909
(lp5910
I5
aI18
asVterzino
p5911
(lp5912
I4
aI2
asVvestita
p5913
(lp5914
I1
aI1
asVmediazione
p5915
(lp5916
I3
aI0
asVdisco
p5917
(lp5918
I0
aI6
asVbad
p5919
(lp5920
I2
aI0
asVcerca
p5921
(lp5922
I2
aI0
asVinquinati
p5923
(lp5924
I0
aI3
asVoruro
p5925
(lp5926
I2
aI0
asVsorta
p5927
(lp5928
I14
aI8
asVsorte
p5929
(lp5930
I2
aI2
asVsoluzione
p5931
(lp5932
I23
aI18
asVsapere
p5933
(lp5934
I21
aI9
asVsoluzioni
p5935
(lp5936
I5
aI4
asVedoardo
p5937
(lp5938
I3
aI0
asVfz1000
p5939
(lp5940
I4
aI0
asVcrede
p5941
(lp5942
I2
aI0
asVavvicinato
p5943
(lp5944
I4
aI8
asVfuturo
p5945
(lp5946
I2
aI0
asVolimpico
p5947
(lp5948
I3
aI7
asVerdogan
p5949
(lp5950
I33
aI9
asVurla
p5951
(lp5952
I0
aI2
asVurlo
p5953
(lp5954
I0
aI2
asVpratt
p5955
(lp5956
I0
aI29
asVesattoriali
p5957
(lp5958
I3
aI0
asVenzo
p5959
(lp5960
I0
aI18
asVrappresentato
p5961
(lp5962
I10
aI6
asVpiante
p5963
(lp5964
I0
aI14
asVbacheca
p5965
(lp5966
I0
aI2
asVperiscope
p5967
(lp5968
I0
aI5
asVgrigio
p5969
(lp5970
I3
aI4
asVstrappo
p5971
(lp5972
I1
aI15
asVimmobile
p5973
(lp5974
I0
aI2
asVimmobili
p5975
(lp5976
I15
aI0
asVreferendum
p5977
(lp5978
I2
aI0
asValcun
p5979
(lp5980
I2
aI0
asVmeravigliosamente
p5981
(lp5982
I4
aI0
asVwebsite
p5983
(lp5984
I0
aI2
asVmci
p5985
(lp5986
I5
aI10
asVpista
p5987
(lp5988
I5
aI0
asVfotografia
p5989
(lp5990
I0
aI2
asVvoga
p5991
(lp5992
I0
aI2
asVvendetta
p5993
(lp5994
I0
aI4
asVforlanini
p5995
(lp5996
I4
aI0
asVgioved
p5997
(lp5998
I0
aI4
asVservit
p5999
(lp6000
I0
aI6
asVcane
p6001
(lp6002
I20
aI39
asVritorno
p6003
(lp6004
I20
aI25
asVirruzione
p6005
(lp6006
I3
aI0
asVlinguaggio
p6007
(lp6008
I22
aI18
asVjalisse
p6009
(lp6010
I2
aI0
asVcani
p6011
(lp6012
I8
aI0
asVgianni
p6013
(lp6014
I3
aI3
asVseattle
p6015
(lp6016
I0
aI3
asVitunes
p6017
(lp6018
I0
aI8
asVbello
p6019
(lp6020
I0
aI3
asVassolti
p6021
(lp6022
I2
aI0
asVbelli
p6023
(lp6024
I4
aI0
asVparisi
p6025
(lp6026
I8
aI24
asVbella
p6027
(lp6028
I9
aI8
asVnardis
p6029
(lp6030
I0
aI2
asVribadisce
p6031
(lp6032
I3
aI0
asVlaboccetta
p6033
(lp6034
I9
aI0
asVluned
p6035
(lp6036
I3
aI0
asVpassato
p6037
(lp6038
I3
aI4
asVkid
p6039
(lp6040
I9
aI3
asVserata
p6041
(lp6042
I5
aI4
asVrecarsi
p6043
(lp6044
I0
aI4
asVinsegnato
p6045
(lp6046
I0
aI3
asVvercellese
p6047
(lp6048
I0
aI1
asVpresto
p6049
(lp6050
I4
aI3
asVmateriali
p6051
(lp6052
I2
aI6
asVqualit
p6053
(lp6054
I23
aI13
asVroma
p6055
(lp6056
I94
aI116
asVpubblicit
p6057
(lp6058
I11
aI3
asVgipo
p6059
(lp6060
I0
aI5
asVemergenza
p6061
(lp6062
I5
aI7
asVsindonologi
p6063
(lp6064
I0
aI6
asVgrimaldi
p6065
(lp6066
I5
aI0
asVelkann
p6067
(lp6068
I0
aI10
asVvende
p6069
(lp6070
I2
aI0
asVvedova
p6071
(lp6072
I0
aI1
asVvedove
p6073
(lp6074
I0
aI1
asVcandidati
p6075
(lp6076
I0
aI27
asVsfida
p6077
(lp6078
I9
aI13
asVjules
p6079
(lp6080
I0
aI3
asVtrasmissione
p6081
(lp6082
I8
aI2
asVnegozi
p6083
(lp6084
I24
aI12
asVmassa
p6085
(lp6086
I9
aI0
asVndrangheta
p6087
(lp6088
I4
aI3
asVsave
p6089
(lp6090
I7
aI3
asVraciti
p6091
(lp6092
I0
aI3
asVscatto
p6093
(lp6094
I2
aI2
asVmargherita
p6095
(lp6096
I0
aI6
asVvanity
p6097
(lp6098
I0
aI4
asVpalermo
p6099
(lp6100
I20
aI10
asVpotrebbero
p6101
(lp6102
I4
aI1
asVdead
p6103
(lp6104
I0
aI3
asVtortosa
p6105
(lp6106
I233
aI237
asVanello
p6107
(lp6108
I0
aI3
asVnervoso
p6109
(lp6110
I2
aI0
asVarmadio
p6111
(lp6112
I5
aI7
asVvede
p6113
(lp6114
I8
aI15
asVvedo
p6115
(lp6116
I0
aI1
asVcarta
p6117
(lp6118
I8
aI0
asVcarte
p6119
(lp6120
I0
aI2
asVaumenta
p6121
(lp6122
I3
aI6
asVmaometto
p6123
(lp6124
I0
aI7
asVaumento
p6125
(lp6126
I36
aI46
asVcosenza
p6127
(lp6128
I0
aI3
asVbolt
p6129
(lp6130
I7
aI0
asVautogrill
p6131
(lp6132
I0
aI6
asVricoperto
p6133
(lp6134
I5
aI0
asVsuper
p6135
(lp6136
I0
aI1
asVtrilogia
p6137
(lp6138
I0
aI3
asVbadili
p6139
(lp6140
I0
aI3
asVpotos
p6141
(lp6142
I2
aI0
asVanalisi
p6143
(lp6144
I0
aI4
asVbisogna
p6145
(lp6146
I17
aI12
asVgiornalisti
p6147
(lp6148
I5
aI0
asVgiornalista
p6149
(lp6150
I6
aI13
asVcapacit
p6151
(lp6152
I4
aI4
asVtecnologia
p6153
(lp6154
I8
aI10
asVcuor
p6155
(lp6156
I0
aI2
asVselfie
p6157
(lp6158
I2
aI0
asVsergio
p6159
(lp6160
I4
aI1
asVtsipras
p6161
(lp6162
I2
aI0
asVpasseggino
p6163
(lp6164
I2
aI3
asVcarrasco
p6165
(lp6166
I8
aI20
asVindice
p6167
(lp6168
I10
aI0
asVtennis
p6169
(lp6170
I12
aI0
asVbattistolli
p6171
(lp6172
I0
aI2
asVattuativo
p6173
(lp6174
I3
aI0
asVfranzoni
p6175
(lp6176
I0
aI7
asVvolato
p6177
(lp6178
I0
aI2
asVbagno
p6179
(lp6180
I5
aI0
asVabitanti
p6181
(lp6182
I2
aI0
asVforl
p6183
(lp6184
I2
aI0
asVmarted
p6185
(lp6186
I5
aI0
asVford
p6187
(lp6188
I0
aI3
asVventinovenne
p6189
(lp6190
I0
aI1
asVdiventare
p6191
(lp6192
I2
aI2
asVcontenuto
p6193
(lp6194
I5
aI2
asVmesia
p6195
(lp6196
I0
aI2
asVeconomia
p6197
(lp6198
I5
aI3
asVcontenute
p6199
(lp6200
I5
aI2
asVtucson
p6201
(lp6202
I1
aI0
asVviolenza
p6203
(lp6204
I7
aI3
asVmessaggi
p6205
(lp6206
I9
aI0
asVcarbonizzato
p6207
(lp6208
I2
aI0
asVrecupero
p6209
(lp6210
I0
aI4
asVdominante
p6211
(lp6212
I0
aI10
asVgiardiello
p6213
(lp6214
I9
aI9
asVesposizione
p6215
(lp6216
I6
aI0
asVpopolare
p6217
(lp6218
I44
aI2
asVvisti
p6219
(lp6220
I4
aI2
asVtossine
p6221
(lp6222
I7
aI7
asVacque
p6223
(lp6224
I5
aI5
asVrussa
p6225
(lp6226
I0
aI1
asVacqua
p6227
(lp6228
I45
aI45
asVrusso
p6229
(lp6230
I0
aI3
asVsostenere
p6231
(lp6232
I0
aI2
asVattivista
p6233
(lp6234
I12
aI6
asVscusa
p6235
(lp6236
I34
aI17
asVsalt
p6237
(lp6238
I2
aI0
asVpseudo
p6239
(lp6240
I14
aI12
asVdaily
p6241
(lp6242
I0
aI5
asVfocardi
p6243
(lp6244
I4
aI0
asVdirigenza
p6245
(lp6246
I3
aI0
asVpancione
p6247
(lp6248
I2
aI0
asVwalking
p6249
(lp6250
I3
aI3
asVmanager
p6251
(lp6252
I0
aI4
asVskin
p6253
(lp6254
I0
aI2
asVdepositata
p6255
(lp6256
I2
aI0
asVmilo
p6257
(lp6258
I0
aI7
asVsega
p6259
(lp6260
I0
aI2
asVsanno
p6261
(lp6262
I3
aI7
asVtorno
p6263
(lp6264
I0
aI1
asVtorna
p6265
(lp6266
I2
aI15
asVfurch
p6267
(lp6268
I0
aI3
asVsimulazione
p6269
(lp6270
I12
aI0
asVlibia
p6271
(lp6272
I2
aI2
asVgouldin
p6273
(lp6274
I0
aI1
asVsmartphone
p6275
(lp6276
I11
aI16
asVzebina
p6277
(lp6278
I3
aI2
asVlynch
p6279
(lp6280
I0
aI3
asVtrarre
p6281
(lp6282
I0
aI2
asVdio
p6283
(lp6284
I39
aI26
asVspeciale
p6285
(lp6286
I2
aI1
asVspiritualit
p6287
(lp6288
I0
aI6
asVspeciali
p6289
(lp6290
I2
aI0
asVstrasburgo
p6291
(lp6292
I4
aI7
asVdirettamente
p6293
(lp6294
I13
aI2
asVindagata
p6295
(lp6296
I0
aI7
asVumiliata
p6297
(lp6298
I0
aI2
asVpiermario
p6299
(lp6300
I9
aI8
asVindagati
p6301
(lp6302
I2
aI9
asVsemifinale
p6303
(lp6304
I0
aI2
asVsfoga
p6305
(lp6306
I1
aI0
asVverificare
p6307
(lp6308
I2
aI1
asVsiriani
p6309
(lp6310
I5
aI1
asVsomalia
p6311
(lp6312
I2
aI0
asVsiriana
p6313
(lp6314
I0
aI4
asVinternational
p6315
(lp6316
I5
aI0
asVdieci
p6317
(lp6318
I4
aI6
asVtravolto
p6319
(lp6320
I0
aI1
asVirreversibile
p6321
(lp6322
I0
aI4
asVagosto
p6323
(lp6324
I33
aI13
asVmacchine
p6325
(lp6326
I6
aI4
asVmacchina
p6327
(lp6328
I1
aI17
asVcaravaggio
p6329
(lp6330
I7
aI12
asVbox
p6331
(lp6332
I0
aI2
asVboy
p6333
(lp6334
I2
aI0
asVhbo
p6335
(lp6336
I12
aI0
asVtvez
p6337
(lp6338
I0
aI5
asVrespirazione
p6339
(lp6340
I3
aI6
asVbob
p6341
(lp6342
I0
aI4
asVkebab
p6343
(lp6344
I0
aI2
asVspietata
p6345
(lp6346
I2
aI0
asVfranco
p6347
(lp6348
I10
aI2
asVsarzana
p6349
(lp6350
I2
aI0
asVbazar
p6351
(lp6352
I7
aI0
asVsanllehi
p6353
(lp6354
I4
aI0
asVsegnalazioni
p6355
(lp6356
I0
aI2
asVtributario
p6357
(lp6358
I2
aI0
asVtifosi
p6359
(lp6360
I76
aI57
asVtifoso
p6361
(lp6362
I2
aI4
asVdublino
p6363
(lp6364
I0
aI4
asVquietanza
p6365
(lp6366
I3
aI0
asVdormire
p6367
(lp6368
I0
aI4
asVveridicit
p6369
(lp6370
I1
aI1
asVarrivo
p6371
(lp6372
I4
aI2
asVolanda
p6373
(lp6374
I15
aI14
asVambientali
p6375
(lp6376
I9
aI0
asVprobabilit
p6377
(lp6378
I2
aI4
asVbohannon
p6379
(lp6380
I3
aI0
asVula
p6381
(lp6382
I9
aI0
asVhiroshima
p6383
(lp6384
I2
aI0
asVmarocchino
p6385
(lp6386
I0
aI2
asVschwazer
p6387
(lp6388
I3
aI3
asVlobbying
p6389
(lp6390
I9
aI0
asVpericolo
p6391
(lp6392
I2
aI0
asVpalla
p6393
(lp6394
I6
aI0
asVdennis
p6395
(lp6396
I2
aI0
asVpink
p6397
(lp6398
I1
aI0
asVurinario
p6399
(lp6400
I1
aI0
asVparco
p6401
(lp6402
I3
aI62
asVmaestro
p6403
(lp6404
I0
aI5
asVultimamente
p6405
(lp6406
I0
aI1
asVmax
p6407
(lp6408
I0
aI5
asVmac
p6409
(lp6410
I3
aI0
asVcollocamento
p6411
(lp6412
I0
aI3
asVmal
p6413
(lp6414
I3
aI0
asVman
p6415
(lp6416
I0
aI10
asVjohnson
p6417
(lp6418
I0
aI5
asVfacile
p6419
(lp6420
I7
aI2
asVvieira
p6421
(lp6422
I1
aI0
asVbusnelli
p6423
(lp6424
I7
aI0
asVavana
p6425
(lp6426
I4
aI0
asVtali
p6427
(lp6428
I9
aI0
asVchilometri
p6429
(lp6430
I4
aI5
asVamericani
p6431
(lp6432
I3
aI3
asVjosephine
p6433
(lp6434
I8
aI10
asVstabilite
p6435
(lp6436
I1
aI0
asVestera
p6437
(lp6438
I3
aI0
asVpellicole
p6439
(lp6440
I3
aI0
asVirene
p6441
(lp6442
I4
aI0
asVlegame
p6443
(lp6444
I8
aI4
asVestero
p6445
(lp6446
I0
aI2
asVgroup
p6447
(lp6448
I0
aI2
asVcinematografici
p6449
(lp6450
I3
aI0
asVyorkshire
p6451
(lp6452
I0
aI1
asVspettacolo
p6453
(lp6454
I2
aI14
asVostuni
p6455
(lp6456
I3
aI3
asVterrorizzato
p6457
(lp6458
I0
aI1
asVpolicy
p6459
(lp6460
I12
aI8
asVmail
p6461
(lp6462
I2
aI15
asVchiesa
p6463
(lp6464
I0
aI3
asVjaneiro
p6465
(lp6466
I0
aI3
asVkiller
p6467
(lp6468
I6
aI4
asVidentificarsi
p6469
(lp6470
I1
aI0
asVsorrisi
p6471
(lp6472
I2
aI0
asVattuale
p6473
(lp6474
I3
aI0
asVzaia
p6475
(lp6476
I9
aI0
asVgravidanza
p6477
(lp6478
I11
aI5
asVcorano
p6479
(lp6480
I0
aI2
asVvetus
p6481
(lp6482
I0
aI2
asVolio
p6483
(lp6484
I0
aI21
asVproteine
p6485
(lp6486
I0
aI2
asVsigarette
p6487
(lp6488
I13
aI0
asVscellerata
p6489
(lp6490
I0
aI1
asVsigaretta
p6491
(lp6492
I11
aI2
asVgenerazione
p6493
(lp6494
I0
aI7
asVpersonaggi
p6495
(lp6496
I2
aI11
asVumile
p6497
(lp6498
I2
aI0
asVgiro
p6499
(lp6500
I1
aI3
asValessia
p6501
(lp6502
I0
aI7
asVgiri
p6503
(lp6504
I6
aI0
asVcanada
p6505
(lp6506
I0
aI12
asVriunione
p6507
(lp6508
I4
aI0
asVmanduki
p6509
(lp6510
I2
aI2
asVpreparava
p6511
(lp6512
I0
aI2
asVancorch
p6513
(lp6514
I0
aI2
asVpizzeria
p6515
(lp6516
I2
aI2
asVnazismo
p6517
(lp6518
I5
aI9
asVfisico
p6519
(lp6520
I3
aI3
asVfisica
p6521
(lp6522
I16
aI8
asVscintille
p6523
(lp6524
I2
aI1
asVyuri
p6525
(lp6526
I0
aI2
asVbrooke
p6527
(lp6528
I2
aI0
asVtigre
p6529
(lp6530
I0
aI2
asVvariabile
p6531
(lp6532
I3
aI0
asVprincipi
p6533
(lp6534
I2
aI2
asVlascia
p6535
(lp6536
I0
aI3
asVlyons
p6537
(lp6538
I0
aI2
asVamericana
p6539
(lp6540
I9
aI6
asVcentrali
p6541
(lp6542
I0
aI10
asVdungeons
p6543
(lp6544
I3
aI0
asVcarro
p6545
(lp6546
I0
aI2
asVfast
p6547
(lp6548
I14
aI0
asVcuoio
p6549
(lp6550
I0
aI3
asVformale
p6551
(lp6552
I3
aI3
asVeffettuate
p6553
(lp6554
I0
aI10
asVibrahimovic
p6555
(lp6556
I2
aI4
asVeffettuata
p6557
(lp6558
I0
aI2
asVraccontare
p6559
(lp6560
I1
aI1
asVmeme
p6561
(lp6562
I12
aI4
asVtommasi
p6563
(lp6564
I0
aI3
asVorganizzata
p6565
(lp6566
I0
aI2
asVsento
p6567
(lp6568
I9
aI10
asVtommaso
p6569
(lp6570
I6
aI0
asVsente
p6571
(lp6572
I2
aI8
asValtra
p6573
(lp6574
I6
aI0
asVhillary
p6575
(lp6576
I26
aI5
asVtrascorsa
p6577
(lp6578
I1
aI0
asVtrascorso
p6579
(lp6580
I4
aI8
asVtecnica
p6581
(lp6582
I10
aI5
asVtecnici
p6583
(lp6584
I6
aI4
asVatleta
p6585
(lp6586
I0
aI2
asVtecnico
p6587
(lp6588
I25
aI15
asVventura
p6589
(lp6590
I9
aI2
asVrimanga
p6591
(lp6592
I2
aI4
asVsanzione
p6593
(lp6594
I0
aI5
asVcasale
p6595
(lp6596
I12
aI14
asVpiccolo
p6597
(lp6598
I27
aI26
asVpiccoli
p6599
(lp6600
I6
aI2
asVmarijuana
p6601
(lp6602
I14
aI20
asVsanzioni
p6603
(lp6604
I3
aI0
asVurticanti
p6605
(lp6606
I2
aI0
asVregionale
p6607
(lp6608
I24
aI26
asVpubblicazioni
p6609
(lp6610
I0
aI5
asVgiacca
p6611
(lp6612
I0
aI2
asVtrentanovenne
p6613
(lp6614
I0
aI5
asVsassuolo
p6615
(lp6616
I2
aI2
asVopportunit
p6617
(lp6618
I0
aI11
asVperformance
p6619
(lp6620
I8
aI13
asVcontrasti
p6621
(lp6622
I3
aI0
asVverona
p6623
(lp6624
I3
aI2
asVlegale
p6625
(lp6626
I4
aI4
asVnolan
p6627
(lp6628
I0
aI2
asVcorrente
p6629
(lp6630
I6
aI5
asVpremi
p6631
(lp6632
I2
aI0
asVrating
p6633
(lp6634
I0
aI3
asVprecisa
p6635
(lp6636
I1
aI0
asVbellerin
p6637
(lp6638
I5
aI0
asVcartella
p6639
(lp6640
I3
aI3
asVagenzia
p6641
(lp6642
I149
aI85
asVpassando
p6643
(lp6644
I2
aI0
asVricchi
p6645
(lp6646
I2
aI4
asVdico
p6647
(lp6648
I0
aI4
asVblack
p6649
(lp6650
I0
aI6
asVranking
p6651
(lp6652
I0
aI8
asVgel
p6653
(lp6654
I0
aI6
asVsegni
p6655
(lp6656
I2
aI0
asVridotta
p6657
(lp6658
I4
aI2
asVfarmacia
p6659
(lp6660
I4
aI0
asVsegno
p6661
(lp6662
I11
aI5
asVlondon
p6663
(lp6664
I9
aI0
asVpezzopane
p6665
(lp6666
I3
aI6
asVfecondazione
p6667
(lp6668
I0
aI15
asVricca
p6669
(lp6670
I0
aI2
asVrelativa
p6671
(lp6672
I0
aI4
asVsean
p6673
(lp6674
I0
aI8
asVrelativi
p6675
(lp6676
I2
aI2
asVsoddisfatto
p6677
(lp6678
I2
aI11
asVmarmo
p6679
(lp6680
I4
aI0
asVproposte
p6681
(lp6682
I10
aI0
asVproposta
p6683
(lp6684
I25
aI27
asVmarvin
p6685
(lp6686
I5
aI0
asVvanno
p6687
(lp6688
I9
aI12
asVveramente
p6689
(lp6690
I3
aI0
asVvanni
p6691
(lp6692
I0
aI1
asVoyala
p6693
(lp6694
I0
aI3
asVquadro
p6695
(lp6696
I3
aI0
asVcertificazione
p6697
(lp6698
I2
aI0
asVspremuto
p6699
(lp6700
I7
aI7
asVprospetto
p6701
(lp6702
I2
aI2
asVvento
p6703
(lp6704
I2
aI4
asVelefante
p6705
(lp6706
I2
aI3
asVrugby
p6707
(lp6708
I9
aI0
asVtrasferimento
p6709
(lp6710
I4
aI3
asVdedicata
p6711
(lp6712
I4
aI0
asVsaggistica
p6713
(lp6714
I1
aI0
asVtour
p6715
(lp6716
I0
aI8
asVstorica
p6717
(lp6718
I3
aI0
asVstorico
p6719
(lp6720
I19
aI16
asVstorici
p6721
(lp6722
I3
aI5
asVspano
p6723
(lp6724
I0
aI4
asVsolitamente
p6725
(lp6726
I0
aI4
asVballata
p6727
(lp6728
I4
aI0
asVmare
p6729
(lp6730
I15
aI14
asVdelitto
p6731
(lp6732
I0
aI8
asVbarra
p6733
(lp6734
I0
aI10
asVarte
p6735
(lp6736
I10
aI36
asVvillaggio
p6737
(lp6738
I3
aI3
asVindustria
p6739
(lp6740
I8
aI4
asVshopping
p6741
(lp6742
I10
aI13
asVvitalit
p6743
(lp6744
I2
aI0
asVvendere
p6745
(lp6746
I3
aI0
asVcatania
p6747
(lp6748
I2
aI5
asVviaggi
p6749
(lp6750
I4
aI2
asVimpero
p6751
(lp6752
I0
aI3
asVzenga
p6753
(lp6754
I2
aI0
asVantisemita
p6755
(lp6756
I0
aI7
asVpronuncia
p6757
(lp6758
I0
aI2
asViowa
p6759
(lp6760
I6
aI0
asVsuwaidi
p6761
(lp6762
I0
aI5
asVpirlo
p6763
(lp6764
I34
aI45
asVpap
p6765
(lp6766
I21
aI5
asVpozzi
p6767
(lp6768
I0
aI5
asVsami
p6769
(lp6770
I3
aI0
asVpozzo
p6771
(lp6772
I0
aI2
asVpepa
p6773
(lp6774
I5
aI0
asVrifugio
p6775
(lp6776
I16
aI8
asVsamp
p6777
(lp6778
I0
aI1
asVassisi
p6779
(lp6780
I0
aI2
asVvertebra
p6781
(lp6782
I0
aI2
asVintimo
p6783
(lp6784
I10
aI0
asVtraccia
p6785
(lp6786
I8
aI0
asVtrasparenza
p6787
(lp6788
I7
aI0
asVfumo
p6789
(lp6790
I4
aI0
asVscelto
p6791
(lp6792
I4
aI2
asVscelta
p6793
(lp6794
I22
aI6
asVmcdonald
p6795
(lp6796
I102
aI42
asVinsofferenza
p6797
(lp6798
I8
aI6
asVtrucco
p6799
(lp6800
I4
aI4
asVtrenord
p6801
(lp6802
I8
aI14
asVmedioevale
p6803
(lp6804
I0
aI4
asVricerca
p6805
(lp6806
I44
aI50
asVgrid
p6807
(lp6808
I4
aI0
asVattrice
p6809
(lp6810
I27
aI49
asVparlato
p6811
(lp6812
I3
aI2
asVserver
p6813
(lp6814
I7
aI3
asVproprie
p6815
(lp6816
I3
aI0
asVpropria
p6817
(lp6818
I12
aI16
asVrapinatore
p6819
(lp6820
I3
aI0
asVdeterioramento
p6821
(lp6822
I3
aI6
asVascend
p6823
(lp6824
I8
aI0
asVpantaloni
p6825
(lp6826
I3
aI3
asVstaffa
p6827
(lp6828
I2
aI0
asVtestata
p6829
(lp6830
I0
aI1
asVstaffe
p6831
(lp6832
I1
aI0
asVmeccanico
p6833
(lp6834
I0
aI3
asVellie
p6835
(lp6836
I0
aI1
asVtoledano
p6837
(lp6838
I0
aI3
asVfluidi
p6839
(lp6840
I0
aI6
asVabercrombie
p6841
(lp6842
I18
aI12
asVmeccanica
p6843
(lp6844
I4
aI0
asVinterdizione
p6845
(lp6846
I0
aI4
asVsostegno
p6847
(lp6848
I0
aI3
asVsecondi
p6849
(lp6850
I7
aI0
asVsqualo
p6851
(lp6852
I2
aI10
asVsquali
p6853
(lp6854
I2
aI1
asVvergnano
p6855
(lp6856
I0
aI3
asVsquale
p6857
(lp6858
I1
aI0
asVseconda
p6859
(lp6860
I48
aI14
asVroar
p6861
(lp6862
I4
aI0
asVisland
p6863
(lp6864
I0
aI5
asVdivent
p6865
(lp6866
I3
aI0
asVcondanna
p6867
(lp6868
I0
aI3
asVmessaggistica
p6869
(lp6870
I0
aI2
asVauschwitz
p6871
(lp6872
I4
aI0
asVmemoriale
p6873
(lp6874
I2
aI2
asVeinstein
p6875
(lp6876
I0
aI3
asVlandi
p6877
(lp6878
I3
aI0
asVgomez
p6879
(lp6880
I0
aI1
asVsostituti
p6881
(lp6882
I0
aI9
asVlione
p6883
(lp6884
I0
aI10
asVshiller
p6885
(lp6886
I3
aI0
asVsostituto
p6887
(lp6888
I9
aI1
asVprocuratore
p6889
(lp6890
I2
aI0
asVscendono
p6891
(lp6892
I0
aI2
asVcomodamente
p6893
(lp6894
I0
aI2
asVpreparato
p6895
(lp6896
I6
aI0
asVcalabria
p6897
(lp6898
I3
aI4
asVbanksy
p6899
(lp6900
I5
aI0
asVodontoiatra
p6901
(lp6902
I0
aI2
asVcorso
p6903
(lp6904
I6
aI10
asVpalamuso
p6905
(lp6906
I0
aI2
asVcorsa
p6907
(lp6908
I0
aI2
asVemissione
p6909
(lp6910
I0
aI4
asVstupro
p6911
(lp6912
I6
aI0
asVronaldo
p6913
(lp6914
I3
aI4
asVvice
p6915
(lp6916
I1
aI2
asVvhs
p6917
(lp6918
I4
aI0
asVaiutare
p6919
(lp6920
I0
aI3
asVadriano
p6921
(lp6922
I0
aI4
asVrientrare
p6923
(lp6924
I1
aI0
asVinteresse
p6925
(lp6926
I10
aI3
asVcontagio
p6927
(lp6928
I0
aI3
asVinteressi
p6929
(lp6930
I16
aI14
asVcarpa
p6931
(lp6932
I2
aI0
asVgeneral
p6933
(lp6934
I0
aI12
asVmisure
p6935
(lp6936
I0
aI5
asVturchia
p6937
(lp6938
I67
aI13
asVfilm
p6939
(lp6940
I113
aI123
asVgiappone
p6941
(lp6942
I4
aI0
asVcontrattuale
p6943
(lp6944
I0
aI3
asVeuroparlamento
p6945
(lp6946
I6
aI0
asVnasa
p6947
(lp6948
I0
aI2
asVancelotti
p6949
(lp6950
I0
aI7
asVprelevamenti
p6951
(lp6952
I0
aI5
asVbersani
p6953
(lp6954
I10
aI0
asVobbligo
p6955
(lp6956
I0
aI5
asVpioli
p6957
(lp6958
I4
aI2
asVscarseggia
p6959
(lp6960
I1
aI1
asVscoliosi
p6961
(lp6962
I2
aI2
asVmassaggi
p6963
(lp6964
I0
aI2
asVstudenti
p6965
(lp6966
I45
aI25
asVchris
p6967
(lp6968
I4
aI31
asVhusky
p6969
(lp6970
I4
aI8
asVcasta
p6971
(lp6972
I0
aI8
asVdiffuso
p6973
(lp6974
I2
aI0
asVcooperativa
p6975
(lp6976
I4
aI0
asVregno
p6977
(lp6978
I3
aI0
asVliam
p6979
(lp6980
I1
aI3
asVcooperativo
p6981
(lp6982
I14
aI0
asVchildren
p6983
(lp6984
I4
aI0
asVritenute
p6985
(lp6986
I1
aI4
asVritenuta
p6987
(lp6988
I1
aI0
asVpensare
p6989
(lp6990
I0
aI2
asVamante
p6991
(lp6992
I0
aI4
asVricette
p6993
(lp6994
I2
aI2
asVtwittato
p6995
(lp6996
I1
aI0
asValberto
p6997
(lp6998
I4
aI42
asVhee
p6999
(lp7000
I2
aI2
asVspogliatoio
p7001
(lp7002
I0
aI2
asVemmers
p7003
(lp7004
I4
aI0
asVinnovazione
p7005
(lp7006
I5
aI9
asVdictatorship
p7007
(lp7008
I0
aI2
asVstrangola
p7009
(lp7010
I2
aI0
asVkemeny
p7011
(lp7012
I4
aI0
asVvigore
p7013
(lp7014
I0
aI2
asVverosimile
p7015
(lp7016
I0
aI1
asVcardiovascolare
p7017
(lp7018
I4
aI4
asVcharlize
p7019
(lp7020
I0
aI8
asVmultistrada
p7021
(lp7022
I16
aI0
asVsicura
p7023
(lp7024
I3
aI0
asVventimiglia
p7025
(lp7026
I31
aI22
asVpadrone
p7027
(lp7028
I2
aI0
asVwyeth
p7029
(lp7030
I0
aI1
asVworldhotelriparoma
p7031
(lp7032
I1
aI0
asVperone
p7033
(lp7034
I2
aI0
asVtributo
p7035
(lp7036
I0
aI4
asVdiaz
p7037
(lp7038
I185
aI184
asVgenocidio
p7039
(lp7040
I67
aI28
asVveltroni
p7041
(lp7042
I9
aI16
asVpublic
p7043
(lp7044
I5
aI0
asVproduttivit
p7045
(lp7046
I2
aI0
asVmontovoli
p7047
(lp7048
I6
aI24
asVchiudere
p7049
(lp7050
I2
aI0
asVtrasferita
p7051
(lp7052
I3
aI3
asVtrezeguet
p7053
(lp7054
I2
aI6
asVtrifone
p7055
(lp7056
I5
aI3
asVseguite
p7057
(lp7058
I1
aI0
asVseguita
p7059
(lp7060
I2
aI0
asVconte
p7061
(lp7062
I17
aI12
asVmedico
p7063
(lp7064
I35
aI2
asVconta
p7065
(lp7066
I4
aI4
asVmedici
p7067
(lp7068
I15
aI5
asVconto
p7069
(lp7070
I21
aI19
asVconti
p7071
(lp7072
I12
aI3
asVbehnaz
p7073
(lp7074
I3
aI0
asVstelle
p7075
(lp7076
I8
aI11
asVspettanti
p7077
(lp7078
I3
aI0
asVfemen
p7079
(lp7080
I4
aI4
asVsalvare
p7081
(lp7082
I0
aI6
asVaria
p7083
(lp7084
I3
aI0
asVpaniere
p7085
(lp7086
I0
aI4
asVasta
p7087
(lp7088
I32
aI55
asVrafa
p7089
(lp7090
I0
aI6
asVtorri
p7091
(lp7092
I0
aI1
asVfarinacci
p7093
(lp7094
I4
aI0
asVtorre
p7095
(lp7096
I4
aI2
asVapertura
p7097
(lp7098
I0
aI2
asVguarda
p7099
(lp7100
I4
aI0
asVvladimir
p7101
(lp7102
I0
aI1
asVarchitettura
p7103
(lp7104
I3
aI7
asVtabelle
p7105
(lp7106
I0
aI1
asVdef
p7107
(lp7108
I4
aI8
asVhamburger
p7109
(lp7110
I30
aI14
asVsugge
p7111
(lp7112
I0
aI1
asVshare
p7113
(lp7114
I1
aI0
asVshard
p7115
(lp7116
I3
aI0
asVcarmagnola
p7117
(lp7118
I3
aI0
asVmorti
p7119
(lp7120
I8
aI3
asVmorto
p7121
(lp7122
I0
aI3
asVimponibile
p7123
(lp7124
I0
aI4
asVsemplicit
p7125
(lp7126
I0
aI3
asVlasciare
p7127
(lp7128
I3
aI2
asVmorte
p7129
(lp7130
I5
aI11
asVgassman
p7131
(lp7132
I20
aI15
asVeditrice
p7133
(lp7134
I0
aI8
asVsalernitano
p7135
(lp7136
I3
aI0
asVfeltri
p7137
(lp7138
I4
aI3
asVlonghena
p7139
(lp7140
I3
aI0
asVsalernitana
p7141
(lp7142
I4
aI0
asVviene
p7143
(lp7144
I62
aI61
asVraggiungere
p7145
(lp7146
I0
aI4
asVbertinotti
p7147
(lp7148
I0
aI2
asVpininfarina
p7149
(lp7150
I3
aI0
asVsistema
p7151
(lp7152
I40
aI17
asVwave
p7153
(lp7154
I2
aI0
asVsistemi
p7155
(lp7156
I4
aI0
asVprovare
p7157
(lp7158
I0
aI2
asVdragon
p7159
(lp7160
I10
aI9
asVparagone
p7161
(lp7162
I2
aI0
asVdeduzione
p7163
(lp7164
I11
aI0
asVilva
p7165
(lp7166
I3
aI0
asVgiannini
p7167
(lp7168
I3
aI0
asVcivile
p7169
(lp7170
I0
aI11
asVenergetica
p7171
(lp7172
I0
aI9
asVcasiraghi
p7173
(lp7174
I2
aI2
asVricevere
p7175
(lp7176
I2
aI0
asVargotec
p7177
(lp7178
I0
aI3
asVpiscina
p7179
(lp7180
I2
aI0
asVgaranzia
p7181
(lp7182
I9
aI2
asVnazione
p7183
(lp7184
I0
aI6
asVpena
p7185
(lp7186
I9
aI7
asVpenn
p7187
(lp7188
I0
aI8
asVnazioni
p7189
(lp7190
I5
aI0
asVgood
p7191
(lp7192
I0
aI1
asViraniana
p7193
(lp7194
I4
aI0
asVscuderia
p7195
(lp7196
I3
aI3
asVvecchio
p7197
(lp7198
I1
aI2
asVvecchie
p7199
(lp7200
I6
aI0
asVtitolo
p7201
(lp7202
I9
aI7
asVtitoli
p7203
(lp7204
I84
aI35
asVvecchia
p7205
(lp7206
I3
aI5
asVvulnerabili
p7207
(lp7208
I0
aI2
asVporto
p7209
(lp7210
I15
aI13
asVdovrete
p7211
(lp7212
I4
aI0
asVspiegato
p7213
(lp7214
I61
aI32
asVporte
p7215
(lp7216
I0
aI3
asVdrake
p7217
(lp7218
I3
aI3
asVporta
p7219
(lp7220
I45
aI28
asVindebitamento
p7221
(lp7222
I0
aI4
asVpazienti
p7223
(lp7224
I6
aI3
asVtelaio
p7225
(lp7226
I0
aI28
asVuniversit
p7227
(lp7228
I24
aI17
asVpaziente
p7229
(lp7230
I18
aI6
asVsviluppare
p7231
(lp7232
I0
aI1
asVhard
p7233
(lp7234
I10
aI6
asVsterline
p7235
(lp7236
I3
aI0
asVcalzedonia
p7237
(lp7238
I10
aI10
asVmacelleria
p7239
(lp7240
I4
aI0
asVputin
p7241
(lp7242
I4
aI0
asVsvolgendo
p7243
(lp7244
I3
aI1
asVutilizzare
p7245
(lp7246
I13
aI10
asVsloan
p7247
(lp7248
I2
aI0
asVpibe
p7249
(lp7250
I1
aI3
asVborgo
p7251
(lp7252
I0
aI2
asVterminale
p7253
(lp7254
I2
aI0
asVcasillas
p7255
(lp7256
I0
aI6
asVtoscano
p7257
(lp7258
I2
aI0
asVluogo
p7259
(lp7260
I2
aI2
asVpiloti
p7261
(lp7262
I7
aI5
asVpilota
p7263
(lp7264
I0
aI4
asVcomando
p7265
(lp7266
I3
aI9
asVcomanda
p7267
(lp7268
I0
aI2
asVvarane
p7269
(lp7270
I0
aI3
asVproprietario
p7271
(lp7272
I6
aI15
asVingiustizia
p7273
(lp7274
I2
aI4
asVvalentino
p7275
(lp7276
I4
aI0
asVtayyip
p7277
(lp7278
I0
aI1
asVvalentina
p7279
(lp7280
I12
aI7
asVshoah
p7281
(lp7282
I11
aI5
asVmerda
p7283
(lp7284
I10
aI5
asVlanghe
p7285
(lp7286
I3
aI3
asVpare
p7287
(lp7288
I5
aI0
asVwolfsburg
p7289
(lp7290
I0
aI3
asVtacco
p7291
(lp7292
I8
aI0
asVpark
p7293
(lp7294
I0
aI40
asVpari
p7295
(lp7296
I3
aI11
asVhiba
p7297
(lp7298
I21
aI12
asVregole
p7299
(lp7300
I29
aI22
asVdossier
p7301
(lp7302
I0
aI3
asVrendimento
p7303
(lp7304
I2
aI0
asVrendimenti
p7305
(lp7306
I0
aI2
asVgiudizio
p7307
(lp7308
I6
aI24
asVinvernale
p7309
(lp7310
I0
aI3
asVinvernali
p7311
(lp7312
I0
aI2
asVtelecomunicazioni
p7313
(lp7314
I1
aI6
asVtelematiche
p7315
(lp7316
I0
aI1
asVautunno
p7317
(lp7318
I4
aI0
asVroba
p7319
(lp7320
I0
aI2
asVovunque
p7321
(lp7322
I2
aI0
asVscendere
p7323
(lp7324
I1
aI0
asVdeterminatore
p7325
(lp7326
I2
aI2
asVprovince
p7327
(lp7328
I2
aI0
asVmacchie
p7329
(lp7330
I4
aI0
asVfondazione
p7331
(lp7332
I23
aI12
asVcolonizzazione
p7333
(lp7334
I0
aI5
asVsettimanale
p7335
(lp7336
I0
aI2
asVkm
p7337
(lp7338
I3
aI0
asVclementi
p7339
(lp7340
I4
aI0
asVpornostar
p7341
(lp7342
I8
aI4
asVseguenti
p7343
(lp7344
I0
aI21
asVthomas
p7345
(lp7346
I2
aI0
asVrispondere
p7347
(lp7348
I16
aI36
asVcarne
p7349
(lp7350
I4
aI3
asVcuspert
p7351
(lp7352
I0
aI3
asVscrittrice
p7353
(lp7354
I5
aI10
asVcommissione
p7355
(lp7356
I41
aI29
asVidiots
p7357
(lp7358
I0
aI7
asVpersonale
p7359
(lp7360
I5
aI0
asVautori
p7361
(lp7362
I0
aI2
asVtrofeo
p7363
(lp7364
I1
aI0
asVtrofei
p7365
(lp7366
I2
aI0
asVrisarcire
p7367
(lp7368
I2
aI2
asVautore
p7369
(lp7370
I0
aI8
asVtarget
p7371
(lp7372
I1
aI0
asVannuale
p7373
(lp7374
I4
aI0
asVm5s
p7375
(lp7376
I0
aI7
asVsuarez
p7377
(lp7378
I1
aI8
asVgarcia
p7379
(lp7380
I0
aI3
asVboeri
p7381
(lp7382
I10
aI0
asVseverino
p7383
(lp7384
I0
aI3
asVarmatura
p7385
(lp7386
I0
aI3
asVcosima
p7387
(lp7388
I0
aI3
asVcontrolli
p7389
(lp7390
I13
aI4
asVscusaci
p7391
(lp7392
I2
aI0
asVdiventato
p7393
(lp7394
I6
aI0
asVdovrebbero
p7395
(lp7396
I0
aI2
asVargento
p7397
(lp7398
I4
aI0
asVchampagne
p7399
(lp7400
I0
aI5
asVprendere
p7401
(lp7402
I5
aI0
asVcatena
p7403
(lp7404
I12
aI6
asVimpegnata
p7405
(lp7406
I2
aI0
asVcatene
p7407
(lp7408
I5
aI0
asVimpegnati
p7409
(lp7410
I0
aI2
asVdividendi
p7411
(lp7412
I2
aI0
asVrestaurant
p7413
(lp7414
I28
aI6
asVfilosofo
p7415
(lp7416
I0
aI5
asVlimone
p7417
(lp7418
I21
aI21
asVstoria
p7419
(lp7420
I52
aI60
asVstorie
p7421
(lp7422
I2
aI10
asVconsumo
p7423
(lp7424
I3
aI0
asVsexy
p7425
(lp7426
I8
aI10
asVstacco
p7427
(lp7428
I1
aI0
asVinquinamento
p7429
(lp7430
I0
aI6
asVmeraviglia
p7431
(lp7432
I0
aI5
asVrete
p7433
(lp7434
I31
aI8
asVrivale
p7435
(lp7436
I1
aI0
asVcreate
p7437
(lp7438
I2
aI2
asVriscaldamento
p7439
(lp7440
I0
aI4
asVtaddei
p7441
(lp7442
I4
aI8
asVgualazzi
p7443
(lp7444
I0
aI4
asVgay
p7445
(lp7446
I11
aI18
asVgas
p7447
(lp7448
I6
aI10
asVfiscale
p7449
(lp7450
I15
aI36
asVgam
p7451
(lp7452
I0
aI2
asVvani
p7453
(lp7454
I0
aI2
asVseguire
p7455
(lp7456
I5
aI6
asVchigi
p7457
(lp7458
I3
aI0
asVraoul
p7459
(lp7460
I5
aI19
asVkodak
p7461
(lp7462
I3
aI0
asVprodotto
p7463
(lp7464
I25
aI11
asVprodotti
p7465
(lp7466
I17
aI8
asVvetrine
p7467
(lp7468
I1
aI0
asVencountered
p7469
(lp7470
I5
aI3
asVmantovani
p7471
(lp7472
I0
aI5
asVsonderkommando
p7473
(lp7474
I2
aI0
asVsarde
p7475
(lp7476
I0
aI3
asVvogliono
p7477
(lp7478
I11
aI6
asVpeggiori
p7479
(lp7480
I0
aI2
asVdittatura
p7481
(lp7482
I0
aI3
asVsandali
p7483
(lp7484
I4
aI0
asVchatterley
p7485
(lp7486
I0
aI4
asVsandalo
p7487
(lp7488
I8
aI0
asVpallone
p7489
(lp7490
I0
aI2
asVcostituzionale
p7491
(lp7492
I25
aI5
asVregistrato
p7493
(lp7494
I4
aI0
asVsorella
p7495
(lp7496
I2
aI6
asVsignor
p7497
(lp7498
I2
aI2
asVentra
p7499
(lp7500
I2
aI0
asVrules
p7501
(lp7502
I0
aI1
asVsacco
p7503
(lp7504
I10
aI4
asVentro
p7505
(lp7506
I8
aI6
asVsalvatore
p7507
(lp7508
I11
aI14
asVswiss
p7509
(lp7510
I0
aI2
asVtass
p7511
(lp7512
I0
aI1
asVstessa
p7513
(lp7514
I33
aI38
asVassolutamente
p7515
(lp7516
I0
aI3
asVstesse
p7517
(lp7518
I0
aI2
asVstessi
p7519
(lp7520
I0
aI2
asVmostruoso
p7521
(lp7522
I0
aI1
asVpermesso
p7523
(lp7524
I0
aI3
asVsnam
p7525
(lp7526
I4
aI0
asVstabilit
p7527
(lp7528
I7
aI1
asVvolo
p7529
(lp7530
I3
aI11
asVbio
p7531
(lp7532
I5
aI0
asVmariella
p7533
(lp7534
I2
aI0
asVuricchio
p7535
(lp7536
I5
aI0
asVospitalit
p7537
(lp7538
I2
aI0
asVbig
p7539
(lp7540
I5
aI4
asVsnob
p7541
(lp7542
I0
aI1
asVbis
p7543
(lp7544
I0
aI24
asVprogrammazione
p7545
(lp7546
I0
aI4
asVnozze
p7547
(lp7548
I0
aI7
asVgoogle
p7549
(lp7550
I60
aI84
asVviolenta
p7551
(lp7552
I0
aI2
asVterritoriali
p7553
(lp7554
I5
aI0
asVmartial
p7555
(lp7556
I10
aI20
asVpricing
p7557
(lp7558
I0
aI6
asVpomodori
p7559
(lp7560
I4
aI0
asVfiglio
p7561
(lp7562
I49
aI28
asVnazisti
p7563
(lp7564
I0
aI7
asVulteriori
p7565
(lp7566
I0
aI2
asVnazista
p7567
(lp7568
I2
aI6
asVulteriore
p7569
(lp7570
I5
aI12
asVavviene
p7571
(lp7572
I0
aI2
asVper
p7573
(lp7574
I56
aI51
asVpel
p7575
(lp7576
I6
aI3
asVeliminata
p7577
(lp7578
I2
aI0
asVpen
p7579
(lp7580
I6
aI0
asVriconducibili
p7581
(lp7582
I0
aI2
asVzucca
p7583
(lp7584
I0
aI2
asVvigoria
p7585
(lp7586
I11
aI8
asVavversari
p7587
(lp7588
I0
aI4
asVfumare
p7589
(lp7590
I9
aI10
asVgioco
p7591
(lp7592
I4
aI2
asVesterno
p7593
(lp7594
I0
aI7
asVpasserelle
p7595
(lp7596
I0
aI1
asVurti
p7597
(lp7598
I0
aI1
asVtifo
p7599
(lp7600
I0
aI1
asVmartinez
p7601
(lp7602
I4
aI0
asVinail
p7603
(lp7604
I2
aI0
asVabdelhadi
p7605
(lp7606
I28
aI20
asVingaggio
p7607
(lp7608
I8
aI4
asVriflessione
p7609
(lp7610
I0
aI3
asVinvita
p7611
(lp7612
I0
aI1
asVcamere
p7613
(lp7614
I25
aI0
asVcosmici
p7615
(lp7616
I24
aI16
asVserie
p7617
(lp7618
I36
aI32
asValtezza
p7619
(lp7620
I0
aI5
asVfotografo
p7621
(lp7622
I2
aI0
asVsostanze
p7623
(lp7624
I3
aI4
asV17enne
p7625
(lp7626
I0
aI4
asVvalore
p7627
(lp7628
I10
aI24
asVvalori
p7629
(lp7630
I4
aI1
asVcerebrale
p7631
(lp7632
I8
aI4
asVsingle
p7633
(lp7634
I6
aI8
asVcura
p7635
(lp7636
I12
aI6
asVcaff
p7637
(lp7638
I42
aI65
asVmateria
p7639
(lp7640
I83
aI58
asVsignificativi
p7641
(lp7642
I0
aI1
asVconfini
p7643
(lp7644
I0
aI2
asVcercato
p7645
(lp7646
I3
aI0
asVsussiste
p7647
(lp7648
I1
aI0
asVpapa
p7649
(lp7650
I87
aI51
asVtrovando
p7651
(lp7652
I1
aI0
asVlotta
p7653
(lp7654
I2
aI3
asVpassaggio
p7655
(lp7656
I0
aI8
asVstriscioni
p7657
(lp7658
I0
aI4
asVregionali
p7659
(lp7660
I9
aI5
asVservizi
p7661
(lp7662
I23
aI35
asVprossime
p7663
(lp7664
I0
aI1
asVrubare
p7665
(lp7666
I0
aI3
asVprossima
p7667
(lp7668
I0
aI4
asVprossimo
p7669
(lp7670
I2
aI3
asVserale
p7671
(lp7672
I0
aI1
asVprossimi
p7673
(lp7674
I2
aI0
asVlotto
p7675
(lp7676
I16
aI0
asVscartano
p7677
(lp7678
I0
aI2
asVfitch
p7679
(lp7680
I18
aI12
asVvasiliev
p7681
(lp7682
I0
aI1
asVcolore
p7683
(lp7684
I4
aI23
asVminori
p7685
(lp7686
I13
aI12
asVsoggettivo
p7687
(lp7688
I0
aI3
asVankara
p7689
(lp7690
I14
aI12
asVaccusa
p7691
(lp7692
I0
aI8
asVtotalmente
p7693
(lp7694
I0
aI4
asVaccuse
p7695
(lp7696
I10
aI12
asVstressati
p7697
(lp7698
I2
aI0
asVaccuso
p7699
(lp7700
I0
aI5
asVevidenze
p7701
(lp7702
I0
aI4
asVshock
p7703
(lp7704
I2
aI0
asVquindici
p7705
(lp7706
I3
aI1
asVspazio
p7707
(lp7708
I10
aI12
asVvelo
p7709
(lp7710
I1
aI1
asVvincoli
p7711
(lp7712
I2
aI4
asVvele
p7713
(lp7714
I2
aI0
asVkobane
p7715
(lp7716
I5
aI0
asVvela
p7717
(lp7718
I1
aI2
asVearth
p7719
(lp7720
I2
aI0
asVinglese
p7721
(lp7722
I3
aI22
asVappena
p7723
(lp7724
I2
aI0
asVcarlo
p7725
(lp7726
I68
aI63
asVelisa
p7727
(lp7728
I3
aI0
asVciclo
p7729
(lp7730
I8
aI3
asVchicago
p7731
(lp7732
I3
aI0
asVfurti
p7733
(lp7734
I6
aI0
asVhuawei
p7735
(lp7736
I17
aI7
asVvigili
p7737
(lp7738
I10
aI16
asVstabilmente
p7739
(lp7740
I0
aI2
asVluiz
p7741
(lp7742
I0
aI3
asVsino
p7743
(lp7744
I0
aI2
asVtalent
p7745
(lp7746
I2
aI3
asVcern
p7747
(lp7748
I8
aI8
asVbolla
p7749
(lp7750
I19
aI8
asVprivato
p7751
(lp7752
I7
aI0
asVschermo
p7753
(lp7754
I4
aI0
asVcasari
p7755
(lp7756
I3
aI0
asVpresidente
p7757
(lp7758
I228
aI173
asVunanime
p7759
(lp7760
I0
aI1
asVoperatrici
p7761
(lp7762
I2
aI4
asVconferenza
p7763
(lp7764
I45
aI43
asVpayne
p7765
(lp7766
I1
aI4
asVversamenti
p7767
(lp7768
I3
aI13
asVversamento
p7769
(lp7770
I2
aI6
asVreagire
p7771
(lp7772
I1
aI0
asVaccount
p7773
(lp7774
I0
aI11
asVdmedia
p7775
(lp7776
I0
aI2
asVtunnel
p7777
(lp7778
I4
aI5
asVmediolanum
p7779
(lp7780
I4
aI0
asVumberto
p7781
(lp7782
I6
aI7
asVstaglia
p7783
(lp7784
I2
aI0
asVpeperoncino
p7785
(lp7786
I0
aI2
asVsalvini
p7787
(lp7788
I8
aI3
asVtaccuino
p7789
(lp7790
I0
aI6
asVregione
p7791
(lp7792
I20
aI17
asVregioni
p7793
(lp7794
I12
aI11
asVvariet
p7795
(lp7796
I1
aI0
asVprofilo
p7797
(lp7798
I0
aI2
asVlicenziamento
p7799
(lp7800
I0
aI6
asVlicenziamenti
p7801
(lp7802
I4
aI0
asVjolanda
p7803
(lp7804
I3
aI0
asVvelocit
p7805
(lp7806
I9
aI2
asVmondrian
p7807
(lp7808
I0
aI11
asVpiacere
p7809
(lp7810
I10
aI10
asVprofessionisti
p7811
(lp7812
I11
aI15
asVprogramma
p7813
(lp7814
I81
aI33
asVverace
p7815
(lp7816
I1
aI0
asVfurious
p7817
(lp7818
I12
aI0
asVprofessionista
p7819
(lp7820
I10
aI17
asVlinee
p7821
(lp7822
I0
aI8
asVlinea
p7823
(lp7824
I10
aI7
asVsubiti
p7825
(lp7826
I1
aI0
asVtronco
p7827
(lp7828
I1
aI1
asVpensionati
p7829
(lp7830
I20
aI16
asVruote
p7831
(lp7832
I0
aI5
asVmeteo
p7833
(lp7834
I0
aI6
asVruota
p7835
(lp7836
I4
aI0
asVspinto
p7837
(lp7838
I2
aI0
asVlt
p7839
(lp7840
I0
aI3
asVandata
p7841
(lp7842
I18
aI0
asVdan
p7843
(lp7844
I0
aI4
asVandato
p7845
(lp7846
I2
aI0
asVreati
p7847
(lp7848
I13
aI4
asVinterventi
p7849
(lp7850
I7
aI7
asVintervento
p7851
(lp7852
I11
aI9
asVvengano
p7853
(lp7854
I1
aI0
asVreato
p7855
(lp7856
I2
aI11
asVgasperini
p7857
(lp7858
I2
aI0
asVritraevano
p7859
(lp7860
I0
aI1
asVpubblicato
p7861
(lp7862
I0
aI4
asVrex
p7863
(lp7864
I0
aI47
asVstudioso
p7865
(lp7866
I0
aI4
asVstudiosi
p7867
(lp7868
I0
aI1
asVistituti
p7869
(lp7870
I4
aI0
asVgiordano
p7871
(lp7872
I2
aI4
asVrem
p7873
(lp7874
I0
aI2
asVposteriore
p7875
(lp7876
I0
aI51
asVcentrosinistra
p7877
(lp7878
I3
aI0
asVfrana
p7879
(lp7880
I4
aI0
asVdisponente
p7881
(lp7882
I0
aI14
asVfrane
p7883
(lp7884
I4
aI0
asVdemocratico
p7885
(lp7886
I0
aI6
asVvalorizzare
p7887
(lp7888
I2
aI1
asVverdini
p7889
(lp7890
I2
aI0
asVtorturatore
p7891
(lp7892
I2
aI0
asVsuccessione
p7893
(lp7894
I7
aI0
asVtorturatori
p7895
(lp7896
I0
aI5
asVricercati
p7897
(lp7898
I1
aI0
asVmarcelo
p7899
(lp7900
I0
aI3
asVrichiede
p7901
(lp7902
I2
aI0
asVespiatori
p7903
(lp7904
I0
aI2
asVjustine
p7905
(lp7906
I4
aI4
asVstrategia
p7907
(lp7908
I4
aI0
asVplastica
p7909
(lp7910
I4
aI0
asVcalderon
p7911
(lp7912
I0
aI4
asVlavaggio
p7913
(lp7914
I3
aI0
asVbrevetto
p7915
(lp7916
I10
aI0
asVbologna
p7917
(lp7918
I3
aI4
asVtribali
p7919
(lp7920
I3
aI1
asVteoricamente
p7921
(lp7922
I7
aI7
asVpotr
p7923
(lp7924
I6
aI0
asVintervistati
p7925
(lp7926
I8
aI4
asVbosco
p7927
(lp7928
I0
aI16
asVpelle
p7929
(lp7930
I7
aI19
asVsfuggono
p7931
(lp7932
I1
aI0
asVgravit
p7933
(lp7934
I0
aI5
asVogr
p7935
(lp7936
I10
aI6
asVtermali
p7937
(lp7938
I6
aI6
asVloves
p7939
(lp7940
I0
aI10
asVpunteggio
p7941
(lp7942
I2
aI5
asVlentamente
p7943
(lp7944
I0
aI3
asVcinquanta
p7945
(lp7946
I0
aI3
asVpresentatore
p7947
(lp7948
I2
aI3
asVsexting
p7949
(lp7950
I0
aI4
asVvideata
p7951
(lp7952
I0
aI2
asVparlare
p7953
(lp7954
I15
aI8
asVtabacco
p7955
(lp7956
I9
aI0
asVincentivi
p7957
(lp7958
I2
aI7
asVtomaso
p7959
(lp7960
I3
aI0
asVestrazioni
p7961
(lp7962
I15
aI0
asVcuore
p7963
(lp7964
I28
aI41
asVestrazione
p7965
(lp7966
I3
aI3
asVmib
p7967
(lp7968
I1
aI0
asVgravity
p7969
(lp7970
I2
aI2
asVdadaab
p7971
(lp7972
I0
aI2
asVbravata
p7973
(lp7974
I0
aI2
asVtagliare
p7975
(lp7976
I0
aI5
asVprocura
p7977
(lp7978
I1
aI2
asVpuntata
p7979
(lp7980
I26
aI43
asVmonetarie
p7981
(lp7982
I0
aI5
asVmonetaria
p7983
(lp7984
I0
aI6
asVmonetario
p7985
(lp7986
I3
aI0
asVcompleanno
p7987
(lp7988
I50
aI23
asVmilano
p7989
(lp7990
I112
aI98
asVparagonarsi
p7991
(lp7992
I4
aI0
asVriforma
p7993
(lp7994
I47
aI27
asVcapito
p7995
(lp7996
I2
aI0
asVriforme
p7997
(lp7998
I40
aI13
asVborgomanero
p7999
(lp8000
I5
aI0
asVprotetto
p8001
(lp8002
I0
aI2
asVtogliersi
p8003
(lp8004
I0
aI1
asVimmortalare
p8005
(lp8006
I0
aI2
asVsparks
p8007
(lp8008
I0
aI2
asVbernard
p8009
(lp8010
I46
aI23
asVvariazioni
p8011
(lp8012
I2
aI3
asVvariazione
p8013
(lp8014
I0
aI1
asVnapoletana
p8015
(lp8016
I2
aI6
asVcercare
p8017
(lp8018
I0
aI2
asVstitichezza
p8019
(lp8020
I0
aI2
asVgalfer
p8021
(lp8022
I4
aI2
asVdifferenza
p8023
(lp8024
I50
aI25
asVtruffatore
p8025
(lp8026
I2
aI0
asVrazza
p8027
(lp8028
I4
aI0
asVpartecipare
p8029
(lp8030
I4
aI2
asVmercedes
p8031
(lp8032
I9
aI6
asVrubata
p8033
(lp8034
I2
aI0
asVgibson
p8035
(lp8036
I3
aI0
asVrubate
p8037
(lp8038
I6
aI0
asVnational
p8039
(lp8040
I2
aI0
asVtrattano
p8041
(lp8042
I0
aI2
asVirpef
p8043
(lp8044
I6
aI6
asVeleonora
p8045
(lp8046
I0
aI6
asVrapimento
p8047
(lp8048
I3
aI0
asVnonostante
p8049
(lp8050
I2
aI5
asVlaureato
p8051
(lp8052
I4
aI0
asVcavani
p8053
(lp8054
I0
aI2
asVmaddox
p8055
(lp8056
I2
aI4
asVprecedente
p8057
(lp8058
I0
aI5
asVbruno
p8059
(lp8060
I5
aI5
asVcanone
p8061
(lp8062
I0
aI5
asVmondaini
p8063
(lp8064
I3
aI3
asVsinistro
p8065
(lp8066
I0
aI2
asVmonopoli
p8067
(lp8068
I0
aI2
asVsinistra
p8069
(lp8070
I11
aI4
asVbatman
p8071
(lp8072
I0
aI2
asVselena
p8073
(lp8074
I0
aI1
asVantica
p8075
(lp8076
I55
aI74
asVcoppie
p8077
(lp8078
I0
aI3
asVcoppia
p8079
(lp8080
I3
aI3
asVpossibile
p8081
(lp8082
I8
aI23
asVorfei
p8083
(lp8084
I0
aI2
asVlyxor
p8085
(lp8086
I1
aI0
asVformazione
p8087
(lp8088
I4
aI0
asVrima
p8089
(lp8090
I0
aI2
asVvent
p8091
(lp8092
I3
aI0
asVfianchi
p8093
(lp8094
I8
aI0
asVpaolini
p8095
(lp8096
I12
aI0
asVimprenditori
p8097
(lp8098
I0
aI5
asVvene
p8099
(lp8100
I5
aI4
asVricordare
p8101
(lp8102
I0
aI1
asVsunniti
p8103
(lp8104
I0
aI18
asVvena
p8105
(lp8106
I0
aI2
asVindicatore
p8107
(lp8108
I2
aI0
asVgaza
p8109
(lp8110
I5
aI0
asVdocumentazione
p8111
(lp8112
I0
aI7
asVrincon
p8113
(lp8114
I2
aI0
asVpoter
p8115
(lp8116
I3
aI5
asVdicembre
p8117
(lp8118
I0
aI36
asVcondomino
p8119
(lp8120
I0
aI2
asVmulta
p8121
(lp8122
I3
aI11
asVcondomini
p8123
(lp8124
I4
aI0
asVdivisione
p8125
(lp8126
I0
aI2
asVarchitetti
p8127
(lp8128
I0
aI2
asVvenne
p8129
(lp8130
I6
aI2
asVinfette
p8131
(lp8132
I3
aI2
asVpartner
p8133
(lp8134
I0
aI2
asVrapido
p8135
(lp8136
I2
aI4
asVfiniti
p8137
(lp8138
I4
aI0
asVshuttle
p8139
(lp8140
I8
aI4
asVdieta
p8141
(lp8142
I17
aI4
asVsamantha
p8143
(lp8144
I6
aI10
asVgiuliani
p8145
(lp8146
I80
aI81
asVdomanda
p8147
(lp8148
I0
aI25
asVgiuliano
p8149
(lp8150
I1
aI0
asVdomande
p8151
(lp8152
I2
aI0
asVsete
p8153
(lp8154
I3
aI2
asVantonio
p8155
(lp8156
I2
aI2
asVtheron
p8157
(lp8158
I0
aI6
asVmoretti
p8159
(lp8160
I17
aI7
asVcanottaggio
p8161
(lp8162
I2
aI0
asVostensione
p8163
(lp8164
I3
aI0
asVmatch
p8165
(lp8166
I0
aI4
asVtesta
p8167
(lp8168
I22
aI15
asVteste
p8169
(lp8170
I3
aI0
asVtematiche
p8171
(lp8172
I2
aI0
asVtesti
p8173
(lp8174
I0
aI2
asVtesto
p8175
(lp8176
I8
aI1
asVdubai
p8177
(lp8178
I0
aI18
asVsuccess
p8179
(lp8180
I9
aI3
asVragazze
p8181
(lp8182
I7
aI10
asVarmani
p8183
(lp8184
I4
aI4
asV70mila
p8185
(lp8186
I0
aI6
asVsoft
p8187
(lp8188
I2
aI0
asVsegreto
p8189
(lp8190
I10
aI10
asVsolitaria
p8191
(lp8192
I0
aI1
asVciufoli
p8193
(lp8194
I0
aI4
asVfacoltativa
p8195
(lp8196
I0
aI9
asVjoachim
p8197
(lp8198
I2
aI0
asVomaggio
p8199
(lp8200
I2
aI0
asVconcessionaria
p8201
(lp8202
I0
aI2
asVcontratto
p8203
(lp8204
I25
aI30
asVcontratti
p8205
(lp8206
I23
aI17
asVbeneficiari
p8207
(lp8208
I0
aI21
asVnotaio
p8209
(lp8210
I0
aI3
asVinteressato
p8211
(lp8212
I28
aI26
asVpaesi
p8213
(lp8214
I4
aI8
asVranieri
p8215
(lp8216
I2
aI0
asVinizio
p8217
(lp8218
I8
aI8
asVplayoff
p8219
(lp8220
I3
aI13
asVtermini
p8221
(lp8222
I31
aI36
asVsceglie
p8223
(lp8224
I3
aI0
asVtermine
p8225
(lp8226
I20
aI43
asVpadiglioni
p8227
(lp8228
I2
aI2
asVgenitore
p8229
(lp8230
I5
aI0
asVtemporale
p8231
(lp8232
I4
aI0
asVgenitori
p8233
(lp8234
I39
aI44
asVbrano
p8235
(lp8236
I0
aI4
asVbuy
p8237
(lp8238
I4
aI0
asVdomiciliare
p8239
(lp8240
I3
aI0
asVventilazione
p8241
(lp8242
I4
aI8
asVglik
p8243
(lp8244
I3
aI4
asVbrand
p8245
(lp8246
I0
aI2
asVdavids
p8247
(lp8248
I3
aI9
asVdisgustata
p8249
(lp8250
I2
aI0
asVcantone
p8251
(lp8252
I8
aI0
asVdavide
p8253
(lp8254
I5
aI6
asVminervini
p8255
(lp8256
I0
aI3
asVprovate
p8257
(lp8258
I0
aI2
asVprovato
p8259
(lp8260
I4
aI5
asVzellweger
p8261
(lp8262
I3
aI9
asVcpc
p8263
(lp8264
I0
aI14
asVpin
p8265
(lp8266
I20
aI15
asVperiodo
p8267
(lp8268
I8
aI49
asVtopless
p8269
(lp8270
I0
aI5
asVfiladelfia
p8271
(lp8272
I12
aI12
asVscossoni
p8273
(lp8274
I0
aI2
asVpip
p8275
(lp8276
I2
aI0
asVcampus
p8277
(lp8278
I5
aI0
asVvivrai
p8279
(lp8280
I1
aI0
asVschiacceremo
p8281
(lp8282
I0
aI1
asVsposarsi
p8283
(lp8284
I1
aI0
asVsbagliato
p8285
(lp8286
I10
aI9
asVfornitore
p8287
(lp8288
I3
aI0
asVmembro
p8289
(lp8290
I3
aI0
asVubi
p8291
(lp8292
I0
aI4
asVphilips
p8293
(lp8294
I0
aI2
asVmancini
p8295
(lp8296
I10
aI13
asVstavano
p8297
(lp8298
I1
aI0
asVdomani
p8299
(lp8300
I3
aI0
asVobiettivo
p8301
(lp8302
I18
aI11
asVporro
p8303
(lp8304
I5
aI0
asV4g
p8305
(lp8306
I7
aI0
asVparole
p8307
(lp8308
I35
aI23
asVporre
p8309
(lp8310
I0
aI2
asVparola
p8311
(lp8312
I3
aI4
asVutilizzata
p8313
(lp8314
I8
aI6
asVutilizzate
p8315
(lp8316
I3
aI0
asVdovrebbe
p8317
(lp8318
I8
aI3
asVservita
p8319
(lp8320
I0
aI1
asVutilizzato
p8321
(lp8322
I3
aI5
asVspeculazione
p8323
(lp8324
I4
aI0
asVbottini
p8325
(lp8326
I0
aI3
asVassemblea
p8327
(lp8328
I73
aI39
asVviolate
p8329
(lp8330
I0
aI2
asVparis
p8331
(lp8332
I0
aI2
asVtweet
p8333
(lp8334
I16
aI10
asVrandagio
p8335
(lp8336
I4
aI8
asVmultirank
p8337
(lp8338
I0
aI4
asVsvedese
p8339
(lp8340
I1
aI2
asVtampone
p8341
(lp8342
I0
aI2
asVleggings
p8343
(lp8344
I2
aI4
asVcalcio
p8345
(lp8346
I9
aI31
asVrovesciata
p8347
(lp8348
I2
aI0
asVquantit
p8349
(lp8350
I10
aI3
asVverit
p8351
(lp8352
I46
aI73
asVmalvenuti
p8353
(lp8354
I3
aI3
asVintralcio
p8355
(lp8356
I5
aI0
asVvocazione
p8357
(lp8358
I0
aI1
asVparigi
p8359
(lp8360
I15
aI24
asVazimut
p8361
(lp8362
I4
aI0
asVstreet
p8363
(lp8364
I5
aI9
asVblue
p8365
(lp8366
I0
aI6
asVdisavanzo
p8367
(lp8368
I5
aI5
asVxvii
p8369
(lp8370
I0
aI1
asVbanche
p8371
(lp8372
I0
aI15
asVdisney
p8373
(lp8374
I0
aI3
asVlodi
p8375
(lp8376
I2
aI0
asVprato
p8377
(lp8378
I2
aI0
asVserviva
p8379
(lp8380
I2
aI2
asVmcrae
p8381
(lp8382
I10
aI2
asVucraino
p8383
(lp8384
I2
aI6
asVstudio
p8385
(lp8386
I33
aI15
asVbatterio
p8387
(lp8388
I0
aI2
asVmanara
p8389
(lp8390
I6
aI11
asVcondizioni
p8391
(lp8392
I9
aI12
asVcondizione
p8393
(lp8394
I4
aI4
asVborussia
p8395
(lp8396
I16
aI35
asVnapoletani
p8397
(lp8398
I0
aI2
asVgenerale
p8399
(lp8400
I7
aI9
asVgenerali
p8401
(lp8402
I2
aI0
asVparlamento
p8403
(lp8404
I0
aI2
asVmaurizia
p8405
(lp8406
I2
aI0
asVverdure
p8407
(lp8408
I3
aI1
asVverdura
p8409
(lp8410
I7
aI3
asVmaurizio
p8411
(lp8412
I0
aI2
asVfallisce
p8413
(lp8414
I16
aI16
asVriguardano
p8415
(lp8416
I0
aI2
asVtimori
p8417
(lp8418
I0
aI2
asVtimore
p8419
(lp8420
I1
aI0
asVvolontariato
p8421
(lp8422
I2
aI3
asVvinse
p8423
(lp8424
I1
aI5
asVmusk
p8425
(lp8426
I0
aI3
asVmusy
p8427
(lp8428
I0
aI10
asVabbiamo
p8429
(lp8430
I105
aI101
asVdeflazione
p8431
(lp8432
I0
aI3
asVmf
p8433
(lp8434
I2
aI0
asVmm
p8435
(lp8436
I9
aI0
asVpensionato
p8437
(lp8438
I3
aI0
asVhenry
p8439
(lp8440
I8
aI0
asVrifugiati
p8441
(lp8442
I0
aI3
asVestate
p8443
(lp8444
I9
aI16
asVtelefonando
p8445
(lp8446
I1
aI0
asVpaparazzo
p8447
(lp8448
I5
aI1
asVriina
p8449
(lp8450
I9
aI9
asVvenivano
p8451
(lp8452
I2
aI4
asVlesioni
p8453
(lp8454
I0
aI2
asVeni
p8455
(lp8456
I4
aI0
asVregistrazione
p8457
(lp8458
I1
aI4
asVquagliarella
p8459
(lp8460
I3
aI0
asVturing
p8461
(lp8462
I0
aI12
asVspogliarsi
p8463
(lp8464
I0
aI3
asVreintegrazione
p8465
(lp8466
I4
aI0
asVedificio
p8467
(lp8468
I10
aI2
asVdongo
p8469
(lp8470
I5
aI0
asVsbotta
p8471
(lp8472
I1
aI0
asVmese
p8473
(lp8474
I26
aI11
asVdaredevil
p8475
(lp8476
I6
aI6
asVdanni
p8477
(lp8478
I3
aI0
asVdanno
p8479
(lp8480
I17
aI6
asVlaghi
p8481
(lp8482
I0
aI3
asVtrovarlo
p8483
(lp8484
I1
aI0
asVterni
p8485
(lp8486
I0
aI6
asVlavastoviglie
p8487
(lp8488
I20
aI0
asVterna
p8489
(lp8490
I4
aI0
asVviti
p8491
(lp8492
I0
aI2
asVvito
p8493
(lp8494
I2
aI4
asVvite
p8495
(lp8496
I17
aI18
asVtrama
p8497
(lp8498
I3
aI0
asVvalutando
p8499
(lp8500
I2
aI0
asVimg
p8501
(lp8502
I6
aI3
asVimu
p8503
(lp8504
I8
aI0
asVnoemi
p8505
(lp8506
I0
aI3
asVftse
p8507
(lp8508
I2
aI0
asVtempio
p8509
(lp8510
I1
aI3
asVtempia
p8511
(lp8512
I3
aI0
asVdirigenti
p8513
(lp8514
I36
aI28
asVricordato
p8515
(lp8516
I0
aI3
asValex
p8517
(lp8518
I0
aI5
asVmusulmani
p8519
(lp8520
I7
aI0
asVinternazionale
p8521
(lp8522
I7
aI3
asVfitness
p8523
(lp8524
I2
aI0
asVrevisione
p8525
(lp8526
I3
aI0
asVconferma
p8527
(lp8528
I0
aI3
asVesistono
p8529
(lp8530
I0
aI3
asVmolestie
p8531
(lp8532
I0
aI1
asVperotti
p8533
(lp8534
I2
aI0
asVgol
p8535
(lp8536
I50
aI60
asVgustare
p8537
(lp8538
I0
aI2
asVfisco
p8539
(lp8540
I0
aI5
asVintegrativa
p8541
(lp8542
I4
aI0
asVsegnali
p8543
(lp8544
I0
aI1
asVmainaghi
p8545
(lp8546
I3
aI0
asVdeviazione
p8547
(lp8548
I3
aI0
asVharry
p8549
(lp8550
I2
aI8
asVcibo
p8551
(lp8552
I18
aI8
asVfree
p8553
(lp8554
I0
aI8
asVluminosit
p8555
(lp8556
I2
aI0
asVinvestito
p8557
(lp8558
I0
aI2
asVindustrial
p8559
(lp8560
I4
aI0
asVcalorie
p8561
(lp8562
I0
aI3
asVgenova
p8563
(lp8564
I21
aI32
asVsviluppatori
p8565
(lp8566
I1
aI1
asVmovimenti
p8567
(lp8568
I6
aI3
asVmovimento
p8569
(lp8570
I0
aI4
asVtor
p8571
(lp8572
I6
aI1
asVtot
p8573
(lp8574
I4
aI4
asVfiction
p8575
(lp8576
I0
aI3
asVpsichici
p8577
(lp8578
I2
aI0
asVtom
p8579
(lp8580
I6
aI10
asVaffitti
p8581
(lp8582
I0
aI3
asVvinovo
p8583
(lp8584
I1
aI0
asVitalicum
p8585
(lp8586
I106
aI184
asVserve
p8587
(lp8588
I3
aI7
asVbiglia
p8589
(lp8590
I0
aI4
asVpiazza
p8591
(lp8592
I8
aI8
asVto1
p8593
(lp8594
I1
aI1
asVcoalizione
p8595
(lp8596
I0
aI77
asVexpo
p8597
(lp8598
I65
aI57
asVbridge
p8599
(lp8600
I4
aI0
asVrimborsopoli
p8601
(lp8602
I2
aI0
asVrai
p8603
(lp8604
I12
aI32
asVsocio
p8605
(lp8606
I3
aI1
asVspada
p8607
(lp8608
I0
aI3
asVray
p8609
(lp8610
I2
aI0
asVdiretta
p8611
(lp8612
I63
aI21
asVmaxi
p8613
(lp8614
I2
aI2
asVdiretti
p8615
(lp8616
I2
aI0
asVmediaset
p8617
(lp8618
I4
aI26
asVtibia
p8619
(lp8620
I1
aI1
asVmezzaroma
p8621
(lp8622
I6
aI10
asVcarcinoma
p8623
(lp8624
I5
aI10
asVmodifiche
p8625
(lp8626
I11
aI2
asVscheda
p8627
(lp8628
I6
aI4
asVristrutturazione
p8629
(lp8630
I2
aI2
asVflop
p8631
(lp8632
I2
aI4
asVmetal
p8633
(lp8634
I11
aI0
asVcambio
p8635
(lp8636
I0
aI10
asVesclusiva
p8637
(lp8638
I0
aI4
asVrivista
p8639
(lp8640
I1
aI3
asVcambia
p8641
(lp8642
I6
aI0
asVvelarde
p8643
(lp8644
I2
aI0
asVmusicale
p8645
(lp8646
I6
aI0
asVpolemica
p8647
(lp8648
I0
aI7
asVcolori
p8649
(lp8650
I4
aI8
asValleati
p8651
(lp8652
I0
aI6
asVpagnani
p8653
(lp8654
I2
aI2
asVradio
p8655
(lp8656
I2
aI0
asVinseguimento
p8657
(lp8658
I2
aI0
asVriabilitazione
p8659
(lp8660
I2
aI0
asVsorveglianza
p8661
(lp8662
I2
aI0
asVromagna
p8663
(lp8664
I4
aI0
asVdomicilio
p8665
(lp8666
I3
aI0
asVstanze
p8667
(lp8668
I3
aI0
asVstanza
p8669
(lp8670
I2
aI5
asVdistruggere
p8671
(lp8672
I0
aI2
asVmadalina
p8673
(lp8674
I0
aI1
asVmorosini
p8675
(lp8676
I20
aI15
asVsottili
p8677
(lp8678
I6
aI0
asVinghilterra
p8679
(lp8680
I2
aI0
asVsardegna
p8681
(lp8682
I2
aI17
asVmigliaia
p8683
(lp8684
I3
aI2
asVconsiderati
p8685
(lp8686
I6
aI4
asVamazon
p8687
(lp8688
I0
aI7
asVasiana
p8689
(lp8690
I3
aI0
asVreport
p8691
(lp8692
I0
aI1
asVsabrina
p8693
(lp8694
I3
aI4
asVmontecitorio
p8695
(lp8696
I0
aI12
asVmalformazioni
p8697
(lp8698
I7
aI0
asVcollegamento
p8699
(lp8700
I2
aI0
asVferito
p8701
(lp8702
I0
aI4
asVferiti
p8703
(lp8704
I4
aI0
asVscoperta
p8705
(lp8706
I0
aI3
asVvianney
p8707
(lp8708
I14
aI0
asVgandy
p8709
(lp8710
I0
aI4
asVvendite
p8711
(lp8712
I0
aI2
asVcitato
p8713
(lp8714
I3
aI0
asVvendita
p8715
(lp8716
I3
aI6
asVboss
p8717
(lp8718
I6
aI0
asVdecathlon
p8719
(lp8720
I12
aI14
asVnews
p8721
(lp8722
I2
aI7
asVaffido
p8723
(lp8724
I0
aI7
asVterreni
p8725
(lp8726
I9
aI5
asVterreno
p8727
(lp8728
I1
aI2
asVseguito
p8729
(lp8730
I7
aI2
asVmeredith
p8731
(lp8732
I3
aI0
asVstrage
p8733
(lp8734
I11
aI7
asVorte
p8735
(lp8736
I0
aI2
asVepidemia
p8737
(lp8738
I5
aI0
asVkaren
p8739
(lp8740
I4
aI0
asVtrust
p8741
(lp8742
I0
aI80
asVhitler
p8743
(lp8744
I0
aI4
asVconference
p8745
(lp8746
I0
aI9
asVuniversale
p8747
(lp8748
I0
aI1
asVaccostamento
p8749
(lp8750
I0
aI3
asVsappiamo
p8751
(lp8752
I4
aI8
asVdovremo
p8753
(lp8754
I3
aI0
asVvulcan
p8755
(lp8756
I3
aI0
asVpezzo
p8757
(lp8758
I2
aI0
asVblancos
p8759
(lp8760
I2
aI0
asVsoldini
p8761
(lp8762
I0
aI3
asVserviti
p8763
(lp8764
I6
aI0
asVfidanzato
p8765
(lp8766
I3
aI10
asVfidanzati
p8767
(lp8768
I2
aI0
asVfidanzate
p8769
(lp8770
I0
aI2
asVbatterie
p8771
(lp8772
I4
aI0
asVbatteria
p8773
(lp8774
I0
aI26
asVprocedura
p8775
(lp8776
I4
aI0
asVprocedure
p8777
(lp8778
I28
aI2
asVsacri
p8779
(lp8780
I3
aI3
asVviceministra
p8781
(lp8782
I0
aI2
asVschiaffi
p8783
(lp8784
I2
aI0
asVtrattare
p8785
(lp8786
I0
aI2
asVscrive
p8787
(lp8788
I21
aI6
asVscrivo
p8789
(lp8790
I0
aI1
asVinquirenti
p8791
(lp8792
I3
aI2
asVccnl
p8793
(lp8794
I0
aI3
asVumori
p8795
(lp8796
I0
aI1
asVresponsabili
p8797
(lp8798
I0
aI2
asVperdonare
p8799
(lp8800
I4
aI0
asVcoachella
p8801
(lp8802
I16
aI2
asVsatelliti
p8803
(lp8804
I0
aI7
asVvelocista
p8805
(lp8806
I3
aI0
asVmoccia
p8807
(lp8808
I0
aI5
asVmaniche
p8809
(lp8810
I2
aI2
asVdylan
p8811
(lp8812
I0
aI10
asVeternit
p8813
(lp8814
I2
aI0
asVtersicore
p8815
(lp8816
I0
aI1
asVricorso
p8817
(lp8818
I19
aI16
asVwestfalen
p8819
(lp8820
I0
aI2
asVkarina
p8821
(lp8822
I0
aI4
asVvincite
p8823
(lp8824
I4
aI0
asVvittorini
p8825
(lp8826
I0
aI2
asVottanta
p8827
(lp8828
I6
aI4
asVgildo
p8829
(lp8830
I4
aI4
asVscoperto
p8831
(lp8832
I4
aI10
asVdisegni
p8833
(lp8834
I4
aI0
asVvedeva
p8835
(lp8836
I2
aI1
asVdisegno
p8837
(lp8838
I0
aI4
asVvoglia
p8839
(lp8840
I4
aI8
asVeuropee
p8841
(lp8842
I3
aI0
asVvoglie
p8843
(lp8844
I0
aI2
asVvoglio
p8845
(lp8846
I13
aI7
asVdiscernere
p8847
(lp8848
I2
aI0
asVsupereroi
p8849
(lp8850
I0
aI2
asVcucina
p8851
(lp8852
I22
aI23
asVinfiltrazioni
p8853
(lp8854
I0
aI3
asVattaccato
p8855
(lp8856
I0
aI2
asVmagistratura
p8857
(lp8858
I0
aI2
asVcorazza
p8859
(lp8860
I0
aI2
asVripetute
p8861
(lp8862
I0
aI1
asVexxon
p8863
(lp8864
I3
aI3
asVorlandi
p8865
(lp8866
I6
aI8
asVditta
p8867
(lp8868
I0
aI3
asVtrovarne
p8869
(lp8870
I1
aI1
asVsezione
p8871
(lp8872
I0
aI3
asVfalque
p8873
(lp8874
I2
aI0
asVpaltrow
p8875
(lp8876
I2
aI2
asVrealizzazione
p8877
(lp8878
I8
aI4
asVfacendo
p8879
(lp8880
I0
aI10
asVvalidazione
p8881
(lp8882
I1
aI5
asVcooper
p8883
(lp8884
I0
aI2
asVtifare
p8885
(lp8886
I0
aI1
asVsilenzi
p8887
(lp8888
I1
aI0
asVsvezia
p8889
(lp8890
I2
aI0
asVtotale
p8891
(lp8892
I15
aI3
asVcnh
p8893
(lp8894
I5
aI0
asVfratello
p8895
(lp8896
I4
aI3
asVcore
p8897
(lp8898
I0
aI5
asVdiscount
p8899
(lp8900
I2
aI0
asVintramoenia
p8901
(lp8902
I0
aI6
asVpensando
p8903
(lp8904
I1
aI0
asVerariali
p8905
(lp8906
I0
aI4
asVcory
p8907
(lp8908
I0
aI2
asVnaufragio
p8909
(lp8910
I3
aI0
asVpordenone
p8911
(lp8912
I15
aI25
asVabito
p8913
(lp8914
I7
aI7
asVfere
p8915
(lp8916
I0
aI2
asVtribuna
p8917
(lp8918
I7
aI7
asVrotto
p8919
(lp8920
I2
aI0
asVrotte
p8921
(lp8922
I0
aI2
asVrotta
p8923
(lp8924
I3
aI0
asVaumentate
p8925
(lp8926
I3
aI0
asVgip
p8927
(lp8928
I0
aI5
asVkven
p8929
(lp8930
I3
aI0
asVeccellenze
p8931
(lp8932
I0
aI3
asVanderson
p8933
(lp8934
I6
aI2
asVneonato
p8935
(lp8936
I0
aI16
asVfunzionalit
p8937
(lp8938
I0
aI4
asVwireless
p8939
(lp8940
I5
aI5
asVparticolare
p8941
(lp8942
I4
aI6
asVviva
p8943
(lp8944
I0
aI2
asVesodati
p8945
(lp8946
I6
aI3
asVvivi
p8947
(lp8948
I2
aI0
asVmodificazioni
p8949
(lp8950
I0
aI32
asVvivo
p8951
(lp8952
I6
aI3
asVpagine
p8953
(lp8954
I2
aI0
asVversione
p8955
(lp8956
I36
aI15
asVvivr
p8957
(lp8958
I1
aI1
asVpagina
p8959
(lp8960
I5
aI0
asVatto
p8961
(lp8962
I0
aI19
asVcristoforetti
p8963
(lp8964
I5
aI5
asVversioni
p8965
(lp8966
I0
aI6
asVatti
p8967
(lp8968
I27
aI22
asVzidane
p8969
(lp8970
I1
aI0
asVperes
p8971
(lp8972
I2
aI0
asVpercezione
p8973
(lp8974
I0
aI7
asVregime
p8975
(lp8976
I9
aI35
asVmotovedetta
p8977
(lp8978
I10
aI2
asVtiv
p8979
(lp8980
I2
aI0
asVtim
p8981
(lp8982
I3
aI0
asVterribile
p8983
(lp8984
I3
aI1
asVbenefici
p8985
(lp8986
I3
aI0
asVincasso
p8987
(lp8988
I4
aI0
asVdjokovic
p8989
(lp8990
I0
aI3
asVyacht
p8991
(lp8992
I1
aI0
asVvietnam
p8993
(lp8994
I0
aI1
asVvorrebbero
p8995
(lp8996
I1
aI0
asVtelefonico
p8997
(lp8998
I0
aI1
asVnucleo
p8999
(lp9000
I20
aI18
asVresistenza
p9001
(lp9002
I0
aI10
asVrappresentazione
p9003
(lp9004
I0
aI3
asVcoach
p9005
(lp9006
I0
aI5
asVbucarsi
p9007
(lp9008
I0
aI2
asVrom
p9009
(lp9010
I9
aI10
asVsfiora
p9011
(lp9012
I0
aI1
asVabituale
p9013
(lp9014
I3
aI3
asVrob
p9015
(lp9016
I1
aI1
asVblanchard
p9017
(lp9018
I4
aI0
asVgurlitt
p9019
(lp9020
I0
aI5
asVebrei
p9021
(lp9022
I7
aI19
asVebreo
p9023
(lp9024
I0
aI3
asVleghista
p9025
(lp9026
I4
aI0
asVavvenuto
p9027
(lp9028
I0
aI2
asVscarsa
p9029
(lp9030
I0
aI1
asVmandorle
p9031
(lp9032
I0
aI6
asVpannella
p9033
(lp9034
I5
aI0
asVsostiene
p9035
(lp9036
I0
aI1
asVsantarelli
p9037
(lp9038
I0
aI1
asVanticoncezionale
p9039
(lp9040
I3
aI0
asVibrahim
p9041
(lp9042
I2
aI3
asVfratelli
p9043
(lp9044
I16
aI10
asVscozia
p9045
(lp9046
I2
aI0
asVgiocato
p9047
(lp9048
I6
aI2
asVgatti
p9049
(lp9050
I2
aI0
asVprelazione
p9051
(lp9052
I7
aI14
asVscolpiti
p9053
(lp9054
I0
aI1
asVgatto
p9055
(lp9056
I3
aI0
asVposto
p9057
(lp9058
I45
aI27
asVriformista
p9059
(lp9060
I0
aI2
asVposti
p9061
(lp9062
I10
aI10
asVmovie
p9063
(lp9064
I4
aI0
asVposte
p9065
(lp9066
I2
aI6
asVposta
p9067
(lp9068
I0
aI1
asVintelligenti
p9069
(lp9070
I0
aI3
asVtreno
p9071
(lp9072
I2
aI5
asVtreni
p9073
(lp9074
I0
aI3
asVgalanti
p9075
(lp9076
I6
aI0
asVtrend
p9077
(lp9078
I1
aI0
asVfunzione
p9079
(lp9080
I0
aI3
asVrestrittivo
p9081
(lp9082
I1
aI0
asVtrent
p9083
(lp9084
I2
aI0
asVutilissimo
p9085
(lp9086
I1
aI0
asVbookstock
p9087
(lp9088
I3
aI0
asVpessimo
p9089
(lp9090
I3
aI3
asVvalido
p9091
(lp9092
I1
aI6
asVtrasformarsi
p9093
(lp9094
I2
aI0
asVprovveduto
p9095
(lp9096
I2
aI2
asVfabrizio
p9097
(lp9098
I19
aI16
asVpotrebbe
p9099
(lp9100
I28
aI65
asVmolte
p9101
(lp9102
I0
aI4
asVemerge
p9103
(lp9104
I0
aI3
asVbeetroots
p9105
(lp9106
I0
aI6
asVtagliato
p9107
(lp9108
I0
aI1
asVtiro
p9109
(lp9110
I6
aI20
asVtagliata
p9111
(lp9112
I2
aI0
asVparma
p9113
(lp9114
I8
aI2
asVpopstar
p9115
(lp9116
I11
aI0
asVrussell
p9117
(lp9118
I2
aI2
asVscan
p9119
(lp9120
I4
aI0
asVmazzoni
p9121
(lp9122
I0
aI11
asVusata
p9123
(lp9124
I1
aI0
asVusato
p9125
(lp9126
I0
aI2
asVatene
p9127
(lp9128
I6
aI0
asVtoday
p9129
(lp9130
I1
aI0
asVtecnologico
p9131
(lp9132
I2
aI1
asVristoranti
p9133
(lp9134
I12
aI0
asVristorante
p9135
(lp9136
I33
aI51
asVpancia
p9137
(lp9138
I4
aI0
asVpiano
p9139
(lp9140
I18
aI8
asVantimateria
p9141
(lp9142
I21
aI14
asVmonegaschi
p9143
(lp9144
I6
aI12
asVvalle
p9145
(lp9146
I3
aI6
asVlibro
p9147
(lp9148
I29
aI32
asVshedd
p9149
(lp9150
I0
aI1
asVpranzo
p9151
(lp9152
I2
aI0
asVvulcanica
p9153
(lp9154
I0
aI2
asVcoriandoli
p9155
(lp9156
I14
aI6
asVkye
p9157
(lp9158
I4
aI0
asVmorta
p9159
(lp9160
I11
aI8
asVvodafone
p9161
(lp9162
I7
aI0
asVtrattore
p9163
(lp9164
I4
aI3
asVtrattori
p9165
(lp9166
I5
aI6
asVdelega
p9167
(lp9168
I3
aI5
asVrischiato
p9169
(lp9170
I2
aI0
asVfrustrazione
p9171
(lp9172
I10
aI8
asVavengers
p9173
(lp9174
I4
aI3
asVnonna
p9175
(lp9176
I14
aI2
asVsinergie
p9177
(lp9178
I2
aI0
asVdevi
p9179
(lp9180
I6
aI0
asVgiardini
p9181
(lp9182
I0
aI4
asVservente
p9183
(lp9184
I0
aI3
asVnonno
p9185
(lp9186
I4
aI0
asVfoglia
p9187
(lp9188
I0
aI5
asVfoglie
p9189
(lp9190
I0
aI6
asVrovente
p9191
(lp9192
I4
aI2
asVfango
p9193
(lp9194
I3
aI3
asVreggina
p9195
(lp9196
I0
aI17
asVtrattato
p9197
(lp9198
I0
aI1
asVtrattati
p9199
(lp9200
I30
aI30
asVlegge
p9201
(lp9202
I276
aI354
asVleggi
p9203
(lp9204
I10
aI1
asVpoesia
p9205
(lp9206
I8
aI0
asVgtt
p9207
(lp9208
I2
aI0
asVvolontariamente
p9209
(lp9210
I1
aI1
asVhanks
p9211
(lp9212
I4
aI4
asVurlando
p9213
(lp9214
I1
aI0
asVreazione
p9215
(lp9216
I3
aI0
asVvenire
p9217
(lp9218
I10
aI2
asVcorporea
p9219
(lp9220
I6
aI0
asVhamilton
p9221
(lp9222
I5
aI18
asVcaine
p9223
(lp9224
I0
aI2
asVnomadi
p9225
(lp9226
I0
aI3
asVopera
p9227
(lp9228
I2
aI7
asVopere
p9229
(lp9230
I12
aI19
asVentrambi
p9231
(lp9232
I8
aI6
asVbusta
p9233
(lp9234
I11
aI8
asVhacker
p9235
(lp9236
I4
aI0
asVriuscita
p9237
(lp9238
I1
aI0
asVriusciti
p9239
(lp9240
I0
aI2
asVqe
p9241
(lp9242
I24
aI29
asVbubi
p9243
(lp9244
I0
aI2
asVtensione
p9245
(lp9246
I0
aI3
asVsimile
p9247
(lp9248
I6
aI2
asVstretto
p9249
(lp9250
I2
aI0
asVsogna
p9251
(lp9252
I1
aI0
asVstretta
p9253
(lp9254
I1
aI6
asVsogno
p9255
(lp9256
I22
aI15
asVaccoglienza
p9257
(lp9258
I16
aI0
asVgramellini
p9259
(lp9260
I11
aI0
asVdecleva
p9261
(lp9262
I3
aI0
asVmerrill
p9263
(lp9264
I0
aI3
asVflessibilita
p9265
(lp9266
I3
aI0
asVcubana
p9267
(lp9268
I13
aI8
asVsoffuse
p9269
(lp9270
I1
aI1
asVgala
p9271
(lp9272
I3
aI0
asVgeorge
p9273
(lp9274
I3
aI15
asVpalco
p9275
(lp9276
I0
aI3
asVdistrict
p9277
(lp9278
I4
aI3
asVriserva
p9279
(lp9280
I0
aI2
asVrisarcita
p9281
(lp9282
I0
aI1
asVsporcizia
p9283
(lp9284
I3
aI1
asVvicepresidente
p9285
(lp9286
I1
aI0
asVcirco
p9287
(lp9288
I0
aI6
asVichino
p9289
(lp9290
I6
aI0
asVcampionato
p9291
(lp9292
I0
aI2
asVsiciliani
p9293
(lp9294
I12
aI4
asVantimafia
p9295
(lp9296
I3
aI0
asVseason
p9297
(lp9298
I0
aI3
asVsiciliana
p9299
(lp9300
I3
aI1
asVsussistano
p9301
(lp9302
I0
aI1
asVwinslet
p9303
(lp9304
I2
aI0
asVnathan
p9305
(lp9306
I2
aI0
asVpotenza
p9307
(lp9308
I0
aI3
asVspalle
p9309
(lp9310
I0
aI6
asVrene
p9311
(lp9312
I0
aI8
asVana
p9313
(lp9314
I0
aI25
asVsella
p9315
(lp9316
I0
aI4
asVpro
p9317
(lp9318
I7
aI25
asVsavigliano
p9319
(lp9320
I6
aI6
asVpubblicitario
p9321
(lp9322
I0
aI14
asVeccezione
p9323
(lp9324
I2
aI3
asVgiovane
p9325
(lp9326
I14
aI7
asVsgravi
p9327
(lp9328
I4
aI0
asVterrorismo
p9329
(lp9330
I13
aI5
asVsurf
p9331
(lp9332
I0
aI3
asVprocedimenti
p9333
(lp9334
I6
aI0
asVconvento
p9335
(lp9336
I0
aI2
asVsherman
p9337
(lp9338
I1
aI1
asVfca
p9339
(lp9340
I23
aI38
asVannuo
p9341
(lp9342
I0
aI2
asVturchi
p9343
(lp9344
I7
aI4
asVpolverina
p9345
(lp9346
I2
aI0
asVerba
p9347
(lp9348
I10
aI19
asVbabbo
p9349
(lp9350
I6
aI0
asVklopp
p9351
(lp9352
I31
aI58
asVpercy
p9353
(lp9354
I0
aI6
asVspacex
p9355
(lp9356
I3
aI0
asVprovvedimento
p9357
(lp9358
I5
aI7
asVsubasic
p9359
(lp9360
I14
aI32
asVchiamato
p9361
(lp9362
I0
aI2
asVhiller
p9363
(lp9364
I13
aI26
asVssd
p9365
(lp9366
I0
aI3
asVchiamata
p9367
(lp9368
I4
aI0
asVraccolta
p9369
(lp9370
I5
aI0
asVretribuzione
p9371
(lp9372
I20
aI15
asVcoreografo
p9373
(lp9374
I0
aI2
asVcontatti
p9375
(lp9376
I2
aI0
asVcontatto
p9377
(lp9378
I0
aI2
asVnetto
p9379
(lp9380
I0
aI11
asVumanit
p9381
(lp9382
I0
aI4
asVsatta
p9383
(lp9384
I8
aI8
asVsiria
p9385
(lp9386
I6
aI6
asVocse
p9387
(lp9388
I9
aI24
asVdirigenziali
p9389
(lp9390
I31
aI0
asVportafoglio
p9391
(lp9392
I12
aI11
asVzodiacale
p9393
(lp9394
I4
aI0
asVvoluntary
p9395
(lp9396
I0
aI1
asVefficienza
p9397
(lp9398
I0
aI7
asVnotoriamente
p9399
(lp9400
I0
aI2
asVtantum
p9401
(lp9402
I0
aI6
asVorario
p9403
(lp9404
I0
aI2
asVvinile
p9405
(lp9406
I2
aI0
asVmaggior
p9407
(lp9408
I5
aI0
asVcontraente
p9409
(lp9410
I0
aI6
asVcoma
p9411
(lp9412
I0
aI4
asVafferma
p9413
(lp9414
I2
aI0
asVryanair
p9415
(lp9416
I2
aI8
asVequatoriale
p9417
(lp9418
I0
aI2
asVsicilia
p9419
(lp9420
I22
aI13
asVmissione
p9421
(lp9422
I0
aI7
asVchiacchiere
p9423
(lp9424
I2
aI0
asVsiluro
p9425
(lp9426
I3
aI0
asVpakistan
p9427
(lp9428
I3
aI0
asVpalline
p9429
(lp9430
I2
aI0
asVcorrete
p9431
(lp9432
I2
aI0
asVpolo
p9433
(lp9434
I4
aI3
asVnicola
p9435
(lp9436
I2
aI0
asVmezzi
p9437
(lp9438
I4
aI6
asVomessa
p9439
(lp9440
I0
aI4
asVreuters
p9441
(lp9442
I3
aI3
asVtemerari
p9443
(lp9444
I0
aI1
asVdirection
p9445
(lp9446
I0
aI1
asVsimeone
p9447
(lp9448
I2
aI8
asVandrea
p9449
(lp9450
I4
aI5
asVchiarezza
p9451
(lp9452
I0
aI2
asVchampions
p9453
(lp9454
I64
aI66
asVcase
p9455
(lp9456
I0
aI6
asVpoletti
p9457
(lp9458
I15
aI5
asVtrasferta
p9459
(lp9460
I6
aI4
asVcuochi
p9461
(lp9462
I3
aI2
asVbovolenta
p9463
(lp9464
I2
aI0
asVpippo
p9465
(lp9466
I8
aI3
asVtrentin
p9467
(lp9468
I0
aI1
asVusarlo
p9469
(lp9470
I0
aI1
asVutilizzano
p9471
(lp9472
I2
aI0
asVcorsetto
p9473
(lp9474
I2
aI0
asVevento
p9475
(lp9476
I0
aI2
asVeventi
p9477
(lp9478
I4
aI4
asVramazzotti
p9479
(lp9480
I2
aI4
asVsedia
p9481
(lp9482
I2
aI2
asVusare
p9483
(lp9484
I0
aI1
asVstatus
p9485
(lp9486
I3
aI0
asVvivendo
p9487
(lp9488
I0
aI3
asVpalmas
p9489
(lp9490
I0
aI2
asVpatita
p9491
(lp9492
I1
aI0
asVsversamenti
p9493
(lp9494
I9
aI0
asVstatua
p9495
(lp9496
I4
aI0
asVsaldi
p9497
(lp9498
I2
aI0
asVmodella
p9499
(lp9500
I16
aI8
asVmodello
p9501
(lp9502
I68
aI33
asVmovibili
p9503
(lp9504
I3
aI0
asVammorbidente
p9505
(lp9506
I3
aI0
asVammorbidenti
p9507
(lp9508
I3
aI0
asVequitalia
p9509
(lp9510
I3
aI0
asVmodel
p9511
(lp9512
I10
aI2
asVconfronti
p9513
(lp9514
I7
aI0
asVregistrarsi
p9515
(lp9516
I1
aI0
asVrespiro
p9517
(lp9518
I2
aI0
asVchastain
p9519
(lp9520
I0
aI2
asVsamba
p9521
(lp9522
I0
aI6
asVcontroversia
p9523
(lp9524
I0
aI5
asVrose
p9525
(lp9526
I4
aI0
asVrosa
p9527
(lp9528
I2
aI2
asVpetrolio
p9529
(lp9530
I6
aI0
asVwestinghouse
p9531
(lp9532
I0
aI2
asVfunzionari
p9533
(lp9534
I28
aI0
asVfunzionare
p9535
(lp9536
I1
aI6
asVvirginio
p9537
(lp9538
I1
aI0
asVvirginia
p9539
(lp9540
I1
aI2
asVtanti
p9541
(lp9542
I5
aI10
asVtanta
p9543
(lp9544
I1
aI0
asVtante
p9545
(lp9546
I11
aI3
asVvirgolettate
p9547
(lp9548
I3
aI2
asVpizzaioli
p9549
(lp9550
I6
aI0
asVantisemitismo
p9551
(lp9552
I0
aI6
asVvenderli
p9553
(lp9554
I1
aI0
asVvirgolettati
p9555
(lp9556
I4
aI4
asVtower
p9557
(lp9558
I0
aI2
asVcasaleggio
p9559
(lp9560
I0
aI8
asVturco
p9561
(lp9562
I29
aI12
asVtornese
p9563
(lp9564
I1
aI0
asVmadrid
p9565
(lp9566
I18
aI6
asVcircolare
p9567
(lp9568
I9
aI0
asVfasce
p9569
(lp9570
I4
aI0
asVaggiunge
p9571
(lp9572
I0
aI4
asVteoria
p9573
(lp9574
I32
aI23
asVarrivare
p9575
(lp9576
I3
aI2
asVbutirrato
p9577
(lp9578
I2
aI0
asVinquilini
p9579
(lp9580
I0
aI5
asVsano
p9581
(lp9582
I6
aI0
asVporter
p9583
(lp9584
I4
aI0
asVpastore
p9585
(lp9586
I0
aI5
asVcileno
p9587
(lp9588
I3
aI0
asVdobbiamo
p9589
(lp9590
I15
aI9
asVimmigrato
p9591
(lp9592
I0
aI2
asVimmigrati
p9593
(lp9594
I9
aI2
asVdurata
p9595
(lp9596
I0
aI14
asVpopulista
p9597
(lp9598
I6
aI0
asVtrasformare
p9599
(lp9600
I1
aI0
asVsensibile
p9601
(lp9602
I24
aI19
asVgenoa
p9603
(lp9604
I2
aI0
asVfarassino
p9605
(lp9606
I0
aI3
asVtariffa
p9607
(lp9608
I1
aI0
asVtributari
p9609
(lp9610
I2
aI1
asVerrebaibi
p9611
(lp9612
I3
aI6
asVcambridge
p9613
(lp9614
I0
aI4
asVgare
p9615
(lp9616
I2
aI6
asVcalciatore
p9617
(lp9618
I3
aI4
asVrisposte
p9619
(lp9620
I3
aI2
asVmoratti
p9621
(lp9622
I16
aI18
asVrisposta
p9623
(lp9624
I6
aI6
asVrisposto
p9625
(lp9626
I2
aI0
asVspecificati
p9627
(lp9628
I1
aI0
asVattesta
p9629
(lp9630
I3
aI0
asVportoghese
p9631
(lp9632
I0
aI2
asVgara
p9633
(lp9634
I25
aI11
asVmediche
p9635
(lp9636
I3
aI0
asVsposa
p9637
(lp9638
I4
aI3
asVmandzukic
p9639
(lp9640
I3
aI4
asVvulcano
p9641
(lp9642
I0
aI2
asVassistenza
p9643
(lp9644
I14
aI12
asVinterrotto
p9645
(lp9646
I42
aI9
asVutente
p9647
(lp9648
I1
aI5
asVutenti
p9649
(lp9650
I4
aI1
asVgrass
p9651
(lp9652
I6
aI0
asVpresidi
p9653
(lp9654
I3
aI0
asVtasto
p9655
(lp9656
I3
aI0
asVtaylor
p9657
(lp9658
I0
aI2
asVtasti
p9659
(lp9660
I2
aI0
asVpolitico
p9661
(lp9662
I3
aI0
asVcinema
p9663
(lp9664
I17
aI20
asVrisparmiare
p9665
(lp9666
I6
aI3
asVpolitica
p9667
(lp9668
I51
aI74
asVbishop
p9669
(lp9670
I0
aI3
asVattivo
p9671
(lp9672
I3
aI0
asVmosca
p9673
(lp9674
I0
aI2
asVattivita
p9675
(lp9676
I7
aI0
asVtuttora
p9677
(lp9678
I1
aI1
asVrequested
p9679
(lp9680
I5
aI3
asVfinale
p9681
(lp9682
I12
aI15
asVdashi
p9683
(lp9684
I0
aI3
asVrizzieri
p9685
(lp9686
I1
aI0
asVcurva
p9687
(lp9688
I32
aI29
asVwifi
p9689
(lp9690
I0
aI1
asVcriminalit
p9691
(lp9692
I0
aI2
asVrimasto
p9693
(lp9694
I4
aI8
asVpotente
p9695
(lp9696
I0
aI2
asVrimaste
p9697
(lp9698
I1
aI0
asVbarone
p9699
(lp9700
I6
aI0
asVcrozza
p9701
(lp9702
I6
aI0
asVdecisione
p9703
(lp9704
I7
aI18
asVbaroni
p9705
(lp9706
I0
aI4
asVsottolineato
p9707
(lp9708
I4
aI2
asVcombattere
p9709
(lp9710
I2
aI0
asVschifo
p9711
(lp9712
I8
aI0
asVlavori
p9713
(lp9714
I16
aI20
asVwoman
p9715
(lp9716
I0
aI9
asVfar
p9717
(lp9718
I4
aI2
asVtipologia
p9719
(lp9720
I1
aI1
asVfai
p9721
(lp9722
I0
aI2
asVfan
p9723
(lp9724
I6
aI0
asVrelazioni
p9725
(lp9726
I0
aI3
asVpasticceria
p9727
(lp9728
I10
aI11
asVsony
p9729
(lp9730
I2
aI0
asVticket
p9731
(lp9732
I4
aI0
asVtelecronaca
p9733
(lp9734
I0
aI1
asVvolevamo
p9735
(lp9736
I0
aI1
asVlist
p9737
(lp9738
I0
aI6
asVintervista
p9739
(lp9740
I0
aI6
asVinvestire
p9741
(lp9742
I2
aI0
asVpatologie
p9743
(lp9744
I2
aI2
asVbianconeri
p9745
(lp9746
I2
aI6
asVtea
p9747
(lp9748
I36
aI75
asVospedale
p9749
(lp9750
I4
aI12
asVpoliticizzata
p9751
(lp9752
I4
aI0
asVdesign
p9753
(lp9754
I0
aI7
asVerrordocument
p9755
(lp9756
I5
aI3
asVnba
p9757
(lp9758
I2
aI18
asVsud
p9759
(lp9760
I1
aI11
asVpreavviso
p9761
(lp9762
I0
aI4
asVsuv
p9763
(lp9764
I2
aI2
asVritornello
p9765
(lp9766
I0
aI2
asVchristian
p9767
(lp9768
I3
aI6
asVpaschi
p9769
(lp9770
I0
aI2
asVsciopero
p9771
(lp9772
I5
aI0
asVcappello
p9773
(lp9774
I5
aI5
asVnhtsa
p9775
(lp9776
I0
aI9
asVpochi
p9777
(lp9778
I2
aI4
asVservizio
p9779
(lp9780
I47
aI44
asVconosciuto
p9781
(lp9782
I0
aI3
asVsettembre
p9783
(lp9784
I2
aI22
asVfrate
p9785
(lp9786
I0
aI2
asVvisionato
p9787
(lp9788
I1
aI0
asVpartite
p9789
(lp9790
I7
aI8
asVconseguenze
p9791
(lp9792
I0
aI2
asVpartita
p9793
(lp9794
I54
aI45
asVpartito
p9795
(lp9796
I26
aI33
asVstatale
p9797
(lp9798
I6
aI4
asVpartiti
p9799
(lp9800
I3
aI3
asVmiro
p9801
(lp9802
I3
aI0
asVmercoled
p9803
(lp9804
I0
aI3
asVoperatori
p9805
(lp9806
I6
aI13
asVmontepremi
p9807
(lp9808
I0
aI4
asVberti
p9809
(lp9810
I0
aI7
asVesperanza
p9811
(lp9812
I0
aI3
asVbancarotta
p9813
(lp9814
I2
aI5
asVbevande
p9815
(lp9816
I4
aI0
asVvideogiochi
p9817
(lp9818
I0
aI1
asVspendere
p9819
(lp9820
I1
aI0
asVtoccato
p9821
(lp9822
I0
aI3
asVmusica
p9823
(lp9824
I7
aI33
asVgisele
p9825
(lp9826
I0
aI1
asVricandidatura
p9827
(lp9828
I1
aI0
asVorbita
p9829
(lp9830
I12
aI4
asVshort
p9831
(lp9832
I0
aI2
asVfesta
p9833
(lp9834
I2
aI0
asVdorme
p9835
(lp9836
I0
aI3
asVgrandi
p9837
(lp9838
I8
aI11
asVgiapponese
p9839
(lp9840
I2
aI0
asVsoldati
p9841
(lp9842
I0
aI3
asVvalentini
p9843
(lp9844
I1
aI0
asVsoldato
p9845
(lp9846
I2
aI0
asVsvela
p9847
(lp9848
I10
aI2
asVricordatevi
p9849
(lp9850
I2
aI2
asVislam
p9851
(lp9852
I7
aI11
asVagnelli
p9853
(lp9854
I2
aI6
asVquartieri
p9855
(lp9856
I0
aI3
asVquartiere
p9857
(lp9858
I20
aI16
asVjihadiste
p9859
(lp9860
I2
aI0
asVcasin
p9861
(lp9862
I0
aI9
asVtrigoria
p9863
(lp9864
I15
aI15
asVrivoluzionario
p9865
(lp9866
I2
aI0
asVnuove
p9867
(lp9868
I9
aI17
asVnuova
p9869
(lp9870
I48
aI73
asVsignifica
p9871
(lp9872
I2
aI0
asVvediamo
p9873
(lp9874
I2
aI2
asVcadavere
p9875
(lp9876
I6
aI2
asVmontalto
p9877
(lp9878
I0
aI2
asVinconfondibile
p9879
(lp9880
I0
aI2
asVaperta
p9881
(lp9882
I2
aI0
asVwisconsin
p9883
(lp9884
I1
aI0
asVpillola
p9885
(lp9886
I12
aI0
asVspericolate
p9887
(lp9888
I1
aI0
asVcarcere
p9889
(lp9890
I6
aI6
asValzheimer
p9891
(lp9892
I52
aI16
asVvulnerabilit
p9893
(lp9894
I0
aI2
asVrandall
p9895
(lp9896
I1
aI0
asVfiat
p9897
(lp9898
I5
aI15
asVpunture
p9899
(lp9900
I2
aI0
asVveloce
p9901
(lp9902
I5
aI0
asVcottura
p9903
(lp9904
I8
aI0
asVsuperato
p9905
(lp9906
I1
aI0
asVfunzioni
p9907
(lp9908
I3
aI9
asVintervenuto
p9909
(lp9910
I0
aI2
asVsostenibilit
p9911
(lp9912
I6
aI3
asVblanc
p9913
(lp9914
I4
aI3
asVidea
p9915
(lp9916
I17
aI7
asVtemperature
p9917
(lp9918
I0
aI3
asVstore
p9919
(lp9920
I0
aI9
asVsegue
p9921
(lp9922
I0
aI4
asVvaleria
p9923
(lp9924
I2
aI2
asVhotel
p9925
(lp9926
I2
aI2
asVmoglie
p9927
(lp9928
I60
aI55
asVboffo
p9929
(lp9930
I0
aI7
asVveniva
p9931
(lp9932
I0
aI1
asVcolorate
p9933
(lp9934
I3
aI0
asVgiudice
p9935
(lp9936
I3
aI7
asVsuperstiti
p9937
(lp9938
I2
aI0
asVgiudici
p9939
(lp9940
I9
aI20
asVgiudico
p9941
(lp9942
I26
aI14
asVprendono
p9943
(lp9944
I6
aI0
asVpetacci
p9945
(lp9946
I4
aI0
asVtetto
p9947
(lp9948
I9
aI2
asVimporto
p9949
(lp9950
I6
aI11
asVfiona
p9951
(lp9952
I0
aI3
asVuniformi
p9953
(lp9954
I2
aI0
asVimporta
p9955
(lp9956
I1
aI0
asVwilson
p9957
(lp9958
I6
aI6
asVvolantino
p9959
(lp9960
I4
aI4
asVfaccia
p9961
(lp9962
I2
aI3
asVipsos
p9963
(lp9964
I2
aI0
asVcargo
p9965
(lp9966
I0
aI2
asVamal
p9967
(lp9968
I3
aI3
asVrumer
p9969
(lp9970
I0
aI1
asVsandra
p9971
(lp9972
I4
aI4
asVsandro
p9973
(lp9974
I6
aI0
asVbelluno
p9975
(lp9976
I4
aI2
asVwindows
p9977
(lp9978
I0
aI5
asVventicinque
p9979
(lp9980
I0
aI1
asVstonex
p9981
(lp9982
I0
aI13
asVcdi
p9983
(lp9984
I3
aI0
asVfilippino
p9985
(lp9986
I3
aI0
asVcdp
p9987
(lp9988
I4
aI0
asVprovincia
p9989
(lp9990
I7
aI3
asVcanarie
p9991
(lp9992
I0
aI3
asVpuniti
p9993
(lp9994
I2
aI0
asVdeserta
p9995
(lp9996
I2
aI0
asVcarmine
p9997
(lp9998
I5
aI0
asVbambina
p9999
(lp10000
I20
aI4
asVbambino
p10001
(lp10002
I0
aI30
asVbambini
p10003
(lp10004
I19
aI34
asVamici
p10005
(lp10006
I0
aI4
asVamica
p10007
(lp10008
I5
aI0
asVdifesa
p10009
(lp10010
I0
aI9
asVmette
p10011
(lp10012
I15
aI25
asVfognini
p10013
(lp10014
I16
aI0
asVtsuneaki
p10015
(lp10016
I3
aI0
asVvincent
p10017
(lp10018
I3
aI0
asVprogetti
p10019
(lp10020
I10
aI6
asVstefania
p10021
(lp10022
I2
aI8
asVprogetto
p10023
(lp10024
I9
aI38
asVscrittore
p10025
(lp10026
I0
aI7
asVkylie
p10027
(lp10028
I2
aI2
asVbara
p10029
(lp10030
I0
aI4
asVbare
p10031
(lp10032
I18
aI6
asVmatia
p10033
(lp10034
I7
aI0
asVtendenze
p10035
(lp10036
I2
aI8
asVbari
p10037
(lp10038
I8
aI0
asVriduzione
p10039
(lp10040
I4
aI0
asVunione
p10041
(lp10042
I15
aI6
asVestetico
p10043
(lp10044
I0
aI2
asVlanciata
p10045
(lp10046
I2
aI6
asVlanciato
p10047
(lp10048
I8
aI10
asVorecchio
p10049
(lp10050
I4
aI0
asVcolloricchio
p10051
(lp10052
I11
aI0
asVcrema
p10053
(lp10054
I4
aI0
asVriconquistare
p10055
(lp10056
I2
aI2
asVklum
p10057
(lp10058
I4
aI4
asVsoli
p10059
(lp10060
I0
aI6
asVdeducibilit
p10061
(lp10062
I5
aI0
asVsole
p10063
(lp10064
I19
aI20
asVsola
p10065
(lp10066
I3
aI2
asVtassazione
p10067
(lp10068
I0
aI25
asVestinzione
p10069
(lp10070
I0
aI13
asVattore
p10071
(lp10072
I6
aI12
asVattori
p10073
(lp10074
I0
aI7
asVvillage
p10075
(lp10076
I2
aI0
asVprefetture
p10077
(lp10078
I2
aI4
asVsterilizzato
p10079
(lp10080
I0
aI3
asVps
p10081
(lp10082
I4
aI12
asVpt
p10083
(lp10084
I3
aI0
asVdeclino
p10085
(lp10086
I0
aI2
asVdud
p10087
(lp10088
I22
aI15
asVviaggiava
p10089
(lp10090
I1
aI5
asVpc
p10091
(lp10092
I2
aI0
asVpd
p10093
(lp10094
I128
aI139
asVaccedere
p10095
(lp10096
I4
aI6
asVpm
p10097
(lp10098
I2
aI4
asVocchi
p10099
(lp10100
I6
aI2
asVartistica
p10101
(lp10102
I0
aI4
asVtenuti
p10103
(lp10104
I0
aI1
asVtenuto
p10105
(lp10106
I0
aI1
asVtenuta
p10107
(lp10108
I1
aI0
asVp8
p10109
(lp10110
I26
aI12
asVnominale
p10111
(lp10112
I0
aI2
asVnominali
p10113
(lp10114
I0
aI3
asVincognito
p10115
(lp10116
I2
aI0
asVverticale
p10117
(lp10118
I0
aI6
asVscorsa
p10119
(lp10120
I2
aI2
asVprostituzione
p10121
(lp10122
I4
aI2
asVbreve
p10123
(lp10124
I2
aI0
asVscorsi
p10125
(lp10126
I1
aI2
asVrio
p10127
(lp10128
I0
aI3
asVsperanze
p10129
(lp10130
I4
aI0
asVrugbista
p10131
(lp10132
I3
aI0
asVsperanza
p10133
(lp10134
I64
aI45
asVrelatore
p10135
(lp10136
I0
aI3
asVpanasonic
p10137
(lp10138
I7
aI0
asVsantos
p10139
(lp10140
I8
aI0
asVcsea
p10141
(lp10142
I8
aI0
asVviola
p10143
(lp10144
I3
aI1
asVcantiere
p10145
(lp10146
I7
aI5
asVtramite
p10147
(lp10148
I16
aI16
asVspariti
p10149
(lp10150
I0
aI1
asVpedale
p10151
(lp10152
I0
aI3
asVsettanta
p10153
(lp10154
I3
aI1
asVtratta
p10155
(lp10156
I10
aI16
asVtratto
p10157
(lp10158
I7
aI2
asVpiccanti
p10159
(lp10160
I2
aI4
asVtratti
p10161
(lp10162
I2
aI10
asVstupefacente
p10163
(lp10164
I0
aI3
asVquestione
p10165
(lp10166
I35
aI25
asVtronista
p10167
(lp10168
I1
aI0
asVapocalisse
p10169
(lp10170
I4
aI2
asVspaccato
p10171
(lp10172
I0
aI2
asVfluad
p10173
(lp10174
I3
aI0
asVtablet
p10175
(lp10176
I2
aI4
asVrischia
p10177
(lp10178
I6
aI7
asVrischio
p10179
(lp10180
I36
aI13
asVmariah
p10181
(lp10182
I2
aI8
asVcapitali
p10183
(lp10184
I0
aI2
asVcampagna
p10185
(lp10186
I12
aI4
asVcapitale
p10187
(lp10188
I26
aI20
asVmose
p10189
(lp10190
I0
aI5
asVribaltabilissimo
p10191
(lp10192
I2
aI0
asVautoannientamento
p10193
(lp10194
I4
aI7
asVglobal
p10195
(lp10196
I0
aI2
asVstreaming
p10197
(lp10198
I30
aI3
asVlouboutin
p10199
(lp10200
I4
aI0
asVripetere
p10201
(lp10202
I2
aI0
asVretro
p10203
(lp10204
I3
aI0
asVsconosciuti
p10205
(lp10206
I1
aI0
asVprof
p10207
(lp10208
I3
aI3
asVanna
p10209
(lp10210
I4
aI0
asVries
p10211
(lp10212
I4
aI0
asVpreviene
p10213
(lp10214
I0
aI2
asVmartin
p10215
(lp10216
I0
aI3
asVzombie
p10217
(lp10218
I5
aI2
asVvaccini
p10219
(lp10220
I0
aI15
asVvaccino
p10221
(lp10222
I3
aI9
asVorlo
p10223
(lp10224
I0
aI2
asVbayern
p10225
(lp10226
I24
aI8
asVtemidel
p10227
(lp10228
I1
aI0
asVbastone
p10229
(lp10230
I2
aI0
asVbrooklyn
p10231
(lp10232
I4
aI0
asVvariare
p10233
(lp10234
I1
aI1
asVsaranno
p10235
(lp10236
I32
aI15
asVgamma
p10237
(lp10238
I0
aI5
asVcombustibile
p10239
(lp10240
I0
aI3
asVpolemiche
p10241
(lp10242
I0
aI3
asVlong
p10243
(lp10244
I34
aI54
asVsonno
p10245
(lp10246
I15
aI17
asVfase
p10247
(lp10248
I2
aI10
asVfabio
p10249
(lp10250
I62
aI72
asVsanteria
p10251
(lp10252
I6
aI4
asVstagli
p10253
(lp10254
I1
aI0
asVesercizio
p10255
(lp10256
I8
aI8
asVorsini
p10257
(lp10258
I0
aI3
asVcartelle
p10259
(lp10260
I8
aI0
asVdashiel
p10261
(lp10262
I4
aI4
asVmalata
p10263
(lp10264
I3
aI0
asVpisapia
p10265
(lp10266
I16
aI16
asVcrinale
p10267
(lp10268
I0
aI6
asVriferimento
p10269
(lp10270
I3
aI4
asVpreziose
p10271
(lp10272
I6
aI0
asVprezioso
p10273
(lp10274
I0
aI2
asVstruttura
p10275
(lp10276
I7
aI3
asVimposta
p10277
(lp10278
I35
aI39
asVimposte
p10279
(lp10280
I4
aI5
asVstorto
p10281
(lp10282
I2
aI0
asVrally
p10283
(lp10284
I0
aI2
asVtentativi
p10285
(lp10286
I0
aI4
asVtanguy
p10287
(lp10288
I0
aI2
asVtentativo
p10289
(lp10290
I2
aI0
asVtowers
p10291
(lp10292
I0
aI14
asVnico
p10293
(lp10294
I6
aI6
asVavevo
p10295
(lp10296
I3
aI0
asVcompagnia
p10297
(lp10298
I3
aI0
asVtrentottenne
p10299
(lp10300
I0
aI2
asVsmetterla
p10301
(lp10302
I1
aI0
asVproblemi
p10303
(lp10304
I8
aI20
asVproblema
p10305
(lp10306
I9
aI7
asVbiotecnomed
p10307
(lp10308
I0
aI4
asVlampada
p10309
(lp10310
I0
aI2
asVsostenute
p10311
(lp10312
I2
aI0
asVnarrativa
p10313
(lp10314
I0
aI3
asVscadenza
p10315
(lp10316
I8
aI9
asVnaso
p10317
(lp10318
I4
aI0
asVesplosivo
p10319
(lp10320
I2
aI2
asVesplosivi
p10321
(lp10322
I3
aI0
asVsteve
p10323
(lp10324
I2
aI2
asVgolf
p10325
(lp10326
I3
aI0
asVtwerking
p10327
(lp10328
I3
aI6
asVnascita
p10329
(lp10330
I7
aI0
asVinviare
p10331
(lp10332
I0
aI2
asVtrasforma
p10333
(lp10334
I0
aI1
asVvalidare
p10335
(lp10336
I1
aI5
asVshanghai
p10337
(lp10338
I0
aI2
asVanomalie
p10339
(lp10340
I2
aI0
asVdissidenti
p10341
(lp10342
I3
aI3
asVstaccati
p10343
(lp10344
I4
aI0
asVparentale
p10345
(lp10346
I0
aI8
asVtuta
p10347
(lp10348
I0
aI1
asVtute
p10349
(lp10350
I3
aI0
asVincidente
p10351
(lp10352
I20
aI11
asVsfoggiare
p10353
(lp10354
I3
aI1
asVlivorno
p10355
(lp10356
I6
aI2
asVtutt
p10357
(lp10358
I1
aI0
asVbiglietti
p10359
(lp10360
I3
aI0
asVmalattia
p10361
(lp10362
I27
aI25
asVquirinale
p10363
(lp10364
I2
aI0
asVpossono
p10365
(lp10366
I29
aI17
asVleader
p10367
(lp10368
I15
aI10
asVatletico
p10369
(lp10370
I3
aI11
asVclaudia
p10371
(lp10372
I7
aI20
asVflorenzi
p10373
(lp10374
I0
aI8
asVclaudio
p10375
(lp10376
I7
aI7
asVclassifica
p10377
(lp10378
I0
aI6
asVreunion
p10379
(lp10380
I0
aI2
asVnosiglia
p10381
(lp10382
I0
aI3
asVgavazzi
p10383
(lp10384
I5
aI0
asVusando
p10385
(lp10386
I0
aI5
asVprelievo
p10387
(lp10388
I4
aI0
asVletta
p10389
(lp10390
I0
aI7
asVstipsi
p10391
(lp10392
I0
aI1
asVletto
p10393
(lp10394
I0
aI9
asVconcessione
p10395
(lp10396
I6
aI0
asVfassino
p10397
(lp10398
I0
aI6
asVesistenza
p10399
(lp10400
I8
aI6
asVomicida
p10401
(lp10402
I0
aI2
asVcomplessiva
p10403
(lp10404
I0
aI2
asVcomplessivo
p10405
(lp10406
I0
aI2
asVattacco
p10407
(lp10408
I3
aI7
asVmetri
p10409
(lp10410
I23
aI21
asVmetro
p10411
(lp10412
I0
aI3
asVsdraiata
p10413
(lp10414
I0
aI2
asVvola
p10415
(lp10416
I2
aI2
asVapple
p10417
(lp10418
I0
aI3
asVapr
p10419
(lp10420
I3
aI0
asVapp
p10421
(lp10422
I0
aI11
asVvoli
p10423
(lp10424
I2
aI2
asVzlatan
p10425
(lp10426
I1
aI10
asVopposizione
p10427
(lp10428
I0
aI2
asVduce
p10429
(lp10430
I4
aI0
asVindirizzo
p10431
(lp10432
I5
aI25
asVdicono
p10433
(lp10434
I0
aI2
asVusa
p10435
(lp10436
I11
aI9
asVuso
p10437
(lp10438
I6
aI12
asVfeo
p10439
(lp10440
I3
aI0
asVimpermeabilizzante
p10441
(lp10442
I9
aI0
asVsalvaguardia
p10443
(lp10444
I2
aI4
asVrisparmiatori
p10445
(lp10446
I7
aI0
asVnegoziato
p10447
(lp10448
I1
aI0
asVdetrazioni
p10449
(lp10450
I8
aI8
asVimprese
p10451
(lp10452
I6
aI13
asVdetrazione
p10453
(lp10454
I4
aI0
asVsangue
p10455
(lp10456
I6
aI1
asVimpresa
p10457
(lp10458
I25
aI16
asVfrigorifero
p10459
(lp10460
I3
aI0
asVgrasso
p10461
(lp10462
I8
aI6
asVritrova
p10463
(lp10464
I2
aI0
asVtav
p10465
(lp10466
I4
aI3
asVproporzione
p10467
(lp10468
I2
aI0
asVproprietari
p10469
(lp10470
I2
aI0
asVtal
p10471
(lp10472
I2
aI0
asVenrique
p10473
(lp10474
I0
aI10
asVsondaggi
p10475
(lp10476
I0
aI3
asVsir
p10477
(lp10478
I0
aI4
asVunited
p10479
(lp10480
I6
aI4
asVannuncia
p10481
(lp10482
I3
aI0
asVespressione
p10483
(lp10484
I3
aI5
asVsequestra
p10485
(lp10486
I2
aI0
asVpoteri
p10487
(lp10488
I3
aI0
asVusain
p10489
(lp10490
I4
aI0
asVsequestro
p10491
(lp10492
I2
aI0
asVpotere
p10493
(lp10494
I14
aI13
asVsin
p10495
(lp10496
I2
aI1
asVvengono
p10497
(lp10498
I20
aI14
asVabuso
p10499
(lp10500
I0
aI3
asVcivica
p10501
(lp10502
I2
aI0
asVinvisiglass
p10503
(lp10504
I5
aI0
asVtrainato
p10505
(lp10506
I0
aI1
asVmartina
p10507
(lp10508
I0
aI3
asVelio
p10509
(lp10510
I0
aI2
asVcritiche
p10511
(lp10512
I5
aI12
asVsegretario
p10513
(lp10514
I7
aI5
asVrazze
p10515
(lp10516
I9
aI0
asVdenunce
p10517
(lp10518
I6
aI6
asVrazzo
p10519
(lp10520
I9
aI2
asVcomplicato
p10521
(lp10522
I0
aI3
asVdatore
p10523
(lp10524
I9
aI3
asVdottor
p10525
(lp10526
I4
aI0
asVversace
p10527
(lp10528
I4
aI0
asVsparire
p10529
(lp10530
I4
aI0
asVsopravvivere
p10531
(lp10532
I0
aI3
asVobiezione
p10533
(lp10534
I8
aI0
asVimpiego
p10535
(lp10536
I10
aI0
asVragazza
p10537
(lp10538
I27
aI30
asVparapendio
p10539
(lp10540
I0
aI5
asVtram
p10541
(lp10542
I1
aI0
asVragazzi
p10543
(lp10544
I16
aI12
asVragazzo
p10545
(lp10546
I16
aI13
asVelettorale
p10547
(lp10548
I98
aI232
asVnotizie
p10549
(lp10550
I0
aI1
asVbentley
p10551
(lp10552
I0
aI5
asVlinciaggio
p10553
(lp10554
I3
aI0
asVprenotazione
p10555
(lp10556
I0
aI2
asVnoseda
p10557
(lp10558
I2
aI3
asVspaccare
p10559
(lp10560
I1
aI0
asVsiano
p10561
(lp10562
I7
aI7
asVprestito
p10563
(lp10564
I0
aI5
asVflamboyage
p10565
(lp10566
I0
aI4
asVvco
p10567
(lp10568
I0
aI1
asVnaypyidaw
p10569
(lp10570
I3
aI0
asVviolenze
p10571
(lp10572
I2
aI3
asVtatuaggio
p10573
(lp10574
I3
aI0
asVfarlo
p10575
(lp10576
I2
aI0
asVmolla
p10577
(lp10578
I0
aI12
asVyork
p10579
(lp10580
I28
aI34
asVmalvivente
p10581
(lp10582
I3
aI0
asVnavicella
p10583
(lp10584
I2
aI0
asVducati
p10585
(lp10586
I9
aI0
asVspiega
p10587
(lp10588
I12
aI25
asVspazi
p10589
(lp10590
I1
aI2
asVlte
p10591
(lp10592
I5
aI0
asVlivello
p10593
(lp10594
I7
aI15
asVlivelli
p10595
(lp10596
I2
aI0
asVuccisa
p10597
(lp10598
I0
aI2
asVfurono
p10599
(lp10600
I7
aI6
asVuccisi
p10601
(lp10602
I4
aI0
asVucciso
p10603
(lp10604
I39
aI32
asVprovvisorio
p10605
(lp10606
I0
aI3
asVparalizzata
p10607
(lp10608
I3
aI2
asVmondiali
p10609
(lp10610
I0
aI3
asVmondiale
p10611
(lp10612
I6
aI7
asVvagone
p10613
(lp10614
I8
aI14
asVrigo
p10615
(lp10616
I2
aI0
asVnomination
p10617
(lp10618
I0
aI6
asVgolzi
p10619
(lp10620
I5
aI0
asVabbia
p10621
(lp10622
I6
aI7
asVshell
p10623
(lp10624
I3
aI3
asVtransistor
p10625
(lp10626
I9
aI0
asVcostantini
p10627
(lp10628
I0
aI3
asVsimulato
p10629
(lp10630
I6
aI0
asVstudiare
p10631
(lp10632
I0
aI2
asVcreditori
p10633
(lp10634
I0
aI2
asVcreditore
p10635
(lp10636
I0
aI14
asVmonferrato
p10637
(lp10638
I3
aI3
asVmoto
p10639
(lp10640
I12
aI0
asVnonni
p10641
(lp10642
I0
aI3
asVgiardino
p10643
(lp10644
I0
aI4
asVpremiata
p10645
(lp10646
I2
aI0
asVghz
p10647
(lp10648
I0
aI3
asVferragamo
p10649
(lp10650
I0
aI4
asVnuora
p10651
(lp10652
I2
aI4
asVblocchetto
p10653
(lp10654
I0
aI12
asVripetuto
p10655
(lp10656
I0
aI2
asVeuropea
p10657
(lp10658
I20
aI8
asVeuropeo
p10659
(lp10660
I2
aI2
asVeuropei
p10661
(lp10662
I3
aI0
asVavanzato
p10663
(lp10664
I0
aI3
asVmaurino
p10665
(lp10666
I7
aI7
asVcentri
p10667
(lp10668
I3
aI9
asVcentro
p10669
(lp10670
I6
aI33
asVavanzata
p10671
(lp10672
I0
aI3
asVplaccato
p10673
(lp10674
I3
aI0
asVtrasformer
p10675
(lp10676
I0
aI1
asVproiettile
p10677
(lp10678
I0
aI2
asVtaglia
p10679
(lp10680
I0
aI1
asVsolidariet
p10681
(lp10682
I2
aI2
asVvalutate
p10683
(lp10684
I1
aI3
asVlutto
p10685
(lp10686
I0
aI2
asVmondadori
p10687
(lp10688
I0
aI4
asVschulz
p10689
(lp10690
I2
aI0
asVsessanta
p10691
(lp10692
I4
aI0
asVottant
p10693
(lp10694
I0
aI2
asVuefa
p10695
(lp10696
I2
aI7
asVwhatsup
p10697
(lp10698
I0
aI2
asVbacia
p10699
(lp10700
I2
aI0
asVsopratutto
p10701
(lp10702
I1
aI0
asVbacio
p10703
(lp10704
I2
aI5
asVedenilson
p10705
(lp10706
I2
aI0
asVtrasformato
p10707
(lp10708
I1
aI1
asVscopre
p10709
(lp10710
I3
aI0
asVraffinato
p10711
(lp10712
I0
aI2
asVrimozione
p10713
(lp10714
I0
aI2
asVvenaria
p10715
(lp10716
I2
aI4
asVarrivato
p10717
(lp10718
I2
aI0
asVpiani
p10719
(lp10720
I3
aI0
asVvigor
p10721
(lp10722
I1
aI0
asVtogliermi
p10723
(lp10724
I0
aI4
asVcuba
p10725
(lp10726
I11
aI0
asVcubo
p10727
(lp10728
I0
aI6
asVliquidatore
p10729
(lp10730
I5
aI0
asVwatzke
p10731
(lp10732
I10
aI14
asVview
p10733
(lp10734
I5
aI3
asVbuzzer
p10735
(lp10736
I2
aI0
asVmerita
p10737
(lp10738
I2
aI2
asVvirale
p10739
(lp10740
I1
aI2
asVconversione
p10741
(lp10742
I0
aI2
asVsuocera
p10743
(lp10744
I3
aI6
asVeuropa
p10745
(lp10746
I10
aI11
asVspeso
p10747
(lp10748
I1
aI1
asVjoe
p10749
(lp10750
I12
aI2
asVspese
p10751
(lp10752
I37
aI27
asVspesa
p10753
(lp10754
I2
aI9
asVvoltato
p10755
(lp10756
I0
aI4
asVvedono
p10757
(lp10758
I2
aI4
asVpersonaggio
p10759
(lp10760
I15
aI8
asVcellulare
p10761
(lp10762
I0
aI4
asVcongedo
p10763
(lp10764
I0
aI10
asVvogliamo
p10765
(lp10766
I3
aI6
asVconfconsumatori
p10767
(lp10768
I0
aI2
asVsfigato
p10769
(lp10770
I4
aI0
asVwalb
p10771
(lp10772
I0
aI1
asVwall
p10773
(lp10774
I5
aI9
asVserenit
p10775
(lp10776
I3
aI1
asVbbc
p10777
(lp10778
I0
aI3
asVmontecarlo
p10779
(lp10780
I28
aI3
asVhindi
p10781
(lp10782
I0
aI12
asVliverpool
p10783
(lp10784
I0
aI2
asVlecce
p10785
(lp10786
I2
aI0
asVtroppe
p10787
(lp10788
I3
aI1
asValoe
p10789
(lp10790
I0
aI5
asVobbligatoria
p10791
(lp10792
I0
aI3
asVwild
p10793
(lp10794
I1
aI1
asVgestori
p10795
(lp10796
I2
aI5
asVavr
p10797
(lp10798
I2
aI0
asVpesce
p10799
(lp10800
I2
aI0
asVdual
p10801
(lp10802
I0
aI2
asVprofumi
p10803
(lp10804
I0
aI1
asVuniti
p10805
(lp10806
I12
aI2
asVunito
p10807
(lp10808
I6
aI0
asVunita
p10809
(lp10810
I0
aI1
asVcross
p10811
(lp10812
I7
aI3
asVpasseggeri
p10813
(lp10814
I4
aI0
asVinci
p10815
(lp10816
I10
aI0
asVgesap
p10817
(lp10818
I2
aI0
asVaffidatari
p10819
(lp10820
I0
aI5
asVraddoppiare
p10821
(lp10822
I0
aI4
asVsfuriata
p10823
(lp10824
I1
aI0
asVtimbra
p10825
(lp10826
I2
aI1
asVculturali
p10827
(lp10828
I6
aI2
asVtrasversale
p10829
(lp10830
I0
aI14
asVformaggio
p10831
(lp10832
I7
aI0
asVterza
p10833
(lp10834
I0
aI6
asVnadal
p10835
(lp10836
I3
aI3
asVtcj
p10837
(lp10838
I0
aI2
asVincarichi
p10839
(lp10840
I24
aI5
asVtendenza
p10841
(lp10842
I0
aI2
asVborromeo
p10843
(lp10844
I3
aI2
asVcinge
p10845
(lp10846
I0
aI2
asValmeno
p10847
(lp10848
I0
aI2
asVsky
p10849
(lp10850
I11
aI45
asVassistita
p10851
(lp10852
I0
aI9
asVdispositivo
p10853
(lp10854
I0
aI3
asVviaggiare
p10855
(lp10856
I0
aI2
asVinvenzioni
p10857
(lp10858
I7
aI0
asVvarianti
p10859
(lp10860
I6
aI6
asVventiquattro
p10861
(lp10862
I2
aI0
asVcpap
p10863
(lp10864
I4
aI8
asVprese
p10865
(lp10866
I0
aI2
asVcalcolare
p10867
(lp10868
I0
aI6
asVsilletti
p10869
(lp10870
I1
aI0
asVmorbillo
p10871
(lp10872
I0
aI9
asVsaluzzi
p10873
(lp10874
I14
aI11
asVvitta
p10875
(lp10876
I0
aI1
asVtrasportata
p10877
(lp10878
I0
aI2
asVtrapianto
p10879
(lp10880
I9
aI3
asVexport
p10881
(lp10882
I6
aI0
asVdottore
p10883
(lp10884
I3
aI0
asVjeremy
p10885
(lp10886
I6
aI32
asVmistero
p10887
(lp10888
I9
aI3
asVsobrero
p10889
(lp10890
I0
aI1
asVlear
p10891
(lp10892
I0
aI3
asVodeon
p10893
(lp10894
I0
aI2
asVsetto
p10895
(lp10896
I0
aI2
asVsetta
p10897
(lp10898
I20
aI16
asVstaccata
p10899
(lp10900
I2
aI0
asVmurdoch
p10901
(lp10902
I4
aI4
asVgiustificati
p10903
(lp10904
I0
aI4
asVpasti
p10905
(lp10906
I0
aI3
asVpasto
p10907
(lp10908
I2
aI2
asVvetro
p10909
(lp10910
I5
aI3
asVuniverso
p10911
(lp10912
I26
aI23
asVtassi
p10913
(lp10914
I11
aI17
asVreti
p10915
(lp10916
I5
aI7
asVgabanelli
p10917
(lp10918
I10
aI0
asVstanno
p10919
(lp10920
I7
aI5
asVowc
p10921
(lp10922
I0
aI3
asVvan
p10923
(lp10924
I3
aI6
asVtransfer
p10925
(lp10926
I0
aI9
asVricerche
p10927
(lp10928
I4
aI11
asVcontinental
p10929
(lp10930
I0
aI2
asVvittimismo
p10931
(lp10932
I0
aI1
asVricordo
p10933
(lp10934
I3
aI3
asVricorda
p10935
(lp10936
I6
aI2
asVvolume
p10937
(lp10938
I1
aI1
asVmatematica
p10939
(lp10940
I6
aI10
asVvolumi
p10941
(lp10942
I3
aI0
asVtaglio
p10943
(lp10944
I8
aI27
asVrademenesa
p10945
(lp10946
I15
aI0
asVornella
p10947
(lp10948
I3
aI5
asVnaviga
p10949
(lp10950
I2
aI0
asVrecord
p10951
(lp10952
I6
aI20
asVtema
p10953
(lp10954
I19
aI7
asViphone
p10955
(lp10956
I7
aI4
asVcontatore
p10957
(lp10958
I7
aI0
asVsentito
p10959
(lp10960
I4
aI2
asVscoppia
p10961
(lp10962
I2
aI0
asVbuffa
p10963
(lp10964
I0
aI11
asVintercettazioni
p10965
(lp10966
I0
aI2
asVscoppio
p10967
(lp10968
I6
aI3
asVebraico
p10969
(lp10970
I6
aI0
asVbook
p10971
(lp10972
I4
aI0
asVlanci
p10973
(lp10974
I7
aI0
asVunicit
p10975
(lp10976
I4
aI1
asVtuttobari
p10977
(lp10978
I1
aI0
asVscivola
p10979
(lp10980
I0
aI4
asVsfumature
p10981
(lp10982
I3
aI4
asVispettore
p10983
(lp10984
I0
aI4
asVproblematica
p10985
(lp10986
I3
aI0
asVriferito
p10987
(lp10988
I4
aI7
asVheidi
p10989
(lp10990
I4
aI4
asVnasale
p10991
(lp10992
I0
aI2
as.