(dp0
I1
F5.113661285798077
sI2
F5.0541575492341355
sI3
F5.069214849638468
sI4
F4.367605379002593
sI5
F4.801098962400982
sI6
F4.696003145066177
sI7
F4.29865265820322
sI8
F3.024727539151937
sI9
F3.530923476475207
sI10
F4.1132411207857835
sI11
F4.2078890126797175
sI12
F4.057414829659319
s.