(dp0
I1
F0.0
sI2
F0.6765759147881181
sI3
F0.39906900390163824
sI4
F1.6563833607536267
sI5
F2.343814955510275
sI6
F2.8318029665571354
sI7
F1.0343395295278828
sI8
F0.0
sI9
F0.0
sI10
F0.19412906247908812
sI11
F2.91965049693938
sI12
F2.0019483515920085
s.