(dp0
I1
(dp1
S'tecnologia'
p2
F2.57577722145201
sS'economia'
p3
F9.440859357078027
sS'regione'
p4
F0.908129781270883
sS'scienza'
p5
F4.192557425120436
sS'persone'
p6
F6.954349148721836
sS'media'
p7
F1.2317850410428781
sS'politica'
p8
F4.259881708740188
sS'monaco'
p9
F0.05485682369016866
sS'curiosita'
p10
F0.25234138897477587
sS'spettacolo'
p11
F8.226528759936565
sS'prodotto'
p12
F0.8667378143046649
sS'gallerie'
p13
F4.9480854968532135
sS'salute'
p14
F1.2517329769302121
sS'motori'
p15
F1.0936455850230897
sS'moda'
p16
F0.05485682369016866
sS'esteri'
p17
F7.908857880930771
sS'cronaca'
p18
F15.384845553106391
sS'sport'
p19
F13.834890934660535
sS'rubriche'
p20
F16.44258485353228
sS'scuola'
p21
F0.11669542494090425
ssI2
(dp22
S'tecnologia'
p23
F2.6945556878450048
sS'politica'
p24
F4.142223184327308
sS'economia'
p25
F9.483710358263881
sS'motori'
p26
F0.8242234008009525
sS'esteri'
p27
F5.611538045242992
sS'sport'
p28
F15.430782552224267
sS'rubriche'
p29
F14.949128693581557
sS'scuola'
p30
F0.21593246022296786
sS'regione'
p31
F0.6077497564671501
sS'media'
p32
F0.9400368005195368
sS'spettacolo'
p33
F11.145145578525813
sS'gallerie'
p34
F5.263556661976404
sS'musica'
p35
F0.24461521809719666
sS'salute'
p36
F1.808637298408919
sS'persone'
p37
F6.8216257170689465
sS'finale'
p38
F0.06873038207598225
sS'norme'
p39
F0.0638597250784717
sS'viaggi'
p40
F0.06656564563264422
sS'scienza'
p41
F4.233142114947505
sS'festa'
p42
F0.11040155861023919
sS'prodotto'
p43
F1.0158025760363676
sS'cronaca'
p44
F14.258036584045891
ssI3
(dp45
S'tecnologia'
p46
F3.0508457490776393
sS'politica'
p47
F4.277635531541703
sS'economia'
p48
F7.640470958246809
sS'motori'
p49
F1.3603556379911694
sS'esteri'
p50
F7.979677829076026
sS'sport'
p51
F15.962883812826353
sS'rubriche'
p52
F15.870143747101872
sS'scuola'
p53
F0.5594645269248604
sS'regione'
p54
F0.7787141388278462
sS'prodotto'
p55
F0.17640773371504606
sS'media'
p56
F0.7520009677224249
sS'spettacolo'
p57
F8.397008124836193
sS'gallerie'
p58
F4.770569141751174
sS'cucina'
p59
F0.03981774560996754
sS'salute'
p60
F1.3190258260922159
sS'persone'
p61
F6.963569282877362
sS'viaggi'
p62
F0.11390899377028689
sS'scienza'
p63
F4.290236083949921
sS'festa'
p64
F0.04082578980262495
sS'moda'
p65
F0.25705126912763854
sS'cronaca'
p66
F15.341928590149392
sS'notizia'
p67
F0.057458518981472154
ssI4
(dp68
S'tecnologia'
p69
F2.918760700281659
sS'storia'
p70
F0.06420168995416138
sS'regione'
p71
F0.9464571712597338
sS'scienza'
p72
F3.7830673220301545
sS'persone'
p73
F7.589606229634947
sS'media'
p74
F0.9775225051085216
sS'politica'
p75
F4.126857016623405
sS'spettacolo'
p76
F8.633401446954217
sS'prodotto'
p77
F0.14842326172198597
sS'gallerie'
p78
F4.8751863920030925
sS'esteri'
p79
F5.969376484232617
sS'salute'
p80
F1.1963605235544266
sS'motori'
p81
F1.631275197437455
sS'monaco'
p82
F0.12011929088197935
sS'economia'
p83
F7.827773789142321
sS'cucina'
p84
F0.05108521566245098
sS'cronaca'
p85
F16.285828685038936
sS'sport'
p86
F16.72005301816977
sS'scuola'
p87
F0.18846302534931242
sS'rubriche'
p88
F15.87990832274811
sS'social'
p89
F0.06627271221074722
ssI5
(dp90
S'tecnologia'
p91
F2.4429352404301423
sS'politica'
p92
F4.344416106524758
sS'scienza'
p93
F3.4973769672745436
sS'regione'
p94
F1.982234254541652
sS'persone'
p95
F6.410889507288138
sS'media'
p96
F1.3681599265667028
sS'festa'
p97
F0.04531485107099907
sS'finale'
p98
F0.1388493513585741
sS'spettacolo'
p99
F7.345072590905658
sS'servizi'
p100
F0.0662293977191525
sS'gallerie'
p101
F5.302999494565123
sS'salute'
p102
F0.730847213427139
sS'motori'
p103
F1.104985214577439
sS'monaco'
p104
F0.16092581726495825
sS'esteri'
p105
F5.45404899813512
sS'cucina'
p106
F0.06913419586472937
sS'cronaca'
p107
F15.54589871549826
sS'sport'
p108
F20.34869196939505
sS'economia'
p109
F7.572227805889768
sS'rubriche'
p110
F15.101464599225
sS'scuola'
p111
F0.9672977824770957
ssI6
(dp112
S'tecnologia'
p113
F2.6739072197169262
sS'politica'
p114
F4.305822208331473
sS'giugno'
p115
F0.20203598696253963
sS'economia'
p116
F9.418672143590658
sS'motori'
p117
F1.8345090860383086
sS'esteri'
p118
F6.728579720498281
sS'sport'
p119
F19.087935884270216
sS'rossi'
p120
F0.04688127874268875
sS'rubriche'
p121
F12.95374380497388
sS'scuola'
p122
F0.3839799973210698
sS'regione'
p123
F1.864647050944323
sS'moda'
p124
F0.06864758673036567
sS'media'
p125
F0.8187480466133857
sS'spettacolo'
p126
F6.739741929722731
sS'gallerie'
p127
F5.368464526499085
sS'salute'
p128
F0.9376255748537751
sS'persone'
p129
F5.944434522480689
sS'viaggi'
p130
F0.05692726704469348
sS'scienza'
p131
F3.94137607715319
sS'festa'
p132
F0.05413671473858107
sS'prodotto'
p133
F0.49783453141045675
sS'cronaca'
p134
F16.07134884136268
ssI7
(dp135
S'tecnologia'
p136
F3.1377297003711413
sS'luglio'
p137
F0.3847198334389427
sS'economia'
p138
F10.367633746718566
sS'regione'
p139
F1.0562822485742736
sS'scienza'
p140
F4.271521680094144
sS'persone'
p141
F6.137412872273015
sS'media'
p142
F1.2554313388250204
sS'festa'
p143
F0.06449714854711686
sS'politica'
p144
F3.798542590748619
sS'spettacolo'
p145
F6.987191092604326
sS'prodotto'
p146
F0.04299809903141125
sS'gallerie'
p147
F4.918190458948131
sS'salute'
p148
F0.5657644609396216
sS'motori'
p149
F1.4913551190368426
sS'moda'
p150
F0.07920702453154703
sS'esteri'
p151
F5.727799402552729
sS'viaggi'
p152
F1.9134154068978004
sS'cronaca'
p153
F17.108717298814156
sS'sport'
p154
F17.516067710690685
sS'rubriche'
p155
F13.088960803838145
sS'scuola'
p156
F0.08656196252376211
ssI8
(dp157
S'tecnologia'
p158
F2.843128349532201
sS'regione'
p159
F1.2323250673691222
sS'scienza'
p160
F3.736336936445938
sS'persone'
p161
F5.017107215308687
sS'media'
p162
F0.6509825294456051
sS'politica'
p163
F3.693947376389015
sS'spettacolo'
p164
F7.206225209676931
sS'economia'
p165
F7.324310412692646
sS'gallerie'
p166
F7.5059799557937446
sS'musica'
p167
F0.042389560056923126
sS'salute'
p168
F0.9931268356193417
sS'motori'
p169
F0.5419808035849456
sS'moda'
p170
F0.5662034093317588
sS'esteri'
p171
F4.520543797499016
sS'viaggi'
p172
F3.485027401822751
sS'cronaca'
p173
F16.69543101099101
sS'sport'
p174
F21.161473945559695
sS'rubriche'
p175
F12.771368880007266
sS'social'
p176
F0.012111302873406607
ssI9
(dp177
S'tecnologia'
p178
F3.2713837311735072
sS'finale'
p179
F0.2369080505974017
sS'regione'
p180
F0.7782899857170958
sS'scienza'
p181
F4.086450056875037
sS'persone'
p182
F6.2494120061921095
sS'ottobre'
p183
F0.0008552637205682372
sS'media'
p184
F0.7748689308348229
sS'festa'
p185
F0.005986846043977661
sS'politica'
p186
F3.1687520847053188
sS'spettacolo'
p187
F9.201782369593664
sS'economia'
p188
F5.858556485892425
sS'gallerie'
p189
F4.674871496625984
sS'salute'
p190
F0.7475004917766394
sS'motori'
p191
F2.4203963292081117
sS'moda'
p192
F0.40967132215218566
sS'esteri'
p193
F6.353754180101435
sS'viaggi'
p194
F1.8413827903834148
sS'cronaca'
p195
F12.857179511302311
sS'sport'
p196
F24.185147490228612
sS'rubriche'
p197
F12.6527714820865
sS'scuola'
p198
F0.22407909478887816
ssI10
(dp199
S'tecnologia'
p200
F2.578892420213533
sS'politica'
p201
F4.210095230404512
sS'economia'
p202
F7.418858042671989
sS'motori'
p203
F4.02840184808126
sS'esteri'
p204
F5.556933477149894
sS'sport'
p205
F21.923181191562506
sS'rossi'
p206
F0.5248919933782856
sS'rubriche'
p207
F12.77794761462545
sS'regione'
p208
F0.9603793065657643
sS'prodotto'
p209
F0.05306600372615635
sS'media'
p210
F0.5837260409877199
sS'spettacolo'
p211
F8.100064025287104
sS'gallerie'
p212
F3.697892933569438
sS'cucina'
p213
F0.040953111571272835
sS'salute'
p214
F1.1599536249271785
sS'persone'
p215
F6.072596600314935
sS'viaggi'
p216
F0.8577081254434185
sS'scienza'
p217
F4.094157548350628
sS'ottobre'
p218
F0.11305366011224614
sS'moda'
p219
F0.05710363444445085
sS'social'
p220
F0.13900985758699652
sS'cronaca'
p221
F15.051133709025258
ssI11
(dp222
S'tecnologia'
p223
F2.700641118584874
sS'storia'
p224
F0.07564821060461832
sS'regione'
p225
F1.0950078485018504
sS'scienza'
p226
F3.8883180250773814
sS'persone'
p227
F6.684149808673068
sS'media'
p228
F0.6486834059346022
sS'politica'
p229
F3.240265020897818
sS'spettacolo'
p230
F7.832111404598151
sS'economia'
p231
F6.157133941460893
sS'gallerie'
p232
F3.7338695950929526
sS'salute'
p233
F0.9329945974569592
sS'motori'
p234
F3.781780128475878
sS'esteri'
p235
F9.676036538085722
sS'viaggi'
p236
F0.5919472479811384
sS'cronaca'
p237
F14.924761550536155
sS'sport'
p238
F21.147457274521052
sS'rossi'
p239
F0.518820644396674
sS'rubriche'
p240
F12.173688291548205
sS'scuola'
p241
F0.19668534757200765
ssI12
(dp242
S'tecnologia'
p243
F2.748623218827946
sS'politica'
p244
F3.977230632454992
sS'economia'
p245
F7.42906181315289
sS'motori'
p246
F0.9063294890474897
sS'esteri'
p247
F6.916010174598079
sS'sport'
p248
F20.28128318474798
sS'rubriche'
p249
F12.332995826439138
sS'scuola'
p250
F0.15805200898920801
sS'regione'
p251
F1.1310596893290197
sS'media'
p252
F1.0100511199466575
sS'spettacolo'
p253
F8.840416862173708
sS'gallerie'
p254
F4.000074086879214
sS'cucina'
p255
F0.13706072654532883
sS'salute'
p256
F0.5704689699454227
sS'persone'
p257
F6.930827550440817
sS'curiosita'
p258
F0.12841725730373152
sS'dicembre'
p259
F0.28523448497271137
sS'viaggi'
p260
F0.31363445533795964
sS'natale'
p261
F1.4576593485293754
sS'scienza'
p262
F4.101326155137925
sS'prodotto'
p263
F0.08643469241597312
sS'social'
p264
F0.06729558195243622
sS'cronaca'
p265
F16.190452670831995
ss.