(dp0
I1
(dp1
sI2
(dp2
S'tecnologia'
p3
F3.148644522104978
sS'scuola'
p4
F1.2502968818919011
sS'finale'
p5
F0.001696467953720354
sS'ritorno'
p6
F0.005089403861161063
sS'regione'
p7
F0.6819801173955824
sS'scienza'
p8
F5.717097004037594
sS'persone'
p9
F1.8270959861568217
sS'politica'
p10
F4.057951345299087
sS'spettacolo'
p11
F9.703796695280426
sS'prodotto'
p12
F0.001696467953720354
sS'gallerie'
p13
F4.135988871170223
sS'online'
p14
F0.001696467953720354
sS'motori'
p15
F1.5268211583483187
sS'moda'
p16
F0.17303973127947614
sS'esteri'
p17
F6.718013096732603
sS'viaggi'
p18
F0.6056390594781665
sS'cronaca'
p19
F17.931666270824145
sS'sport'
p20
F19.68072473110983
sS'economia'
p21
F7.9954534658840295
sS'rubriche'
p22
F13.805856207376245
sS'salute'
p23
F1.029756047908255
ssI3
(dp24
S'tecnologia'
p25
F2.442804012171757
sS'scuola'
p26
F0.9016116307900371
sS'scienza'
p27
F5.9478192268680266
sS'regione'
p28
F0.005635072692437732
sS'media'
p29
F0.5240617603967092
sS'politica'
p30
F2.93305533641384
sS'spettacolo'
p31
F6.311281415530261
sS'economia'
p32
F5.091288177617492
sS'gallerie'
p33
F2.0539839963935536
sS'salute'
p34
F1.2143581652203312
sS'motori'
p35
F0.9607798940606334
sS'moda'
p36
F0.9805026484841655
sS'esteri'
p37
F20.807505916826326
sS'futuro'
p38
F0.005635072692437732
sS'persone'
p39
F2.3019271948608138
sS'sport'
p40
F15.941620646906346
sS'cronaca'
p41
F18.023780006762088
sS'rubriche'
p42
F13.552349825312746
ssI4
(dp43
S'fondi'
p44
F0.04890665886849151
sS'storia'
p45
F0.06756177616884394
sS'ritorno'
p46
F0.08772947054760331
sS'storie'
p47
F0.0005041923594689846
sS'tecnologia'
p48
F3.771863041187474
sS'politica'
p49
F3.7481660002924313
sS'economia'
p50
F5.736700666038106
sS'motori'
p51
F1.238296434855826
sS'esteri'
p52
F7.966239279609957
sS'sport'
p53
F20.66936577643102
sS'ultimora'
p54
F0.0005041923594689846
sS'rubriche'
p55
F13.879407271462208
sS'scuola'
p56
F0.721499266400117
sS'regione'
p57
F0.6120895243953474
sS'media'
p58
F0.987208639840272
sS'spettacolo'
p59
F6.812142968785451
sS'gallerie'
p60
F3.7743840029848186
sS'online'
p61
F0.0010083847189379692
sS'salute'
p62
F0.8293964313264797
sS'persone'
p63
F2.4322239420783816
sS'finale'
p64
F0.0005041923594689846
sS'viaggi'
p65
F0.1905847118792762
sS'intesa'
p66
F0.08621689346919637
sS'scienza'
p67
F6.0664424691308225
sS'moda'
p68
F0.1865511730035243
sS'giochi'
p69
F0.0005041923594689846
sS'cronaca'
p70
F20.083998447087534
ssI5
(dp71
S'tecnologia'
p72
F2.952329360780065
sS'storia'
p73
F0.0004368643623527767
sS'storie'
p74
F0.22236396043756337
sS'politica'
p75
F3.797661901932688
sS'economia'
p76
F5.8863104183413135
sS'motori'
p77
F0.5792821444797819
sS'moda'
p78
F0.0004368643623527767
sS'esteri'
p79
F7.429315346171321
sS'sport'
p80
F26.1017719218537
sS'rubriche'
p81
F13.007199524691574
sS'mare'
p82
F0.11227414112466362
sS'fissa'
p83
F0.0004368643623527767
sS'scuola'
p84
F1.5692167895711742
sS'regione'
p85
F0.7085939957362039
sS'prodotto'
p86
F0.00131059308705833
sS'media'
p87
F0.7199524691573761
sS'spettacolo'
p88
F5.504927830007339
sS'gallerie'
p89
F3.8059623248173904
sS'salute'
p90
F0.776744836263237
sS'persone'
p91
F2.709432775311921
sS'finale'
p92
F0.11402159857407472
sS'viaggi'
p93
F0.38706182504456016
sS'ragazza'
p94
F0.0004368643623527767
sS'scienza'
p95
F5.53332401356027
sS'servizi'
p96
F0.07251948415056093
sS'stelle'
p97
F0.0004368643623527767
sS'cronaca'
p98
F17.999685457659105
sS'carte'
p99
F0.006552965435291651
ssI6
(dp100
S'tecnologia'
p101
F2.5907690972975317
sS'storia'
p102
F0.004880058994490955
sS'storie'
p103
F0.8442502060469352
sS'politica'
p104
F3.1454691363380034
sS'giugno'
p105
F0.5931982822192339
sS'economia'
p106
F7.919251290504489
sS'motori'
p107
F0.9478159024855767
sS'esteri'
p108
F8.282544571205483
sS'sport'
p109
F22.000932633496724
sS'ultimora'
p110
F0.0016266863314969853
sS'rubriche'
p111
F12.60139678132998
sS'mare'
p112
F0.004337830217325294
sS'scuola'
p113
F0.8247299700689714
sS'regione'
p114
F1.0942176723203054
sS'media'
p115
F0.34811087494035486
sS'spettacolo'
p116
F5.608272242224439
sS'gallerie'
p117
F3.9837548258361166
sS'online'
p118
F0.0010844575543313235
sS'salute'
p119
F0.9852296881100073
sS'persone'
p120
F2.3505617490131434
sS'finale'
p121
F0.06723636836854206
sS'viaggi'
p122
F0.8393701470524444
sS'scienza'
p123
F6.107122717216848
sS'analisi'
p124
F0.12471261874810219
sS'moda'
p125
F0.19899796121979788
sS'giochi'
p126
F0.0016266863314969853
sS'cronaca'
p127
F18.52090834164751
sS'messaggi'
p128
F0.0075912028803192646
ssI7
(dp129
S'tecnologia'
p130
F2.640054073396684
sS'storie'
p131
F0.12126754403403443
sS'regione'
p132
F0.22265516281658781
sS'scienza'
p133
F5.021669118524114
sS'persone'
p134
F1.7196135342531111
sS'media'
p135
F0.715677309053318
sS'politica'
p136
F2.584390282692537
sS'spettacolo'
p137
F4.413343405828794
sS'economia'
p138
F14.28173830066399
sS'gallerie'
p139
F3.7573058725299195
sS'salute'
p140
F0.6441095781479862
sS'motori'
p141
F1.244483320742714
sS'moda'
p142
F0.035783865452665896
sS'esteri'
p143
F9.26603315971532
sS'viaggi'
p144
F7.564311558188541
sS'cronaca'
p145
F19.037016420818258
sS'sport'
p146
F15.391038129696632
sS'rubriche'
p147
F10.94588684346547
sS'scuola'
p148
F0.39362251997932485
ssI8
(dp149
sI9
(dp150
sI10
(dp151
S'tecnologia'
p152
F2.700218315523383
sS'ritorno'
p153
F1.3328737217051592
sS'regione'
p154
F1.0111455819832242
sS'scienza'
p155
F6.940135585430311
sS'persone'
p156
F2.6657474434103183
sS'politica'
p157
F2.7806503504538664
sS'spettacolo'
p158
F9.789727680110307
sS'economia'
p159
F6.917155004021602
sS'gallerie'
p160
F2.55084453636677
sS'salute'
p161
F0.04596116281741928
sS'motori'
p162
F1.5971504079053198
sS'esteri'
p163
F6.8711938412041835
sS'viaggi'
p164
F0.12639319774790303
sS'cronaca'
p165
F24.118120188440766
sS'sport'
p166
F18.21211076640239
sS'rubriche'
p167
F12.306101344364013
sS'scuola'
p168
F0.03447087211306446
ssI11
(dp169
S'tecnologia'
p170
F3.11272423957212
sS'storia'
p171
F0.0005635930182096904
sS'ritorno'
p172
F0.0022543720728387616
sS'politica'
p173
F1.9945556914440943
sS'economia'
p174
F4.175660671915597
sS'motori'
p175
F3.2513681220517037
sS'esteri'
p176
F14.852930401898181
sS'sport'
p177
F18.901782644716597
sS'rubriche'
p178
F12.32465212220951
sS'regina'
p179
F0.0005635930182096904
sS'scuola'
p180
F0.21529253295610173
sS'regione'
p181
F0.2851780672141033
sS'media'
p182
F0.5123060535526086
sS'spettacolo'
p183
F6.375927815006227
sS'gallerie'
p184
F3.649828385925955
sS'salute'
p185
F0.7304165515997588
sS'persone'
p186
F2.4876995823775734
sS'novembre'
p187
F0.5928998551565944
sS'finale'
p188
F0.0005635930182096904
sS'corso'
p189
F0.10370111535058305
sS'viaggi'
p190
F2.755969859045386
sS'titolo'
p191
F0.0022543720728387616
sS'ragazza'
p192
F0.0005635930182096904
sS'scienza'
p193
F5.6990526001363895
sS'moda'
p194
F0.22487361426566646
sS'social'
p195
F0.0011271860364193808
sS'atto'
p196
F0.0005635930182096904
sS'futuro'
p197
F0.0011271860364193808
sS'cronaca'
p198
F17.743598992295684
ssI12
(dp199
S'tecnologia'
p200
F3.3764171561262124
sS'storie'
p201
F0.041831716978554846
sS'politica'
p202
F2.742111733369758
sS'giugno'
p203
F0.0008537085097664253
sS'economia'
p204
F5.374095068979647
sS'banca'
p205
F0.004268542548832127
sS'motori'
p206
F0.3901447889632564
sS'esteri'
p207
F9.29261712880754
sS'sport'
p208
F20.474491189728177
sS'rubriche'
p209
F12.589639393525475
sS'mare'
p210
F0.002561125529299276
sS'scuola'
p211
F0.18610845512908072
sS'regione'
p212
F0.6138164185220598
sS'moda'
p213
F0.2117197104220735
sS'media'
p214
F1.1226266903428495
sS'spettacolo'
p215
F8.356952602103537
sS'gallerie'
p216
F4.292446387105587
sS'salute'
p217
F0.29538314437918317
sS'persone'
p218
F3.338000273186723
sS'novembre'
p219
F0.0008537085097664253
sS'continua'
p220
F0.003414834039065701
sS'viaggi'
p221
F1.5102103537768066
sS'intesa'
p222
F0.0008537085097664253
sS'natale'
p223
F0.6932113099303374
sS'ragazza'
p224
F0.0008537085097664253
sS'scienza'
p225
F5.595205573009151
sS'servizi'
p226
F0.002561125529299276
sS'stelle'
p227
F0.0017074170195328505
sS'social'
p228
F0.09220051905477394
sS'cronaca'
p229
F19.391135090834585
sS'carte'
p230
F0.0017074170195328505
ss.