(dp0
S'11'
p1
(lp2
(dp3
S'storia'
p4
S'1.03092783505'
p5
sS'finale'
p6
S'1.03092783505'
p7
sS'persone'
p8
S'4.12371134021'
p9
sS'novembre'
p10
S'1.03092783505'
p11
sS'media'
p12
S'2.0618556701'
p13
sS'politica'
p14
S'2.0618556701'
p15
sS'spettacolo'
p16
S'11.3402061856'
p17
sS'economia'
p18
S'8.24742268041'
p19
sS'motori'
p20
S'2.0618556701'
p21
sS'esteri'
p22
S'3.09278350515'
p23
sS'futuro'
p24
S'2.0618556701'
p25
sS'cronaca'
p26
S'9.27835051546'
p27
sS'sport'
p28
S'37.1134020619'
p29
sS'rubriche'
p30
S'13.4020618557'
p31
sa(dp32
S'tecnologia'
p33
S'1.66598107775'
p34
sS'scienza'
p35
S'3.01316330728'
p36
sS'persone'
p37
S'1.87165775401'
p38
sS'media'
p39
S'1.79967091732'
p40
sS'politica'
p41
S'2.34471410942'
p42
sS'spettacolo'
p43
S'5.37844508433'
p44
sS'economia'
p45
S'4.37062937063'
p46
sS'gallerie'
p47
S'4.72027972028'
p48
sS'motori'
p49
S'2.10818593172'
p50
sS'esteri'
p51
S'6.86960098725'
p52
sS'viaggi'
p53
S'3.85643767997'
p54
sS'cronaca'
p55
S'14.479638009'
p56
sS'sport'
p57
S'29.1752365282'
p58
sS'rubriche'
p59
S'12.5771287536'
p60
sa(dp61
S'tecnologia'
p62
S'3.98626951611'
p63
sS'scienza'
p64
S'4.30738567158'
p65
sS'persone'
p66
S'2.0706455542'
p67
sS'media'
p68
S'1.21802679659'
p69
sS'politica'
p70
S'3.21116155465'
p71
sS'spettacolo'
p72
S'5.37039087587'
p73
sS'economia'
p74
S'4.87210718636'
p75
sS'gallerie'
p76
S'7.21957701251'
p77
sS'motori'
p78
S'3.93090466172'
p79
sS'moda'
p80
S'1.12944302956'
p81
sS'esteri'
p82
S'6.57734470158'
p83
sS'cronaca'
p84
S'14.2287675783'
p85
sS'sport'
p86
S'23.9951278928'
p87
sS'rubriche'
p88
S'11.3276492083'
p89
sa(dp90
S'tecnologia'
p91
S'2.68899634391'
p92
sS'scienza'
p93
S'4.46986672957'
p94
sS'persone'
p95
S'2.09930416323'
p96
sS'politica'
p97
S'1.95777803986'
p98
sS'spettacolo'
p99
S'6.07382946102'
p100
sS'economia'
p101
S'4.04528835948'
p102
sS'gallerie'
p103
S'3.12536855761'
p104
sS'salute'
p105
S'2.15827338129'
p106
sS'motori'
p107
S'3.3730392735'
p108
sS'esteri'
p109
S'7.57164759995'
p110
sS'viaggi'
p111
S'1.8988088218'
p112
sS'cronaca'
p113
S'16.8651963675'
p114
sS'sport'
p115
S'22.679561269'
p116
sS'rubriche'
p117
S'12.5250619177'
p118
sa(dp119
S'tecnologia'
p120
S'1.99324324324'
p121
sS'scienza'
p122
S'7.19594594595'
p123
sS'persone'
p124
S'2.62387387387'
p125
sS'novembre'
p126
S'1.97072072072'
p127
sS'politica'
p128
S'2.30855855856'
p129
sS'spettacolo'
p130
S'6.65540540541'
p131
sS'economia'
p132
S'4.17792792793'
p133
sS'gallerie'
p134
S'2.57882882883'
p135
sS'salute'
p136
S'1.40765765766'
p137
sS'motori'
p138
S'9.14414414414'
p139
sS'esteri'
p140
S'6.77927927928'
p141
sS'cronaca'
p142
S'14.1891891892'
p143
sS'sport'
p144
S'20.2927927928'
p145
sS'rubriche'
p146
S'12.5112612613'
p147
sa(dp148
S'tecnologia'
p149
S'2.83093053735'
p150
sS'scienza'
p151
S'5.50458715596'
p152
sS'persone'
p153
S'2.05766710354'
p154
sS'novembre'
p155
S'1.04849279161'
p156
sS'media'
p157
S'0.930537352556'
p158
sS'politica'
p159
S'2.66055045872'
p160
sS'spettacolo'
p161
S'6.97247706422'
p162
sS'economia'
p163
S'5.04587155963'
p164
sS'gallerie'
p165
S'2.47706422018'
p166
sS'motori'
p167
S'6.39580602883'
p168
sS'esteri'
p169
S'7.22149410223'
p170
sS'cronaca'
p171
S'17.2346002621'
p172
sS'sport'
p173
S'21.0353866317'
p174
sS'rubriche'
p175
S'12.5425950197'
p176
sa(dp177
S'tecnologia'
p178
S'1.83486238532'
p179
sS'scienza'
p180
S'4.12844036697'
p181
sS'persone'
p182
S'5.50458715596'
p183
sS'novembre'
p184
S'0.917431192661'
p185
sS'politica'
p186
S'5.04587155963'
p187
sS'spettacolo'
p188
S'4.12844036697'
p189
sS'economia'
p190
S'2.29357798165'
p191
sS'gallerie'
p192
S'1.83486238532'
p193
sS'motori'
p194
S'4.12844036697'
p195
sS'esteri'
p196
S'5.96330275229'
p197
sS'viaggi'
p198
S'5.04587155963'
p199
sS'cronaca'
p200
S'17.4311926606'
p201
sS'sport'
p202
S'23.8532110092'
p203
sS'rubriche'
p204
S'15.5963302752'
p205
sa(dp206
S'tecnologia'
p207
S'3.84615384615'
p208
sS'scuola'
p209
S'3.84615384615'
p210
sS'scienza'
p211
S'1.28205128205'
p212
sS'media'
p213
S'2.5641025641'
p214
sS'politica'
p215
S'1.28205128205'
p216
sS'atto'
p217
S'1.28205128205'
p218
sS'spettacolo'
p219
S'6.41025641026'
p220
sS'economia'
p221
S'3.84615384615'
p222
sS'motori'
p223
S'16.6666666667'
p224
sS'social'
p225
S'2.5641025641'
p226
sS'esteri'
p227
S'8.97435897436'
p228
sS'cronaca'
p229
S'20.5128205128'
p230
sS'sport'
p231
S'19.2307692308'
p232
sS'rubriche'
p233
S'7.69230769231'
p234
sa(dp235
S'tecnologia'
p236
S'2.80187456377'
p237
sS'scienza'
p238
S'4.93568650912'
p239
sS'persone'
p240
S'3.34031309203'
p241
sS'novembre'
p242
S'0.747831289261'
p243
sS'media'
p244
S'1.07687705654'
p245
sS'politica'
p246
S'3.05115166019'
p247
sS'spettacolo'
p248
S'6.60085751321'
p249
sS'economia'
p250
S'3.83886728487'
p251
sS'gallerie'
p252
S'2.07398544222'
p253
sS'motori'
p254
S'7.99680925317'
p255
sS'esteri'
p256
S'4.19782630372'
p257
sS'cronaca'
p258
S'16.8810449696'
p259
sS'sport'
p260
S'27.3008276'
p261
sS'rubriche'
p262
S'10.0707946954'
p263
sa(dp264
S'tecnologia'
p265
S'3.08857228255'
p266
sS'scienza'
p267
S'8.02032479825'
p268
sS'persone'
p269
S'2.43100528046'
p270
sS'politica'
p271
S'1.82325396035'
p272
sS'spettacolo'
p273
S'5.07123642523'
p274
sS'economia'
p275
S'3.54687655674'
p276
sS'gallerie'
p277
S'3.61661851151'
p278
sS'motori'
p279
S'4.36385374116'
p280
sS'moda'
p281
S'1.47454418651'
p282
sS'esteri'
p283
S'3.16827737372'
p284
sS'viaggi'
p285
S'14.6358473648'
p286
sS'cronaca'
p287
S'15.2635249577'
p288
sS'sport'
p289
S'15.6819766863'
p290
sS'rubriche'
p291
S'10.4513300787'
p292
sa(dp293
S'tecnologia'
p294
S'2.54494513192'
p295
sS'scienza'
p296
S'7.23791734765'
p297
sS'persone'
p298
S'2.67335979454'
p299
sS'politica'
p300
S'1.91454587906'
p301
sS'spettacolo'
p302
S'4.65795003502'
p303
sS'economia'
p304
S'4.56455755312'
p305
sS'gallerie'
p306
S'2.63833761382'
p307
sS'motori'
p308
S'6.00046696241'
p309
sS'moda'
p310
S'1.65771655382'
p311
sS'esteri'
p312
S'4.49451319169'
p313
sS'viaggi'
p314
S'6.22227410693'
p315
sS'cronaca'
p316
S'22.0406257296'
p317
sS'sport'
p318
S'16.1452253094'
p319
sS'rubriche'
p320
S'9.88792902171'
p321
sa(dp322
S'tecnologia'
p323
S'3.03747043446'
p324
sS'scienza'
p325
S'8.72650317441'
p326
sS'persone'
p327
S'3.0623677331'
p328
sS'novembre'
p329
S'3.14950827835'
p330
sS'spettacolo'
p331
S'4.19519482136'
p332
sS'economia'
p333
S'5.44005975352'
p334
sS'gallerie'
p335
S'3.84663264036'
p336
sS'salute'
p337
S'2.5395244616'
p338
sS'motori'
p339
S'2.87563799328'
p340
sS'esteri'
p341
S'5.61434084402'
p342
sS'viaggi'
p343
S'2.16606498195'
p344
sS'cronaca'
p345
S'20.3410929914'
p346
sS'sport'
p347
S'16.7060873895'
p348
sS'rubriche'
p349
S'10.6809411179'
p350
sa(dp351
S'tecnologia'
p352
S'3.94369769211'
p353
sS'scienza'
p354
S'5.31321328937'
p355
sS'persone'
p356
S'1.86406289627'
p357
sS'novembre'
p358
S'1.29343139741'
p359
sS'politica'
p360
S'1.16662439767'
p361
sS'spettacolo'
p362
S'7.93811818412'
p363
sS'economia'
p364
S'3.01800659396'
p365
sS'gallerie'
p366
S'3.63936089272'
p367
sS'motori'
p368
S'4.32411869135'
p369
sS'esteri'
p370
S'7.22799898554'
p371
sS'viaggi'
p372
S'5.08496068983'
p373
sS'cronaca'
p374
S'19.0717727619'
p375
sS'sport'
p376
S'17.6515343647'
p377
sS'rubriche'
p378
S'11.2985036774'
p379
sa(dp380
S'titolo'
p381
S'0.778210116732'
p382
sS'scienza'
p383
S'0.972762645914'
p384
sS'persone'
p385
S'5.6420233463'
p386
sS'novembre'
p387
S'0.972762645914'
p388
sS'media'
p389
S'1.94552529183'
p390
sS'politica'
p391
S'1.55642023346'
p392
sS'spettacolo'
p393
S'4.28015564202'
p394
sS'economia'
p395
S'2.33463035019'
p396
sS'gallerie'
p397
S'2.14007782101'
p398
sS'moda'
p399
S'0.778210116732'
p400
sS'esteri'
p401
S'42.8015564202'
p402
sS'cronaca'
p403
S'11.0894941634'
p404
sS'sport'
p405
S'6.61478599222'
p406
sS'rubriche'
p407
S'13.813229572'
p408
sa(dp409
S'tecnologia'
p410
S'1.69491525424'
p411
sS'regina'
p412
S'1.69491525424'
p413
sS'ragazza'
p414
S'1.69491525424'
p415
sS'scienza'
p416
S'1.69491525424'
p417
sS'persone'
p418
S'10.1694915254'
p419
sS'novembre'
p420
S'3.38983050847'
p421
sS'politica'
p422
S'5.08474576271'
p423
sS'spettacolo'
p424
S'3.38983050847'
p425
sS'economia'
p426
S'1.69491525424'
p427
sS'esteri'
p428
S'42.3728813559'
p429
sS'cronaca'
p430
S'3.38983050847'
p431
sS'sport'
p432
S'13.5593220339'
p433
sS'rubriche'
p434
S'10.1694915254'
p435
sa(dp436
S'tecnologia'
p437
S'2.90962288687'
p438
sS'regione'
p439
S'1.0321846554'
p440
sS'scuola'
p441
S'1.43042912874'
p442
sS'scienza'
p443
S'3.09655396619'
p444
sS'persone'
p445
S'1.62548764629'
p446
sS'politica'
p447
S'2.36508452536'
p448
sS'spettacolo'
p449
S'5.02275682705'
p450
sS'economia'
p451
S'1.76365409623'
p452
sS'gallerie'
p453
S'3.75487646294'
p454
sS'esteri'
p455
S'32.7048114434'
p456
sS'viaggi'
p457
S'3.11280884265'
p458
sS'cronaca'
p459
S'16.9863459038'
p460
sS'sport'
p461
S'6.9733420026'
p462
sS'rubriche'
p463
S'11.516579974'
p464
sa(dp465
S'tecnologia'
p466
S'2.5389025389'
p467
sS'scienza'
p468
S'6.36773136773'
p469
sS'persone'
p470
S'1.638001638'
p471
sS'politica'
p472
S'1.97583947584'
p473
sS'spettacolo'
p474
S'5.78419328419'
p475
sS'economia'
p476
S'3.65479115479'
p477
sS'gallerie'
p478
S'3.48075348075'
p479
sS'salute'
p480
S'2.54914004914'
p481
sS'motori'
p482
S'2.0475020475'
p483
sS'esteri'
p484
S'27.7641277641'
p485
sS'viaggi'
p486
S'1.12612612613'
p487
sS'cronaca'
p488
S'15.776003276'
p489
sS'sport'
p490
S'8.77354627355'
p491
sS'rubriche'
p492
S'10.5036855037'
p493
sa(dp494
S'tecnologia'
p495
S'2.10152576528'
p496
sS'scienza'
p497
S'3.37779483735'
p498
sS'persone'
p499
S'1.65051338643'
p500
sS'politica'
p501
S'1.1707129834'
p502
sS'spettacolo'
p503
S'4.53891181269'
p504
sS'economia'
p505
S'2.68688225698'
p506
sS'corso'
p507
S'1.76566548316'
p508
sS'gallerie'
p509
S'3.81921120814'
p510
sS'salute'
p511
S'0.969196814125'
p512
sS'motori'
p513
S'2.04394971692'
p514
sS'esteri'
p515
S'28.7496401497'
p516
sS'cronaca'
p517
S'15.8813933404'
p518
sS'sport'
p519
S'13.1177430189'
p520
sS'rubriche'
p521
S'12.7051146723'
p522
sa(dp523
S'tecnologia'
p524
S'2.74036228518'
p525
sS'regione'
p526
S'1.54435671157'
p527
sS'scienza'
p528
S'5.42266604738'
p529
sS'persone'
p530
S'2.86809103576'
p531
sS'novembre'
p532
S'1.91593125871'
p533
sS'politica'
p534
S'1.76497909893'
p535
sS'spettacolo'
p536
S'4.50534138412'
p537
sS'economia'
p538
S'1.9856014863'
p539
sS'gallerie'
p540
S'3.01904319554'
p541
sS'motori'
p542
S'2.74036228518'
p543
sS'esteri'
p544
S'23.5369252206'
p545
sS'cronaca'
p546
S'19.4728286112'
p547
sS'sport'
p548
S'12.4245239201'
p549
sS'rubriche'
p550
S'9.8931723177'
p551
sa(dp552
S'tecnologia'
p553
S'5.72486119679'
p554
sS'regione'
p555
S'1.41887723627'
p556
sS'scienza'
p557
S'6.25539790253'
p558
sS'persone'
p559
S'3.1215299198'
p560
sS'politica'
p561
S'1.88772362739'
p562
sS'spettacolo'
p563
S'7.23010487353'
p564
sS'economia'
p565
S'3.08451573103'
p566
sS'gallerie'
p567
S'3.23257248612'
p568
sS'salute'
p569
S'0.925354719309'
p570
sS'motori'
p571
S'1.52991980259'
p572
sS'esteri'
p573
S'21.135101789'
p574
sS'cronaca'
p575
S'16.9401603948'
p576
sS'sport'
p577
S'10.3763109192'
p578
sS'rubriche'
p579
S'10.9191856878'
p580
sa(dp581
S'tecnologia'
p582
S'1.37457044674'
p583
sS'ritorno'
p584
S'1.03092783505'
p585
sS'scuola'
p586
S'2.0618556701'
p587
sS'scienza'
p588
S'5.49828178694'
p589
sS'persone'
p590
S'3.78006872852'
p591
sS'politica'
p592
S'2.40549828179'
p593
sS'spettacolo'
p594
S'9.62199312715'
p595
sS'economia'
p596
S'1.71821305842'
p597
sS'motori'
p598
S'1.03092783505'
p599
sS'esteri'
p600
S'27.147766323'
p601
sS'viaggi'
p602
S'1.03092783505'
p603
sS'cronaca'
p604
S'16.1512027491'
p605
sS'sport'
p606
S'14.4329896907'
p607
sS'rubriche'
p608
S'8.24742268041'
p609
sa(dp610
S'tecnologia'
p611
S'2.85714285714'
p612
sS'ritorno'
p613
S'1.42857142857'
p614
sS'regione'
p615
S'1.42857142857'
p616
sS'scienza'
p617
S'2.85714285714'
p618
sS'persone'
p619
S'5.71428571429'
p620
sS'media'
p621
S'4.28571428571'
p622
sS'spettacolo'
p623
S'4.28571428571'
p624
sS'economia'
p625
S'4.28571428571'
p626
sS'motori'
p627
S'1.42857142857'
p628
sS'esteri'
p629
S'14.2857142857'
p630
sS'cronaca'
p631
S'30.0'
p632
sS'sport'
p633
S'11.4285714286'
p634
sS'rubriche'
p635
S'14.2857142857'
p636
sS'scuola'
p637
S'1.42857142857'
p638
sa(dp639
S'tecnologia'
p640
S'2.7804007974'
p641
sS'scienza'
p642
S'2.84335326828'
p643
sS'persone'
p644
S'2.61252754171'
p645
sS'politica'
p646
S'1.24855733921'
p647
sS'spettacolo'
p648
S'7.94250340993'
p649
sS'economia'
p650
S'3.96600566572'
p651
sS'gallerie'
p652
S'3.47287797713'
p653
sS'salute'
p654
S'1.39544643794'
p655
sS'motori'
p656
S'1.10166824048'
p657
sS'esteri'
p658
S'15.5597523869'
p659
sS'viaggi'
p660
S'3.23156017207'
p661
sS'cronaca'
p662
S'15.4653236806'
p663
sS'sport'
p664
S'21.3723638653'
p665
sS'rubriche'
p666
S'11.7511278984'
p667
sa(dp668
S'tecnologia'
p669
S'3.11990212072'
p670
sS'scienza'
p671
S'6.61704730832'
p672
sS'persone'
p673
S'1.81484502447'
p674
sS'media'
p675
S'2.05954323002'
p676
sS'politica'
p677
S'1.03996737357'
p678
sS'spettacolo'
p679
S'7.42251223491'
p680
sS'economia'
p681
S'3.58890701468'
p682
sS'gallerie'
p683
S'2.77324632953'
p684
sS'motori'
p685
S'1.0603588907'
p686
sS'esteri'
p687
S'20.7687601958'
p688
sS'viaggi'
p689
S'4.88376835237'
p690
sS'cronaca'
p691
S'13.927406199'
p692
sS'sport'
p693
S'13.3870309951'
p694
sS'rubriche'
p695
S'11.4804241436'
p696
sa(dp697
S'tecnologia'
p698
S'3.84324596774'
p699
sS'regione'
p700
S'1.62550403226'
p701
sS'scienza'
p702
S'7.14465725806'
p703
sS'persone'
p704
S'2.62096774194'
p705
sS'media'
p706
S'1.52469758065'
p707
sS'politica'
p708
S'1.99092741935'
p709
sS'spettacolo'
p710
S'5.24193548387'
p711
sS'economia'
p712
S'5.58215725806'
p713
sS'gallerie'
p714
S'1.87752016129'
p715
sS'esteri'
p716
S'11.0509072581'
p717
sS'viaggi'
p718
S'1.68850806452'
p719
sS'cronaca'
p720
S'16.6456653226'
p721
sS'sport'
p722
S'19.2288306452'
p723
sS'rubriche'
p724
S'13.0796370968'
p725
sa(dp726
S'tecnologia'
p727
S'1.87703044158'
p728
sS'scienza'
p729
S'5.9559619781'
p730
sS'persone'
p731
S'2.26206232704'
p732
sS'novembre'
p733
S'2.31019131272'
p734
sS'politica'
p735
S'1.62435326675'
p736
sS'spettacolo'
p737
S'4.64444711828'
p738
sS'economia'
p739
S'5.54686559981'
p740
sS'gallerie'
p741
S'2.02141739863'
p742
sS'motori'
p743
S'1.99735290579'
p744
sS'esteri'
p745
S'14.7515341114'
p746
sS'viaggi'
p747
S'4.17518950788'
p748
sS'cronaca'
p749
S'15.1485982433'
p750
sS'sport'
p751
S'20.2743352184'
p752
sS'rubriche'
p753
S'10.9132475033'
p754
sa(dp755
S'tecnologia'
p756
S'3.23386741144'
p757
sS'scuola'
p758
S'1.41114214317'
p759
sS'scienza'
p760
S'3.67484933118'
p761
sS'persone'
p762
S'2.4400999559'
p763
sS'politica'
p764
S'1.96971924151'
p765
sS'spettacolo'
p766
S'7.17330589446'
p767
sS'economia'
p768
S'5.07129207702'
p769
sS'gallerie'
p770
S'3.61605174188'
p771
sS'salute'
p772
S'1.79332647361'
p773
sS'motori'
p774
S'1.73452888432'
p775
sS'esteri'
p776
S'12.7443774805'
p777
sS'cronaca'
p778
S'18.3742466559'
p779
sS'sport'
p780
S'17.5951785977'
p781
sS'rubriche'
p782
S'11.906511833'
p783
sa(dp784
S'tecnologia'
p785
S'0.975609756098'
p786
sS'scienza'
p787
S'2.92682926829'
p788
sS'persone'
p789
S'7.80487804878'
p790
sS'politica'
p791
S'1.46341463415'
p792
sS'spettacolo'
p793
S'6.82926829268'
p794
sS'economia'
p795
S'7.80487804878'
p796
sS'gallerie'
p797
S'4.87804878049'
p798
sS'motori'
p799
S'1.46341463415'
p800
sS'moda'
p801
S'1.46341463415'
p802
sS'esteri'
p803
S'14.6341463415'
p804
sS'viaggi'
p805
S'0.975609756098'
p806
sS'cronaca'
p807
S'12.1951219512'
p808
sS'sport'
p809
S'20.487804878'
p810
sS'rubriche'
p811
S'13.6585365854'
p812
sa(dp813
S'tecnologia'
p814
S'3.22580645161'
p815
sS'regione'
p816
S'1.0752688172'
p817
sS'scuola'
p818
S'3.22580645161'
p819
sS'scienza'
p820
S'9.67741935484'
p821
sS'persone'
p822
S'3.22580645161'
p823
sS'spettacolo'
p824
S'7.52688172043'
p825
sS'economia'
p826
S'3.22580645161'
p827
sS'esteri'
p828
S'22.5806451613'
p829
sS'cronaca'
p830
S'16.1290322581'
p831
sS'sport'
p832
S'12.9032258065'
p833
sS'rubriche'
p834
S'17.2043010753'
p835
sa(dp836
S'tecnologia'
p837
S'2.76659959759'
p838
sS'scuola'
p839
S'1.21981891348'
p840
sS'scienza'
p841
S'4.30080482897'
p842
sS'persone'
p843
S'2.13782696177'
p844
sS'media'
p845
S'1.32042253521'
p846
sS'politica'
p847
S'1.35814889336'
p848
sS'spettacolo'
p849
S'7.89738430584'
p850
sS'economia'
p851
S'4.12474849095'
p852
sS'gallerie'
p853
S'4.72837022133'
p854
sS'salute'
p855
S'1.30784708249'
p856
sS'esteri'
p857
S'9.83400402414'
p858
sS'cronaca'
p859
S'16.3229376258'
p860
sS'sport'
p861
S'22.3214285714'
p862
sS'rubriche'
p863
S'14.1348088531'
p864
sasS'10'
p865
(lp866
(dp867
a(dp868
a(dp869
a(dp870
a(dp871
a(dp872
a(dp873
a(dp874
a(dp875
a(dp876
a(dp877
a(dp878
a(dp879
a(dp880
a(dp881
a(dp882
a(dp883
a(dp884
a(dp885
a(dp886
a(dp887
S'tecnologia'
p888
S'2.65087422448'
p889
sS'ritorno'
p890
S'1.30851663847'
p891
sS'regione'
p892
S'0.992667794698'
p893
sS'scienza'
p894
S'6.49746192893'
p895
sS'persone'
p896
S'2.34630569656'
p897
sS'politica'
p898
S'2.54935138184'
p899
sS'spettacolo'
p900
S'9.37394247039'
p901
sS'economia'
p902
S'6.65538635082'
p903
sS'gallerie'
p904
S'2.4252679075'
p905
sS'motori'
p906
S'1.33107727016'
p907
sS'esteri'
p908
S'6.47490129724'
p909
sS'cronaca'
p910
S'22.7072758037'
p911
sS'sport'
p912
S'17.1009588268'
p913
sS'rubriche'
p914
S'11.8443316413'
p915
sa(dp916
a(dp917
a(dp918
a(dp919
a(dp920
a(dp921
a(dp922
a(dp923
a(dp924
a(dp925
S'scuola'
p926
S'0.8356545961'
p927
sS'scienza'
p928
S'7.79944289694'
p929
sS'persone'
p930
S'6.6852367688'
p931
sS'politica'
p932
S'4.45682451253'
p933
sS'spettacolo'
p934
S'5.8495821727'
p935
sS'economia'
p936
S'3.3426183844'
p937
sS'gallerie'
p938
S'1.94986072423'
p939
sS'salute'
p940
S'1.11420612813'
p941
sS'motori'
p942
S'5.8495821727'
p943
sS'esteri'
p944
S'6.6852367688'
p945
sS'viaggi'
p946
S'3.06406685237'
p947
sS'cronaca'
p948
S'23.9554317549'
p949
sS'sport'
p950
S'19.2200557103'
p951
sS'rubriche'
p952
S'5.8495821727'
p953
sasS'12'
p954
(lp955
(dp956
S'tecnologia'
p957
S'4.02298850575'
p958
sS'scienza'
p959
S'4.96342737722'
p960
sS'persone'
p961
S'2.44252873563'
p962
sS'media'
p963
S'1.39759665622'
p964
sS'politica'
p965
S'1.63270637409'
p966
sS'spettacolo'
p967
S'6.68756530825'
p968
sS'economia'
p969
S'6.36102403344'
p970
sS'gallerie'
p971
S'6.38714733542'
p972
sS'motori'
p973
S'0.966562173459'
p974
sS'esteri'
p975
S'6.81818181818'
p976
sS'viaggi'
p977
S'5.14629049112'
p978
sS'cronaca'
p979
S'17.7246603971'
p980
sS'sport'
p981
S'19.0830721003'
p982
sS'rubriche'
p983
S'10.0966562173'
p984
sa(dp985
S'tecnologia'
p986
S'3.65373134328'
p987
sS'scienza'
p988
S'5.89850746269'
p989
sS'persone'
p990
S'2.47164179104'
p991
sS'politica'
p992
S'1.67164179104'
p993
sS'spettacolo'
p994
S'8.23880597015'
p995
sS'economia'
p996
S'6.75820895522'
p997
sS'gallerie'
p998
S'3.24776119403'
p999
sS'salute'
p1000
S'1.06268656716'
p1001
sS'motori'
p1002
S'1.06268656716'
p1003
sS'esteri'
p1004
S'9.18208955224'
p1005
sS'viaggi'
p1006
S'10.0895522388'
p1007
sS'cronaca'
p1008
S'14.5910447761'
p1009
sS'sport'
p1010
S'16.7044776119'
p1011
sS'rubriche'
p1012
S'9.19402985075'
p1013
sa(dp1014
S'tecnologia'
p1015
S'3.26021814695'
p1016
sS'scuola'
p1017
S'2.40920532183'
p1018
sS'scienza'
p1019
S'5.71736785329'
p1020
sS'persone'
p1021
S'2.24139997603'
p1022
sS'media'
p1023
S'0.707179671581'
p1024
sS'politica'
p1025
S'1.27052618962'
p1026
sS'spettacolo'
p1027
S'4.4588277598'
p1028
sS'economia'
p1029
S'5.33381277718'
p1030
sS'gallerie'
p1031
S'5.45367373846'
p1032
sS'motori'
p1033
S'0.958887690279'
p1034
sS'esteri'
p1035
S'17.6435335011'
p1036
sS'cronaca'
p1037
S'15.1983698909'
p1038
sS'sport'
p1039
S'17.8952415198'
p1040
sS'rubriche'
p1041
S'11.7943185904'
p1042
sa(dp1043
S'tecnologia'
p1044
S'4.55391665473'
p1045
sS'scienza'
p1046
S'5.72819704998'
p1047
sS'persone'
p1048
S'2.40584276099'
p1049
sS'media'
p1050
S'1.15995990262'
p1051
sS'politica'
p1052
S'1.54661320349'
p1053
sS'spettacolo'
p1054
S'6.61606759273'
p1055
sS'economia'
p1056
S'4.63983961048'
p1057
sS'gallerie'
p1058
S'3.33667478161'
p1059
sS'social'
p1060
S'1.41772876987'
p1061
sS'esteri'
p1062
S'10.4969210941'
p1063
sS'cronaca'
p1064
S'17.1416296721'
p1065
sS'sport'
p1066
S'19.0319346986'
p1067
sS'natale'
p1068
S'1.2029213805'
p1069
sS'rubriche'
p1070
S'13.7619934126'
p1071
sa(dp1072
S'tecnologia'
p1073
S'1.7094017094'
p1074
sS'servizi'
p1075
S'1.28205128205'
p1076
sS'scuola'
p1077
S'3.84615384615'
p1078
sS'scienza'
p1079
S'1.7094017094'
p1080
sS'persone'
p1081
S'7.69230769231'
p1082
sS'media'
p1083
S'2.13675213675'
p1084
sS'politica'
p1085
S'3.4188034188'
p1086
sS'spettacolo'
p1087
S'11.1111111111'
p1088
sS'economia'
p1089
S'1.28205128205'
p1090
sS'gallerie'
p1091
S'3.4188034188'
p1092
sS'esteri'
p1093
S'6.41025641026'
p1094
sS'cronaca'
p1095
S'12.8205128205'
p1096
sS'sport'
p1097
S'23.0769230769'
p1098
sS'rubriche'
p1099
S'14.5299145299'
p1100
sa(dp1101
S'tecnologia'
p1102
S'2.15053763441'
p1103
sS'scienza'
p1104
S'2.15053763441'
p1105
sS'persone'
p1106
S'2.15053763441'
p1107
sS'natale'
p1108
S'1.0752688172'
p1109
sS'mare'
p1110
S'1.0752688172'
p1111
sS'spettacolo'
p1112
S'38.7096774194'
p1113
sS'economia'
p1114
S'4.30107526882'
p1115
sS'gallerie'
p1116
S'1.0752688172'
p1117
sS'carte'
p1118
S'2.15053763441'
p1119
sS'esteri'
p1120
S'6.45161290323'
p1121
sS'cronaca'
p1122
S'12.9032258065'
p1123
sS'sport'
p1124
S'15.0537634409'
p1125
sS'rubriche'
p1126
S'10.752688172'
p1127
sa(dp1128
S'tecnologia'
p1129
S'2.02792553191'
p1130
sS'scienza'
p1131
S'4.78723404255'
p1132
sS'persone'
p1133
S'3.02526595745'
p1134
sS'media'
p1135
S'1.29654255319'
p1136
sS'politica'
p1137
S'2.9920212766'
p1138
sS'spettacolo'
p1139
S'11.1369680851'
p1140
sS'economia'
p1141
S'4.5545212766'
p1142
sS'gallerie'
p1143
S'2.82579787234'
p1144
sS'motori'
p1145
S'0.964095744681'
p1146
sS'esteri'
p1147
S'9.34175531915'
p1148
sS'cronaca'
p1149
S'18.3843085106'
p1150
sS'sport'
p1151
S'20.3457446809'
p1152
sS'natale'
p1153
S'1.96143617021'
p1154
sS'rubriche'
p1155
S'11.2699468085'
p1156
sa(dp1157
S'tecnologia'
p1158
S'1.12359550562'
p1159
sS'ragazza'
p1160
S'1.12359550562'
p1161
sS'scienza'
p1162
S'2.24719101124'
p1163
sS'persone'
p1164
S'11.2359550562'
p1165
sS'spettacolo'
p1166
S'11.2359550562'
p1167
sS'economia'
p1168
S'7.86516853933'
p1169
sS'banca'
p1170
S'1.12359550562'
p1171
sS'gallerie'
p1172
S'8.98876404494'
p1173
sS'motori'
p1174
S'16.8539325843'
p1175
sS'esteri'
p1176
S'10.1123595506'
p1177
sS'viaggi'
p1178
S'1.12359550562'
p1179
sS'cronaca'
p1180
S'5.61797752809'
p1181
sS'sport'
p1182
S'3.37078651685'
p1183
sS'rubriche'
p1184
S'15.7303370787'
p1185
sa(dp1186
S'tecnologia'
p1187
S'3.89550341001'
p1188
sS'regione'
p1189
S'1.06346087158'
p1190
sS'scienza'
p1191
S'5.36354178708'
p1192
sS'persone'
p1193
S'2.25407467345'
p1194
sS'media'
p1195
S'0.913189226679'
p1196
sS'politica'
p1197
S'1.32932608947'
p1198
sS'spettacolo'
p1199
S'10.5305745001'
p1200
sS'economia'
p1201
S'4.2191654144'
p1202
sS'gallerie'
p1203
S'3.98797826841'
p1204
sS'motori'
p1205
S'1.01722344238'
p1206
sS'esteri'
p1207
S'15.4086232805'
p1208
sS'cronaca'
p1209
S'15.8016414287'
p1210
sS'sport'
p1211
S'16.0906253612'
p1212
sS'rubriche'
p1213
S'12.8308866027'
p1214
sa(dp1215
S'tecnologia'
p1216
S'2.52160362658'
p1217
sS'regione'
p1218
S'1.07663975067'
p1219
sS'scienza'
p1220
S'5.17070406573'
p1221
sS'persone'
p1222
S'2.66326675166'
p1223
sS'politica'
p1224
S'2.76243093923'
p1225
sS'spettacolo'
p1226
S'7.79147187987'
p1227
sS'economia'
p1228
S'7.29565094206'
p1229
sS'gallerie'
p1230
S'2.62076781414'
p1231
sS'salute'
p1232
S'1.33163337583'
p1233
sS'esteri'
p1234
S'6.98399206686'
p1235
sS'cronaca'
p1236
S'20.9236435756'
p1237
sS'sport'
p1238
S'16.2912593852'
p1239
sS'natale'
p1240
S'1.21830287576'
p1241
sS'rubriche'
p1242
S'14.6054681966'
p1243
sa(dp1244
S'tecnologia'
p1245
S'2.80443911218'
p1246
sS'regione'
p1247
S'0.809838032394'
p1248
sS'scienza'
p1249
S'5.48890221956'
p1250
sS'persone'
p1251
S'2.72945410918'
p1252
sS'media'
p1253
S'1.06478704259'
p1254
sS'politica'
p1255
S'3.01439712058'
p1256
sS'spettacolo'
p1257
S'9.86802639472'
p1258
sS'economia'
p1259
S'5.98380323935'
p1260
sS'gallerie'
p1261
S'2.66946610678'
p1262
sS'salute'
p1263
S'0.794841031794'
p1264
sS'esteri'
p1265
S'8.35332933413'
p1266
sS'cronaca'
p1267
S'21.0557888422'
p1268
sS'sport'
p1269
S'18.2963407319'
p1270
sS'rubriche'
p1271
S'11.2027594481'
p1272
sa(dp1273
S'tecnologia'
p1274
S'2.7972027972'
p1275
sS'regione'
p1276
S'1.3986013986'
p1277
sS'scienza'
p1278
S'3.4965034965'
p1279
sS'persone'
p1280
S'2.0979020979'
p1281
sS'politica'
p1282
S'1.3986013986'
p1283
sS'spettacolo'
p1284
S'7.69230769231'
p1285
sS'economia'
p1286
S'5.94405594406'
p1287
sS'banca'
p1288
S'1.3986013986'
p1289
sS'gallerie'
p1290
S'2.0979020979'
p1291
sS'esteri'
p1292
S'10.8391608392'
p1293
sS'cronaca'
p1294
S'18.8811188811'
p1295
sS'sport'
p1296
S'25.8741258741'
p1297
sS'natale'
p1298
S'0.699300699301'
p1299
sS'rubriche'
p1300
S'13.986013986'
p1301
sa(dp1302
S'tecnologia'
p1303
S'3.22580645161'
p1304
sS'scienza'
p1305
S'3.22580645161'
p1306
sS'persone'
p1307
S'7.25806451613'
p1308
sS'spettacolo'
p1309
S'5.64516129032'
p1310
sS'economia'
p1311
S'2.41935483871'
p1312
sS'gallerie'
p1313
S'0.806451612903'
p1314
sS'stelle'
p1315
S'1.61290322581'
p1316
sS'motori'
p1317
S'0.806451612903'
p1318
sS'social'
p1319
S'7.25806451613'
p1320
sS'esteri'
p1321
S'13.7096774194'
p1322
sS'cronaca'
p1323
S'18.5483870968'
p1324
sS'sport'
p1325
S'16.1290322581'
p1326
sS'intesa'
p1327
S'0.806451612903'
p1328
sS'rubriche'
p1329
S'16.935483871'
p1330
sa(dp1331
S'tecnologia'
p1332
S'3.87677039181'
p1333
sS'regione'
p1334
S'2.38809056136'
p1335
sS'scienza'
p1336
S'4.47637754575'
p1337
sS'persone'
p1338
S'2.89465522589'
p1339
sS'media'
p1340
S'1.10617181846'
p1341
sS'politica'
p1342
S'1.65408870051'
p1343
sS'spettacolo'
p1344
S'7.28832833661'
p1345
sS'economia'
p1346
S'3.96981288122'
p1347
sS'gallerie'
p1348
S'2.49147110514'
p1349
sS'moda'
p1350
S'0.992453220304'
p1351
sS'esteri'
p1352
S'7.94996381681'
p1353
sS'cronaca'
p1354
S'13.9667114649'
p1355
sS'sport'
p1356
S'31.1692339502'
p1357
sS'rubriche'
p1358
S'10.3173782694'
p1359
sa(dp1360
S'tecnologia'
p1361
S'3.26719733872'
p1362
sS'scienza'
p1363
S'6.04728525603'
p1364
sS'persone'
p1365
S'2.91077581086'
p1366
sS'media'
p1367
S'1.97219912083'
p1368
sS'politica'
p1369
S'3.19591303315'
p1370
sS'spettacolo'
p1371
S'7.25911845075'
p1372
sS'economia'
p1373
S'5.33444220031'
p1374
sS'gallerie'
p1375
S'5.91659736248'
p1376
sS'motori'
p1377
S'0.855411666865'
p1378
sS'esteri'
p1379
S'5.96412023286'
p1380
sS'viaggi'
p1381
S'2.17417131995'
p1382
sS'cronaca'
p1383
S'17.1795176429'
p1384
sS'sport'
p1385
S'21.0645122965'
p1386
sS'rubriche'
p1387
S'11.1678745396'
p1388
sa(dp1389
S'tecnologia'
p1390
S'2.39808153477'
p1391
sS'scienza'
p1392
S'4.9520383693'
p1393
sS'persone'
p1394
S'3.53717026379'
p1395
sS'media'
p1396
S'1.07913669065'
p1397
sS'politica'
p1398
S'4.04076738609'
p1399
sS'spettacolo'
p1400
S'10.623501199'
p1401
sS'economia'
p1402
S'4.74820143885'
p1403
sS'gallerie'
p1404
S'5.41966426859'
p1405
sS'moda'
p1406
S'1.22302158273'
p1407
sS'esteri'
p1408
S'5.43165467626'
p1409
sS'viaggi'
p1410
S'1.24700239808'
p1411
sS'cronaca'
p1412
S'20.0239808153'
p1413
sS'sport'
p1414
S'18.7529976019'
p1415
sS'rubriche'
p1416
S'10.4076738609'
p1417
sa(dp1418
S'tecnologia'
p1419
S'4.14887126297'
p1420
sS'regione'
p1421
S'0.939597315436'
p1422
sS'scienza'
p1423
S'6.02806589384'
p1424
sS'persone'
p1425
S'4.38071995119'
p1426
sS'media'
p1427
S'1.64734594265'
p1428
sS'politica'
p1429
S'3.86821232459'
p1430
sS'spettacolo'
p1431
S'5.91824283099'
p1432
sS'economia'
p1433
S'4.14887126297'
p1434
sS'gallerie'
p1435
S'2.57474069555'
p1436
sS'esteri'
p1437
S'7.16290420988'
p1438
sS'cronaca'
p1439
S'19.8169615619'
p1440
sS'sport'
p1441
S'21.0128126907'
p1442
sS'natale'
p1443
S'1.23245881635'
p1444
sS'rubriche'
p1445
S'11.6656497865'
p1446
sa(dp1447
S'tecnologia'
p1448
S'2.30834995725'
p1449
sS'regione'
p1450
S'1.08292960958'
p1451
sS'scienza'
p1452
S'4.64519806213'
p1453
sS'persone'
p1454
S'3.98974066686'
p1455
sS'media'
p1456
S'1.51040182388'
p1457
sS'politica'
p1458
S'4.48845825021'
p1459
sS'spettacolo'
p1460
S'6.02735822172'
p1461
sS'economia'
p1462
S'3.43402678826'
p1463
sS'gallerie'
p1464
S'5.18666286691'
p1465
sS'esteri'
p1466
S'7.87973781704'
p1467
sS'cronaca'
p1468
S'21.0458820177'
p1469
sS'sport'
p1470
S'19.3502422343'
p1471
sS'natale'
p1472
S'1.76688515247'
p1473
sS'rubriche'
p1474
S'11.4990025648'
p1475
sa(dp1476
S'tecnologia'
p1477
S'0.93023255814'
p1478
sS'regione'
p1479
S'0.93023255814'
p1480
sS'scuola'
p1481
S'1.39534883721'
p1482
sS'scienza'
p1483
S'7.44186046512'
p1484
sS'persone'
p1485
S'6.97674418605'
p1486
sS'politica'
p1487
S'4.6511627907'
p1488
sS'mare'
p1489
S'0.93023255814'
p1490
sS'spettacolo'
p1491
S'9.76744186047'
p1492
sS'economia'
p1493
S'6.51162790698'
p1494
sS'motori'
p1495
S'2.79069767442'
p1496
sS'esteri'
p1497
S'11.1627906977'
p1498
sS'cronaca'
p1499
S'12.0930232558'
p1500
sS'sport'
p1501
S'20.9302325581'
p1502
sS'rubriche'
p1503
S'7.44186046512'
p1504
sa(dp1505
S'tecnologia'
p1506
S'1.81818181818'
p1507
sS'regione'
p1508
S'1.81818181818'
p1509
sS'scienza'
p1510
S'7.27272727273'
p1511
sS'persone'
p1512
S'10.9090909091'
p1513
sS'novembre'
p1514
S'1.81818181818'
p1515
sS'politica'
p1516
S'7.27272727273'
p1517
sS'giugno'
p1518
S'1.81818181818'
p1519
sS'spettacolo'
p1520
S'9.09090909091'
p1521
sS'economia'
p1522
S'3.63636363636'
p1523
sS'esteri'
p1524
S'18.1818181818'
p1525
sS'sport'
p1526
S'27.2727272727'
p1527
sS'natale'
p1528
S'1.81818181818'
p1529
sS'rubriche'
p1530
S'3.63636363636'
p1531
sS'scuola'
p1532
S'1.81818181818'
p1533
sa(dp1534
S'tecnologia'
p1535
S'2.42488139167'
p1536
sS'regione'
p1537
S'1.33104902478'
p1538
sS'scienza'
p1539
S'3.08381655245'
p1540
sS'persone'
p1541
S'3.91407485503'
p1542
sS'media'
p1543
S'1.63415919873'
p1544
sS'politica'
p1545
S'3.05745914602'
p1546
sS'spettacolo'
p1547
S'8.06536636795'
p1548
sS'economia'
p1549
S'3.34739061676'
p1550
sS'gallerie'
p1551
S'3.82182393253'
p1552
sS'esteri'
p1553
S'7.23510806537'
p1554
sS'cronaca'
p1555
S'17.1850289931'
p1556
sS'sport'
p1557
S'24.9604638904'
p1558
sS'natale'
p1559
S'1.46283605693'
p1560
sS'rubriche'
p1561
S'13.4554559831'
p1562
sa(dp1563
S'tecnologia'
p1564
S'2.89899298139'
p1565
sS'scienza'
p1566
S'7.27799816906'
p1567
sS'persone'
p1568
S'4.01281660055'
p1569
sS'media'
p1570
S'1.4189807751'
p1571
sS'politica'
p1572
S'2.65486725664'
p1573
sS'spettacolo'
p1574
S'9.21574610925'
p1575
sS'economia'
p1576
S'4.59261519683'
p1577
sS'gallerie'
p1578
S'3.72291730241'
p1579
sS'esteri'
p1580
S'6.80500457736'
p1581
sS'viaggi'
p1582
S'1.35794934391'
p1583
sS'cronaca'
p1584
S'21.4830637778'
p1585
sS'sport'
p1586
S'15.242599939'
p1587
sS'natale'
p1588
S'1.28166005493'
p1589
sS'rubriche'
p1590
S'11.8400976503'
p1591
sa(dp1592
S'natale'
p1593
S'2.51925879659'
p1594
sS'scienza'
p1595
S'5.97543202165'
p1596
sS'persone'
p1597
S'5.62148657089'
p1598
sS'politica'
p1599
S'3.16468873621'
p1600
sS'spettacolo'
p1601
S'6.60004164064'
p1602
sS'economia'
p1603
S'5.99625234229'
p1604
sS'gallerie'
p1605
S'3.33125130127'
p1606
sS'salute'
p1607
S'1.8321882157'
p1608
sS'esteri'
p1609
S'7.0789090152'
p1610
sS'viaggi'
p1611
S'2.43597751405'
p1612
sS'cronaca'
p1613
S'21.0077035186'
p1614
sS'sport'
p1615
S'15.1155527795'
p1616
sS'tecnologia'
p1617
S'2.22777430772'
p1618
sS'rubriche'
p1619
S'12.2423485322'
p1620
sa(dp1621
S'tecnologia'
p1622
S'2.04342273308'
p1623
sS'scienza'
p1624
S'5.36398467433'
p1625
sS'persone'
p1626
S'3.57598978289'
p1627
sS'politica'
p1628
S'1.53256704981'
p1629
sS'spettacolo'
p1630
S'7.15197956577'
p1631
sS'economia'
p1632
S'4.21455938697'
p1633
sS'gallerie'
p1634
S'15.4533844189'
p1635
sS'motori'
p1636
S'0.383141762452'
p1637
sS'esteri'
p1638
S'5.8748403576'
p1639
sS'viaggi'
p1640
S'4.59770114943'
p1641
sS'cronaca'
p1642
S'21.4559386973'
p1643
sS'sport'
p1644
S'8.55683269476'
p1645
sS'natale'
p1646
S'1.53256704981'
p1647
sS'rubriche'
p1648
S'16.091954023'
p1649
sa(dp1650
S'natale'
p1651
S'13.3333333333'
p1652
sS'scuola'
p1653
S'6.66666666667'
p1654
sS'esteri'
p1655
S'6.66666666667'
p1656
sS'cronaca'
p1657
S'46.6666666667'
p1658
sS'sport'
p1659
S'13.3333333333'
p1660
sS'rubriche'
p1661
S'13.3333333333'
p1662
sa(dp1663
S'natale'
p1664
S'9.09090909091'
p1665
sS'scienza'
p1666
S'9.09090909091'
p1667
sS'esteri'
p1668
S'18.1818181818'
p1669
sS'cronaca'
p1670
S'36.3636363636'
p1671
sS'sport'
p1672
S'18.1818181818'
p1673
sS'salute'
p1674
S'9.09090909091'
p1675
sa(dp1676
S'spettacolo'
p1677
S'25.0'
p1678
sS'cronaca'
p1679
S'25.0'
p1680
sS'rubriche'
p1681
S'3.125'
p1682
sS'salute'
p1683
S'25.0'
p1684
sS'persone'
p1685
S'21.875'
p1686
sa(dp1687
S'tecnologia'
p1688
S'3.01799187464'
p1689
sS'storie'
p1690
S'2.84387695879'
p1691
sS'scienza'
p1692
S'4.00464306442'
p1693
sS'persone'
p1694
S'3.30818340104'
p1695
sS'media'
p1696
S'1.27684271619'
p1697
sS'politica'
p1698
S'2.08937899013'
p1699
sS'spettacolo'
p1700
S'6.50029019153'
p1701
sS'economia'
p1702
S'4.99129425421'
p1703
sS'gallerie'
p1704
S'2.61172373767'
p1705
sS'esteri'
p1706
S'8.99593731863'
p1707
sS'cronaca'
p1708
S'29.6575739988'
p1709
sS'sport'
p1710
S'9.75043528729'
p1711
sS'natale'
p1712
S'1.33488102147'
p1713
sS'rubriche'
p1714
S'14.6836912362'
p1715
sa(dp1716
S'tecnologia'
p1717
S'1.86968838527'
p1718
sS'persone'
p1719
S'1.07648725212'
p1720
sS'scienza'
p1721
S'5.04249291785'
p1722
sS'moda'
p1723
S'2.15297450425'
p1724
sS'media'
p1725
S'1.13314447592'
p1726
sS'politica'
p1727
S'2.43626062323'
p1728
sS'spettacolo'
p1729
S'10.1983002833'
p1730
sS'economia'
p1731
S'5.83569405099'
p1732
sS'gallerie'
p1733
S'3.96600566572'
p1734
sS'salute'
p1735
S'0.736543909348'
p1736
sS'esteri'
p1737
S'6.91218130312'
p1738
sS'cronaca'
p1739
S'20.566572238'
p1740
sS'sport'
p1741
S'13.4277620397'
p1742
sS'rubriche'
p1743
S'19.8866855524'
p1744
sa(dp1745
S'tecnologia'
p1746
S'2.26039783002'
p1747
sS'regione'
p1748
S'0.452079566004'
p1749
sS'scienza'
p1750
S'2.89330922242'
p1751
sS'persone'
p1752
S'2.35081374322'
p1753
sS'media'
p1754
S'0.542495479204'
p1755
sS'politica'
p1756
S'4.15913200723'
p1757
sS'spettacolo'
p1758
S'9.31283905967'
p1759
sS'economia'
p1760
S'9.67450271248'
p1761
sS'gallerie'
p1762
S'5.51537070524'
p1763
sS'moda'
p1764
S'1.08499095841'
p1765
sS'esteri'
p1766
S'6.32911392405'
p1767
sS'cronaca'
p1768
S'27.034358047'
p1769
sS'sport'
p1770
S'12.9294755877'
p1771
sS'rubriche'
p1772
S'11.9349005425'
p1773
sa(dp1774
S'tecnologia'
p1775
S'1.90735694823'
p1776
sS'scuola'
p1777
S'0.817438692098'
p1778
sS'scienza'
p1779
S'4.35967302452'
p1780
sS'persone'
p1781
S'3.54223433243'
p1782
sS'media'
p1783
S'1.36239782016'
p1784
sS'politica'
p1785
S'3.54223433243'
p1786
sS'spettacolo'
p1787
S'19.0735694823'
p1788
sS'economia'
p1789
S'6.81198910082'
p1790
sS'gallerie'
p1791
S'1.36239782016'
p1792
sS'continua'
p1793
S'1.08991825613'
p1794
sS'esteri'
p1795
S'4.90463215259'
p1796
sS'cronaca'
p1797
S'19.0735694823'
p1798
sS'sport'
p1799
S'8.71934604905'
p1800
sS'rubriche'
p1801
S'20.7084468665'
p1802
sasS'1'
p1803
(lp1804
(dp1805
a(dp1806
a(dp1807
a(dp1808
a(dp1809
a(dp1810
a(dp1811
a(dp1812
a(dp1813
a(dp1814
a(dp1815
a(dp1816
a(dp1817
a(dp1818
a(dp1819
a(dp1820
a(dp1821
a(dp1822
a(dp1823
a(dp1824
a(dp1825
a(dp1826
a(dp1827
a(dp1828
a(dp1829
a(dp1830
a(dp1831
a(dp1832
a(dp1833
a(dp1834
a(dp1835
asS'3'
p1836
(lp1837
(dp1838
S'tecnologia'
p1839
S'1.96078431373'
p1840
sS'scuola'
p1841
S'9.80392156863'
p1842
sS'scienza'
p1843
S'7.8431372549'
p1844
sS'persone'
p1845
S'1.96078431373'
p1846
sS'politica'
p1847
S'7.8431372549'
p1848
sS'spettacolo'
p1849
S'1.96078431373'
p1850
sS'economia'
p1851
S'3.92156862745'
p1852
sS'gallerie'
p1853
S'1.96078431373'
p1854
sS'motori'
p1855
S'3.92156862745'
p1856
sS'moda'
p1857
S'1.96078431373'
p1858
sS'esteri'
p1859
S'9.80392156863'
p1860
sS'cronaca'
p1861
S'15.6862745098'
p1862
sS'sport'
p1863
S'21.568627451'
p1864
sS'rubriche'
p1865
S'5.88235294118'
p1866
sa(dp1867
a(dp1868
a(dp1869
a(dp1870
a(dp1871
a(dp1872
a(dp1873
a(dp1874
a(dp1875
a(dp1876
a(dp1877
a(dp1878
S'tecnologia'
p1879
S'3.76206959373'
p1880
sS'scuola'
p1881
S'2.84204773183'
p1882
sS'scienza'
p1883
S'7.06868282019'
p1884
sS'persone'
p1885
S'2.14064492622'
p1886
sS'politica'
p1887
S'3.55255966478'
p1888
sS'spettacolo'
p1889
S'5.03734742212'
p1890
sS'economia'
p1891
S'3.88048824923'
p1892
sS'gallerie'
p1893
S'2.35015485516'
p1894
sS'salute'
p1895
S'1.56676990344'
p1896
sS'motori'
p1897
S'2.05866278011'
p1898
sS'esteri'
p1899
S'8.98159956276'
p1900
sS'cronaca'
p1901
S'17.790125706'
p1902
sS'sport'
p1903
S'20.2040444525'
p1904
sS'rubriche'
p1905
S'14.5017307342'
p1906
sa(dp1907
S'tecnologia'
p1908
S'0.625'
p1909
sS'scuola'
p1910
S'1.875'
p1911
sS'scienza'
p1912
S'5.625'
p1913
sS'regione'
p1914
S'1.25'
p1915
sS'politica'
p1916
S'4.375'
p1917
sS'persone'
p1918
S'0.625'
p1919
sS'spettacolo'
p1920
S'6.25'
p1921
sS'economia'
p1922
S'3.75'
p1923
sS'motori'
p1924
S'1.875'
p1925
sS'esteri'
p1926
S'3.125'
p1927
sS'futuro'
p1928
S'1.25'
p1929
sS'cronaca'
p1930
S'12.5'
p1931
sS'sport'
p1932
S'38.125'
p1933
sS'rubriche'
p1934
S'18.125'
p1935
sa(dp1936
S'sport'
p1937
S'100.0'
p1938
sa(dp1939
S'tecnologia'
p1940
S'2.30460100057'
p1941
sS'scienza'
p1942
S'6.97121299106'
p1943
sS'persone'
p1944
S'2.96891659149'
p1945
sS'media'
p1946
S'0.885754121217'
p1947
sS'politica'
p1948
S'2.21438530304'
p1949
sS'spettacolo'
p1950
S'7.13524153203'
p1951
sS'economia'
p1952
S'6.45452308702'
p1953
sS'gallerie'
p1954
S'2.54244238497'
p1955
sS'salute'
p1956
S'1.4762568687'
p1957
sS'moda'
p1958
S'2.84589518576'
p1959
sS'esteri'
p1960
S'7.08603296974'
p1961
sS'cronaca'
p1962
S'20.1837119659'
p1963
sS'sport'
p1964
S'17.8052981219'
p1965
sS'rubriche'
p1966
S'13.6717788895'
p1967
sa(dp1968
a(dp1969
a(dp1970
a(dp1971
a(dp1972
a(dp1973
a(dp1974
a(dp1975
a(dp1976
a(dp1977
S'tecnologia'
p1978
S'1.24327468373'
p1979
sS'scienza'
p1980
S'3.43172895158'
p1981
sS'persone'
p1982
S'1.58499345645'
p1983
sS'media'
p1984
S'0.567107750473'
p1985
sS'politica'
p1986
S'2.69012650865'
p1987
sS'spettacolo'
p1988
S'5.86011342155'
p1989
sS'economia'
p1990
S'4.26057874073'
p1991
sS'gallerie'
p1992
S'1.16329794969'
p1993
sS'salute'
p1994
S'0.574378362658'
p1995
sS'motori'
p1996
S'0.79976734041'
p1997
sS'esteri'
p1998
S'40.1701323251'
p1999
sS'cronaca'
p2000
S'14.2140468227'
p2001
sS'sport'
p2002
S'8.68111094954'
p2003
sS'rubriche'
p2004
S'11.0440599098'
p2005
sa(dp2006
a(dp2007
a(dp2008
a(dp2009
a(dp2010
asS'2'
p2011
(lp2012
(dp2013
a(dp2014
a(dp2015
a(dp2016
a(dp2017
a(dp2018
a(dp2019
a(dp2020
a(dp2021
a(dp2022
a(dp2023
a(dp2024
a(dp2025
a(dp2026
a(dp2027
a(dp2028
a(dp2029
a(dp2030
a(dp2031
a(dp2032
S'tecnologia'
p2033
S'4.2557128319'
p2034
sS'regione'
p2035
S'3.5063373115'
p2036
sS'scienza'
p2037
S'6.00425571283'
p2038
sS'persone'
p2039
S'1.51725414007'
p2040
sS'politica'
p2041
S'3.265797021'
p2042
sS'spettacolo'
p2043
S'6.44833009529'
p2044
sS'economia'
p2045
S'7.87306873901'
p2046
sS'gallerie'
p2047
S'3.36756406698'
p2048
sS'salute'
p2049
S'1.04542510871'
p2050
sS'esteri'
p2051
S'5.28263484134'
p2052
sS'cronaca'
p2053
S'21.6948838931'
p2054
sS'sport'
p2055
S'17.6056989546'
p2056
sS'rubriche'
p2057
S'12.961421038'
p2058
sS'scuola'
p2059
S'1.16569525396'
p2060
sa(dp2061
S'tecnologia'
p2062
S'3.90946502058'
p2063
sS'politica'
p2064
S'1.64609053498'
p2065
sS'scuola'
p2066
S'3.49794238683'
p2067
sS'scienza'
p2068
S'5.34979423868'
p2069
sS'regione'
p2070
S'2.67489711934'
p2071
sS'persone'
p2072
S'2.05761316872'
p2073
sS'spettacolo'
p2074
S'3.7037037037'
p2075
sS'economia'
p2076
S'12.3456790123'
p2077
sS'gallerie'
p2078
S'8.2304526749'
p2079
sS'esteri'
p2080
S'6.58436213992'
p2081
sS'viaggi'
p2082
S'1.44032921811'
p2083
sS'cronaca'
p2084
S'21.6049382716'
p2085
sS'sport'
p2086
S'12.962962963'
p2087
sS'rubriche'
p2088
S'11.7283950617'
p2089
sa(dp2090
S'finale'
p2091
S'1.47058823529'
p2092
sS'scuola'
p2093
S'8.82352941176'
p2094
sS'scienza'
p2095
S'11.7647058824'
p2096
sS'prodotto'
p2097
S'1.47058823529'
p2098
sS'politica'
p2099
S'10.2941176471'
p2100
sS'spettacolo'
p2101
S'4.41176470588'
p2102
sS'economia'
p2103
S'4.41176470588'
p2104
sS'gallerie'
p2105
S'10.2941176471'
p2106
sS'motori'
p2107
S'1.47058823529'
p2108
sS'online'
p2109
S'1.47058823529'
p2110
sS'esteri'
p2111
S'2.94117647059'
p2112
sS'cronaca'
p2113
S'17.6470588235'
p2114
sS'sport'
p2115
S'10.2941176471'
p2116
sS'rubriche'
p2117
S'11.7647058824'
p2118
sa(dp2119
S'tecnologia'
p2120
S'1.76015645835'
p2121
sS'scuola'
p2122
S'2.3468752778'
p2123
sS'scienza'
p2124
S'4.79153702551'
p2125
sS'persone'
p2126
S'1.77793581652'
p2127
sS'politica'
p2128
S'2.66690372478'
p2129
sS'spettacolo'
p2130
S'19.0861409903'
p2131
sS'economia'
p2132
S'8.72077518002'
p2133
sS'gallerie'
p2134
S'7.40510267579'
p2135
sS'salute'
p2136
S'0.942305982754'
p2137
sS'motori'
p2138
S'1.09343052716'
p2139
sS'esteri'
p2140
S'3.85812072184'
p2141
sS'cronaca'
p2142
S'12.7566894835'
p2143
sS'sport'
p2144
S'14.9079918215'
p2145
sS'rubriche'
p2146
S'13.1122766468'
p2147
sa(dp2148
S'tecnologia'
p2149
S'4.53113888042'
p2150
sS'scuola'
p2151
S'1.14802397643'
p2152
sS'scienza'
p2153
S'3.91140912323'
p2154
sS'persone'
p2155
S'1.90998679264'
p2156
sS'politica'
p2157
S'4.2669917708'
p2158
sS'spettacolo'
p2159
S'8.40190998679'
p2160
sS'economia'
p2161
S'8.96068271868'
p2162
sS'gallerie'
p2163
S'4.74448846896'
p2164
sS'salute'
p2165
S'3.94188763588'
p2166
sS'motori'
p2167
S'0.985471908971'
p2168
sS'esteri'
p2169
S'4.67337193945'
p2170
sS'cronaca'
p2171
S'16.2348877375'
p2172
sS'sport'
p2173
S'16.6717464188'
p2174
sS'rubriche'
p2175
S'14.8633546683'
p2176
sa(dp2177
S'tecnologia'
p2178
S'2.54414845855'
p2179
sS'scuola'
p2180
S'0.868003591739'
p2181
sS'scienza'
p2182
S'4.49965080315'
p2183
sS'persone'
p2184
S'1.52648907513'
p2185
sS'politica'
p2186
S'6.26558914497'
p2187
sS'spettacolo'
p2188
S'5.40756260601'
p2189
sS'economia'
p2190
S'7.6025142173'
p2191
sS'gallerie'
p2192
S'3.54185373641'
p2193
sS'motori'
p2194
S'4.32006385314'
p2195
sS'esteri'
p2196
S'8.65010475905'
p2197
sS'viaggi'
p2198
S'1.48658086401'
p2199
sS'cronaca'
p2200
S'14.3669560012'
p2201
sS'sport'
p2202
S'20.8819714656'
p2203
sS'rubriche'
p2204
S'14.0776214706'
p2205
sa(dp2206
S'tecnologia'
p2207
S'1.97427797834'
p2208
sS'scienza'
p2209
S'6.83664259928'
p2210
sS'persone'
p2211
S'1.90658844765'
p2212
sS'politica'
p2213
S'4.44494584838'
p2214
sS'spettacolo'
p2215
S'9.04783393502'
p2216
sS'economia'
p2217
S'7.02842960289'
p2218
sS'gallerie'
p2219
S'2.05324909747'
p2220
sS'motori'
p2221
S'1.21841155235'
p2222
sS'moda'
p2223
S'1.15072202166'
p2224
sS'esteri'
p2225
S'9.88267148014'
p2226
sS'viaggi'
p2227
S'1.2071299639'
p2228
sS'cronaca'
p2229
S'19.2689530686'
p2230
sS'sport'
p2231
S'16.6967509025'
p2232
sS'rubriche'
p2233
S'13.1317689531'
p2234
sa(dp2235
S'tecnologia'
p2236
S'2.85800240674'
p2237
sS'scuola'
p2238
S'1.22342559166'
p2239
sS'scienza'
p2240
S'6.82912154031'
p2241
sS'persone'
p2242
S'1.91536301645'
p2243
sS'politica'
p2244
S'2.7376654633'
p2245
sS'spettacolo'
p2246
S'6.70878459687'
p2247
sS'economia'
p2248
S'5.37505014039'
p2249
sS'gallerie'
p2250
S'1.90533493783'
p2251
sS'motori'
p2252
S'1.22342559166'
p2253
sS'esteri'
p2254
S'6.96951464099'
p2255
sS'viaggi'
p2256
S'0.942639390293'
p2257
sS'cronaca'
p2258
S'18.8427597272'
p2259
sS'sport'
p2260
S'26.795026073'
p2261
sS'rubriche'
p2262
S'11.1913357401'
p2263
sa(dp2264
S'tecnologia'
p2265
S'5.96026490066'
p2266
sS'ritorno'
p2267
S'0.993377483444'
p2268
sS'regione'
p2269
S'3.31125827815'
p2270
sS'scienza'
p2271
S'8.27814569536'
p2272
sS'persone'
p2273
S'0.662251655629'
p2274
sS'politica'
p2275
S'2.98013245033'
p2276
sS'spettacolo'
p2277
S'4.96688741722'
p2278
sS'economia'
p2279
S'4.96688741722'
p2280
sS'motori'
p2281
S'5.29801324503'
p2282
sS'esteri'
p2283
S'7.61589403974'
p2284
sS'cronaca'
p2285
S'15.8940397351'
p2286
sS'sport'
p2287
S'21.5231788079'
p2288
sS'rubriche'
p2289
S'14.238410596'
p2290
sS'scuola'
p2291
S'0.662251655629'
p2292
sasS'5'
p2293
(lp2294
(dp2295
S'scienza'
p2296
S'2.62008733624'
p2297
sS'scuola'
p2298
S'3.05676855895'
p2299
sS'regione'
p2300
S'19.2139737991'
p2301
sS'tecnologia'
p2302
S'2.18340611354'
p2303
sS'politica'
p2304
S'3.49344978166'
p2305
sS'persone'
p2306
S'0.873362445415'
p2307
sS'spettacolo'
p2308
S'2.18340611354'
p2309
sS'economia'
p2310
S'8.73362445415'
p2311
sS'motori'
p2312
S'0.436681222707'
p2313
sS'moda'
p2314
S'0.436681222707'
p2315
sS'esteri'
p2316
S'3.05676855895'
p2317
sS'cronaca'
p2318
S'21.3973799127'
p2319
sS'sport'
p2320
S'10.9170305677'
p2321
sS'rubriche'
p2322
S'20.0873362445'
p2323
sa(dp2324
S'scienza'
p2325
S'1.57068062827'
p2326
sS'regione'
p2327
S'5.49738219895'
p2328
sS'persone'
p2329
S'13.8743455497'
p2330
sS'media'
p2331
S'1.83246073298'
p2332
sS'politica'
p2333
S'1.30890052356'
p2334
sS'spettacolo'
p2335
S'5.23560209424'
p2336
sS'economia'
p2337
S'1.57068062827'
p2338
sS'gallerie'
p2339
S'9.16230366492'
p2340
sS'salute'
p2341
S'0.785340314136'
p2342
sS'esteri'
p2343
S'5.23560209424'
p2344
sS'cronaca'
p2345
S'13.3507853403'
p2346
sS'sport'
p2347
S'26.4397905759'
p2348
sS'rubriche'
p2349
S'12.0418848168'
p2350
sS'scuola'
p2351
S'0.785340314136'
p2352
sa(dp2353
S'tecnologia'
p2354
S'2.65957446809'
p2355
sS'finale'
p2356
S'0.531914893617'
p2357
sS'scienza'
p2358
S'1.06382978723'
p2359
sS'regione'
p2360
S'4.25531914894'
p2361
sS'prodotto'
p2362
S'1.06382978723'
p2363
sS'politica'
p2364
S'2.12765957447'
p2365
sS'spettacolo'
p2366
S'3.1914893617'
p2367
sS'economia'
p2368
S'3.72340425532'
p2369
sS'gallerie'
p2370
S'0.531914893617'
p2371
sS'motori'
p2372
S'10.6382978723'
p2373
sS'esteri'
p2374
S'4.25531914894'
p2375
sS'cronaca'
p2376
S'19.6808510638'
p2377
sS'sport'
p2378
S'31.3829787234'
p2379
sS'rubriche'
p2380
S'14.3617021277'
p2381
sa(dp2382
S'tecnologia'
p2383
S'2.82952133931'
p2384
sS'regione'
p2385
S'1.82346930755'
p2386
sS'scienza'
p2387
S'5.56472530064'
p2388
sS'persone'
p2389
S'2.27147685294'
p2390
sS'media'
p2391
S'1.17110744321'
p2392
sS'politica'
p2393
S'3.41114517016'
p2394
sS'spettacolo'
p2395
S'6.5314784249'
p2396
sS'economia'
p2397
S'4.26000157196'
p2398
sS'gallerie'
p2399
S'3.09675391024'
p2400
sS'esteri'
p2401
S'7.99339778354'
p2402
sS'cronaca'
p2403
S'19.2093059813'
p2404
sS'sport'
p2405
S'25.3084964238'
p2406
sS'rubriche'
p2407
S'11.4752809872'
p2408
sS'scuola'
p2409
S'1.15538788022'
p2410
sa(dp2411
S'tecnologia'
p2412
S'4.17675989136'
p2413
sS'regione'
p2414
S'2.3416281289'
p2415
sS'scuola'
p2416
S'4.99155839389'
p2417
sS'scienza'
p2418
S'4.74932100125'
p2419
sS'persone'
p2420
S'3.17110768553'
p2421
sS'politica'
p2422
S'3.64824194377'
p2423
sS'spettacolo'
p2424
S'5.10900682669'
p2425
sS'economia'
p2426
S'5.88710269397'
p2427
sS'gallerie'
p2428
S'4.54378624385'
p2429
sS'salute'
p2430
S'1.42406224767'
p2431
sS'esteri'
p2432
S'5.34390369229'
p2433
sS'cronaca'
p2434
S'17.3236438376'
p2435
sS'sport'
p2436
S'20.6782646994'
p2437
sS'rubriche'
p2438
S'11.8109080232'
p2439
sa(dp2440
S'tecnologia'
p2441
S'2.22795698925'
p2442
sS'servizi'
p2443
S'1.42795698925'
p2444
sS'scuola'
p2445
S'1.60860215054'
p2446
sS'scienza'
p2447
S'5.71182795699'
p2448
sS'persone'
p2449
S'1.99569892473'
p2450
sS'politica'
p2451
S'4.90322580645'
p2452
sS'mare'
p2453
S'1.25591397849'
p2454
sS'spettacolo'
p2455
S'4.05161290323'
p2456
sS'economia'
p2457
S'4.84301075269'
p2458
sS'gallerie'
p2459
S'3.16559139785'
p2460
sS'esteri'
p2461
S'7.32903225806'
p2462
sS'cronaca'
p2463
S'11.0021505376'
p2464
sS'sport'
p2465
S'33.2043010753'
p2466
sS'rubriche'
p2467
S'9.78924731183'
p2468
sa(dp2469
S'tecnologia'
p2470
S'2.07687247439'
p2471
sS'scuola'
p2472
S'0.883375622592'
p2473
sS'scienza'
p2474
S'5.24386805751'
p2475
sS'persone'
p2476
S'2.75350061084'
p2477
sS'media'
p2478
S'1.09012310873'
p2479
sS'politica'
p2480
S'4.24772107885'
p2481
sS'mare'
p2482
S'1.0431350437'
p2483
sS'spettacolo'
p2484
S'4.70820411615'
p2485
sS'economia'
p2486
S'4.84916831125'
p2487
sS'gallerie'
p2488
S'2.52795789869'
p2489
sS'esteri'
p2490
S'9.51038436237'
p2491
sS'cronaca'
p2492
S'16.9157034113'
p2493
sS'sport'
p2494
S'24.1988534912'
p2495
sS'rubriche'
p2496
S'14.932807067'
p2497
sa(dp2498
S'tecnologia'
p2499
S'1.46120255291'
p2500
sS'regione'
p2501
S'0.948941887807'
p2502
sS'scienza'
p2503
S'7.4151830702'
p2504
sS'persone'
p2505
S'1.94827007054'
p2506
sS'media'
p2507
S'0.923748740343'
p2508
sS'politica'
p2509
S'5.82801477998'
p2510
sS'spettacolo'
p2511
S'5.34094726234'
p2512
sS'economia'
p2513
S'3.83775613033'
p2514
sS'gallerie'
p2515
S'2.78804165267'
p2516
sS'esteri'
p2517
S'11.9331541821'
p2518
sS'cronaca'
p2519
S'15.0655021834'
p2520
sS'sport'
p2521
S'23.2868659725'
p2522
sS'rubriche'
p2523
S'13.251595566'
p2524
sS'scuola'
p2525
S'0.932146456164'
p2526
sa(dp2527
S'tecnologia'
p2528
S'1.84210526316'
p2529
sS'regione'
p2530
S'2.89473684211'
p2531
sS'scienza'
p2532
S'4.21052631579'
p2533
sS'persone'
p2534
S'4.73684210526'
p2535
sS'politica'
p2536
S'4.21052631579'
p2537
sS'spettacolo'
p2538
S'5.52631578947'
p2539
sS'economia'
p2540
S'1.84210526316'
p2541
sS'gallerie'
p2542
S'2.10526315789'
p2543
sS'carte'
p2544
S'3.94736842105'
p2545
sS'esteri'
p2546
S'8.68421052632'
p2547
sS'cronaca'
p2548
S'18.9473684211'
p2549
sS'sport'
p2550
S'18.4210526316'
p2551
sS'rubriche'
p2552
S'17.3684210526'
p2553
sS'scuola'
p2554
S'1.05263157895'
p2555
sa(dp2556
S'tecnologia'
p2557
S'1.57480314961'
p2558
sS'ragazza'
p2559
S'0.787401574803'
p2560
sS'scuola'
p2561
S'6.29921259843'
p2562
sS'scienza'
p2563
S'3.93700787402'
p2564
sS'persone'
p2565
S'3.14960629921'
p2566
sS'media'
p2567
S'3.14960629921'
p2568
sS'politica'
p2569
S'3.93700787402'
p2570
sS'spettacolo'
p2571
S'7.08661417323'
p2572
sS'economia'
p2573
S'3.14960629921'
p2574
sS'salute'
p2575
S'1.57480314961'
p2576
sS'esteri'
p2577
S'11.0236220472'
p2578
sS'cronaca'
p2579
S'8.66141732283'
p2580
sS'sport'
p2581
S'24.4094488189'
p2582
sS'rubriche'
p2583
S'19.6850393701'
p2584
sa(dp2585
S'tecnologia'
p2586
S'3.8494439692'
p2587
sS'regione'
p2588
S'1.04077559167'
p2589
sS'scuola'
p2590
S'1.83917878529'
p2591
sS'scienza'
p2592
S'4.07043056744'
p2593
sS'persone'
p2594
S'2.28115198175'
p2595
sS'politica'
p2596
S'5.89535215284'
p2597
sS'spettacolo'
p2598
S'8.09096093527'
p2599
sS'economia'
p2600
S'6.65811234674'
p2601
sS'gallerie'
p2602
S'3.04391217565'
p2603
sS'motori'
p2604
S'0.933846592529'
p2605
sS'esteri'
p2606
S'7.7630453379'
p2607
sS'cronaca'
p2608
S'16.3601368691'
p2609
sS'sport'
p2610
S'21.3287710294'
p2611
sS'rubriche'
p2612
S'12.2326775021'
p2613
sa(dp2614
S'tecnologia'
p2615
S'1.87611442747'
p2616
sS'scuola'
p2617
S'3.04674780991'
p2618
sS'scienza'
p2619
S'5.28723156834'
p2620
sS'persone'
p2621
S'2.17071090782'
p2622
sS'politica'
p2623
S'4.26389642608'
p2624
sS'spettacolo'
p2625
S'4.47321497791'
p2626
sS'economia'
p2627
S'6.20203116521'
p2628
sS'gallerie'
p2629
S'3.49639506939'
p2630
sS'salute'
p2631
S'2.02341266765'
p2632
sS'esteri'
p2633
S'4.93061477634'
p2634
sS'viaggi'
p2635
S'4.34142181564'
p2636
sS'cronaca'
p2637
S'16.2415691139'
p2638
sS'sport'
p2639
S'21.567563377'
p2640
sS'rubriche'
p2641
S'11.9621676099'
p2642
sa(dp2643
S'tecnologia'
p2644
S'3.17884729649'
p2645
sS'scuola'
p2646
S'2.00039611804'
p2647
sS'scienza'
p2648
S'6.05070310953'
p2649
sS'persone'
p2650
S'3.14913844326'
p2651
sS'media'
p2652
S'1.52505446623'
p2653
sS'politica'
p2654
S'2.57476728065'
p2655
sS'spettacolo'
p2656
S'2.96098237275'
p2657
sS'economia'
p2658
S'5.71400277283'
p2659
sS'gallerie'
p2660
S'3.56506238859'
p2661
sS'motori'
p2662
S'1.25767478709'
p2663
sS'esteri'
p2664
S'11.0021786492'
p2665
sS'cronaca'
p2666
S'15.5773420479'
p2667
sS'sport'
p2668
S'22.4697959992'
p2669
sS'rubriche'
p2670
S'12.4876213112'
p2671
sa(dp2672
S'tecnologia'
p2673
S'3.1156462585'
p2674
sS'finale'
p2675
S'1.74149659864'
p2676
sS'scuola'
p2677
S'1.76870748299'
p2678
sS'scienza'
p2679
S'4.92517006803'
p2680
sS'persone'
p2681
S'1.36054421769'
p2682
sS'media'
p2683
S'1.05442176871'
p2684
sS'politica'
p2685
S'2.13605442177'
p2686
sS'spettacolo'
p2687
S'3.78911564626'
p2688
sS'economia'
p2689
S'3.68027210884'
p2690
sS'gallerie'
p2691
S'2.30612244898'
p2692
sS'esteri'
p2693
S'5.19047619048'
p2694
sS'cronaca'
p2695
S'15.5918367347'
p2696
sS'sport'
p2697
S'37.9659863946'
p2698
sS'rubriche'
p2699
S'10.2857142857'
p2700
sa(dp2701
S'tecnologia'
p2702
S'2.88663735423'
p2703
sS'scuola'
p2704
S'1.682278723'
p2705
sS'scienza'
p2706
S'7.53202064615'
p2707
sS'persone'
p2708
S'2.47562607532'
p2709
sS'media'
p2710
S'1.20435863124'
p2711
sS'politica'
p2712
S'1.80653794686'
p2713
sS'spettacolo'
p2714
S'7.72318868285'
p2715
sS'economia'
p2716
S'5.02771936532'
p2717
sS'gallerie'
p2718
S'3.53660867903'
p2719
sS'motori'
p2720
S'1.682278723'
p2721
sS'esteri'
p2722
S'4.90346014146'
p2723
sS'cronaca'
p2724
S'20.1777862741'
p2725
sS'sport'
p2726
S'22.3475434907'
p2727
sS'rubriche'
p2728
S'11.5752246224'
p2729
sa(dp2730
S'tecnologia'
p2731
S'1.46699266504'
p2732
sS'regione'
p2733
S'2.44498777506'
p2734
sS'scienza'
p2735
S'8.0684596577'
p2736
sS'persone'
p2737
S'9.29095354523'
p2738
sS'politica'
p2739
S'1.95599022005'
p2740
sS'spettacolo'
p2741
S'5.37897310513'
p2742
sS'economia'
p2743
S'1.71149144254'
p2744
sS'gallerie'
p2745
S'4.1564792176'
p2746
sS'motori'
p2747
S'1.71149144254'
p2748
sS'esteri'
p2749
S'6.35696821516'
p2750
sS'cronaca'
p2751
S'24.4498777506'
p2752
sS'sport'
p2753
S'19.315403423'
p2754
sS'rubriche'
p2755
S'9.04645476773'
p2756
sS'scuola'
p2757
S'1.22249388753'
p2758
sa(dp2759
S'finale'
p2760
S'1.85185185185'
p2761
sS'regione'
p2762
S'1.85185185185'
p2763
sS'persone'
p2764
S'18.5185185185'
p2765
sS'politica'
p2766
S'5.55555555556'
p2767
sS'spettacolo'
p2768
S'5.55555555556'
p2769
sS'prodotto'
p2770
S'1.85185185185'
p2771
sS'stelle'
p2772
S'1.85185185185'
p2773
sS'motori'
p2774
S'3.7037037037'
p2775
sS'esteri'
p2776
S'1.85185185185'
p2777
sS'cronaca'
p2778
S'7.40740740741'
p2779
sS'sport'
p2780
S'25.9259259259'
p2781
sS'rubriche'
p2782
S'24.0740740741'
p2783
sa(dp2784
S'tecnologia'
p2785
S'3.17153067302'
p2786
sS'scuola'
p2787
S'1.10184633711'
p2788
sS'scienza'
p2789
S'4.57117331745'
p2790
sS'persone'
p2791
S'3.10452650387'
p2792
sS'politica'
p2793
S'4.04258487195'
p2794
sS'spettacolo'
p2795
S'4.24359737939'
p2796
sS'economia'
p2797
S'4.62328767123'
p2798
sS'gallerie'
p2799
S'5.4347826087'
p2800
sS'salute'
p2801
S'1.19863013699'
p2802
sS'motori'
p2803
S'1.25818939845'
p2804
sS'esteri'
p2805
S'6.91631923764'
p2806
sS'cronaca'
p2807
S'19.5503275759'
p2808
sS'sport'
p2809
S'22.6548540798'
p2810
sS'rubriche'
p2811
S'12.7531268612'
p2812
sa(dp2813
S'tecnologia'
p2814
S'1.41738449491'
p2815
sS'storie'
p2816
S'1.46436961629'
p2817
sS'scuola'
p2818
S'1.84025058731'
p2819
sS'scienza'
p2820
S'3.62568519969'
p2821
sS'persone'
p2822
S'2.61550509005'
p2823
sS'politica'
p2824
S'1.97337509789'
p2825
sS'spettacolo'
p2826
S'5.01174628034'
p2827
sS'economia'
p2828
S'7.45497259201'
p2829
sS'gallerie'
p2830
S'2.49021143305'
p2831
sS'esteri'
p2832
S'6.19420516836'
p2833
sS'viaggi'
p2834
S'1.69146436962'
p2835
sS'cronaca'
p2836
S'19.6711041504'
p2837
sS'sport'
p2838
S'26.0610806578'
p2839
sS'rubriche'
p2840
S'11.182458888'
p2841
sa(dp2842
S'tecnologia'
p2843
S'2.14075010535'
p2844
sS'regione'
p2845
S'1.39064475348'
p2846
sS'scuola'
p2847
S'1.7193426043'
p2848
sS'scienza'
p2849
S'5.14117151285'
p2850
sS'persone'
p2851
S'2.77286135693'
p2852
sS'politica'
p2853
S'3.92751790982'
p2854
sS'spettacolo'
p2855
S'6.59081331648'
p2856
sS'economia'
p2857
S'6.801517067'
p2858
sS'gallerie'
p2859
S'3.09313105773'
p2860
sS'motori'
p2861
S'1.19679730299'
p2862
sS'esteri'
p2863
S'6.01769911504'
p2864
sS'cronaca'
p2865
S'18.5840707965'
p2866
sS'sport'
p2867
S'21.7024863043'
p2868
sS'rubriche'
p2869
S'12.01011378'
p2870
sa(dp2871
S'tecnologia'
p2872
S'2.3488372093'
p2873
sS'scuola'
p2874
S'1.54263565891'
p2875
sS'scienza'
p2876
S'5.2015503876'
p2877
sS'persone'
p2878
S'2.87596899225'
p2879
sS'media'
p2880
S'0.821705426357'
p2881
sS'politica'
p2882
S'3.26356589147'
p2883
sS'spettacolo'
p2884
S'5.86046511628'
p2885
sS'economia'
p2886
S'5.2015503876'
p2887
sS'gallerie'
p2888
S'3.84496124031'
p2889
sS'motori'
p2890
S'1.78294573643'
p2891
sS'esteri'
p2892
S'6.58914728682'
p2893
sS'cronaca'
p2894
S'16.4186046512'
p2895
sS'sport'
p2896
S'27.0697674419'
p2897
sS'rubriche'
p2898
S'12.496124031'
p2899
sa(dp2900
S'tecnologia'
p2901
S'2.68356317555'
p2902
sS'storie'
p2903
S'1.22064852777'
p2904
sS'scienza'
p2905
S'5.00372717108'
p2906
sS'persone'
p2907
S'2.47856876631'
p2908
sS'media'
p2909
S'1.15542303392'
p2910
sS'politica'
p2911
S'3.81103242639'
p2912
sS'spettacolo'
p2913
S'6.52254938502'
p2914
sS'economia'
p2915
S'6.02869921729'
p2916
sS'gallerie'
p2917
S'3.0096906448'
p2918
sS'esteri'
p2919
S'10.2310846068'
p2920
sS'viaggi'
p2921
S'1.02497204622'
p2922
sS'cronaca'
p2923
S'15.4491241148'
p2924
sS'sport'
p2925
S'21.8784942229'
p2926
sS'rubriche'
p2927
S'13.7159895639'
p2928
sa(dp2929
S'tecnologia'
p2930
S'0.674157303371'
p2931
sS'scuola'
p2932
S'0.674157303371'
p2933
sS'scienza'
p2934
S'0.674157303371'
p2935
sS'persone'
p2936
S'3.37078651685'
p2937
sS'politica'
p2938
S'2.69662921348'
p2939
sS'spettacolo'
p2940
S'9.21348314607'
p2941
sS'economia'
p2942
S'7.41573033708'
p2943
sS'gallerie'
p2944
S'2.24719101124'
p2945
sS'salute'
p2946
S'0.898876404494'
p2947
sS'motori'
p2948
S'3.8202247191'
p2949
sS'esteri'
p2950
S'16.1797752809'
p2951
sS'cronaca'
p2952
S'12.3595505618'
p2953
sS'sport'
p2954
S'22.0224719101'
p2955
sS'rubriche'
p2956
S'14.606741573'
p2957
sa(dp2958
S'storia'
p2959
S'0.645161290323'
p2960
sS'regione'
p2961
S'1.93548387097'
p2962
sS'scienza'
p2963
S'6.45161290323'
p2964
sS'persone'
p2965
S'3.87096774194'
p2966
sS'politica'
p2967
S'0.645161290323'
p2968
sS'spettacolo'
p2969
S'3.22580645161'
p2970
sS'economia'
p2971
S'3.22580645161'
p2972
sS'gallerie'
p2973
S'5.8064516129'
p2974
sS'motori'
p2975
S'0.645161290323'
p2976
sS'esteri'
p2977
S'6.45161290323'
p2978
sS'cronaca'
p2979
S'19.3548387097'
p2980
sS'sport'
p2981
S'32.9032258065'
p2982
sS'rubriche'
p2983
S'14.8387096774'
p2984
sa(dp2985
S'tecnologia'
p2986
S'2.70750828417'
p2987
sS'scienza'
p2988
S'3.69352622646'
p2989
sS'persone'
p2990
S'2.78832942698'
p2991
sS'media'
p2992
S'1.29313828498'
p2993
sS'politica'
p2994
S'4.17845308333'
p2995
sS'spettacolo'
p2996
S'6.48993776772'
p2997
sS'economia'
p2998
S'8.37307039522'
p2999
sS'gallerie'
p3000
S'4.69570839732'
p3001
sS'salute'
p3002
S'1.63258708478'
p3003
sS'motori'
p3004
S'1.0668390851'
p3005
sS'esteri'
p3006
S'7.55677685282'
p3007
sS'cronaca'
p3008
S'16.5844985048'
p3009
sS'sport'
p3010
S'22.1773215873'
p3011
sS'rubriche'
p3012
S'12.3817990786'
p3013
sa(dp3014
S'tecnologia'
p3015
S'4.24645390071'
p3016
sS'regione'
p3017
S'1.4804964539'
p3018
sS'scienza'
p3019
S'4.64539007092'
p3020
sS'persone'
p3021
S'2.1365248227'
p3022
sS'media'
p3023
S'1.32978723404'
p3024
sS'politica'
p3025
S'2.5975177305'
p3026
sS'spettacolo'
p3027
S'4.22872340426'
p3028
sS'economia'
p3029
S'6.09042553191'
p3030
sS'gallerie'
p3031
S'3.98936170213'
p3032
sS'salute'
p3033
S'1.1524822695'
p3034
sS'esteri'
p3035
S'6.04609929078'
p3036
sS'cronaca'
p3037
S'21.9680851064'
p3038
sS'sport'
p3039
S'23.6613475177'
p3040
sS'rubriche'
p3041
S'11.719858156'
p3042
sa(dp3043
S'tecnologia'
p3044
S'3.43809689182'
p3045
sS'regione'
p3046
S'1.99687445737'
p3047
sS'scienza'
p3048
S'5.25264802917'
p3049
sS'persone'
p3050
S'1.98819239451'
p3051
sS'media'
p3052
S'1.67563813162'
p3053
sS'politica'
p3054
S'3.01267581177'
p3055
sS'spettacolo'
p3056
S'3.87220003473'
p3057
sS'economia'
p3058
S'5.57388435492'
p3059
sS'gallerie'
p3060
S'3.80274353186'
p3061
sS'rubriche'
p3062
S'12.3979857614'
p3063
sS'esteri'
p3064
S'5.43497134919'
p3065
sS'cronaca'
p3066
S'15.6450772704'
p3067
sS'sport'
p3068
S'25.2474387915'
p3069
sS'salute'
p3070
S'5.4957457892'
p3071
sa(dp3072
S'tecnologia'
p3073
S'3.75129925352'
p3074
sS'regione'
p3075
S'1.43626570916'
p3076
sS'scienza'
p3077
S'6.06633279788'
p3078
sS'persone'
p3079
S'2.62685438911'
p3080
sS'media'
p3081
S'0.822073136162'
p3082
sS'politica'
p3083
S'1.96541623358'
p3084
sS'spettacolo'
p3085
S'3.46782575829'
p3086
sS'economia'
p3087
S'5.92459605027'
p3088
sS'gallerie'
p3089
S'5.57497873949'
p3090
sS'salute'
p3091
S'1.77643390343'
p3092
sS'esteri'
p3093
S'5.18756496268'
p3094
sS'cronaca'
p3095
S'17.4808655391'
p3096
sS'sport'
p3097
S'24.4165170557'
p3098
sS'rubriche'
p3099
S'14.6744779363'
p3100
sa(dp3101
S'tecnologia'
p3102
S'2.22600915965'
p3103
sS'storie'
p3104
S'2.03429545212'
p3105
sS'scuola'
p3106
S'2.7478964746'
p3107
sS'scienza'
p3108
S'6.55021834061'
p3109
sS'persone'
p3110
S'3.86622643519'
p3111
sS'politica'
p3112
S'3.82362338907'
p3113
sS'spettacolo'
p3114
S'4.31355841943'
p3115
sS'economia'
p3116
S'4.47331984237'
p3117
sS'gallerie'
p3118
S'4.23900308872'
p3119
sS'motori'
p3120
S'1.71477260624'
p3121
sS'esteri'
p3122
S'5.03781020343'
p3123
sS'cronaca'
p3124
S'14.7406539568'
p3125
sS'sport'
p3126
S'23.4210246033'
p3127
sS'rubriche'
p3128
S'13.6116732346'
p3129
sa(dp3130
S'tecnologia'
p3131
S'3.93939393939'
p3132
sS'scuola'
p3133
S'2.72727272727'
p3134
sS'scienza'
p3135
S'3.33333333333'
p3136
sS'persone'
p3137
S'5.45454545455'
p3138
sS'media'
p3139
S'1.81818181818'
p3140
sS'politica'
p3141
S'6.36363636364'
p3142
sS'spettacolo'
p3143
S'3.33333333333'
p3144
sS'economia'
p3145
S'3.93939393939'
p3146
sS'gallerie'
p3147
S'2.42424242424'
p3148
sS'motori'
p3149
S'3.0303030303'
p3150
sS'esteri'
p3151
S'5.45454545455'
p3152
sS'cronaca'
p3153
S'12.7272727273'
p3154
sS'sport'
p3155
S'33.0303030303'
p3156
sS'rubriche'
p3157
S'9.09090909091'
p3158
sa(dp3159
S'tecnologia'
p3160
S'3.09278350515'
p3161
sS'finale'
p3162
S'3.09278350515'
p3163
sS'fissa'
p3164
S'1.03092783505'
p3165
sS'scuola'
p3166
S'1.03092783505'
p3167
sS'persone'
p3168
S'10.3092783505'
p3169
sS'media'
p3170
S'1.03092783505'
p3171
sS'politica'
p3172
S'8.24742268041'
p3173
sS'spettacolo'
p3174
S'1.03092783505'
p3175
sS'economia'
p3176
S'4.12371134021'
p3177
sS'gallerie'
p3178
S'4.12371134021'
p3179
sS'esteri'
p3180
S'8.24742268041'
p3181
sS'cronaca'
p3182
S'23.7113402062'
p3183
sS'sport'
p3184
S'14.4329896907'
p3185
sS'rubriche'
p3186
S'16.4948453608'
p3187
sasS'4'
p3188
(lp3189
(dp3190
a(dp3191
a(dp3192
a(dp3193
S'tecnologia'
p3194
S'4.7619047619'
p3195
sS'scuola'
p3196
S'4.7619047619'
p3197
sS'scienza'
p3198
S'8.33333333333'
p3199
sS'persone'
p3200
S'4.7619047619'
p3201
sS'media'
p3202
S'1.19047619048'
p3203
sS'politica'
p3204
S'3.57142857143'
p3205
sS'spettacolo'
p3206
S'3.57142857143'
p3207
sS'gallerie'
p3208
S'2.38095238095'
p3209
sS'esteri'
p3210
S'9.52380952381'
p3211
sS'cronaca'
p3212
S'25.0'
p3213
sS'sport'
p3214
S'16.6666666667'
p3215
sS'rubriche'
p3216
S'15.4761904762'
p3217
sa(dp3218
S'scienza'
p3219
S'11.4285714286'
p3220
sS'persone'
p3221
S'5.71428571429'
p3222
sS'media'
p3223
S'1.42857142857'
p3224
sS'politica'
p3225
S'1.42857142857'
p3226
sS'spettacolo'
p3227
S'20.0'
p3228
sS'economia'
p3229
S'2.85714285714'
p3230
sS'esteri'
p3231
S'8.57142857143'
p3232
sS'cronaca'
p3233
S'14.2857142857'
p3234
sS'sport'
p3235
S'18.5714285714'
p3236
sS'rubriche'
p3237
S'15.7142857143'
p3238
sa(dp3239
S'politica'
p3240
S'3.33333333333'
p3241
sS'spettacolo'
p3242
S'6.66666666667'
p3243
sS'economia'
p3244
S'3.33333333333'
p3245
sS'online'
p3246
S'6.66666666667'
p3247
sS'esteri'
p3248
S'30.0'
p3249
sS'cronaca'
p3250
S'13.3333333333'
p3251
sS'sport'
p3252
S'23.3333333333'
p3253
sS'ultimora'
p3254
S'3.33333333333'
p3255
sS'rubriche'
p3256
S'10.0'
p3257
sa(dp3258
S'tecnologia'
p3259
S'4.50946643718'
p3260
sS'persone'
p3261
S'1.41135972461'
p3262
sS'scienza'
p3263
S'6.19621342513'
p3264
sS'moda'
p3265
S'1.51462994836'
p3266
sS'politica'
p3267
S'3.70051635112'
p3268
sS'spettacolo'
p3269
S'7.02237521515'
p3270
sS'economia'
p3271
S'5.98967297762'
p3272
sS'gallerie'
p3273
S'2.59896729776'
p3274
sS'salute'
p3275
S'2.01376936317'
p3276
sS'motori'
p3277
S'3.28743545611'
p3278
sS'esteri'
p3279
S'7.67641996558'
p3280
sS'cronaca'
p3281
S'21.0499139415'
p3282
sS'sport'
p3283
S'13.3562822719'
p3284
sS'rubriche'
p3285
S'15.421686747'
p3286
sa(dp3287
S'tecnologia'
p3288
S'4.40515126738'
p3289
sS'scuola'
p3290
S'0.776778413737'
p3291
sS'scienza'
p3292
S'6.14268192968'
p3293
sS'persone'
p3294
S'3.08667211774'
p3295
sS'politica'
p3296
S'4.78331970564'
p3297
sS'spettacolo'
p3298
S'7.20564186427'
p3299
sS'economia'
p3300
S'4.39493049877'
p3301
sS'gallerie'
p3302
S'1.98282910875'
p3303
sS'salute'
p3304
S'1.33892068684'
p3305
sS'moda'
p3306
S'1.92150449714'
p3307
sS'esteri'
p3308
S'8.65699100572'
p3309
sS'cronaca'
p3310
S'17.1402289452'
p3311
sS'sport'
p3312
S'17.9885527392'
p3313
sS'rubriche'
p3314
S'15.9546197874'
p3315
sa(dp3316
S'tecnologia'
p3317
S'3.6326426196'
p3318
sS'regione'
p3319
S'5.44896392939'
p3320
sS'scienza'
p3321
S'6.17805065234'
p3322
sS'persone'
p3323
S'1.25351752366'
p3324
sS'politica'
p3325
S'4.56638526477'
p3326
sS'spettacolo'
p3327
S'4.73266820159'
p3328
sS'economia'
p3329
S'4.25940138143'
p3330
sS'gallerie'
p3331
S'1.67562036326'
p3332
sS'motori'
p3333
S'1.77794832438'
p3334
sS'moda'
p3335
S'1.20235354311'
p3336
sS'esteri'
p3337
S'5.321053978'
p3338
sS'cronaca'
p3339
S'26.2471220261'
p3340
sS'sport'
p3341
S'12.4200562804'
p3342
sS'rubriche'
p3343
S'15.7457150166'
p3344
sa(dp3345
S'tecnologia'
p3346
S'4.5419153906'
p3347
sS'regione'
p3348
S'1.50532052946'
p3349
sS'scienza'
p3350
S'5.8309542348'
p3351
sS'persone'
p3352
S'1.8600224933'
p3353
sS'politica'
p3354
S'1.60048447097'
p3355
sS'spettacolo'
p3356
S'6.02128211783'
p3357
sS'economia'
p3358
S'5.50220607319'
p3359
sS'gallerie'
p3360
S'3.27017908124'
p3361
sS'motori'
p3362
S'1.7821610866'
p3363
sS'esteri'
p3364
S'7.1286443464'
p3365
sS'cronaca'
p3366
S'19.3615364651'
p3367
sS'sport'
p3368
S'15.1916255731'
p3369
sS'intesa'
p3370
S'1.47936672723'
p3371
sS'rubriche'
p3372
S'18.6261787352'
p3373
sa(dp3374
S'fondi'
p3375
S'12.9930394432'
p3376
sS'politica'
p3377
S'1.62412993039'
p3378
sS'scuola'
p3379
S'2.78422273782'
p3380
sS'scienza'
p3381
S'5.10440835267'
p3382
sS'tecnologia'
p3383
S'4.6403712297'
p3384
sS'persone'
p3385
S'4.40835266821'
p3386
sS'spettacolo'
p3387
S'5.80046403712'
p3388
sS'economia'
p3389
S'6.96055684455'
p3390
sS'gallerie'
p3391
S'1.16009280742'
p3392
sS'motori'
p3393
S'1.39211136891'
p3394
sS'esteri'
p3395
S'3.48027842227'
p3396
sS'cronaca'
p3397
S'11.6009280742'
p3398
sS'sport'
p3399
S'23.2018561485'
p3400
sS'rubriche'
p3401
S'12.5290023202'
p3402
sa(dp3403
S'tecnologia'
p3404
S'1.76991150442'
p3405
sS'scienza'
p3406
S'3.53982300885'
p3407
sS'persone'
p3408
S'5.30973451327'
p3409
sS'spettacolo'
p3410
S'8.84955752212'
p3411
sS'economia'
p3412
S'0.884955752212'
p3413
sS'gallerie'
p3414
S'7.0796460177'
p3415
sS'salute'
p3416
S'1.76991150442'
p3417
sS'motori'
p3418
S'0.884955752212'
p3419
sS'esteri'
p3420
S'7.0796460177'
p3421
sS'viaggi'
p3422
S'0.884955752212'
p3423
sS'cronaca'
p3424
S'15.9292035398'
p3425
sS'sport'
p3426
S'11.5044247788'
p3427
sS'rubriche'
p3428
S'33.6283185841'
p3429
sS'giochi'
p3430
S'0.884955752212'
p3431
sa(dp3432
S'tecnologia'
p3433
S'2.5816892725'
p3434
sS'scuola'
p3435
S'1.6414919852'
p3436
sS'scienza'
p3437
S'4.95530209618'
p3438
sS'persone'
p3439
S'1.91892725031'
p3440
sS'media'
p3441
S'1.09432799014'
p3442
sS'politica'
p3443
S'1.94204685573'
p3444
sS'spettacolo'
p3445
S'10.8893341554'
p3446
sS'economia'
p3447
S'5.4947595561'
p3448
sS'gallerie'
p3449
S'3.99198520345'
p3450
sS'motori'
p3451
S'1.68773119605'
p3452
sS'esteri'
p3453
S'9.17077681874'
p3454
sS'cronaca'
p3455
S'20.4377311961'
p3456
sS'sport'
p3457
S'17.6325524044'
p3458
sS'rubriche'
p3459
S'11.5983353884'
p3460
sa(dp3461
S'tecnologia'
p3462
S'4.61516098554'
p3463
sS'scuola'
p3464
S'1.37364634058'
p3465
sS'scienza'
p3466
S'8.58347263609'
p3467
sS'persone'
p3468
S'1.86060033433'
p3469
sS'politica'
p3470
S'2.10044334617'
p3471
sS'spettacolo'
p3472
S'5.53819318264'
p3473
sS'economia'
p3474
S'6.26499018824'
p3475
sS'gallerie'
p3476
S'3.93923977033'
p3477
sS'salute'
p3478
S'0.915764227051'
p3479
sS'esteri'
p3480
S'4.99309542845'
p3481
sS'viaggi'
p3482
S'1.08292753834'
p3483
sS'cronaca'
p3484
S'23.9406933643'
p3485
sS'sport'
p3486
S'14.5722799622'
p3487
sS'rubriche'
p3488
S'14.1943455193'
p3489
sa(dp3490
S'tecnologia'
p3491
S'3.18607324684'
p3492
sS'regione'
p3493
S'1.38774839875'
p3494
sS'scienza'
p3495
S'8.46608638528'
p3496
sS'persone'
p3497
S'2.42240105108'
p3498
sS'politica'
p3499
S'3.09574642798'
p3500
sS'spettacolo'
p3501
S'4.6313023485'
p3502
sS'economia'
p3503
S'8.04729840696'
p3504
sS'gallerie'
p3505
S'3.74445721793'
p3506
sS'salute'
p3507
S'1.18246017408'
p3508
sS'esteri'
p3509
S'6.36393496469'
p3510
sS'cronaca'
p3511
S'18.0735752997'
p3512
sS'sport'
p3513
S'20.4877648218'
p3514
sS'rubriche'
p3515
S'12.7442929874'
p3516
sS'scuola'
p3517
S'1.21530629003'
p3518
sa(dp3519
S'tecnologia'
p3520
S'3.10119276645'
p3521
sS'regione'
p3522
S'1.03886110042'
p3523
sS'scuola'
p3524
S'1.06194690265'
p3525
sS'scienza'
p3526
S'6.82570219315'
p3527
sS'persone'
p3528
S'2.4086186995'
p3529
sS'politica'
p3530
S'4.88649480569'
p3531
sS'spettacolo'
p3532
S'5.34821085033'
p3533
sS'economia'
p3534
S'7.98768757214'
p3535
sS'gallerie'
p3536
S'4.37091188919'
p3537
sS'motori'
p3538
S'0.85417468257'
p3539
sS'esteri'
p3540
S'9.60369372836'
p3541
sS'cronaca'
p3542
S'18.106964217'
p3543
sS'sport'
p3544
S'15.0288572528'
p3545
sS'rubriche'
p3546
S'14.0361677568'
p3547
sa(dp3548
S'tecnologia'
p3549
S'3.34451036024'
p3550
sS'scuola'
p3551
S'2.39016421632'
p3552
sS'scienza'
p3553
S'6.51706646032'
p3554
sS'persone'
p3555
S'3.01779726593'
p3556
sS'media'
p3557
S'1.33264551629'
p3558
sS'politica'
p3559
S'2.60510704153'
p3560
sS'spettacolo'
p3561
S'6.34511220015'
p3562
sS'economia'
p3563
S'6.03559453185'
p3564
sS'gallerie'
p3565
S'4.10970681799'
p3566
sS'salute'
p3567
S'1.01453013498'
p3568
sS'esteri'
p3569
S'7.05872237985'
p3570
sS'cronaca'
p3571
S'20.7032929241'
p3572
sS'sport'
p3573
S'18.553864672'
p3574
sS'rubriche'
p3575
S'12.1829593328'
p3576
sa(dp3577
S'fondi'
p3578
S'4.98915401302'
p3579
sS'ritorno'
p3580
S'1.08459869848'
p3581
sS'persone'
p3582
S'1.95227765727'
p3583
sS'scienza'
p3584
S'4.33839479393'
p3585
sS'tecnologia'
p3586
S'4.77223427332'
p3587
sS'politica'
p3588
S'1.95227765727'
p3589
sS'spettacolo'
p3590
S'11.9305856833'
p3591
sS'economia'
p3592
S'6.94143167028'
p3593
sS'motori'
p3594
S'1.95227765727'
p3595
sS'esteri'
p3596
S'7.80911062907'
p3597
sS'cronaca'
p3598
S'26.8980477223'
p3599
sS'sport'
p3600
S'10.8459869848'
p3601
sS'rubriche'
p3602
S'8.24295010846'
p3603
sS'scuola'
p3604
S'1.73535791757'
p3605
sa(dp3606
S'tecnologia'
p3607
S'0.59880239521'
p3608
sS'storie'
p3609
S'0.59880239521'
p3610
sS'scienza'
p3611
S'9.58083832335'
p3612
sS'persone'
p3613
S'2.39520958084'
p3614
sS'media'
p3615
S'0.59880239521'
p3616
sS'politica'
p3617
S'2.99401197605'
p3618
sS'spettacolo'
p3619
S'1.79640718563'
p3620
sS'economia'
p3621
S'4.79041916168'
p3622
sS'motori'
p3623
S'0.59880239521'
p3624
sS'esteri'
p3625
S'1.79640718563'
p3626
sS'cronaca'
p3627
S'32.3353293413'
p3628
sS'sport'
p3629
S'17.9640718563'
p3630
sS'rubriche'
p3631
S'23.3532934132'
p3632
sS'scuola'
p3633
S'0.59880239521'
p3634
sa(dp3635
S'tecnologia'
p3636
S'2.35518777849'
p3637
sS'ritorno'
p3638
S'1.53678275893'
p3639
sS'scuola'
p3640
S'1.39128853324'
p3641
sS'scienza'
p3642
S'3.88287714831'
p3643
sS'persone'
p3644
S'2.15513321815'
p3645
sS'politica'
p3646
S'3.90106392653'
p3647
sS'spettacolo'
p3648
S'7.80212785305'
p3649
sS'economia'
p3650
S'3.51914158407'
p3651
sS'gallerie'
p3652
S'3.48276802764'
p3653
sS'motori'
p3654
S'3.64644903155'
p3655
sS'esteri'
p3656
S'6.01073019915'
p3657
sS'cronaca'
p3658
S'20.6783668273'
p3659
sS'sport'
p3660
S'21.8150404656'
p3661
sS'rubriche'
p3662
S'10.2482495226'
p3663
sa(dp3664
S'tecnologia'
p3665
S'5.36912751678'
p3666
sS'scienza'
p3667
S'4.78187919463'
p3668
sS'persone'
p3669
S'2.86433365292'
p3670
sS'media'
p3671
S'1.1744966443'
p3672
sS'politica'
p3673
S'3.24784276127'
p3674
sS'spettacolo'
p3675
S'6.19606903164'
p3676
sS'economia'
p3677
S'5.78859060403'
p3678
sS'gallerie'
p3679
S'4.23058485139'
p3680
sS'salute'
p3681
S'1.79769894535'
p3682
sS'motori'
p3683
S'3.45158197507'
p3684
sS'esteri'
p3685
S'7.3585810163'
p3686
sS'cronaca'
p3687
S'18.9717162033'
p3688
sS'sport'
p3689
S'16.8384467881'
p3690
sS'rubriche'
p3691
S'11.7569511026'
p3692
sa(dp3693
S'tecnologia'
p3694
S'4.30563043981'
p3695
sS'scienza'
p3696
S'4.56751136101'
p3697
sS'persone'
p3698
S'1.51736886698'
p3699
sS'media'
p3700
S'0.693214203189'
p3701
sS'politica'
p3702
S'4.92182084264'
p3703
sS'spettacolo'
p3704
S'5.19910652392'
p3705
sS'economia'
p3706
S'4.51359470076'
p3707
sS'gallerie'
p3708
S'2.87298775322'
p3709
sS'salute'
p3710
S'1.34021412616'
p3711
sS'motori'
p3712
S'1.7176307479'
p3713
sS'esteri'
p3714
S'7.32496341369'
p3715
sS'cronaca'
p3716
S'26.4114611415'
p3717
sS'sport'
p3718
S'18.2777478241'
p3719
sS'rubriche'
p3720
S'11.9772009551'
p3721
sa(dp3722
S'tecnologia'
p3723
S'2.88127922764'
p3724
sS'storia'
p3725
S'1.01071051441'
p3726
sS'scienza'
p3727
S'3.51485895308'
p3728
sS'persone'
p3729
S'2.8586513803'
p3730
sS'politica'
p3731
S'3.2206969377'
p3732
sS'spettacolo'
p3733
S'5.46839643989'
p3734
sS'economia'
p3735
S'5.04600995625'
p3736
sS'gallerie'
p3737
S'2.93407753809'
p3738
sS'salute'
p3739
S'1.65937547141'
p3740
sS'esteri'
p3741
S'8.77960476693'
p3742
sS'viaggi'
p3743
S'1.71971639765'
p3744
sS'cronaca'
p3745
S'19.6108010258'
p3746
sS'sport'
p3747
S'22.507165485'
p3748
sS'rubriche'
p3749
S'12.6414240459'
p3750
sa(dp3751
S'tecnologia'
p3752
S'3.19250903193'
p3753
sS'scienza'
p3754
S'3.86345203863'
p3755
sS'persone'
p3756
S'1.85799601858'
p3757
sS'media'
p3758
S'1.53358401534'
p3759
sS'politica'
p3760
S'1.54095701541'
p3761
sS'spettacolo'
p3762
S'6.8200250682'
p3763
sS'economia'
p3764
S'4.89567204896'
p3765
sS'gallerie'
p3766
S'3.94455503945'
p3767
sS'salute'
p3768
S'0.943744009437'
p3769
sS'motori'
p3770
S'1.37875101379'
p3771
sS'esteri'
p3772
S'8.30199808302'
p3773
sS'cronaca'
p3774
S'14.8860871489'
p3775
sS'sport'
p3776
S'33.3701983337'
p3777
sS'rubriche'
p3778
S'9.48167809482'
p3779
sa(dp3780
S'tecnologia'
p3781
S'0.531914893617'
p3782
sS'finale'
p3783
S'0.531914893617'
p3784
sS'scuola'
p3785
S'0.531914893617'
p3786
sS'regione'
p3787
S'2.12765957447'
p3788
sS'persone'
p3789
S'4.78723404255'
p3790
sS'politica'
p3791
S'2.65957446809'
p3792
sS'spettacolo'
p3793
S'11.170212766'
p3794
sS'economia'
p3795
S'2.65957446809'
p3796
sS'gallerie'
p3797
S'1.06382978723'
p3798
sS'motori'
p3799
S'0.531914893617'
p3800
sS'esteri'
p3801
S'13.829787234'
p3802
sS'cronaca'
p3803
S'15.9574468085'
p3804
sS'sport'
p3805
S'28.7234042553'
p3806
sS'rubriche'
p3807
S'13.829787234'
p3808
sa(dp3809
S'fondi'
p3810
S'7.43801652893'
p3811
sS'scuola'
p3812
S'0.826446280992'
p3813
sS'scienza'
p3814
S'1.23966942149'
p3815
sS'persone'
p3816
S'3.30578512397'
p3817
sS'media'
p3818
S'1.23966942149'
p3819
sS'politica'
p3820
S'5.37190082645'
p3821
sS'spettacolo'
p3822
S'2.06611570248'
p3823
sS'gallerie'
p3824
S'0.826446280992'
p3825
sS'motori'
p3826
S'0.826446280992'
p3827
sS'esteri'
p3828
S'6.19834710744'
p3829
sS'cronaca'
p3830
S'14.0495867769'
p3831
sS'sport'
p3832
S'45.041322314'
p3833
sS'tecnologia'
p3834
S'2.47933884298'
p3835
sS'rubriche'
p3836
S'9.09090909091'
p3837
sa(dp3838
S'tecnologia'
p3839
S'2.83380322417'
p3840
sS'scuola'
p3841
S'0.527723559604'
p3842
sS'scienza'
p3843
S'4.22901756669'
p3844
sS'persone'
p3845
S'1.70606520639'
p3846
sS'media'
p3847
S'1.61208703824'
p3848
sS'politica'
p3849
S'2.21933058628'
p3850
sS'spettacolo'
p3851
S'10.9593002241'
p3852
sS'economia'
p3853
S'3.22417407648'
p3854
sS'gallerie'
p3855
S'3.62900310851'
p3856
sS'motori'
p3857
S'1.36629798308'
p3858
sS'esteri'
p3859
S'8.68936600882'
p3860
sS'cronaca'
p3861
S'17.4582520061'
p3862
sS'sport'
p3863
S'26.5524470469'
p3864
sS'rubriche'
p3865
S'10.6484493602'
p3866
sa(dp3867
S'tecnologia'
p3868
S'3.67023384859'
p3869
sS'regione'
p3870
S'1.06222750694'
p3871
sS'scienza'
p3872
S'5.51724137931'
p3873
sS'persone'
p3874
S'2.08481965914'
p3875
sS'media'
p3876
S'1.60126833135'
p3877
sS'politica'
p3878
S'5.73919936583'
p3879
sS'spettacolo'
p3880
S'5.25564803805'
p3881
sS'economia'
p3882
S'4.962346413'
p3883
sS'gallerie'
p3884
S'5.42211652794'
p3885
sS'motori'
p3886
S'1.07015457788'
p3887
sS'esteri'
p3888
S'9.36187078874'
p3889
sS'cronaca'
p3890
S'14.2687277051'
p3891
sS'sport'
p3892
S'20.9433214427'
p3893
sS'rubriche'
p3894
S'12.1442726912'
p3895
sa(dp3896
S'tecnologia'
p3897
S'2.96357615894'
p3898
sS'scuola'
p3899
S'1.11754966887'
p3900
sS'scienza'
p3901
S'7.88907284768'
p3902
sS'persone'
p3903
S'2.20198675497'
p3904
sS'media'
p3905
S'4.84271523179'
p3906
sS'politica'
p3907
S'6.54801324503'
p3908
sS'spettacolo'
p3909
S'5.80298013245'
p3910
sS'economia'
p3911
S'6.12582781457'
p3912
sS'gallerie'
p3913
S'4.52814569536'
p3914
sS'motori'
p3915
S'1.21688741722'
p3916
sS'esteri'
p3917
S'7.54139072848'
p3918
sS'cronaca'
p3919
S'11.6556291391'
p3920
sS'sport'
p3921
S'17.5579470199'
p3922
sS'rubriche'
p3923
S'14.1059602649'
p3924
sa(dp3925
S'tecnologia'
p3926
S'4.11512027491'
p3927
sS'regione'
p3928
S'1.47766323024'
p3929
sS'scienza'
p3930
S'5.93642611684'
p3931
sS'persone'
p3932
S'4.5618556701'
p3933
sS'media'
p3934
S'2.13917525773'
p3935
sS'politica'
p3936
S'4.39862542955'
p3937
sS'spettacolo'
p3938
S'3.79725085911'
p3939
sS'economia'
p3940
S'5.63573883162'
p3941
sS'gallerie'
p3942
S'2.44845360825'
p3943
sS'salute'
p3944
S'2.87800687285'
p3945
sS'esteri'
p3946
S'5.24054982818'
p3947
sS'cronaca'
p3948
S'16.0051546392'
p3949
sS'sport'
p3950
S'19.9312714777'
p3951
sS'rubriche'
p3952
S'15.9621993127'
p3953
sasS'7'
p3954
(lp3955
(dp3956
S'tecnologia'
p3957
S'2.56171401956'
p3958
sS'scienza'
p3959
S'3.75407545412'
p3960
sS'persone'
p3961
S'1.51839776432'
p3962
sS'media'
p3963
S'1.58360503027'
p3964
sS'politica'
p3965
S'2.44061481136'
p3966
sS'spettacolo'
p3967
S'5.49604098742'
p3968
sS'economia'
p3969
S'15.2026082906'
p3970
sS'gallerie'
p3971
S'3.37214718211'
p3972
sS'salute'
p3973
S'1.97484862599'
p3974
sS'esteri'
p3975
S'11.2715416861'
p3976
sS'viaggi'
p3977
S'1.13646949231'
p3978
sS'cronaca'
p3979
S'18.025151374'
p3980
sS'sport'
p3981
S'15.9292035398'
p3982
sS'rubriche'
p3983
S'10.0791802515'
p3984
sa(dp3985
S'tecnologia'
p3986
S'2.80301064106'
p3987
sS'scienza'
p3988
S'4.80145341292'
p3989
sS'persone'
p3990
S'1.43611039017'
p3991
sS'politica'
p3992
S'2.5088675491'
p3993
sS'spettacolo'
p3994
S'2.82896444329'
p3995
sS'economia'
p3996
S'13.1326239294'
p3997
sS'gallerie'
p3998
S'2.63863656026'
p3999
sS'salute'
p4000
S'0.968941949996'
p4001
sS'motori'
p4002
S'1.7042996799'
p4003
sS'esteri'
p4004
S'9.87974738299'
p4005
sS'viaggi'
p4006
S'17.5793753785'
p4007
sS'cronaca'
p4008
S'13.5219309629'
p4009
sS'sport'
p4010
S'11.3504628428'
p4011
sS'rubriche'
p4012
S'8.95406177005'
p4013
sa(dp4014
S'tecnologia'
p4015
S'2.3911710607'
p4016
sS'scuola'
p4017
S'1.57659630376'
p4018
sS'scienza'
p4019
S'6.71805202768'
p4020
sS'persone'
p4021
S'1.6641849873'
p4022
sS'politica'
p4023
S'2.15468161514'
p4024
sS'spettacolo'
p4025
S'2.89042655689'
p4026
sS'economia'
p4027
S'10.6245073137'
p4028
sS'gallerie'
p4029
S'5.68450556188'
p4030
sS'motori'
p4031
S'3.04808618726'
p4032
sS'esteri'
p4033
S'5.19400893405'
p4034
sS'viaggi'
p4035
S'8.12822983271'
p4036
sS'cronaca'
p4037
S'18.052027678'
p4038
sS'sport'
p4039
S'14.4696505212'
p4040
sS'rubriche'
p4041
S'11.0361741263'
p4042
sa(dp4043
S'tecnologia'
p4044
S'1.93965517241'
p4045
sS'scuola'
p4046
S'3.87931034483'
p4047
sS'scienza'
p4048
S'6.68103448276'
p4049
sS'persone'
p4050
S'5.38793103448'
p4051
sS'spettacolo'
p4052
S'2.58620689655'
p4053
sS'economia'
p4054
S'8.83620689655'
p4055
sS'gallerie'
p4056
S'3.23275862069'
p4057
sS'motori'
p4058
S'1.72413793103'
p4059
sS'moda'
p4060
S'3.66379310345'
p4061
sS'esteri'
p4062
S'4.52586206897'
p4063
sS'viaggi'
p4064
S'10.9913793103'
p4065
sS'cronaca'
p4066
S'15.3017241379'
p4067
sS'sport'
p4068
S'18.1034482759'
p4069
sS'rubriche'
p4070
S'8.83620689655'
p4071
sa(dp4072
S'persone'
p4073
S'17.2413793103'
p4074
sS'media'
p4075
S'6.89655172414'
p4076
sS'spettacolo'
p4077
S'8.62068965517'
p4078
sS'economia'
p4079
S'25.8620689655'
p4080
sS'moda'
p4081
S'1.72413793103'
p4082
sS'esteri'
p4083
S'3.44827586207'
p4084
sS'cronaca'
p4085
S'13.7931034483'
p4086
sS'sport'
p4087
S'12.0689655172'
p4088
sS'rubriche'
p4089
S'10.3448275862'
p4090
sa(dp4091
S'tecnologia'
p4092
S'2.25563909774'
p4093
sS'regione'
p4094
S'0.91533180778'
p4095
sS'scienza'
p4096
S'3.57142857143'
p4097
sS'persone'
p4098
S'1.56096763648'
p4099
sS'media'
p4100
S'1.52010460935'
p4101
sS'politica'
p4102
S'3.04838182413'
p4103
sS'spettacolo'
p4104
S'4.13533834586'
p4105
sS'economia'
p4106
S'15.2092186989'
p4107
sS'gallerie'
p4108
S'2.81954887218'
p4109
sS'esteri'
p4110
S'9.04707420726'
p4111
sS'viaggi'
p4112
S'4.35599869238'
p4113
sS'cronaca'
p4114
S'21.1016672115'
p4115
sS'sport'
p4116
S'15.3563255966'
p4117
sS'rubriche'
p4118
S'11.5969271004'
p4119
sa(dp4120
S'tecnologia'
p4121
S'2.46149199638'
p4122
sS'storie'
p4123
S'0.921171851404'
p4124
sS'scienza'
p4125
S'4.99848988221'
p4126
sS'persone'
p4127
S'1.79704016913'
p4128
sS'politica'
p4129
S'1.94805194805'
p4130
sS'spettacolo'
p4131
S'6.75022651767'
p4132
sS'economia'
p4133
S'13.3192389006'
p4134
sS'gallerie'
p4135
S'3.23165206886'
p4136
sS'motori'
p4137
S'1.10238598611'
p4138
sS'esteri'
p4139
S'8.7284808215'
p4140
sS'viaggi'
p4141
S'2.08396254908'
p4142
sS'cronaca'
p4143
S'20.3714889761'
p4144
sS'sport'
p4145
S'16.47538508'
p4146
sS'rubriche'
p4147
S'9.90637269707'
p4148
sa(dp4149
S'tecnologia'
p4150
S'12.1212121212'
p4151
sS'scienza'
p4152
S'3.0303030303'
p4153
sS'persone'
p4154
S'1.51515151515'
p4155
sS'spettacolo'
p4156
S'4.54545454545'
p4157
sS'economia'
p4158
S'33.3333333333'
p4159
sS'esteri'
p4160
S'12.1212121212'
p4161
sS'viaggi'
p4162
S'1.51515151515'
p4163
sS'cronaca'
p4164
S'10.6060606061'
p4165
sS'sport'
p4166
S'10.6060606061'
p4167
sS'rubriche'
p4168
S'10.6060606061'
p4169
sa(dp4170
a(dp4171
a(dp4172
a(dp4173
a(dp4174
a(dp4175
a(dp4176
a(dp4177
a(dp4178
a(dp4179
a(dp4180
a(dp4181
a(dp4182
a(dp4183
a(dp4184
a(dp4185
a(dp4186
a(dp4187
a(dp4188
a(dp4189
a(dp4190
a(dp4191
a(dp4192
asS'6'
p4193
(lp4194
(dp4195
S'tecnologia'
p4196
S'2.13714922877'
p4197
sS'scuola'
p4198
S'0.929195316856'
p4199
sS'scienza'
p4200
S'2.1557331351'
p4201
sS'persone'
p4202
S'1.70971938301'
p4203
sS'media'
p4204
S'2.28582047946'
p4205
sS'politica'
p4206
S'15.6290652295'
p4207
sS'spettacolo'
p4208
S'5.81676268352'
p4209
sS'economia'
p4210
S'2.41590782382'
p4211
sS'gallerie'
p4212
S'3.14068017097'
p4213
sS'moda'
p4214
S'0.873443597844'
p4215
sS'esteri'
p4216
S'4.70172830329'
p4217
sS'cronaca'
p4218
S'12.7299758409'
p4219
sS'sport'
p4220
S'23.6387288608'
p4221
sS'rubriche'
p4222
S'17.6547110203'
p4223
sa(dp4224
S'finale'
p4225
S'0.751879699248'
p4226
sS'scienza'
p4227
S'3.00751879699'
p4228
sS'media'
p4229
S'1.5037593985'
p4230
sS'politica'
p4231
S'5.26315789474'
p4232
sS'giugno'
p4233
S'0.751879699248'
p4234
sS'spettacolo'
p4235
S'3.00751879699'
p4236
sS'economia'
p4237
S'2.25563909774'
p4238
sS'gallerie'
p4239
S'6.01503759398'
p4240
sS'motori'
p4241
S'0.751879699248'
p4242
sS'online'
p4243
S'1.5037593985'
p4244
sS'esteri'
p4245
S'6.76691729323'
p4246
sS'cronaca'
p4247
S'24.0601503759'
p4248
sS'sport'
p4249
S'23.3082706767'
p4250
sS'rubriche'
p4251
S'19.5488721805'
p4252
sa(dp4253
S'tecnologia'
p4254
S'2.34982999622'
p4255
sS'scienza'
p4256
S'5.12278050623'
p4257
sS'persone'
p4258
S'1.77559501322'
p4259
sS'media'
p4260
S'0.853796751039'
p4261
sS'politica'
p4262
S'4.18587079713'
p4263
sS'spettacolo'
p4264
S'6.23347185493'
p4265
sS'economia'
p4266
S'6.41480921798'
p4267
sS'gallerie'
p4268
S'3.64941443143'
p4269
sS'motori'
p4270
S'0.763128069513'
p4271
sS'moda'
p4272
S'1.00491122025'
p4273
sS'esteri'
p4274
S'5.34945221005'
p4275
sS'cronaca'
p4276
S'14.45409898'
p4277
sS'sport'
p4278
S'31.4318095958'
p4279
sS'rubriche'
p4280
S'11.1749149981'
p4281
sa(dp4282
S'tecnologia'
p4283
S'1.92359550562'
p4284
sS'regione'
p4285
S'1.29438202247'
p4286
sS'scienza'
p4287
S'6.01348314607'
p4288
sS'persone'
p4289
S'2.21123595506'
p4290
sS'politica'
p4291
S'3.04719101124'
p4292
sS'giugno'
p4293
S'2.20224719101'
p4294
sS'spettacolo'
p4295
S'5.64494382022'
p4296
sS'economia'
p4297
S'7.66741573034'
p4298
sS'gallerie'
p4299
S'2.87640449438'
p4300
sS'esteri'
p4301
S'4.8808988764'
p4302
sS'viaggi'
p4303
S'1.94157303371'
p4304
sS'cronaca'
p4305
S'17.9505617978'
p4306
sS'sport'
p4307
S'27.0561797753'
p4308
sS'rubriche'
p4309
S'8.15280898876'
p4310
sa(dp4311
S'tecnologia'
p4312
S'3.45956054231'
p4313
sS'regione'
p4314
S'1.68302945302'
p4315
sS'scienza'
p4316
S'4.23562412342'
p4317
sS'persone'
p4318
S'2.48714352501'
p4319
sS'politica'
p4320
S'1.70172978027'
p4321
sS'spettacolo'
p4322
S'4.33847592333'
p4323
sS'economia'
p4324
S'6.13370733988'
p4325
sS'gallerie'
p4326
S'4.68443197756'
p4327
sS'salute'
p4328
S'1.97288452548'
p4329
sS'esteri'
p4330
S'5.74100046751'
p4331
sS'viaggi'
p4332
S'2.87050023375'
p4333
sS'cronaca'
p4334
S'15.2127162225'
p4335
sS'sport'
p4336
S'24.9462365591'
p4337
sS'rubriche'
p4338
S'12.5946704067'
p4339
sa(dp4340
S'tecnologia'
p4341
S'2.20264317181'
p4342
sS'scienza'
p4343
S'1.54185022026'
p4344
sS'persone'
p4345
S'3.96475770925'
p4346
sS'politica'
p4347
S'2.42290748899'
p4348
sS'mare'
p4349
S'1.54185022026'
p4350
sS'spettacolo'
p4351
S'3.30396475771'
p4352
sS'economia'
p4353
S'7.48898678414'
p4354
sS'gallerie'
p4355
S'3.52422907489'
p4356
sS'motori'
p4357
S'2.64317180617'
p4358
sS'moda'
p4359
S'6.16740088106'
p4360
sS'esteri'
p4361
S'3.96475770925'
p4362
sS'cronaca'
p4363
S'20.4845814978'
p4364
sS'sport'
p4365
S'27.7533039648'
p4366
sS'rubriche'
p4367
S'9.03083700441'
p4368
sa(dp4369
S'tecnologia'
p4370
S'0.62893081761'
p4371
sS'persone'
p4372
S'6.2893081761'
p4373
sS'politica'
p4374
S'13.8364779874'
p4375
sS'giugno'
p4376
S'0.62893081761'
p4377
sS'spettacolo'
p4378
S'3.77358490566'
p4379
sS'moda'
p4380
S'0.62893081761'
p4381
sS'gallerie'
p4382
S'0.62893081761'
p4383
sS'cronaca'
p4384
S'6.2893081761'
p4385
sS'sport'
p4386
S'65.4088050314'
p4387
sS'rubriche'
p4388
S'1.88679245283'
p4389
sa(dp4390
S'tecnologia'
p4391
S'1.98249420214'
p4392
sS'storie'
p4393
S'2.84282187477'
p4394
sS'scienza'
p4395
S'3.62085733523'
p4396
sS'persone'
p4397
S'1.98997531234'
p4398
sS'media'
p4399
S'1.05483653774'
p4400
sS'politica'
p4401
S'1.96005087155'
p4402
sS'spettacolo'
p4403
S'6.08962370016'
p4404
sS'economia'
p4405
S'6.61330141393'
p4406
sS'gallerie'
p4407
S'3.05229296028'
p4408
sS'moda'
p4409
S'1.18201541109'
p4410
sS'esteri'
p4411
S'5.59587042717'
p4412
sS'cronaca'
p4413
S'14.3786937982'
p4414
sS'sport'
p4415
S'32.1463305154'
p4416
sS'rubriche'
p4417
S'10.8924964465'
p4418
sa(dp4419
S'tecnologia'
p4420
S'3.98490301062'
p4421
sS'storie'
p4422
S'2.14166593522'
p4423
sS'regione'
p4424
S'2.82629684894'
p4425
sS'scienza'
p4426
S'6.03879575178'
p4427
sS'persone'
p4428
S'1.70279996489'
p4429
sS'politica'
p4430
S'1.9748968665'
p4431
sS'spettacolo'
p4432
S'6.67954006846'
p4433
sS'economia'
p4434
S'5.92469059949'
p4435
sS'gallerie'
p4436
S'3.55481435969'
p4437
sS'esteri'
p4438
S'6.24067409813'
p4439
sS'viaggi'
p4440
S'2.28210304573'
p4441
sS'cronaca'
p4442
S'15.9045027649'
p4443
sS'sport'
p4444
S'23.0755727201'
p4445
sS'rubriche'
p4446
S'9.58483279207'
p4447
sa(dp4448
S'tecnologia'
p4449
S'2.52213877368'
p4450
sS'scienza'
p4451
S'5.06669655868'
p4452
sS'persone'
p4453
S'1.63658782648'
p4454
sS'politica'
p4455
S'2.64544333595'
p4456
sS'spettacolo'
p4457
S'5.16758210963'
p4458
sS'economia'
p4459
S'7.7793969286'
p4460
sS'gallerie'
p4461
S'3.18349960767'
p4462
sS'salute'
p4463
S'2.12980607555'
p4464
sS'motori'
p4465
S'1.89440645668'
p4466
sS'esteri'
p4467
S'7.15166461159'
p4468
sS'viaggi'
p4469
S'1.73747337742'
p4470
sS'cronaca'
p4471
S'16.4107162874'
p4472
sS'sport'
p4473
S'23.5511713933'
p4474
sS'rubriche'
p4475
S'11.0862010985'
p4476
sa(dp4477
S'tecnologia'
p4478
S'1.92708767832'
p4479
sS'storie'
p4480
S'3.80412113123'
p4481
sS'scienza'
p4482
S'14.1653457913'
p4483
sS'persone'
p4484
S'1.90206056561'
p4485
sS'politica'
p4486
S'1.98548427463'
p4487
sS'giugno'
p4488
S'1.88537582381'
p4489
sS'spettacolo'
p4490
S'4.41311420706'
p4491
sS'economia'
p4492
S'5.47259531159'
p4493
sS'gallerie'
p4494
S'5.59773087511'
p4495
sS'salute'
p4496
S'3.43705681155'
p4497
sS'esteri'
p4498
S'4.20455493451'
p4499
sS'cronaca'
p4500
S'17.3020772504'
p4501
sS'sport'
p4502
S'13.3060815884'
p4503
sS'rubriche'
p4504
S'10.2194043547'
p4505
sa(dp4506
S'tecnologia'
p4507
S'2.12424471299'
p4508
sS'regione'
p4509
S'2.29418429003'
p4510
sS'scienza'
p4511
S'11.2443353474'
p4512
sS'persone'
p4513
S'2.30362537764'
p4514
sS'politica'
p4515
S'2.17145015106'
p4516
sS'spettacolo'
p4517
S'4.58836858006'
p4518
sS'economia'
p4519
S'4.40898791541'
p4520
sS'gallerie'
p4521
S'3.79531722054'
p4522
sS'salute'
p4523
S'1.42560422961'
p4524
sS'motori'
p4525
S'2.14312688822'
p4526
sS'esteri'
p4527
S'6.18391238671'
p4528
sS'cronaca'
p4529
S'23.6310422961'
p4530
sS'sport'
p4531
S'14.5392749245'
p4532
sS'rubriche'
p4533
S'11.0932779456'
p4534
sa(dp4535
S'tecnologia'
p4536
S'4.83558994197'
p4537
sS'storie'
p4538
S'4.64216634429'
p4539
sS'regione'
p4540
S'6.3829787234'
p4541
sS'scienza'
p4542
S'6.76982591876'
p4543
sS'persone'
p4544
S'4.44874274662'
p4545
sS'spettacolo'
p4546
S'1.93423597679'
p4547
sS'economia'
p4548
S'6.3829787234'
p4549
sS'gallerie'
p4550
S'4.25531914894'
p4551
sS'salute'
p4552
S'1.54738878143'
p4553
sS'motori'
p4554
S'1.35396518375'
p4555
sS'esteri'
p4556
S'4.83558994197'
p4557
sS'cronaca'
p4558
S'15.087040619'
p4559
sS'sport'
p4560
S'23.2108317215'
p4561
sS'rubriche'
p4562
S'8.12379110251'
p4563
sa(dp4564
S'tecnologia'
p4565
S'2.17391304348'
p4566
sS'regione'
p4567
S'2.71739130435'
p4568
sS'scienza'
p4569
S'2.71739130435'
p4570
sS'persone'
p4571
S'10.8695652174'
p4572
sS'politica'
p4573
S'5.97826086957'
p4574
sS'giugno'
p4575
S'0.54347826087'
p4576
sS'economia'
p4577
S'4.34782608696'
p4578
sS'gallerie'
p4579
S'1.08695652174'
p4580
sS'motori'
p4581
S'2.17391304348'
p4582
sS'esteri'
p4583
S'14.6739130435'
p4584
sS'cronaca'
p4585
S'25.5434782609'
p4586
sS'sport'
p4587
S'8.69565217391'
p4588
sS'messaggi'
p4589
S'7.60869565217'
p4590
sS'rubriche'
p4591
S'8.69565217391'
p4592
sa(dp4593
S'finale'
p4594
S'1.15618459085'
p4595
sS'regione'
p4596
S'1.22595435064'
p4597
sS'storie'
p4598
S'1.7641782119'
p4599
sS'scienza'
p4600
S'5.31246885279'
p4601
sS'persone'
p4602
S'2.26253363899'
p4603
sS'politica'
p4604
S'6.1497059703'
p4605
sS'spettacolo'
p4606
S'3.13963919067'
p4607
sS'economia'
p4608
S'6.90720621948'
p4609
sS'gallerie'
p4610
S'2.8605601515'
p4611
sS'motori'
p4612
S'1.36549387023'
p4613
sS'esteri'
p4614
S'9.81760191368'
p4615
sS'cronaca'
p4616
S'19.1966510515'
p4617
sS'sport'
p4618
S'15.5187879996'
p4619
sS'rubriche'
p4620
S'15.2696102861'
p4621
sa(dp4622
S'tecnologia'
p4623
S'1.89224180858'
p4624
sS'regione'
p4625
S'1.73289512997'
p4626
sS'scienza'
p4627
S'5.10905288318'
p4628
sS'persone'
p4629
S'2.80848521064'
p4630
sS'politica'
p4631
S'5.16880788766'
p4632
sS'giugno'
p4633
S'1.0955084155'
p4634
sS'spettacolo'
p4635
S'3.90399362613'
p4636
sS'economia'
p4637
S'8.91345483518'
p4638
sS'gallerie'
p4639
S'4.33223782492'
p4640
sS'salute'
p4641
S'1.4639976098'
p4642
sS'esteri'
p4643
S'7.52913056468'
p4644
sS'cronaca'
p4645
S'18.6634797331'
p4646
sS'sport'
p4647
S'14.6100985958'
p4648
sS'rubriche'
p4649
S'15.0881386316'
p4650
sa(dp4651
S'analisi'
p4652
S'2.15881359114'
p4653
sS'scuola'
p4654
S'3.44471559977'
p4655
sS'scienza'
p4656
S'5.15299418059'
p4657
sS'persone'
p4658
S'2.21513046743'
p4659
sS'politica'
p4660
S'2.6938239159'
p4661
sS'spettacolo'
p4662
S'4.48657781115'
p4663
sS'economia'
p4664
S'5.93204430261'
p4665
sS'gallerie'
p4666
S'2.72198235405'
p4667
sS'salute'
p4668
S'2.02740754646'
p4669
sS'esteri'
p4670
S'7.22733245729'
p4671
sS'cronaca'
p4672
S'16.472686315'
p4673
sS'sport'
p4674
S'22.9209686503'
p4675
sS'tecnologia'
p4676
S'1.59564482823'
p4677
sS'rubriche'
p4678
S'13.3283273888'
p4679
sa(dp4680
S'tecnologia'
p4681
S'2.50138966092'
p4682
sS'storie'
p4683
S'1.74170835649'
p4684
sS'scuola'
p4685
S'2.33463035019'
p4686
sS'scienza'
p4687
S'6.76301649064'
p4688
sS'persone'
p4689
S'2.87196590699'
p4690
sS'politica'
p4691
S'1.48230498425'
p4692
sS'giugno'
p4693
S'2.03816935334'
p4694
sS'spettacolo'
p4695
S'3.5390031499'
p4696
sS'economia'
p4697
S'5.59570131555'
p4698
sS'gallerie'
p4699
S'4.00222345748'
p4700
sS'esteri'
p4701
S'9.93144339448'
p4702
sS'cronaca'
p4703
S'20.4002223457'
p4704
sS'sport'
p4705
S'14.7489345933'
p4706
sS'rubriche'
p4707
S'14.4524735964'
p4708
sa(dp4709
S'tecnologia'
p4710
S'1.90187152251'
p4711
sS'regione'
p4712
S'1.35558927668'
p4713
sS'scienza'
p4714
S'5.32119372787'
p4715
sS'persone'
p4716
S'3.02478502782'
p4717
sS'media'
p4718
S'1.32524026302'
p4719
sS'spettacolo'
p4720
S'7.03085483055'
p4721
sS'economia'
p4722
S'8.9023773394'
p4723
sS'gallerie'
p4724
S'4.3095599393'
p4725
sS'salute'
p4726
S'1.53768335862'
p4727
sS'motori'
p4728
S'1.3454729388'
p4729
sS'esteri'
p4730
S'11.9170460293'
p4731
sS'cronaca'
p4732
S'15.4274152757'
p4733
sS'sport'
p4734
S'17.9868487607'
p4735
sS'rubriche'
p4736
S'11.7855336368'
p4737
sa(dp4738
S'tecnologia'
p4739
S'1.12866817156'
p4740
sS'scienza'
p4741
S'4.06320541761'
p4742
sS'storie'
p4743
S'9.02934537246'
p4744
sS'persone'
p4745
S'2.70880361174'
p4746
sS'media'
p4747
S'4.51467268623'
p4748
sS'politica'
p4749
S'4.74040632054'
p4750
sS'giugno'
p4751
S'1.58013544018'
p4752
sS'spettacolo'
p4753
S'3.61173814898'
p4754
sS'economia'
p4755
S'8.35214446953'
p4756
sS'gallerie'
p4757
S'2.48306997743'
p4758
sS'esteri'
p4759
S'4.96613995485'
p4760
sS'cronaca'
p4761
S'15.5756207675'
p4762
sS'sport'
p4763
S'20.993227991'
p4764
sS'rubriche'
p4765
S'12.8668171558'
p4766
sa(dp4767
S'tecnologia'
p4768
S'0.8'
p4769
sS'finale'
p4770
S'1.6'
p4771
sS'persone'
p4772
S'3.2'
p4773
sS'politica'
p4774
S'9.6'
p4775
sS'mare'
p4776
S'0.8'
p4777
sS'spettacolo'
p4778
S'3.2'
p4779
sS'economia'
p4780
S'2.4'
p4781
sS'gallerie'
p4782
S'4.8'
p4783
sS'giochi'
p4784
S'2.4'
p4785
sS'esteri'
p4786
S'5.6'
p4787
sS'cronaca'
p4788
S'43.2'
p4789
sS'sport'
p4790
S'10.4'
p4791
sS'ultimora'
p4792
S'2.4'
p4793
sS'rubriche'
p4794
S'8.0'
p4795
sa(dp4796
S'tecnologia'
p4797
S'1.36320691051'
p4798
sS'regione'
p4799
S'1.49817789175'
p4800
sS'scienza'
p4801
S'4.19759751653'
p4802
sS'persone'
p4803
S'2.78040221352'
p4804
sS'media'
p4805
S'1.49817789175'
p4806
sS'politica'
p4807
S'1.22823592928'
p4808
sS'spettacolo'
p4809
S'10.5277365366'
p4810
sS'economia'
p4811
S'5.26386826832'
p4812
sS'gallerie'
p4813
S'3.80618167094'
p4814
sS'esteri'
p4815
S'7.76083142124'
p4816
sS'viaggi'
p4817
S'1.84910244297'
p4818
sS'cronaca'
p4819
S'24.3082737211'
p4820
sS'sport'
p4821
S'15.9400728843'
p4822
sS'rubriche'
p4823
S'12.3363476852'
p4824
sa(dp4825
S'tecnologia'
p4826
S'2.38858141567'
p4827
sS'regione'
p4828
S'1.38848431887'
p4829
sS'scienza'
p4830
S'4.45674337314'
p4831
sS'persone'
p4832
S'2.25264588795'
p4833
sS'politica'
p4834
S'2.04874259637'
p4835
sS'spettacolo'
p4836
S'5.4471307894'
p4837
sS'economia'
p4838
S'6.62200213613'
p4839
sS'gallerie'
p4840
S'3.19448490145'
p4841
sS'salute'
p4842
S'1.29138751335'
p4843
sS'esteri'
p4844
S'6.41809884455'
p4845
sS'cronaca'
p4846
S'21.1671036023'
p4847
sS'sport'
p4848
S'22.0506845325'
p4849
sS'rubriche'
p4850
S'13.185746189'
p4851
sS'scuola'
p4852
S'1.24283911059'
p4853
sa(dp4854
S'tecnologia'
p4855
S'7.23104056437'
p4856
sS'storia'
p4857
S'1.5873015873'
p4858
sS'scienza'
p4859
S'4.40917107584'
p4860
sS'persone'
p4861
S'3.1746031746'
p4862
sS'politica'
p4863
S'5.11463844797'
p4864
sS'spettacolo'
p4865
S'3.7037037037'
p4866
sS'economia'
p4867
S'5.46737213404'
p4868
sS'gallerie'
p4869
S'7.40740740741'
p4870
sS'motori'
p4871
S'3.35097001764'
p4872
sS'esteri'
p4873
S'8.64197530864'
p4874
sS'viaggi'
p4875
S'1.76366843034'
p4876
sS'cronaca'
p4877
S'14.1093474427'
p4878
sS'sport'
p4879
S'20.987654321'
p4880
sS'rubriche'
p4881
S'9.52380952381'
p4882
sa(dp4883
S'tecnologia'
p4884
S'2.88649291111'
p4885
sS'scuola'
p4886
S'4.55047117752'
p4887
sS'scienza'
p4888
S'3.62509550896'
p4889
sS'politica'
p4890
S'1.93564818745'
p4891
sS'giugno'
p4892
S'1.75736480177'
p4893
sS'spettacolo'
p4894
S'3.54868834366'
p4895
sS'economia'
p4896
S'9.27073605569'
p4897
sS'gallerie'
p4898
S'4.09202818575'
p4899
sS'motori'
p4900
S'3.99015196536'
p4901
sS'esteri'
p4902
S'6.17200101876'
p4903
sS'viaggi'
p4904
S'3.93072417013'
p4905
sS'cronaca'
p4906
S'18.2273537652'
p4907
sS'sport'
p4908
S'17.3189574667'
p4909
sS'rubriche'
p4910
S'10.4168435351'
p4911
sa(dp4912
S'tecnologia'
p4913
S'5.02691065662'
p4914
sS'scuola'
p4915
S'3.33692142088'
p4916
sS'scienza'
p4917
S'3.26157158235'
p4918
sS'persone'
p4919
S'3.86437029064'
p4920
sS'politica'
p4921
S'2.46501614639'
p4922
sS'spettacolo'
p4923
S'3.71367061356'
p4924
sS'economia'
p4925
S'5.6727664155'
p4926
sS'gallerie'
p4927
S'2.40043057051'
p4928
sS'salute'
p4929
S'2.10979547901'
p4930
sS'motori'
p4931
S'1.76533907427'
p4932
sS'esteri'
p4933
S'23.4122712594'
p4934
sS'cronaca'
p4935
S'13.4337997847'
p4936
sS'sport'
p4937
S'14.1442411195'
p4938
sS'rubriche'
p4939
S'9.64477933262'
p4940
sa(dp4941
S'tecnologia'
p4942
S'10.6145251397'
p4943
sS'politica'
p4944
S'1.11731843575'
p4945
sS'scienza'
p4946
S'1.11731843575'
p4947
sS'regione'
p4948
S'1.11731843575'
p4949
sS'persone'
p4950
S'1.67597765363'
p4951
sS'finale'
p4952
S'2.79329608939'
p4953
sS'spettacolo'
p4954
S'2.79329608939'
p4955
sS'economia'
p4956
S'10.6145251397'
p4957
sS'gallerie'
p4958
S'3.91061452514'
p4959
sS'motori'
p4960
S'5.02793296089'
p4961
sS'esteri'
p4962
S'17.3184357542'
p4963
sS'cronaca'
p4964
S'13.9664804469'
p4965
sS'sport'
p4966
S'17.8770949721'
p4967
sS'rubriche'
p4968
S'8.37988826816'
p4969
sa(dp4970
S'scienza'
p4971
S'2.29885057471'
p4972
sS'scuola'
p4973
S'4.59770114943'
p4974
sS'storie'
p4975
S'6.89655172414'
p4976
sS'tecnologia'
p4977
S'1.14942528736'
p4978
sS'media'
p4979
S'1.14942528736'
p4980
sS'giugno'
p4981
S'1.14942528736'
p4982
sS'spettacolo'
p4983
S'2.29885057471'
p4984
sS'economia'
p4985
S'4.59770114943'
p4986
sS'salute'
p4987
S'1.14942528736'
p4988
sS'motori'
p4989
S'5.74712643678'
p4990
sS'esteri'
p4991
S'8.04597701149'
p4992
sS'cronaca'
p4993
S'16.091954023'
p4994
sS'sport'
p4995
S'29.8850574713'
p4996
sS'rubriche'
p4997
S'14.9425287356'
p4998
sa(dp4999
S'tecnologia'
p5000
S'1.75438596491'
p5001
sS'regione'
p5002
S'1.40350877193'
p5003
sS'storie'
p5004
S'4.33811802233'
p5005
sS'scienza'
p5006
S'5.19936204147'
p5007
sS'persone'
p5008
S'1.91387559809'
p5009
sS'politica'
p5010
S'1.53110047847'
p5011
sS'spettacolo'
p5012
S'6.98564593301'
p5013
sS'economia'
p5014
S'18.9154704944'
p5015
sS'gallerie'
p5016
S'5.16746411483'
p5017
sS'motori'
p5018
S'2.96650717703'
p5019
sS'esteri'
p5020
S'10.9090909091'
p5021
sS'cronaca'
p5022
S'11.8660287081'
p5023
sS'sport'
p5024
S'13.5247208931'
p5025
sS'rubriche'
p5026
S'8.42105263158'
p5027
sa(dp5028
S'tecnologia'
p5029
S'3.26202263083'
p5030
sS'regione'
p5031
S'3.18246110325'
p5032
sS'scienza'
p5033
S'5.18917963225'
p5034
sS'persone'
p5035
S'2.24540311174'
p5036
sS'politica'
p5037
S'2.37800565771'
p5038
sS'giugno'
p5039
S'1.63543140028'
p5040
sS'spettacolo'
p5041
S'5.17149929279'
p5042
sS'economia'
p5043
S'16.646039604'
p5044
sS'gallerie'
p5045
S'4.03995756719'
p5046
sS'motori'
p5047
S'1.74151343706'
p5048
sS'esteri'
p5049
S'8.84900990099'
p5050
sS'cronaca'
p5051
S'15.2846534653'
p5052
sS'sport'
p5053
S'11.9607496464'
p5054
sS'rubriche'
p5055
S'11.2446958982'
p5056
sasS'9'
p5057
(lp5058
(dp5059
a(dp5060
a(dp5061
a(dp5062
a(dp5063
a(dp5064
a(dp5065
a(dp5066
a(dp5067
a(dp5068
a(dp5069
a(dp5070
a(dp5071
a(dp5072
a(dp5073
a(dp5074
a(dp5075
a(dp5076
a(dp5077
a(dp5078
a(dp5079
a(dp5080
a(dp5081
a(dp5082
a(dp5083
a(dp5084
a(dp5085
a(dp5086
a(dp5087
a(dp5088
asS'8'
p5089
(lp5090
(dp5091
a(dp5092
a(dp5093
a(dp5094
a(dp5095
a(dp5096
a(dp5097
a(dp5098
a(dp5099
a(dp5100
a(dp5101
a(dp5102
a(dp5103
a(dp5104
a(dp5105
a(dp5106
a(dp5107
a(dp5108
a(dp5109
a(dp5110
a(dp5111
a(dp5112
a(dp5113
a(dp5114
a(dp5115
a(dp5116
a(dp5117
a(dp5118
a(dp5119
a(dp5120
a(dp5121
as.