(dp0
I1
(dp1
S'tecnologia'
p2
I1231
sS'regione'
p3
I865
sS'scienza'
p4
I1781
sS'persone'
p5
I2486
sS'media'
p6
I937
sS'politica'
p7
I1710
sS'curiosita'
p8
I378
sS'prodotto'
p9
I419
sS'spettacolo'
p10
I4979
sS'economia'
p11
I3825
sS'gallerie'
p12
I2190
sS'salute'
p13
I196
sS'motori'
p14
I92
sS'esteri'
p15
I2925
sS'cronaca'
p16
I8765
sS'sport'
p17
I5741
sS'rubriche'
p18
I7140
ssI2
(dp19
S'tecnologia'
p20
I1079
sS'regione'
p21
I345
sS'scienza'
p22
I1895
sS'persone'
p23
I3447
sS'media'
p24
I558
sS'politica'
p25
I1625
sS'curiosita'
p26
I128
sS'spettacolo'
p27
I3607
sS'economia'
p28
I3562
sS'gallerie'
p29
I2560
sS'salute'
p30
I982
sS'motori'
p31
I884
sS'monaco'
p32
I110
sS'esteri'
p33
I6269
sS'cronaca'
p34
I6267
sS'sport'
p35
I5959
sS'rubriche'
p36
I7242
ssI3
(dp37
S'tecnologia'
p38
I1150
sS'regione'
p39
I112
sS'scuola'
p40
I85
sS'scienza'
p41
I2150
sS'persone'
p42
I3388
sS'media'
p43
I230
sS'politica'
p44
I2026
sS'prodotto'
p45
I556
sS'spettacolo'
p46
I3117
sS'economia'
p47
I4459
sS'gallerie'
p48
I2150
sS'salute'
p49
I766
sS'motori'
p50
I720
sS'esteri'
p51
I3113
sS'cronaca'
p52
I6989
sS'sport'
p53
I6542
sS'rubriche'
p54
I7008
ssI4
(dp55
S'tecnologia'
p56
I1212
sS'regione'
p57
I331
sS'scienza'
p58
I1814
sS'persone'
p59
I3235
sS'media'
p60
I465
sS'politica'
p61
I1908
sS'prodotto'
p62
I314
sS'spettacolo'
p63
I3387
sS'economia'
p64
I4967
sS'gallerie'
p65
I2165
sS'salute'
p66
I464
sS'motori'
p67
I497
sS'moda'
p68
I110
sS'esteri'
p69
I2851
sS'cronaca'
p70
I6256
sS'sport'
p71
I6825
sS'rubriche'
p72
I7202
sS'scuola'
p73
I149
ssI5
(dp74
S'tecnologia'
p75
I1282
sS'regione'
p76
I168
sS'scienza'
p77
I1798
sS'persone'
p78
I3451
sS'media'
p79
I652
sS'politica'
p80
I2827
sS'prodotto'
p81
I841
sS'spettacolo'
p82
I3942
sS'economia'
p83
I4520
sS'gallerie'
p84
I1980
sS'salute'
p85
I632
sS'motori'
p86
I296
sS'esteri'
p87
I2429
sS'cronaca'
p88
I5772
sS'sport'
p89
I7466
sS'rubriche'
p90
I8878
ssI6
(dp91
S'tecnologia'
p92
I1083
sS'scienza'
p93
I1965
sS'persone'
p94
I3450
sS'media'
p95
I654
sS'politica'
p96
I1726
sS'prodotto'
p97
I687
sS'spettacolo'
p98
I5180
sS'economia'
p99
I4373
sS'gallerie'
p100
I2517
sS'salute'
p101
I940
sS'motori'
p102
I213
sS'esteri'
p103
I2349
sS'cronaca'
p104
I6403
sS'sport'
p105
I7323
sS'rubriche'
p106
I6608
ssI7
(dp107
S'tecnologia'
p108
I1146
sS'finale'
p109
I127
sS'regione'
p110
I95
sS'scienza'
p111
I2112
sS'persone'
p112
I2545
sS'media'
p113
I523
sS'politica'
p114
I1902
sS'prodotto'
p115
I524
sS'spettacolo'
p116
I6512
sS'economia'
p117
I4394
sS'gallerie'
p118
I2456
sS'musica'
p119
I452
sS'salute'
p120
I630
sS'motori'
p121
I260
sS'esteri'
p122
I2969
sS'cronaca'
p123
I6808
sS'sport'
p124
I5837
sS'rubriche'
p125
I7136
ssI8
(dp126
S'tecnologia'
p127
I1293
sS'scienza'
p128
I1673
sS'regione'
p129
I708
sS'persone'
p130
I3240
sS'media'
p131
I85
sS'festa'
p132
I204
sS'politica'
p133
I1799
sS'prodotto'
p134
I274
sS'spettacolo'
p135
I4574
sS'economia'
p136
I4855
sS'gallerie'
p137
I2818
sS'salute'
p138
I1134
sS'motori'
p139
I419
sS'esteri'
p140
I2127
sS'cronaca'
p141
I6835
sS'sport'
p142
I7308
sS'rubriche'
p143
I6410
sS'scuola'
p144
I399
ssI9
(dp145
S'tecnologia'
p146
I1804
sS'notizia'
p147
I114
sS'regione'
p148
I893
sS'scienza'
p149
I1996
sS'persone'
p150
I3299
sS'media'
p151
I205
sS'politica'
p152
I1767
sS'norme'
p153
I118
sS'spettacolo'
p154
I4327
sS'economia'
p155
I3821
sS'gallerie'
p156
I1957
sS'salute'
p157
I366
sS'motori'
p158
I614
sS'moda'
p159
I276
sS'esteri'
p160
I2539
sS'viaggi'
p161
I123
sS'cronaca'
p162
I7129
sS'sport'
p163
I6981
sS'rubriche'
p164
I7063
ssI10
(dp165
S'tecnologia'
p166
I1250
sS'regione'
p167
I175
sS'scienza'
p168
I1873
sS'persone'
p169
I3050
sS'media'
p170
I546
sS'politica'
p171
I1991
sS'spettacolo'
p172
I4337
sS'economia'
p173
I3225
sS'gallerie'
p174
I2462
sS'salute'
p175
I777
sS'motori'
p176
I622
sS'moda'
p177
I108
sS'esteri'
p178
I2560
sS'viaggi'
p179
I226
sS'cronaca'
p180
I5979
sS'sport'
p181
I6852
sS'rubriche'
p182
I6307
sS'scuola'
p183
I143
ssI11
(dp184
S'tecnologia'
p185
I1231
sS'scuola'
p186
I640
sS'scienza'
p187
I2004
sS'persone'
p188
I3094
sS'media'
p189
I354
sS'politica'
p190
I1957
sS'prodotto'
p191
I249
sS'spettacolo'
p192
I3527
sS'economia'
p193
I3273
sS'gallerie'
p194
I2114
sS'salute'
p195
I689
sS'motori'
p196
I704
sS'esteri'
p197
I2964
sS'cucina'
p198
I79
sS'cronaca'
p199
I7375
sS'sport'
p200
I7862
sS'rubriche'
p201
I7464
ssI12
(dp202
S'tecnologia'
p203
I1497
sS'media'
p204
I411
sS'regione'
p205
I602
sS'scienza'
p206
I2417
sS'persone'
p207
I3577
sS'festa'
p208
I81
sS'politica'
p209
I1841
sS'spettacolo'
p210
I3659
sS'economia'
p211
I3907
sS'gallerie'
p212
I2520
sS'salute'
p213
I299
sS'motori'
p214
I407
sS'moda'
p215
I126
sS'esteri'
p216
I4743
sS'cronaca'
p217
I7469
sS'sport'
p218
I8111
sS'rubriche'
p219
I8099
sS'scuola'
p220
I263
ssI13
(dp221
S'tecnologia'
p222
I1200
sS'regione'
p223
I195
sS'scienza'
p224
I1454
sS'persone'
p225
I2511
sS'media'
p226
I79
sS'politica'
p227
I1851
sS'prodotto'
p228
I168
sS'spettacolo'
p229
I2976
sS'economia'
p230
I2964
sS'gallerie'
p231
I1462
sS'salute'
p232
I659
sS'motori'
p233
I801
sS'esteri'
p234
I4727
sS'cronaca'
p235
I6640
sS'sport'
p236
I5652
sS'rubriche'
p237
I6511
sS'scuola'
p238
I64
ssI14
(dp239
S'tecnologia'
p240
I1099
sS'regione'
p241
I293
sS'scienza'
p242
I1213
sS'persone'
p243
I2140
sS'media'
p244
I145
sS'politica'
p245
I1441
sS'spettacolo'
p246
I3004
sS'economia'
p247
I2643
sS'gallerie'
p248
I1838
sS'salute'
p249
I455
sS'motori'
p250
I634
sS'monaco'
p251
I101
sS'esteri'
p252
I2192
sS'cucina'
p253
I74
sS'cronaca'
p254
I5910
sS'sport'
p255
I5359
sS'rubriche'
p256
I5921
sS'scuola'
p257
I191
ssI15
(dp258
S'tecnologia'
p259
I583
sS'scienza'
p260
I1034
sS'regione'
p261
I417
sS'persone'
p262
I1840
sS'media'
p263
I116
sS'politica'
p264
I900
sS'spettacolo'
p265
I1646
sS'economia'
p266
I1943
sS'gallerie'
p267
I945
sS'salute'
p268
I248
sS'motori'
p269
I386
sS'monaco'
p270
I73
sS'esteri'
p271
I1028
sS'cronaca'
p272
I3509
sS'sport'
p273
I2867
sS'rubriche'
p274
I3198
ssI16
(dp275
S'tecnologia'
p276
I974
sS'regione'
p277
I249
sS'scienza'
p278
I1376
sS'persone'
p279
I2677
sS'media'
p280
I486
sS'politica'
p281
I1553
sS'spettacolo'
p282
I3077
sS'economia'
p283
I2961
sS'gallerie'
p284
I1889
sS'salute'
p285
I495
sS'motori'
p286
I801
sS'social'
p287
I96
sS'esteri'
p288
I1864
sS'cronaca'
p289
I6538
sS'sport'
p290
I6526
sS'rubriche'
p291
I5464
ssI17
(dp292
S'tecnologia'
p293
I1166
sS'storia'
p294
I93
sS'regione'
p295
I332
sS'scienza'
p296
I1464
sS'persone'
p297
I3447
sS'media'
p298
I551
sS'politica'
p299
I1653
sS'prodotto'
p300
I148
sS'spettacolo'
p301
I4043
sS'economia'
p302
I2702
sS'gallerie'
p303
I1947
sS'salute'
p304
I390
sS'motori'
p305
I428
sS'esteri'
p306
I2805
sS'cronaca'
p307
I5922
sS'sport'
p308
I7981
sS'rubriche'
p309
I6649
sS'scuola'
p310
I82
ssI18
(dp311
S'tecnologia'
p312
I1159
sS'servizi'
p313
I114
sS'regione'
p314
I2244
sS'scienza'
p315
I1417
sS'persone'
p316
I3040
sS'media'
p317
I554
sS'politica'
p318
I1418
sS'spettacolo'
p319
I3033
sS'economia'
p320
I3129
sS'gallerie'
p321
I2613
sS'salute'
p322
I261
sS'motori'
p323
I346
sS'esteri'
p324
I2000
sS'cronaca'
p325
I6646
sS'sport'
p326
I8163
sS'rubriche'
p327
I6624
sS'scuola'
p328
I655
ssI19
(dp329
S'tecnologia'
p330
I844
sS'regione'
p331
I483
sS'scuola'
p332
I391
sS'scienza'
p333
I1396
sS'persone'
p334
I2351
sS'media'
p335
I487
sS'festa'
p336
I78
sS'politica'
p337
I2368
sS'spettacolo'
p338
I2676
sS'economia'
p339
I2887
sS'gallerie'
p340
I1816
sS'salute'
p341
I295
sS'motori'
p342
I146
sS'monaco'
p343
I277
sS'esteri'
p344
I2518
sS'cronaca'
p345
I5437
sS'sport'
p346
I7161
sS'rubriche'
p347
I5740
ssI20
(dp348
S'tecnologia'
p349
I1037
sS'politica'
p350
I1554
sS'regione'
p351
I187
sS'scuola'
p352
I529
sS'scienza'
p353
I1492
sS'persone'
p354
I2693
sS'media'
p355
I580
sS'finale'
p356
I239
sS'spettacolo'
p357
I3153
sS'economia'
p358
I3088
sS'gallerie'
p359
I2232
sS'salute'
p360
I305
sS'motori'
p361
I509
sS'esteri'
p362
I2099
sS'cronaca'
p363
I6709
sS'sport'
p364
I8537
sS'rubriche'
p365
I5825
ssI21
(dp366
S'tecnologia'
p367
I761
sS'regione'
p368
I239
sS'scuola'
p369
I90
sS'scienza'
p370
I1162
sS'persone'
p371
I2175
sS'media'
p372
I520
sS'politica'
p373
I1179
sS'spettacolo'
p374
I2724
sS'economia'
p375
I2944
sS'gallerie'
p376
I1651
sS'salute'
p377
I287
sS'motori'
p378
I584
sS'esteri'
p379
I1788
sS'cucina'
p380
I119
sS'cronaca'
p381
I5444
sS'sport'
p382
I7547
sS'rubriche'
p383
I4811
ssI22
(dp384
S'tecnologia'
p385
I1110
sS'regione'
p386
I630
sS'scienza'
p387
I1354
sS'persone'
p388
I2269
sS'media'
p389
I567
sS'festa'
p390
I97
sS'politica'
p391
I3187
sS'spettacolo'
p392
I2457
sS'economia'
p393
I2630
sS'gallerie'
p394
I1923
sS'salute'
p395
I267
sS'motori'
p396
I491
sS'esteri'
p397
I2333
sS'cronaca'
p398
I5636
sS'sport'
p399
I8658
sS'rubriche'
p400
I6790
ssI23
(dp401
S'tecnologia'
p402
I1029
sS'regione'
p403
I828
sS'scienza'
p404
I1375
sS'persone'
p405
I2512
sS'media'
p406
I230
sS'politica'
p407
I1439
sS'giugno'
p408
I104
sS'spettacolo'
p409
I2768
sS'economia'
p410
I3158
sS'gallerie'
p411
I1915
sS'salute'
p412
I654
sS'motori'
p413
I266
sS'moda'
p414
I123
sS'esteri'
p415
I2010
sS'viaggi'
p416
I102
sS'cronaca'
p417
I6485
sS'sport'
p418
I10088
sS'rubriche'
p419
I4691
ssI24
(dp420
S'tecnologia'
p421
I886
sS'regione'
p422
I1017
sS'scienza'
p423
I2395
sS'persone'
p424
I2698
sS'media'
p425
I180
sS'politica'
p426
I1916
sS'giugno'
p427
I90
sS'spettacolo'
p428
I2728
sS'economia'
p429
I3933
sS'prodotto'
p430
I318
sS'gallerie'
p431
I2595
sS'salute'
p432
I571
sS'motori'
p433
I932
sS'esteri'
p434
I2541
sS'cronaca'
p435
I7882
sS'sport'
p436
I6935
sS'rubriche'
p437
I6096
sS'scuola'
p438
I127
ssI25
(dp439
S'tecnologia'
p440
I968
sS'regione'
p441
I717
sS'scienza'
p442
I1626
sS'persone'
p443
I2363
sS'media'
p444
I588
sS'politica'
p445
I1217
sS'giugno'
p446
I168
sS'prodotto'
p447
I574
sS'spettacolo'
p448
I3238
sS'economia'
p449
I4040
sS'gallerie'
p450
I2123
sS'salute'
p451
I105
sS'motori'
p452
I640
sS'esteri'
p453
I2478
sS'cronaca'
p454
I6745
sS'sport'
p455
I7099
sS'rubriche'
p456
I5197
sS'scuola'
p457
I109
ssI26
(dp458
S'tecnologia'
p459
I1499
sS'regione'
p460
I488
sS'scuola'
p461
I452
sS'scienza'
p462
I1317
sS'persone'
p463
I2452
sS'media'
p464
I367
sS'politica'
p465
I1310
sS'spettacolo'
p466
I2754
sS'economia'
p467
I5370
sS'gallerie'
p468
I2476
sS'salute'
p469
I396
sS'motori'
p470
I1381
sS'esteri'
p471
I4419
sS'cronaca'
p472
I6064
sS'sport'
p473
I6982
sS'rossi'
p474
I84
sS'rubriche'
p475
I4926
ssI27
(dp476
S'tecnologia'
p477
I1003
sS'luglio'
p478
I175
sS'regione'
p479
I315
sS'scienza'
p480
I1509
sS'persone'
p481
I2378
sS'media'
p482
I580
sS'festa'
p483
I114
sS'politica'
p484
I1362
sS'spettacolo'
p485
I2669
sS'economia'
p486
I5304
sS'gallerie'
p487
I2108
sS'motori'
p488
I667
sS'esteri'
p489
I2733
sS'viaggi'
p490
I1800
sS'cronaca'
p491
I6697
sS'sport'
p492
I6995
sS'rubriche'
p493
I5488
ssI28
(dp494
S'tecnologia'
p495
I1478
sS'luglio'
p496
I129
sS'regione'
p497
I445
sS'scuola'
p498
I153
sS'scienza'
p499
I1609
sS'persone'
p500
I2754
sS'media'
p501
I425
sS'politica'
p502
I1619
sS'spettacolo'
p503
I2767
sS'economia'
p504
I4893
sS'gallerie'
p505
I1775
sS'salute'
p506
I244
sS'motori'
p507
I520
sS'moda'
p508
I140
sS'esteri'
p509
I2257
sS'viaggi'
p510
I768
sS'cronaca'
p511
I6510
sS'sport'
p512
I6248
sS'rubriche'
p513
I5126
ssI29
(dp514
S'tecnologia'
p515
I1124
sS'luglio'
p516
I168
sS'regione'
p517
I574
sS'scienza'
p518
I1578
sS'persone'
p519
I2454
sS'media'
p520
I469
sS'politica'
p521
I1521
sS'prodotto'
p522
I76
sS'spettacolo'
p523
I2776
sS'economia'
p524
I3173
sS'gallerie'
p525
I1729
sS'salute'
p526
I168
sS'motori'
p527
I393
sS'esteri'
p528
I2203
sS'viaggi'
p529
I672
sS'cronaca'
p530
I7528
sS'sport'
p531
I6926
sS'rubriche'
p532
I5104
ssI30
(dp533
S'tecnologia'
p534
I1361
sS'luglio'
p535
I111
sS'regione'
p536
I331
sS'scienza'
p537
I2065
sS'persone'
p538
I2197
sS'media'
p539
I612
sS'politica'
p540
I1487
sS'spettacolo'
p541
I2972
sS'economia'
p542
I3370
sS'gallerie'
p543
I2138
sS'salute'
p544
I392
sS'motori'
p545
I792
sS'esteri'
p546
I2007
sS'viaggi'
p547
I142
sS'cronaca'
p548
I7150
sS'sport'
p549
I7727
sS'rubriche'
p550
I5395
ssI31
(dp551
S'tecnologia'
p552
I1249
sS'luglio'
p553
I97
sS'regione'
p554
I507
sS'scienza'
p555
I1511
sS'persone'
p556
I2013
sS'media'
p557
I215
sS'politica'
p558
I1528
sS'spettacolo'
p559
I2730
sS'economia'
p560
I2842
sS'gallerie'
p561
I2541
sS'salute'
p562
I396
sS'motori'
p563
I337
sS'moda'
p564
I76
sS'esteri'
p565
I1516
sS'viaggi'
p566
I1039
sS'cronaca'
p567
I6069
sS'sport'
p568
I8062
sS'rubriche'
p569
I4720
ssI32
(dp570
S'tecnologia'
p571
I118
sS'regione'
p572
I102
sS'scienza'
p573
I262
sS'persone'
p574
I325
sS'politica'
p575
I206
sS'spettacolo'
p576
I366
sS'economia'
p577
I452
sS'gallerie'
p578
I489
sS'musica'
p579
I14
sS'salute'
p580
I5
sS'moda'
p581
I111
sS'esteri'
p582
I412
sS'viaggi'
p583
I112
sS'cronaca'
p584
I967
sS'sport'
p585
I1002
sS'rubriche'
p586
I808
sS'social'
p587
I4
ssI33
(dp588
sI34
(dp589
sI35
(dp590
sI36
(dp591
S'tecnologia'
p592
I1271
sS'regione'
p593
I231
sS'scienza'
p594
I1630
sS'persone'
p595
I2293
sS'media'
p596
I181
sS'politica'
p597
I1331
sS'spettacolo'
p598
I3770
sS'economia'
p599
I2310
sS'gallerie'
p600
I2115
sS'salute'
p601
I623
sS'motori'
p602
I730
sS'esteri'
p603
I2960
sS'viaggi'
p604
I288
sS'cronaca'
p605
I5579
sS'sport'
p606
I7766
sS'rubriche'
p607
I5316
sS'scuola'
p608
I262
ssI37
(dp609
S'tecnologia'
p610
I1496
sS'finale'
p611
I277
sS'regione'
p612
I236
sS'scienza'
p613
I1631
sS'persone'
p614
I2905
sS'media'
p615
I363
sS'politica'
p616
I1338
sS'spettacolo'
p617
I4287
sS'economia'
p618
I1908
sS'gallerie'
p619
I2104
sS'salute'
p620
I105
sS'motori'
p621
I1314
sS'moda'
p622
I289
sS'esteri'
p623
I2182
sS'viaggi'
p624
I1726
sS'cronaca'
p625
I4825
sS'sport'
p626
I12392
sS'rubriche'
p627
I5330
ssI38
(dp628
S'tecnologia'
p629
I232
sS'regione'
p630
I187
sS'scienza'
p631
I266
sS'persone'
p632
I540
sS'ottobre'
p633
I1
sS'media'
p634
I104
sS'festa'
p635
I7
sS'politica'
p636
I204
sS'spettacolo'
p637
I406
sS'economia'
p638
I357
sS'gallerie'
p639
I244
sS'motori'
p640
I94
sS'esteri'
p641
I444
sS'cronaca'
p642
I728
sS'sport'
p643
I1484
sS'rubriche'
p644
I803
ssI39
(dp645
S'tecnologia'
p646
I826
sS'regione'
p647
I256
sS'scienza'
p648
I1251
sS'persone'
p649
I1569
sS'media'
p650
I258
sS'politica'
p651
I832
sS'spettacolo'
p652
I2296
sS'economia'
p653
I2275
sS'gallerie'
p654
I1003
sS'salute'
p655
I146
sS'motori'
p656
I692
sS'moda'
p657
I190
sS'esteri'
p658
I1843
sS'viaggi'
p659
I139
sS'cronaca'
p660
I3901
sS'sport'
p661
I6636
sS'rubriche'
p662
I3345
ssI40
(dp663
S'tecnologia'
p664
I1185
sS'regione'
p665
I403
sS'scienza'
p666
I1888
sS'persone'
p667
I2539
sS'media'
p668
I357
sS'politica'
p669
I1789
sS'spettacolo'
p670
I3073
sS'economia'
p671
I2797
sS'gallerie'
p672
I1684
sS'salute'
p673
I459
sS'motori'
p674
I603
sS'moda'
p675
I99
sS'esteri'
p676
I2776
sS'viaggi'
p677
I675
sS'cronaca'
p678
I6091
sS'sport'
p679
I8685
sS'rubriche'
p680
I4856
ssI41
(dp681
S'tecnologia'
p682
I1020
sS'regione'
p683
I326
sS'scienza'
p684
I1507
sS'persone'
p685
I2446
sS'media'
p686
I187
sS'politica'
p687
I2042
sS'prodotto'
p688
I92
sS'spettacolo'
p689
I3090
sS'economia'
p690
I2870
sS'gallerie'
p691
I1526
sS'salute'
p692
I762
sS'motori'
p693
I1512
sS'viaggi'
p694
I153
sS'esteri'
p695
I2607
sS'cucina'
p696
I71
sS'cronaca'
p697
I6428
sS'sport'
p698
I7547
sS'rubriche'
p699
I5546
ssI42
(dp700
S'tecnologia'
p701
I885
sS'regione'
p702
I437
sS'scienza'
p703
I1259
sS'persone'
p704
I1911
sS'media'
p705
I80
sS'politica'
p706
I1431
sS'spettacolo'
p707
I2851
sS'economia'
p708
I3087
sS'gallerie'
p709
I1138
sS'salute'
p710
I447
sS'motori'
p711
I963
sS'social'
p712
I241
sS'esteri'
p713
I1546
sS'cronaca'
p714
I5620
sS'sport'
p715
I6290
sS'rubriche'
p716
I4444
ssI43
(dp717
S'tecnologia'
p718
I1035
sS'regione'
p719
I365
sS'scienza'
p720
I1822
sS'persone'
p721
I2424
sS'ottobre'
p722
I82
sS'media'
p723
I275
sS'politica'
p724
I1426
sS'spettacolo'
p725
I3490
sS'economia'
p726
I3014
sS'gallerie'
p727
I1490
sS'salute'
p728
I343
sS'motori'
p729
I3185
sS'esteri'
p730
I1901
sS'viaggi'
p731
I364
sS'cronaca'
p732
I5490
sS'sport'
p733
I11137
sS'rossi'
p734
I806
sS'rubriche'
p735
I5106
ssI44
(dp736
S'tecnologia'
p737
I848
sS'regione'
p738
I375
sS'scienza'
p739
I1314
sS'persone'
p740
I2668
sS'ottobre'
p741
I114
sS'media'
p742
I464
sS'politica'
p743
I1355
sS'spettacolo'
p744
I3303
sS'economia'
p745
I2493
sS'gallerie'
p746
I1717
sS'salute'
p747
I172
sS'motori'
p748
I1583
sS'esteri'
p749
I2238
sS'viaggi'
p750
I440
sS'cronaca'
p751
I5790
sS'sport'
p752
I11434
sS'rossi'
p753
I184
sS'rubriche'
p754
I5384
ssI45
(dp755
S'tecnologia'
p756
I1047
sS'regione'
p757
I298
sS'scienza'
p758
I1753
sS'persone'
p759
I2556
sS'media'
p760
I335
sS'politica'
p761
I1351
sS'spettacolo'
p762
I3053
sS'economia'
p763
I2814
sS'gallerie'
p764
I1435
sS'salute'
p765
I206
sS'motori'
p766
I2913
sS'esteri'
p767
I1831
sS'viaggi'
p768
I242
sS'cronaca'
p769
I6316
sS'sport'
p770
I9636
sS'rossi'
p771
I743
sS'rubriche'
p772
I4832
ssI46
(dp773
S'tecnologia'
p774
I759
sS'storia'
p775
I120
sS'regione'
p776
I123
sS'scienza'
p777
I1147
sS'persone'
p778
I2221
sS'politica'
p779
I823
sS'spettacolo'
p780
I1924
sS'economia'
p781
I1476
sS'gallerie'
p782
I986
sS'salute'
p783
I434
sS'motori'
p784
I844
sS'esteri'
p785
I3732
sS'viaggi'
p786
I137
sS'cronaca'
p787
I4853
sS'sport'
p788
I3446
sS'rubriche'
p789
I3196
sS'scuola'
p790
I64
ssI47
(dp791
S'tecnologia'
p792
I1317
sS'regione'
p793
I798
sS'scienza'
p794
I1503
sS'persone'
p795
I2510
sS'media'
p796
I236
sS'politica'
p797
I1221
sS'spettacolo'
p798
I3229
sS'economia'
p799
I2129
sS'gallerie'
p800
I1429
sS'salute'
p801
I390
sS'motori'
p802
I753
sS'esteri'
p803
I5418
sS'viaggi'
p804
I315
sS'cronaca'
p805
I5561
sS'sport'
p806
I6995
sS'rubriche'
p807
I4788
ssI48
(dp808
S'tecnologia'
p809
I1006
sS'regione'
p810
I277
sS'scienza'
p811
I1523
sS'persone'
p812
I2567
sS'media'
p813
I191
sS'politica'
p814
I1356
sS'spettacolo'
p815
I3460
sS'economia'
p816
I2973
sS'gallerie'
p817
I1432
sS'salute'
p818
I390
sS'motori'
p819
I880
sS'esteri'
p820
I3758
sS'viaggi'
p821
I253
sS'cronaca'
p822
I5231
sS'sport'
p823
I8475
sS'natale'
p824
I99
sS'rubriche'
p825
I4584
sS'scuola'
p826
I248
ssI49
(dp827
S'tecnologia'
p828
I1072
sS'regione'
p829
I820
sS'scuola'
p830
I256
sS'scienza'
p831
I1841
sS'persone'
p832
I2322
sS'media'
p833
I204
sS'dicembre'
p834
I100
sS'politica'
p835
I1216
sS'spettacolo'
p836
I3745
sS'economia'
p837
I2570
sS'gallerie'
p838
I1537
sS'salute'
p839
I84
sS'motori'
p840
I272
sS'social'
p841
I109
sS'esteri'
p842
I3215
sS'cronaca'
p843
I5608
sS'sport'
p844
I8449
sS'natale'
p845
I491
sS'rubriche'
p846
I4759
ssI50
(dp847
S'tecnologia'
p848
I954
sS'regione'
p849
I482
sS'scienza'
p850
I1599
sS'persone'
p851
I2677
sS'media'
p852
I353
sS'dicembre'
p853
I177
sS'politica'
p854
I1901
sS'curiosita'
p855
I88
sS'prodotto'
p856
I90
sS'spettacolo'
p857
I3441
sS'economia'
p858
I2850
sS'gallerie'
p859
I1422
sS'salute'
p860
I233
sS'motori'
p861
I329
sS'esteri'
p862
I2409
sS'viaggi'
p863
I126
sS'cronaca'
p864
I6373
sS'sport'
p865
I8500
sS'natale'
p866
I249
sS'rubriche'
p867
I4882
ssI51
(dp868
S'tecnologia'
p869
I921
sS'regione'
p870
I182
sS'scienza'
p871
I1491
sS'persone'
p872
I2711
sS'media'
p873
I558
sS'politica'
p874
I1726
sS'spettacolo'
p875
I2762
sS'economia'
p876
I2689
sS'gallerie'
p877
I1557
sS'salute'
p878
I406
sS'motori'
p879
I79
sS'esteri'
p880
I2227
sS'cucina'
p881
I222
sS'cronaca'
p882
I5370
sS'sport'
p883
I7742
sS'natale'
p884
I867
sS'rubriche'
p885
I4360
ssI52
(dp886
S'natale'
p887
I655
sS'regione'
p888
I348
sS'scienza'
p889
I1131
sS'persone'
p890
I2527
sS'media'
p891
I437
sS'dicembre'
p892
I101
sS'politica'
p893
I1109
sS'curiosita'
p894
I66
sS'spettacolo'
p895
I2947
sS'economia'
p896
I2596
sS'gallerie'
p897
I1322
sS'salute'
p898
I89
sS'motori'
p899
I535
sS'esteri'
p900
I2280
sS'viaggi'
p901
I229
sS'cronaca'
p902
I6527
sS'sport'
p903
I5544
sS'tecnologia'
p904
I927
sS'rubriche'
p905
I4143
ss.