(dp0
I1
(dp1
S'tecnologia'
p2
F5165.0
sS'moda'
p3
F110.0
sS'regione'
p4
F1821.0
sS'scienza'
p5
F8407.0
sS'persone'
p6
F13945.0
sS'media'
p7
F2470.0
sS'politica'
p8
F8542.0
sS'curiosita'
p9
F506.0
sS'prodotto'
p10
F1738.0
sS'spettacolo'
p11
F16496.0
sS'economia'
p12
F18931.0
sS'gallerie'
p13
F9922.0
sS'salute'
p14
F2510.0
sS'motori'
p15
F2193.0
sS'monaco'
p16
F110.0
sS'esteri'
p17
F15859.0
sS'cronaca'
p18
F30850.0
sS'sport'
p19
F27742.0
sS'rubriche'
p20
F32971.0
sS'scuola'
p21
F234.0
ssI2
(dp22
S'tecnologia'
p23
F4979.0
sS'politica'
p24
F7654.0
sS'economia'
p25
F17524.0
sS'motori'
p26
F1523.0
sS'esteri'
p27
F10369.0
sS'sport'
p28
F28513.0
sS'rubriche'
p29
F27623.0
sS'scuola'
p30
F399.0
sS'regione'
p31
F1123.0
sS'media'
p32
F1737.0
sS'spettacolo'
p33
F20594.0
sS'gallerie'
p34
F9726.0
sS'musica'
p35
F452.0
sS'salute'
p36
F3342.0
sS'persone'
p37
F12605.0
sS'finale'
p38
F127.0
sS'norme'
p39
F118.0
sS'viaggi'
p40
F123.0
sS'festa'
p41
F204.0
sS'scienza'
p42
F7822.0
sS'prodotto'
p43
F1877.0
sS'cronaca'
p44
F26346.0
ssI3
(dp45
S'tecnologia'
p46
F6053.0
sS'politica'
p47
F8487.0
sS'economia'
p48
F15159.0
sS'motori'
p49
F2699.0
sS'esteri'
p50
F15832.0
sS'sport'
p51
F31671.0
sS'rubriche'
p52
F31487.0
sS'scuola'
p53
F1110.0
sS'regione'
p54
F1545.0
sS'moda'
p55
F510.0
sS'media'
p56
F1492.0
sS'spettacolo'
p57
F16660.0
sS'gallerie'
p58
F9465.0
sS'cucina'
p59
F79.0
sS'salute'
p60
F2617.0
sS'persone'
p61
F13816.0
sS'viaggi'
p62
F226.0
sS'festa'
p63
F81.0
sS'scienza'
p64
F8512.0
sS'prodotto'
p65
F350.0
sS'cronaca'
p66
F30439.0
sS'notizia'
p67
F114.0
ssI4
(dp68
S'social'
p69
F96.0
sS'tecnologia'
p70
F4228.0
sS'storia'
p71
F93.0
sS'economia'
p72
F11339.0
sS'regione'
p73
F1371.0
sS'scienza'
p74
F5480.0
sS'persone'
p75
F10994.0
sS'media'
p76
F1416.0
sS'politica'
p77
F5978.0
sS'spettacolo'
p78
F12506.0
sS'prodotto'
p79
F215.0
sS'gallerie'
p80
F7062.0
sS'salute'
p81
F1733.0
sS'motori'
p82
F2363.0
sS'monaco'
p83
F174.0
sS'esteri'
p84
F8647.0
sS'cucina'
p85
F74.0
sS'cronaca'
p86
F23591.0
sS'sport'
p87
F24220.0
sS'rubriche'
p88
F23003.0
sS'scuola'
p89
F273.0
ssI5
(dp90
S'tecnologia'
p91
F4205.0
sS'servizi'
p92
F114.0
sS'scienza'
p93
F6020.0
sS'regione'
p94
F3412.0
sS'persone'
p95
F11035.0
sS'media'
p96
F2355.0
sS'festa'
p97
F78.0
sS'politica'
p98
F7478.0
sS'finale'
p99
F239.0
sS'spettacolo'
p100
F12643.0
sS'economia'
p101
F13034.0
sS'gallerie'
p102
F9128.0
sS'salute'
p103
F1258.0
sS'motori'
p104
F1902.0
sS'monaco'
p105
F277.0
sS'esteri'
p106
F9388.0
sS'cucina'
p107
F119.0
sS'cronaca'
p108
F26759.0
sS'sport'
p109
F35026.0
sS'rubriche'
p110
F25994.0
sS'scuola'
p111
F1665.0
ssI6
(dp112
S'tecnologia'
p113
F4791.0
sS'politica'
p114
F7715.0
sS'giugno'
p115
F362.0
sS'economia'
p116
F16876.0
sS'motori'
p117
F3287.0
sS'esteri'
p118
F12056.0
sS'sport'
p119
F34201.0
sS'rossi'
p120
F84.0
sS'rubriche'
p121
F23210.0
sS'scuola'
p122
F688.0
sS'regione'
p123
F3341.0
sS'moda'
p124
F123.0
sS'media'
p125
F1467.0
sS'spettacolo'
p126
F12076.0
sS'gallerie'
p127
F9619.0
sS'salute'
p128
F1680.0
sS'persone'
p129
F10651.0
sS'viaggi'
p130
F102.0
sS'festa'
p131
F97.0
sS'scienza'
p132
F7062.0
sS'prodotto'
p133
F892.0
sS'cronaca'
p134
F28796.0
ssI7
(dp135
S'tecnologia'
p136
F5546.0
sS'luglio'
p137
F680.0
sS'regione'
p138
F1867.0
sS'scienza'
p139
F7550.0
sS'persone'
p140
F10848.0
sS'media'
p141
F2219.0
sS'festa'
p142
F114.0
sS'politica'
p143
F6714.0
sS'prodotto'
p144
F76.0
sS'spettacolo'
p145
F12350.0
sS'economia'
p146
F18325.0
sS'gallerie'
p147
F8693.0
sS'salute'
p148
F1000.0
sS'motori'
p149
F2636.0
sS'moda'
p150
F140.0
sS'esteri'
p151
F10124.0
sS'viaggi'
p152
F3382.0
sS'cronaca'
p153
F30240.0
sS'sport'
p154
F30960.0
sS'rubriche'
p155
F23135.0
sS'scuola'
p156
F153.0
ssI8
(dp157
S'tecnologia'
p158
F939.0
sS'regione'
p159
F407.0
sS'scienza'
p160
F1234.0
sS'persone'
p161
F1657.0
sS'media'
p162
F215.0
sS'politica'
p163
F1220.0
sS'spettacolo'
p164
F2380.0
sS'economia'
p165
F2419.0
sS'gallerie'
p166
F2479.0
sS'musica'
p167
F14.0
sS'salute'
p168
F328.0
sS'motori'
p169
F179.0
sS'moda'
p170
F187.0
sS'esteri'
p171
F1493.0
sS'viaggi'
p172
F1151.0
sS'cronaca'
p173
F5514.0
sS'sport'
p174
F6989.0
sS'rubriche'
p175
F4218.0
sS'social'
p176
F4.0
ssI9
(dp177
S'tecnologia'
p178
F3825.0
sS'finale'
p179
F277.0
sS'regione'
p180
F910.0
sS'scienza'
p181
F4778.0
sS'persone'
p182
F7307.0
sS'ottobre'
p183
F1.0
sS'media'
p184
F906.0
sS'festa'
p185
F7.0
sS'politica'
p186
F3705.0
sS'spettacolo'
p187
F10759.0
sS'economia'
p188
F6850.0
sS'gallerie'
p189
F5466.0
sS'salute'
p190
F874.0
sS'motori'
p191
F2830.0
sS'moda'
p192
F479.0
sS'esteri'
p193
F7429.0
sS'viaggi'
p194
F2153.0
sS'cronaca'
p195
F15033.0
sS'sport'
p196
F28278.0
sS'rubriche'
p197
F14794.0
sS'scuola'
p198
F262.0
ssI10
(dp199
S'tecnologia'
p200
F4471.0
sS'politica'
p201
F7299.0
sS'economia'
p202
F12862.0
sS'motori'
p203
F6984.0
sS'esteri'
p204
F9634.0
sS'sport'
p205
F38008.0
sS'rossi'
p206
F910.0
sS'rubriche'
p207
F22153.0
sS'regione'
p208
F1665.0
sS'moda'
p209
F99.0
sS'media'
p210
F1012.0
sS'spettacolo'
p211
F14043.0
sS'gallerie'
p212
F6411.0
sS'cucina'
p213
F71.0
sS'salute'
p214
F2011.0
sS'persone'
p215
F10528.0
sS'viaggi'
p216
F1487.0
sS'scienza'
p217
F7098.0
sS'ottobre'
p218
F196.0
sS'prodotto'
p219
F92.0
sS'social'
p220
F241.0
sS'cronaca'
p221
F26094.0
ssI11
(dp222
S'tecnologia'
p223
F4284.0
sS'storia'
p224
F120.0
sS'regione'
p225
F1737.0
sS'scienza'
p226
F6168.0
sS'persone'
p227
F10603.0
sS'media'
p228
F1029.0
sS'politica'
p229
F5140.0
sS'spettacolo'
p230
F12424.0
sS'economia'
p231
F9767.0
sS'gallerie'
p232
F5923.0
sS'salute'
p233
F1480.0
sS'motori'
p234
F5999.0
sS'esteri'
p235
F15349.0
sS'viaggi'
p236
F939.0
sS'cronaca'
p237
F23675.0
sS'sport'
p238
F33546.0
sS'rossi'
p239
F823.0
sS'rubriche'
p240
F19311.0
sS'scuola'
p241
F312.0
ssI12
(dp242
S'tecnologia'
p243
F4452.0
sS'politica'
p244
F6442.0
sS'economia'
p245
F12033.0
sS'motori'
p246
F1468.0
sS'esteri'
p247
F11202.0
sS'sport'
p248
F32850.0
sS'rubriche'
p249
F19976.0
sS'scuola'
p250
F256.0
sS'regione'
p251
F1832.0
sS'media'
p252
F1636.0
sS'spettacolo'
p253
F14319.0
sS'gallerie'
p254
F6479.0
sS'cucina'
p255
F222.0
sS'salute'
p256
F924.0
sS'persone'
p257
F11226.0
sS'curiosita'
p258
F208.0
sS'dicembre'
p259
F462.0
sS'viaggi'
p260
F508.0
sS'natale'
p261
F2361.0
sS'scienza'
p262
F6643.0
sS'prodotto'
p263
F140.0
sS'social'
p264
F109.0
sS'cronaca'
p265
F26224.0
ss.