(dp0
S'11'
p1
(lp2
(dp3
S'regione'
p4
S'130'
p5
sS'scienza'
p6
S'183'
p7
sS'persone'
p8
S'399'
p9
sS'media'
p10
S'137'
p11
sS'politica'
p12
S'198'
p13
sS'spettacolo'
p14
S'432'
p15
sS'economia'
p16
S'274'
p17
sS'gallerie'
p18
S'232'
p19
sS'motori'
p20
S'223'
p21
sS'esteri'
p22
S'342'
p23
sS'viaggi'
p24
S'145'
p25
sS'cronaca'
p26
S'904'
p27
sS'sport'
p28
S'2080'
p29
sS'rubriche'
p30
S'805'
p31
sa(dp32
S'tecnologia'
p33
S'118'
p34
sS'scienza'
p35
S'144'
p36
sS'persone'
p37
S'393'
p38
sS'media'
p39
S'115'
p40
sS'politica'
p41
S'168'
p42
sS'spettacolo'
p43
S'420'
p44
sS'economia'
p45
S'394'
p46
sS'gallerie'
p47
S'375'
p48
sS'salute'
p49
S'71'
p50
sS'motori'
p51
S'140'
p52
sS'esteri'
p53
S'377'
p54
sS'cronaca'
p55
S'824'
p56
sS'sport'
p57
S'1841'
p58
sS'rubriche'
p59
S'812'
p60
sa(dp61
S'tecnologia'
p62
S'226'
p63
sS'regione'
p64
S'111'
p65
sS'scienza'
p66
S'217'
p67
sS'persone'
p68
S'313'
p69
sS'media'
p70
S'99'
p71
sS'politica'
p72
S'182'
p73
sS'spettacolo'
p74
S'464'
p75
sS'economia'
p76
S'388'
p77
sS'gallerie'
p78
S'262'
p79
sS'motori'
p80
S'287'
p81
sS'esteri'
p82
S'355'
p83
sS'cronaca'
p84
S'791'
p85
sS'sport'
p86
S'1790'
p87
sS'rubriche'
p88
S'859'
p89
sa(dp90
S'tecnologia'
p91
S'158'
p92
sS'scienza'
p93
S'148'
p94
sS'persone'
p95
S'355'
p96
sS'politica'
p97
S'196'
p98
sS'spettacolo'
p99
S'448'
p100
sS'economia'
p101
S'343'
p102
sS'gallerie'
p103
S'275'
p104
sS'salute'
p105
S'101'
p106
sS'motori'
p107
S'212'
p108
sS'esteri'
p109
S'360'
p110
sS'cronaca'
p111
S'806'
p112
sS'sport'
p113
S'1374'
p114
sS'rossi'
p115
S'80'
p116
sS'rubriche'
p117
S'707'
p118
sa(dp119
S'tecnologia'
p120
S'110'
p121
sS'scienza'
p122
S'248'
p123
sS'persone'
p124
S'342'
p125
sS'media'
p126
S'65'
p127
sS'politica'
p128
S'183'
p129
sS'spettacolo'
p130
S'373'
p131
sS'economia'
p132
S'598'
p133
sS'gallerie'
p134
S'221'
p135
sS'salute'
p136
S'92'
p137
sS'motori'
p138
S'389'
p139
sS'esteri'
p140
S'288'
p141
sS'cronaca'
p142
S'757'
p143
sS'sport'
p144
S'1134'
p145
sS'rubriche'
p146
S'822'
p147
sa(dp148
S'tecnologia'
p149
S'122'
p150
sS'scienza'
p151
S'245'
p152
sS'persone'
p153
S'273'
p154
sS'media'
p155
S'85'
p156
sS'politica'
p157
S'212'
p158
sS'spettacolo'
p159
S'454'
p160
sS'economia'
p161
S'475'
p162
sS'gallerie'
p163
S'178'
p164
sS'salute'
p165
S'114'
p166
sS'motori'
p167
S'261'
p168
sS'esteri'
p169
S'321'
p170
sS'cronaca'
p171
S'796'
p172
sS'sport'
p173
S'1047'
p174
sS'rubriche'
p175
S'727'
p176
sa(dp177
S'tecnologia'
p178
S'146'
p179
sS'scienza'
p180
S'310'
p181
sS'persone'
p182
S'329'
p183
sS'media'
p184
S'103'
p185
sS'politica'
p186
S'191'
p187
sS'spettacolo'
p188
S'441'
p189
sS'economia'
p190
S'388'
p191
sS'gallerie'
p192
S'177'
p193
sS'motori'
p194
S'318'
p195
sS'esteri'
p196
S'295'
p197
sS'cronaca'
p198
S'940'
p199
sS'sport'
p200
S'1565'
p201
sS'rossi'
p202
S'103'
p203
sS'rubriche'
p204
S'716'
p205
sa(dp206
S'tecnologia'
p207
S'209'
p208
sS'regione'
p209
S'173'
p210
sS'scienza'
p211
S'177'
p212
sS'persone'
p213
S'368'
p214
sS'politica'
p215
S'214'
p216
sS'spettacolo'
p217
S'486'
p218
sS'economia'
p219
S'208'
p220
sS'gallerie'
p221
S'183'
p222
sS'motori'
p223
S'740'
p224
sS'esteri'
p225
S'257'
p226
sS'cronaca'
p227
S'896'
p228
sS'sport'
p229
S'2249'
p230
sS'rossi'
p231
S'307'
p232
sS'rubriche'
p233
S'806'
p234
sa(dp235
S'tecnologia'
p236
S'152'
p237
sS'regione'
p238
S'125'
p239
sS'scienza'
p240
S'207'
p241
sS'persone'
p242
S'455'
p243
sS'politica'
p244
S'194'
p245
sS'spettacolo'
p246
S'473'
p247
sS'economia'
p248
S'411'
p249
sS'gallerie'
p250
S'190'
p251
sS'motori'
p252
S'522'
p253
sS'esteri'
p254
S'187'
p255
sS'cronaca'
p256
S'898'
p257
sS'sport'
p258
S'1527'
p259
sS'rossi'
p260
S'133'
p261
sS'rubriche'
p262
S'691'
p263
sa(dp264
S'tecnologia'
p265
S'155'
p266
sS'scienza'
p267
S'277'
p268
sS'persone'
p269
S'311'
p270
sS'politica'
p271
S'173'
p272
sS'spettacolo'
p273
S'367'
p274
sS'economia'
p275
S'372'
p276
sS'gallerie'
p277
S'207'
p278
sS'motori'
p279
S'364'
p280
sS'esteri'
p281
S'212'
p282
sS'viaggi'
p283
S'242'
p284
sS'cronaca'
p285
S'954'
p286
sS'sport'
p287
S'1183'
p288
sS'rossi'
p289
S'105'
p290
sS'rubriche'
p291
S'517'
p292
sa(dp293
S'tecnologia'
p294
S'153'
p295
sS'scienza'
p296
S'289'
p297
sS'persone'
p298
S'478'
p299
sS'media'
p300
S'82'
p301
sS'politica'
p302
S'184'
p303
sS'spettacolo'
p304
S'459'
p305
sS'economia'
p306
S'362'
p307
sS'gallerie'
p308
S'279'
p309
sS'motori'
p310
S'319'
p311
sS'esteri'
p312
S'271'
p313
sS'cronaca'
p314
S'1075'
p315
sS'sport'
p316
S'931'
p317
sS'rossi'
p318
S'95'
p319
sS'rubriche'
p320
S'553'
p321
sa(dp322
S'tecnologia'
p323
S'145'
p324
sS'regione'
p325
S'123'
p326
sS'scienza'
p327
S'259'
p328
sS'persone'
p329
S'501'
p330
sS'politica'
p331
S'174'
p332
sS'spettacolo'
p333
S'389'
p334
sS'economia'
p335
S'425'
p336
sS'gallerie'
p337
S'184'
p338
sS'salute'
p339
S'128'
p340
sS'motori'
p341
S'188'
p342
sS'esteri'
p343
S'270'
p344
sS'cronaca'
p345
S'897'
p346
sS'sport'
p347
S'833'
p348
sS'rubriche'
p349
S'687'
p350
sa(dp351
S'tecnologia'
p352
S'116'
p353
sS'scienza'
p354
S'219'
p355
sS'persone'
p356
S'336'
p357
sS'politica'
p358
S'146'
p359
sS'spettacolo'
p360
S'379'
p361
sS'economia'
p362
S'331'
p363
sS'gallerie'
p364
S'191'
p365
sS'salute'
p366
S'115'
p367
sS'motori'
p368
S'139'
p369
sS'esteri'
p370
S'238'
p371
sS'viaggi'
p372
S'59'
p373
sS'cronaca'
p374
S'869'
p375
sS'sport'
p376
S'787'
p377
sS'rubriche'
p378
S'577'
p379
sa(dp380
a(dp381
a(dp382
S'tecnologia'
p383
S'170'
p384
sS'storia'
p385
S'57'
p386
sS'scienza'
p387
S'96'
p388
sS'persone'
p389
S'382'
p390
sS'politica'
p391
S'102'
p392
sS'spettacolo'
p393
S'239'
p394
sS'economia'
p395
S'125'
p396
sS'gallerie'
p397
S'98'
p398
sS'motori'
p399
S'63'
p400
sS'esteri'
p401
S'718'
p402
sS'viaggi'
p403
S'78'
p404
sS'cronaca'
p405
S'707'
p406
sS'sport'
p407
S'310'
p408
sS'rubriche'
p409
S'414'
p410
sa(dp411
S'tecnologia'
p412
S'182'
p413
sS'storia'
p414
S'63'
p415
sS'scienza'
p416
S'355'
p417
sS'persone'
p418
S'545'
p419
sS'politica'
p420
S'204'
p421
sS'spettacolo'
p422
S'460'
p423
sS'economia'
p424
S'295'
p425
sS'gallerie'
p426
S'178'
p427
sS'salute'
p428
S'132'
p429
sS'motori'
p430
S'227'
p431
sS'esteri'
p432
S'1274'
p433
sS'cronaca'
p434
S'1104'
p435
sS'sport'
p436
S'759'
p437
sS'rubriche'
p438
S'764'
p439
sa(dp440
S'tecnologia'
p441
S'146'
p442
sS'scuola'
p443
S'64'
p444
sS'scienza'
p445
S'218'
p446
sS'persone'
p447
S'457'
p448
sS'politica'
p449
S'197'
p450
sS'spettacolo'
p451
S'457'
p452
sS'economia'
p453
S'300'
p454
sS'gallerie'
p455
S'335'
p456
sS'salute'
p457
S'59'
p458
sS'motori'
p459
S'227'
p460
sS'esteri'
p461
S'1232'
p462
sS'cronaca'
p463
S'1276'
p464
sS'sport'
p465
S'757'
p466
sS'rubriche'
p467
S'754'
p468
sa(dp469
S'tecnologia'
p470
S'126'
p471
sS'regione'
p472
S'149'
p473
sS'scienza'
p474
S'260'
p475
sS'persone'
p476
S'417'
p477
sS'politica'
p478
S'165'
p479
sS'spettacolo'
p480
S'366'
p481
sS'economia'
p482
S'262'
p483
sS'gallerie'
p484
S'275'
p485
sS'salute'
p486
S'124'
p487
sS'motori'
p488
S'127'
p489
sS'esteri'
p490
S'958'
p491
sS'cronaca'
p492
S'948'
p493
sS'sport'
p494
S'671'
p495
sS'rubriche'
p496
S'646'
p497
sa(dp498
S'tecnologia'
p499
S'218'
p500
sS'regione'
p501
S'76'
p502
sS'scienza'
p503
S'249'
p504
sS'persone'
p505
S'381'
p506
sS'politica'
p507
S'199'
p508
sS'spettacolo'
p509
S'577'
p510
sS'economia'
p511
S'393'
p512
sS'gallerie'
p513
S'250'
p514
sS'salute'
p515
S'141'
p516
sS'motori'
p517
S'153'
p518
sS'esteri'
p519
S'997'
p520
sS'cronaca'
p521
S'873'
p522
sS'sport'
p523
S'569'
p524
sS'rubriche'
p525
S'731'
p526
sa(dp527
S'tecnologia'
p528
S'296'
p529
sS'regione'
p530
S'141'
p531
sS'scienza'
p532
S'252'
p533
sS'persone'
p534
S'355'
p535
sS'politica'
p536
S'204'
p537
sS'spettacolo'
p538
S'544'
p539
sS'economia'
p540
S'211'
p541
sS'gallerie'
p542
S'152'
p543
sS'salute'
p544
S'125'
p545
sS'motori'
p546
S'189'
p547
sS'esteri'
p548
S'933'
p549
sS'cronaca'
p550
S'787'
p551
sS'sport'
p552
S'1138'
p553
sS'rubriche'
p554
S'626'
p555
sa(dp556
S'tecnologia'
p557
S'250'
p558
sS'regione'
p559
S'107'
p560
sS'scienza'
p561
S'129'
p562
sS'persone'
p563
S'393'
p564
sS'media'
p565
S'157'
p566
sS'politica'
p567
S'194'
p568
sS'spettacolo'
p569
S'542'
p570
sS'economia'
p571
S'264'
p572
sS'gallerie'
p573
S'249'
p574
sS'motori'
p575
S'138'
p576
sS'esteri'
p577
S'753'
p578
sS'cronaca'
p579
S'1021'
p580
sS'sport'
p581
S'1561'
p582
sS'rubriche'
p583
S'801'
p584
sa(dp585
S'tecnologia'
p586
S'189'
p587
sS'regione'
p588
S'96'
p589
sS'scienza'
p590
S'137'
p591
sS'persone'
p592
S'336'
p593
sS'politica'
p594
S'145'
p595
sS'spettacolo'
p596
S'531'
p597
sS'economia'
p598
S'383'
p599
sS'gallerie'
p600
S'189'
p601
sS'motori'
p602
S'71'
p603
sS'esteri'
p604
S'664'
p605
sS'viaggi'
p606
S'97'
p607
sS'cronaca'
p608
S'765'
p609
sS'sport'
p610
S'1124'
p611
sS'rubriche'
p612
S'766'
p613
sa(dp614
S'tecnologia'
p615
S'100'
p616
sS'regione'
p617
S'86'
p618
sS'scienza'
p619
S'164'
p620
sS'persone'
p621
S'257'
p622
sS'media'
p623
S'79'
p624
sS'politica'
p625
S'123'
p626
sS'spettacolo'
p627
S'296'
p628
sS'economia'
p629
S'247'
p630
sS'gallerie'
p631
S'122'
p632
sS'esteri'
p633
S'638'
p634
sS'viaggi'
p635
S'111'
p636
sS'cronaca'
p637
S'397'
p638
sS'sport'
p639
S'587'
p640
sS'rubriche'
p641
S'495'
p642
sa(dp643
S'tecnologia'
p644
S'138'
p645
sS'regione'
p646
S'143'
p647
sS'scienza'
p648
S'312'
p649
sS'persone'
p650
S'371'
p651
sS'politica'
p652
S'191'
p653
sS'spettacolo'
p654
S'373'
p655
sS'economia'
p656
S'369'
p657
sS'gallerie'
p658
S'192'
p659
sS'motori'
p660
S'75'
p661
sS'esteri'
p662
S'475'
p663
sS'viaggi'
p664
S'107'
p665
sS'cronaca'
p666
S'770'
p667
sS'sport'
p668
S'1345'
p669
sS'rubriche'
p670
S'723'
p671
sa(dp672
S'tecnologia'
p673
S'119'
p674
sS'regione'
p675
S'99'
p676
sS'scienza'
p677
S'237'
p678
sS'persone'
p679
S'327'
p680
sS'politica'
p681
S'178'
p682
sS'spettacolo'
p683
S'306'
p684
sS'economia'
p685
S'362'
p686
sS'gallerie'
p687
S'157'
p688
sS'motori'
p689
S'140'
p690
sS'esteri'
p691
S'729'
p692
sS'viaggi'
p693
S'100'
p694
sS'cronaca'
p695
S'738'
p696
sS'sport'
p697
S'1040'
p698
sS'rubriche'
p699
S'551'
p700
sa(dp701
S'tecnologia'
p702
S'172'
p703
sS'regione'
p704
S'83'
p705
sS'scienza'
p706
S'147'
p707
sS'persone'
p708
S'402'
p709
sS'politica'
p710
S'227'
p711
sS'spettacolo'
p712
S'458'
p713
sS'economia'
p714
S'386'
p715
sS'gallerie'
p716
S'139'
p717
sS'salute'
p718
S'99'
p719
sS'motori'
p720
S'114'
p721
sS'esteri'
p722
S'473'
p723
sS'cronaca'
p724
S'723'
p725
sS'sport'
p726
S'905'
p727
sS'rubriche'
p728
S'578'
p729
sa(dp730
S'tecnologia'
p731
S'96'
p732
sS'regione'
p733
S'95'
p734
sS'scienza'
p735
S'183'
p736
sS'persone'
p737
S'328'
p738
sS'politica'
p739
S'186'
p740
sS'spettacolo'
p741
S'519'
p742
sS'economia'
p743
S'476'
p744
sS'gallerie'
p745
S'180'
p746
sS'salute'
p747
S'91'
p748
sS'motori'
p749
S'150'
p750
sS'esteri'
p751
S'625'
p752
sS'cronaca'
p753
S'744'
p754
sS'sport'
p755
S'1517'
p756
sS'rubriche'
p757
S'600'
p758
sa(dp759
S'tecnologia'
p760
S'128'
p761
sS'scuola'
p762
S'133'
p763
sS'scienza'
p764
S'298'
p765
sS'persone'
p766
S'427'
p767
sS'media'
p768
S'107'
p769
sS'politica'
p770
S'193'
p771
sS'spettacolo'
p772
S'494'
p773
sS'economia'
p774
S'332'
p775
sS'gallerie'
p776
S'271'
p777
sS'motori'
p778
S'108'
p779
sS'esteri'
p780
S'720'
p781
sS'cronaca'
p782
S'817'
p783
sS'sport'
p784
S'1718'
p785
sS'rubriche'
p786
S'899'
p787
sa(dp788
S'tecnologia'
p789
S'144'
p790
sS'scuola'
p791
S'115'
p792
sS'scienza'
p793
S'208'
p794
sS'persone'
p795
S'372'
p796
sS'politica'
p797
S'217'
p798
sS'spettacolo'
p799
S'677'
p800
sS'economia'
p801
S'393'
p802
sS'gallerie'
p803
S'182'
p804
sS'salute'
p805
S'88'
p806
sS'motori'
p807
S'115'
p808
sS'esteri'
p809
S'387'
p810
sS'cronaca'
p811
S'598'
p812
sS'sport'
p813
S'1204'
p814
sS'rubriche'
p815
S'684'
p816
sasS'10'
p817
(lp818
(dp819
S'tecnologia'
p820
S'155'
p821
sS'regione'
p822
S'149'
p823
sS'scienza'
p824
S'247'
p825
sS'persone'
p826
S'378'
p827
sS'politica'
p828
S'215'
p829
sS'spettacolo'
p830
S'437'
p831
sS'economia'
p832
S'516'
p833
sS'gallerie'
p834
S'248'
p835
sS'salute'
p836
S'175'
p837
sS'esteri'
p838
S'337'
p839
sS'viaggi'
p840
S'304'
p841
sS'cronaca'
p842
S'738'
p843
sS'sport'
p844
S'1288'
p845
sS'rubriche'
p846
S'618'
p847
sa(dp848
S'tecnologia'
p849
S'208'
p850
sS'regione'
p851
S'96'
p852
sS'scienza'
p853
S'260'
p854
sS'persone'
p855
S'369'
p856
sS'politica'
p857
S'275'
p858
sS'spettacolo'
p859
S'403'
p860
sS'economia'
p861
S'504'
p862
sS'gallerie'
p863
S'203'
p864
sS'motori'
p865
S'142'
p866
sS'esteri'
p867
S'382'
p868
sS'viaggi'
p869
S'141'
p870
sS'cronaca'
p871
S'727'
p872
sS'sport'
p873
S'1096'
p874
sS'rubriche'
p875
S'658'
p876
sa(dp877
S'tecnologia'
p878
S'171'
p879
sS'regione'
p880
S'69'
p881
sS'scienza'
p882
S'254'
p883
sS'persone'
p884
S'249'
p885
sS'media'
p886
S'73'
p887
sS'politica'
p888
S'298'
p889
sS'spettacolo'
p890
S'396'
p891
sS'economia'
p892
S'241'
p893
sS'gallerie'
p894
S'295'
p895
sS'esteri'
p896
S'463'
p897
sS'viaggi'
p898
S'147'
p899
sS'cronaca'
p900
S'731'
p901
sS'sport'
p902
S'1550'
p903
sS'rubriche'
p904
S'734'
p905
sa(dp906
S'tecnologia'
p907
S'179'
p908
sS'regione'
p909
S'89'
p910
sS'scienza'
p911
S'190'
p912
sS'persone'
p913
S'310'
p914
sS'media'
p915
S'109'
p916
sS'politica'
p917
S'319'
p918
sS'spettacolo'
p919
S'523'
p920
sS'economia'
p921
S'242'
p922
sS'gallerie'
p923
S'279'
p924
sS'motori'
p925
S'191'
p926
sS'esteri'
p927
S'607'
p928
sS'cronaca'
p929
S'1257'
p930
sS'sport'
p931
S'1531'
p932
sS'rubriche'
p933
S'673'
p934
sa(dp935
S'tecnologia'
p936
S'154'
p937
sS'scienza'
p938
S'281'
p939
sS'persone'
p940
S'450'
p941
sS'media'
p942
S'102'
p943
sS'politica'
p944
S'238'
p945
sS'spettacolo'
p946
S'534'
p947
sS'economia'
p948
S'437'
p949
sS'gallerie'
p950
S'229'
p951
sS'salute'
p952
S'73'
p953
sS'motori'
p954
S'130'
p955
sS'esteri'
p956
S'336'
p957
sS'cronaca'
p958
S'888'
p959
sS'sport'
p960
S'1326'
p961
sS'rubriche'
p962
S'693'
p963
sa(dp964
S'tecnologia'
p965
S'149'
p966
sS'scienza'
p967
S'379'
p968
sS'persone'
p969
S'446'
p970
sS'media'
p971
S'73'
p972
sS'politica'
p973
S'199'
p974
sS'spettacolo'
p975
S'353'
p976
sS'economia'
p977
S'403'
p978
sS'gallerie'
p979
S'214'
p980
sS'salute'
p981
S'90'
p982
sS'moda'
p983
S'99'
p984
sS'esteri'
p985
S'324'
p986
sS'cronaca'
p987
S'749'
p988
sS'sport'
p989
S'1022'
p990
sS'rubriche'
p991
S'764'
p992
sa(dp993
S'tecnologia'
p994
S'169'
p995
sS'scienza'
p996
S'277'
p997
sS'persone'
p998
S'337'
p999
sS'politica'
p1000
S'245'
p1001
sS'spettacolo'
p1002
S'427'
p1003
sS'economia'
p1004
S'454'
p1005
sS'gallerie'
p1006
S'216'
p1007
sS'salute'
p1008
S'121'
p1009
sS'motori'
p1010
S'140'
p1011
sS'esteri'
p1012
S'327'
p1013
sS'viaggi'
p1014
S'83'
p1015
sS'cronaca'
p1016
S'1001'
p1017
sS'sport'
p1018
S'872'
p1019
sS'rubriche'
p1020
S'716'
p1021
sa(dp1022
S'tecnologia'
p1023
S'163'
p1024
sS'regione'
p1025
S'111'
p1026
sS'scienza'
p1027
S'215'
p1028
sS'persone'
p1029
S'392'
p1030
sS'politica'
p1031
S'394'
p1032
sS'spettacolo'
p1033
S'440'
p1034
sS'economia'
p1035
S'386'
p1036
sS'gallerie'
p1037
S'188'
p1038
sS'salute'
p1039
S'153'
p1040
sS'motori'
p1041
S'158'
p1042
sS'esteri'
p1043
S'311'
p1044
sS'cronaca'
p1045
S'925'
p1046
sS'sport'
p1047
S'799'
p1048
sS'rubriche'
p1049
S'804'
p1050
sa(dp1051
S'tecnologia'
p1052
S'130'
p1053
sS'regione'
p1054
S'105'
p1055
sS'scienza'
p1056
S'176'
p1057
sS'persone'
p1058
S'312'
p1059
sS'politica'
p1060
S'318'
p1061
sS'prodotto'
p1062
S'92'
p1063
sS'spettacolo'
p1064
S'381'
p1065
sS'economia'
p1066
S'453'
p1067
sS'gallerie'
p1068
S'167'
p1069
sS'motori'
p1070
S'129'
p1071
sS'esteri'
p1072
S'302'
p1073
sS'cronaca'
p1074
S'1004'
p1075
sS'sport'
p1076
S'731'
p1077
sS'rubriche'
p1078
S'764'
p1079
sa(dp1080
S'tecnologia'
p1081
S'166'
p1082
sS'regione'
p1083
S'110'
p1084
sS'scienza'
p1085
S'184'
p1086
sS'persone'
p1087
S'284'
p1088
sS'politica'
p1089
S'280'
p1090
sS'spettacolo'
p1091
S'447'
p1092
sS'economia'
p1093
S'288'
p1094
sS'gallerie'
p1095
S'150'
p1096
sS'salute'
p1097
S'130'
p1098
sS'motori'
p1099
S'241'
p1100
sS'esteri'
p1101
S'421'
p1102
sS'cronaca'
p1103
S'752'
p1104
sS'sport'
p1105
S'1265'
p1106
sS'rubriche'
p1107
S'720'
p1108
sa(dp1109
S'tecnologia'
p1110
S'164'
p1111
sS'scienza'
p1112
S'199'
p1113
sS'persone'
p1114
S'345'
p1115
sS'media'
p1116
S'117'
p1117
sS'politica'
p1118
S'253'
p1119
sS'spettacolo'
p1120
S'582'
p1121
sS'economia'
p1122
S'307'
p1123
sS'gallerie'
p1124
S'273'
p1125
sS'salute'
p1126
S'123'
p1127
sS'motori'
p1128
S'341'
p1129
sS'esteri'
p1130
S'483'
p1131
sS'cronaca'
p1132
S'876'
p1133
sS'sport'
p1134
S'1478'
p1135
sS'rubriche'
p1136
S'868'
p1137
sa(dp1138
S'tecnologia'
p1139
S'143'
p1140
sS'scienza'
p1141
S'241'
p1142
sS'persone'
p1143
S'393'
p1144
sS'media'
p1145
S'70'
p1146
sS'politica'
p1147
S'217'
p1148
sS'spettacolo'
p1149
S'428'
p1150
sS'economia'
p1151
S'481'
p1152
sS'gallerie'
p1153
S'246'
p1154
sS'salute'
p1155
S'144'
p1156
sS'motori'
p1157
S'266'
p1158
sS'esteri'
p1159
S'401'
p1160
sS'cronaca'
p1161
S'994'
p1162
sS'sport'
p1163
S'1184'
p1164
sS'rubriche'
p1165
S'882'
p1166
sa(dp1167
S'tecnologia'
p1168
S'143'
p1169
sS'scienza'
p1170
S'199'
p1171
sS'persone'
p1172
S'426'
p1173
sS'politica'
p1174
S'273'
p1175
sS'spettacolo'
p1176
S'413'
p1177
sS'economia'
p1178
S'469'
p1179
sS'gallerie'
p1180
S'221'
p1181
sS'salute'
p1182
S'124'
p1183
sS'motori'
p1184
S'284'
p1185
sS'esteri'
p1186
S'366'
p1187
sS'cucina'
p1188
S'71'
p1189
sS'cronaca'
p1190
S'803'
p1191
sS'sport'
p1192
S'974'
p1193
sS'rubriche'
p1194
S'785'
p1195
sa(dp1196
S'tecnologia'
p1197
S'111'
p1198
sS'scienza'
p1199
S'293'
p1200
sS'persone'
p1201
S'294'
p1202
sS'politica'
p1203
S'307'
p1204
sS'spettacolo'
p1205
S'399'
p1206
sS'economia'
p1207
S'486'
p1208
sS'gallerie'
p1209
S'281'
p1210
sS'salute'
p1211
S'88'
p1212
sS'motori'
p1213
S'93'
p1214
sS'esteri'
p1215
S'323'
p1216
sS'viaggi'
p1217
S'153'
p1218
sS'cronaca'
p1219
S'1074'
p1220
sS'sport'
p1221
S'1116'
p1222
sS'rubriche'
p1223
S'723'
p1224
sa(dp1225
S'tecnologia'
p1226
S'133'
p1227
sS'scienza'
p1228
S'215'
p1229
sS'persone'
p1230
S'370'
p1231
sS'politica'
p1232
S'243'
p1233
sS'spettacolo'
p1234
S'451'
p1235
sS'economia'
p1236
S'640'
p1237
sS'gallerie'
p1238
S'215'
p1239
sS'salute'
p1240
S'105'
p1241
sS'motori'
p1242
S'115'
p1243
sS'social'
p1244
S'241'
p1245
sS'esteri'
p1246
S'226'
p1247
sS'cronaca'
p1248
S'1006'
p1249
sS'sport'
p1250
S'889'
p1251
sS'rubriche'
p1252
S'902'
p1253
sa(dp1254
S'tecnologia'
p1255
S'96'
p1256
sS'regione'
p1257
S'93'
p1258
sS'scienza'
p1259
S'203'
p1260
sS'persone'
p1261
S'282'
p1262
sS'politica'
p1263
S'258'
p1264
sS'spettacolo'
p1265
S'394'
p1266
sS'economia'
p1267
S'525'
p1268
sS'gallerie'
p1269
S'193'
p1270
sS'salute'
p1271
S'96'
p1272
sS'motori'
p1273
S'117'
p1274
sS'esteri'
p1275
S'250'
p1276
sS'cronaca'
p1277
S'834'
p1278
sS'sport'
p1279
S'876'
p1280
sS'rubriche'
p1281
S'706'
p1282
sa(dp1283
S'tecnologia'
p1284
S'204'
p1285
sS'regione'
p1286
S'87'
p1287
sS'scienza'
p1288
S'218'
p1289
sS'persone'
p1290
S'279'
p1291
sS'politica'
p1292
S'286'
p1293
sS'spettacolo'
p1294
S'448'
p1295
sS'economia'
p1296
S'389'
p1297
sS'gallerie'
p1298
S'143'
p1299
sS'salute'
p1300
S'87'
p1301
sS'motori'
p1302
S'228'
p1303
sS'esteri'
p1304
S'309'
p1305
sS'cronaca'
p1306
S'733'
p1307
sS'sport'
p1308
S'1308'
p1309
sS'rubriche'
p1310
S'819'
p1311
sa(dp1312
S'tecnologia'
p1313
S'88'
p1314
sS'regione'
p1315
S'19'
p1316
sS'scienza'
p1317
S'46'
p1318
sS'persone'
p1319
S'119'
p1320
sS'politica'
p1321
S'77'
p1322
sS'spettacolo'
p1323
S'149'
p1324
sS'economia'
p1325
S'174'
p1326
sS'gallerie'
p1327
S'33'
p1328
sS'salute'
p1329
S'27'
p1330
sS'motori'
p1331
S'241'
p1332
sS'esteri'
p1333
S'81'
p1334
sS'cronaca'
p1335
S'374'
p1336
sS'sport'
p1337
S'510'
p1338
sS'rubriche'
p1339
S'288'
p1340
sa(dp1341
S'tecnologia'
p1342
S'83'
p1343
sS'regione'
p1344
S'48'
p1345
sS'scienza'
p1346
S'84'
p1347
sS'persone'
p1348
S'166'
p1349
sS'politica'
p1350
S'104'
p1351
sS'spettacolo'
p1352
S'247'
p1353
sS'economia'
p1354
S'300'
p1355
sS'gallerie'
p1356
S'105'
p1357
sS'salute'
p1358
S'36'
p1359
sS'motori'
p1360
S'58'
p1361
sS'esteri'
p1362
S'173'
p1363
sS'cronaca'
p1364
S'380'
p1365
sS'sport'
p1366
S'669'
p1367
sS'rubriche'
p1368
S'349'
p1369
sa(dp1370
S'tecnologia'
p1371
S'138'
p1372
sS'regione'
p1373
S'104'
p1374
sS'scienza'
p1375
S'208'
p1376
sS'persone'
p1377
S'346'
p1378
sS'media'
p1379
S'80'
p1380
sS'politica'
p1381
S'209'
p1382
sS'spettacolo'
p1383
S'488'
p1384
sS'economia'
p1385
S'567'
p1386
sS'gallerie'
p1387
S'249'
p1388
sS'motori'
p1389
S'76'
p1390
sS'esteri'
p1391
S'234'
p1392
sS'cronaca'
p1393
S'1090'
p1394
sS'sport'
p1395
S'892'
p1396
sS'rubriche'
p1397
S'632'
p1398
sa(dp1399
S'tecnologia'
p1400
S'143'
p1401
sS'regione'
p1402
S'86'
p1403
sS'scienza'
p1404
S'285'
p1405
sS'persone'
p1406
S'349'
p1407
sS'politica'
p1408
S'254'
p1409
sS'spettacolo'
p1410
S'674'
p1411
sS'economia'
p1412
S'492'
p1413
sS'gallerie'
p1414
S'200'
p1415
sS'salute'
p1416
S'96'
p1417
sS'motori'
p1418
S'128'
p1419
sS'esteri'
p1420
S'273'
p1421
sS'cronaca'
p1422
S'1203'
p1423
sS'sport'
p1424
S'1146'
p1425
sS'rubriche'
p1426
S'748'
p1427
sa(dp1428
S'tecnologia'
p1429
S'177'
p1430
sS'regione'
p1431
S'71'
p1432
sS'scienza'
p1433
S'262'
p1434
sS'persone'
p1435
S'308'
p1436
sS'ottobre'
p1437
S'82'
p1438
sS'politica'
p1439
S'197'
p1440
sS'spettacolo'
p1441
S'455'
p1442
sS'economia'
p1443
S'497'
p1444
sS'gallerie'
p1445
S'257'
p1446
sS'motori'
p1447
S'125'
p1448
sS'esteri'
p1449
S'260'
p1450
sS'cronaca'
p1451
S'941'
p1452
sS'sport'
p1453
S'1048'
p1454
sS'rubriche'
p1455
S'674'
p1456
sa(dp1457
S'tecnologia'
p1458
S'198'
p1459
sS'scienza'
p1460
S'277'
p1461
sS'persone'
p1462
S'344'
p1463
sS'media'
p1464
S'66'
p1465
sS'politica'
p1466
S'202'
p1467
sS'spettacolo'
p1468
S'540'
p1469
sS'economia'
p1470
S'406'
p1471
sS'gallerie'
p1472
S'217'
p1473
sS'salute'
p1474
S'80'
p1475
sS'motori'
p1476
S'138'
p1477
sS'esteri'
p1478
S'386'
p1479
sS'cronaca'
p1480
S'775'
p1481
sS'sport'
p1482
S'941'
p1483
sS'rubriche'
p1484
S'645'
p1485
sa(dp1486
S'tecnologia'
p1487
S'141'
p1488
sS'scienza'
p1489
S'297'
p1490
sS'persone'
p1491
S'320'
p1492
sS'media'
p1493
S'66'
p1494
sS'politica'
p1495
S'140'
p1496
sS'spettacolo'
p1497
S'442'
p1498
sS'economia'
p1499
S'276'
p1500
sS'gallerie'
p1501
S'187'
p1502
sS'salute'
p1503
S'99'
p1504
sS'motori'
p1505
S'228'
p1506
sS'esteri'
p1507
S'260'
p1508
sS'cronaca'
p1509
S'826'
p1510
sS'sport'
p1511
S'1366'
p1512
sS'rubriche'
p1513
S'673'
p1514
sa(dp1515
S'tecnologia'
p1516
S'191'
p1517
sS'scienza'
p1518
S'212'
p1519
sS'persone'
p1520
S'324'
p1521
sS'media'
p1522
S'143'
p1523
sS'politica'
p1524
S'197'
p1525
sS'spettacolo'
p1526
S'519'
p1527
sS'economia'
p1528
S'296'
p1529
sS'gallerie'
p1530
S'223'
p1531
sS'motori'
p1532
S'1044'
p1533
sS'esteri'
p1534
S'191'
p1535
sS'cronaca'
p1536
S'931'
p1537
sS'sport'
p1538
S'2364'
p1539
sS'rossi'
p1540
S'428'
p1541
sS'rubriche'
p1542
S'861'
p1543
sa(dp1544
S'regione'
p1545
S'125'
p1546
sS'scienza'
p1547
S'346'
p1548
sS'persone'
p1549
S'345'
p1550
sS'politica'
p1551
S'197'
p1552
sS'spettacolo'
p1553
S'454'
p1554
sS'economia'
p1555
S'395'
p1556
sS'gallerie'
p1557
S'151'
p1558
sS'salute'
p1559
S'164'
p1560
sS'motori'
p1561
S'641'
p1562
sS'esteri'
p1563
S'257'
p1564
sS'cronaca'
p1565
S'717'
p1566
sS'sport'
p1567
S'1980'
p1568
sS'rossi'
p1569
S'229'
p1570
sS'rubriche'
p1571
S'799'
p1572
sa(dp1573
S'tecnologia'
p1574
S'190'
p1575
sS'scienza'
p1576
S'241'
p1577
sS'persone'
p1578
S'332'
p1579
sS'politica'
p1580
S'253'
p1581
sS'spettacolo'
p1582
S'495'
p1583
sS'economia'
p1584
S'590'
p1585
sS'gallerie'
p1586
S'204'
p1587
sS'motori'
p1588
S'495'
p1589
sS'esteri'
p1590
S'228'
p1591
sS'viaggi'
p1592
S'226'
p1593
sS'cronaca'
p1594
S'753'
p1595
sS'sport'
p1596
S'1898'
p1597
sS'rossi'
p1598
S'149'
p1599
sS'rubriche'
p1600
S'771'
p1601
sa(dp1602
S'tecnologia'
p1603
S'138'
p1604
sS'regione'
p1605
S'169'
p1606
sS'scienza'
p1607
S'187'
p1608
sS'persone'
p1609
S'451'
p1610
sS'politica'
p1611
S'240'
p1612
sS'spettacolo'
p1613
S'585'
p1614
sS'economia'
p1615
S'554'
p1616
sS'gallerie'
p1617
S'251'
p1618
sS'motori'
p1619
S'514'
p1620
sS'esteri'
p1621
S'319'
p1622
sS'viaggi'
p1623
S'138'
p1624
sS'cronaca'
p1625
S'547'
p1626
sS'sport'
p1627
S'1540'
p1628
sS'rubriche'
p1629
S'683'
p1630
sa(dp1631
S'tecnologia'
p1632
S'107'
p1633
sS'scienza'
p1634
S'168'
p1635
sS'persone'
p1636
S'440'
p1637
sS'ottobre'
p1638
S'114'
p1639
sS'media'
p1640
S'113'
p1641
sS'politica'
p1642
S'209'
p1643
sS'spettacolo'
p1644
S'583'
p1645
sS'economia'
p1646
S'394'
p1647
sS'gallerie'
p1648
S'116'
p1649
sS'motori'
p1650
S'223'
p1651
sS'esteri'
p1652
S'171'
p1653
sS'cronaca'
p1654
S'681'
p1655
sS'sport'
p1656
S'1608'
p1657
sS'rubriche'
p1658
S'621'
p1659
sa(dp1660
S'tecnologia'
p1661
S'118'
p1662
sS'scienza'
p1663
S'251'
p1664
sS'persone'
p1665
S'329'
p1666
sS'politica'
p1667
S'194'
p1668
sS'spettacolo'
p1669
S'463'
p1670
sS'economia'
p1671
S'384'
p1672
sS'gallerie'
p1673
S'221'
p1674
sS'motori'
p1675
S'231'
p1676
sS'esteri'
p1677
S'238'
p1678
sS'viaggi'
p1679
S'128'
p1680
sS'cronaca'
p1681
S'921'
p1682
sS'sport'
p1683
S'1148'
p1684
sS'rossi'
p1685
S'104'
p1686
sS'rubriche'
p1687
S'857'
p1688
sa(dp1689
S'tecnologia'
p1690
S'121'
p1691
sS'regione'
p1692
S'134'
p1693
sS'scienza'
p1694
S'203'
p1695
sS'persone'
p1696
S'439'
p1697
sS'politica'
p1698
S'208'
p1699
sS'spettacolo'
p1700
S'493'
p1701
sS'economia'
p1702
S'316'
p1703
sS'gallerie'
p1704
S'236'
p1705
sS'motori'
p1706
S'267'
p1707
sS'esteri'
p1708
S'395'
p1709
sS'viaggi'
p1710
S'167'
p1711
sS'cronaca'
p1712
S'863'
p1713
sS'sport'
p1714
S'1593'
p1715
sS'rubriche'
p1716
S'723'
p1717
sasS'12'
p1718
(lp1719
(dp1720
S'tecnologia'
p1721
S'178'
p1722
sS'scienza'
p1723
S'231'
p1724
sS'persone'
p1725
S'342'
p1726
sS'politica'
p1727
S'167'
p1728
sS'spettacolo'
p1729
S'508'
p1730
sS'economia'
p1731
S'494'
p1732
sS'gallerie'
p1733
S'277'
p1734
sS'salute'
p1735
S'112'
p1736
sS'motori'
p1737
S'145'
p1738
sS'esteri'
p1739
S'339'
p1740
sS'cronaca'
p1741
S'764'
p1742
sS'sport'
p1743
S'1115'
p1744
sS'natale'
p1745
S'99'
p1746
sS'rubriche'
p1747
S'634'
p1748
sa(dp1749
S'tecnologia'
p1750
S'169'
p1751
sS'scienza'
p1752
S'219'
p1753
sS'persone'
p1754
S'369'
p1755
sS'media'
p1756
S'84'
p1757
sS'politica'
p1758
S'188'
p1759
sS'spettacolo'
p1760
S'498'
p1761
sS'economia'
p1762
S'530'
p1763
sS'gallerie'
p1764
S'226'
p1765
sS'motori'
p1766
S'108'
p1767
sS'esteri'
p1768
S'485'
p1769
sS'viaggi'
p1770
S'153'
p1771
sS'cronaca'
p1772
S'847'
p1773
sS'sport'
p1774
S'976'
p1775
sS'rubriche'
p1776
S'638'
p1777
sa(dp1778
S'tecnologia'
p1779
S'118'
p1780
sS'regione'
p1781
S'90'
p1782
sS'scuola'
p1783
S'94'
p1784
sS'scienza'
p1785
S'239'
p1786
sS'persone'
p1787
S'455'
p1788
sS'dicembre'
p1789
S'100'
p1790
sS'politica'
p1791
S'152'
p1792
sS'spettacolo'
p1793
S'372'
p1794
sS'economia'
p1795
S'508'
p1796
sS'gallerie'
p1797
S'270'
p1798
sS'esteri'
p1799
S'653'
p1800
sS'cronaca'
p1801
S'812'
p1802
sS'sport'
p1803
S'938'
p1804
sS'rubriche'
p1805
S'693'
p1806
sa(dp1807
S'tecnologia'
p1808
S'184'
p1809
sS'regione'
p1810
S'110'
p1811
sS'scienza'
p1812
S'279'
p1813
sS'persone'
p1814
S'273'
p1815
sS'politica'
p1816
S'106'
p1817
sS'spettacolo'
p1818
S'534'
p1819
sS'economia'
p1820
S'414'
p1821
sS'gallerie'
p1822
S'206'
p1823
sS'social'
p1824
S'109'
p1825
sS'esteri'
p1826
S'398'
p1827
sS'cronaca'
p1828
S'828'
p1829
sS'sport'
p1830
S'1005'
p1831
sS'natale'
p1832
S'100'
p1833
sS'rubriche'
p1834
S'661'
p1835
sa(dp1836
S'tecnologia'
p1837
S'163'
p1838
sS'regione'
p1839
S'114'
p1840
sS'scuola'
p1841
S'162'
p1842
sS'scienza'
p1843
S'303'
p1844
sS'persone'
p1845
S'260'
p1846
sS'politica'
p1847
S'133'
p1848
sS'spettacolo'
p1849
S'477'
p1850
sS'economia'
p1851
S'260'
p1852
sS'gallerie'
p1853
S'189'
p1854
sS'motori'
p1855
S'111'
p1856
sS'esteri'
p1857
S'403'
p1858
sS'cronaca'
p1859
S'684'
p1860
sS'sport'
p1861
S'1421'
p1862
sS'rubriche'
p1863
S'643'
p1864
sa(dp1865
S'tecnologia'
p1866
S'135'
p1867
sS'regione'
p1868
S'127'
p1869
sS'scienza'
p1870
S'259'
p1871
sS'persone'
p1872
S'317'
p1873
sS'media'
p1874
S'110'
p1875
sS'politica'
p1876
S'166'
p1877
sS'spettacolo'
p1878
S'511'
p1879
sS'economia'
p1880
S'277'
p1881
sS'gallerie'
p1882
S'143'
p1883
sS'esteri'
p1884
S'418'
p1885
sS'cronaca'
p1886
S'676'
p1887
sS'sport'
p1888
S'1485'
p1889
sS'natale'
p1890
S'99'
p1891
sS'rubriche'
p1892
S'848'
p1893
sa(dp1894
S'tecnologia'
p1895
S'123'
p1896
sS'regione'
p1897
S'108'
p1898
sS'scienza'
p1899
S'279'
p1900
sS'persone'
p1901
S'331'
p1902
sS'media'
p1903
S'94'
p1904
sS'politica'
p1905
S'224'
p1906
sS'spettacolo'
p1907
S'564'
p1908
sS'economia'
p1909
S'336'
p1910
sS'gallerie'
p1911
S'246'
p1912
sS'esteri'
p1913
S'362'
p1914
sS'cronaca'
p1915
S'956'
p1916
sS'sport'
p1917
S'1142'
p1918
sS'natale'
p1919
S'112'
p1920
sS'rubriche'
p1921
S'650'
p1922
sa(dp1923
S'tecnologia'
p1924
S'150'
p1925
sS'regione'
p1926
S'151'
p1927
sS'scienza'
p1928
S'271'
p1929
sS'persone'
p1930
S'412'
p1931
sS'politica'
p1932
S'216'
p1933
sS'spettacolo'
p1934
S'720'
p1935
sS'economia'
p1936
S'419'
p1937
sS'gallerie'
p1938
S'293'
p1939
sS'motori'
p1940
S'161'
p1941
sS'esteri'
p1942
S'520'
p1943
sS'cronaca'
p1944
S'912'
p1945
sS'sport'
p1946
S'1535'
p1947
sS'natale'
p1948
S'109'
p1949
sS'rubriche'
p1950
S'635'
p1951
sa(dp1952
S'tecnologia'
p1953
S'199'
p1954
sS'regione'
p1955
S'120'
p1956
sS'scienza'
p1957
S'211'
p1958
sS'persone'
p1959
S'274'
p1960
sS'politica'
p1961
S'219'
p1962
sS'spettacolo'
p1963
S'567'
p1964
sS'economia'
p1965
S'356'
p1966
sS'gallerie'
p1967
S'190'
p1968
sS'salute'
p1969
S'84'
p1970
sS'esteri'
p1971
S'461'
p1972
sS'cronaca'
p1973
S'740'
p1974
sS'sport'
p1975
S'923'
p1976
sS'natale'
p1977
S'71'
p1978
sS'rubriche'
p1979
S'629'
p1980
sa(dp1981
S'tecnologia'
p1982
S'125'
p1983
sS'regione'
p1984
S'98'
p1985
sS'scienza'
p1986
S'196'
p1987
sS'persone'
p1988
S'303'
p1989
sS'dicembre'
p1990
S'108'
p1991
sS'politica'
p1992
S'239'
p1993
sS'spettacolo'
p1994
S'432'
p1995
sS'economia'
p1996
S'367'
p1997
sS'gallerie'
p1998
S'152'
p1999
sS'motori'
p2000
S'91'
p2001
sS'esteri'
p2002
S'322'
p2003
sS'cronaca'
p2004
S'760'
p2005
sS'sport'
p2006
S'785'
p2007
sS'rubriche'
p2008
S'722'
p2009
sa(dp2010
S'tecnologia'
p2011
S'153'
p2012
sS'regione'
p2013
S'82'
p2014
sS'scienza'
p2015
S'232'
p2016
sS'persone'
p2017
S'326'
p2018
sS'dicembre'
p2019
S'69'
p2020
sS'politica'
p2021
S'188'
p2022
sS'spettacolo'
p2023
S'589'
p2024
sS'economia'
p2025
S'380'
p2026
sS'gallerie'
p2027
S'137'
p2028
sS'salute'
p2029
S'66'
p2030
sS'esteri'
p2031
S'407'
p2032
sS'cronaca'
p2033
S'883'
p2034
sS'sport'
p2035
S'841'
p2036
sS'rubriche'
p2037
S'594'
p2038
sa(dp2039
S'natale'
p2040
S'130'
p2041
sS'regione'
p2042
S'77'
p2043
sS'scienza'
p2044
S'200'
p2045
sS'persone'
p2046
S'389'
p2047
sS'politica'
p2048
S'346'
p2049
sS'spettacolo'
p2050
S'389'
p2051
sS'economia'
p2052
S'340'
p2053
sS'gallerie'
p2054
S'176'
p2055
sS'motori'
p2056
S'155'
p2057
sS'esteri'
p2058
S'337'
p2059
sS'cronaca'
p2060
S'1149'
p2061
sS'sport'
p2062
S'1312'
p2063
sS'tecnologia'
p2064
S'127'
p2065
sS'rubriche'
p2066
S'860'
p2067
sa(dp2068
S'tecnologia'
p2069
S'140'
p2070
sS'scienza'
p2071
S'276'
p2072
sS'persone'
p2073
S'463'
p2074
sS'media'
p2075
S'107'
p2076
sS'politica'
p2077
S'293'
p2078
sS'spettacolo'
p2079
S'532'
p2080
sS'economia'
p2081
S'315'
p2082
sS'gallerie'
p2083
S'230'
p2084
sS'salute'
p2085
S'88'
p2086
sS'esteri'
p2087
S'347'
p2088
sS'cronaca'
p2089
S'1083'
p2090
sS'sport'
p2091
S'1569'
p2092
sS'natale'
p2093
S'119'
p2094
sS'rubriche'
p2095
S'941'
p2096
sa(dp2097
S'tecnologia'
p2098
S'136'
p2099
sS'regione'
p2100
S'73'
p2101
sS'scienza'
p2102
S'249'
p2103
sS'persone'
p2104
S'401'
p2105
sS'media'
p2106
S'79'
p2107
sS'politica'
p2108
S'218'
p2109
sS'spettacolo'
p2110
S'530'
p2111
sS'economia'
p2112
S'548'
p2113
sS'gallerie'
p2114
S'181'
p2115
sS'salute'
p2116
S'79'
p2117
sS'esteri'
p2118
S'403'
p2119
sS'cronaca'
p2120
S'766'
p2121
sS'sport'
p2122
S'1651'
p2123
sS'rubriche'
p2124
S'646'
p2125
sa(dp2126
S'tecnologia'
p2127
S'156'
p2128
sS'scienza'
p2129
S'247'
p2130
sS'persone'
p2131
S'469'
p2132
sS'media'
p2133
S'167'
p2134
sS'politica'
p2135
S'309'
p2136
sS'prodotto'
p2137
S'90'
p2138
sS'spettacolo'
p2139
S'534'
p2140
sS'economia'
p2141
S'445'
p2142
sS'gallerie'
p2143
S'298'
p2144
sS'esteri'
p2145
S'317'
p2146
sS'viaggi'
p2147
S'126'
p2148
sS'cronaca'
p2149
S'837'
p2150
sS'sport'
p2151
S'1159'
p2152
sS'rubriche'
p2153
S'555'
p2154
sa(dp2155
S'tecnologia'
p2156
S'117'
p2157
sS'regione'
p2158
S'152'
p2159
sS'scienza'
p2160
S'199'
p2161
sS'persone'
p2162
S'326'
p2163
sS'politica'
p2164
S'308'
p2165
sS'curiosita'
p2166
S'88'
p2167
sS'spettacolo'
p2168
S'435'
p2169
sS'economia'
p2170
S'455'
p2171
sS'gallerie'
p2172
S'248'
p2173
sS'motori'
p2174
S'83'
p2175
sS'esteri'
p2176
S'276'
p2177
sS'cronaca'
p2178
S'895'
p2179
sS'sport'
p2180
S'1183'
p2181
sS'rubriche'
p2182
S'564'
p2183
sa(dp2184
S'tecnologia'
p2185
S'147'
p2186
sS'scienza'
p2187
S'227'
p2188
sS'persone'
p2189
S'334'
p2190
sS'media'
p2191
S'125'
p2192
sS'politica'
p2193
S'287'
p2194
sS'spettacolo'
p2195
S'399'
p2196
sS'economia'
p2197
S'427'
p2198
sS'gallerie'
p2199
S'160'
p2200
sS'salute'
p2201
S'102'
p2202
sS'esteri'
p2203
S'298'
p2204
sS'cronaca'
p2205
S'801'
p2206
sS'sport'
p2207
S'1078'
p2208
sS'natale'
p2209
S'100'
p2210
sS'rubriche'
p2211
S'768'
p2212
sa(dp2213
S'tecnologia'
p2214
S'152'
p2215
sS'scienza'
p2216
S'141'
p2217
sS'persone'
p2218
S'357'
p2219
sS'media'
p2220
S'81'
p2221
sS'politica'
p2222
S'277'
p2223
sS'spettacolo'
p2224
S'285'
p2225
sS'economia'
p2226
S'315'
p2227
sS'gallerie'
p2228
S'134'
p2229
sS'esteri'
p2230
S'299'
p2231
sS'cucina'
p2232
S'92'
p2233
sS'cronaca'
p2234
S'893'
p2235
sS'sport'
p2236
S'920'
p2237
sS'natale'
p2238
S'108'
p2239
sS'rubriche'
p2240
S'513'
p2241
sa(dp2242
S'tecnologia'
p2243
S'153'
p2244
sS'scienza'
p2245
S'287'
p2246
sS'persone'
p2247
S'395'
p2248
sS'politica'
p2249
S'237'
p2250
sS'spettacolo'
p2251
S'309'
p2252
sS'economia'
p2253
S'305'
p2254
sS'gallerie'
p2255
S'156'
p2256
sS'salute'
p2257
S'94'
p2258
sS'esteri'
p2259
S'385'
p2260
sS'cucina'
p2261
S'130'
p2262
sS'cronaca'
p2263
S'702'
p2264
sS'sport'
p2265
S'1243'
p2266
sS'natale'
p2267
S'139'
p2268
sS'rubriche'
p2269
S'590'
p2270
sa(dp2271
S'tecnologia'
p2272
S'136'
p2273
sS'scienza'
p2274
S'192'
p2275
sS'persone'
p2276
S'409'
p2277
sS'media'
p2278
S'152'
p2279
sS'politica'
p2280
S'273'
p2281
sS'spettacolo'
p2282
S'393'
p2283
sS'economia'
p2284
S'405'
p2285
sS'gallerie'
p2286
S'225'
p2287
sS'salute'
p2288
S'115'
p2289
sS'esteri'
p2290
S'433'
p2291
sS'cronaca'
p2292
S'872'
p2293
sS'sport'
p2294
S'1566'
p2295
sS'natale'
p2296
S'123'
p2297
sS'rubriche'
p2298
S'775'
p2299
sa(dp2300
S'natale'
p2301
S'132'
p2302
sS'regione'
p2303
S'77'
p2304
sS'scienza'
p2305
S'134'
p2306
sS'persone'
p2307
S'431'
p2308
sS'media'
p2309
S'103'
p2310
sS'politica'
p2311
S'200'
p2312
sS'spettacolo'
p2313
S'557'
p2314
sS'economia'
p2315
S'302'
p2316
sS'gallerie'
p2317
S'337'
p2318
sS'esteri'
p2319
S'329'
p2320
sS'cronaca'
p2321
S'663'
p2322
sS'sport'
p2323
S'1248'
p2324
sS'tecnologia'
p2325
S'90'
p2326
sS'rubriche'
p2327
S'623'
p2328
sa(dp2329
S'tecnologia'
p2330
S'104'
p2331
sS'regione'
p2332
S'105'
p2333
sS'scienza'
p2334
S'333'
p2335
sS'persone'
p2336
S'386'
p2337
sS'media'
p2338
S'97'
p2339
sS'politica'
p2340
S'224'
p2341
sS'spettacolo'
p2342
S'441'
p2343
sS'economia'
p2344
S'476'
p2345
sS'gallerie'
p2346
S'346'
p2347
sS'esteri'
p2348
S'226'
p2349
sS'cronaca'
p2350
S'744'
p2351
sS'sport'
p2352
S'907'
p2353
sS'natale'
p2354
S'95'
p2355
sS'rubriche'
p2356
S'558'
p2357
sa(dp2358
S'natale'
p2359
S'170'
p2360
sS'scienza'
p2361
S'177'
p2362
sS'persone'
p2363
S'399'
p2364
sS'politica'
p2365
S'228'
p2366
sS'spettacolo'
p2367
S'378'
p2368
sS'economia'
p2369
S'459'
p2370
sS'gallerie'
p2371
S'199'
p2372
sS'salute'
p2373
S'95'
p2374
sS'motori'
p2375
S'79'
p2376
sS'esteri'
p2377
S'257'
p2378
sS'cronaca'
p2379
S'695'
p2380
sS'sport'
p2381
S'780'
p2382
sS'tecnologia'
p2383
S'139'
p2384
sS'rubriche'
p2385
S'533'
p2386
sa(dp2387
S'natale'
p2388
S'179'
p2389
sS'scienza'
p2390
S'151'
p2391
sS'persone'
p2392
S'296'
p2393
sS'dicembre'
p2394
S'101'
p2395
sS'politica'
p2396
S'159'
p2397
sS'spettacolo'
p2398
S'341'
p2399
sS'economia'
p2400
S'247'
p2401
sS'gallerie'
p2402
S'161'
p2403
sS'esteri'
p2404
S'195'
p2405
sS'viaggi'
p2406
S'121'
p2407
sS'cronaca'
p2408
S'617'
p2409
sS'sport'
p2410
S'764'
p2411
sS'tecnologia'
p2412
S'134'
p2413
sS'rubriche'
p2414
S'399'
p2415
sa(dp2416
S'natale'
p2417
S'188'
p2418
sS'scienza'
p2419
S'166'
p2420
sS'persone'
p2421
S'255'
p2422
sS'media'
p2423
S'61'
p2424
sS'politica'
p2425
S'61'
p2426
sS'spettacolo'
p2427
S'302'
p2428
sS'economia'
p2429
S'211'
p2430
sS'gallerie'
p2431
S'144'
p2432
sS'motori'
p2433
S'165'
p2434
sS'esteri'
p2435
S'364'
p2436
sS'cronaca'
p2437
S'627'
p2438
sS'sport'
p2439
S'533'
p2440
sS'tecnologia'
p2441
S'99'
p2442
sS'rubriche'
p2443
S'399'
p2444
sa(dp2445
S'natale'
p2446
S'181'
p2447
sS'scienza'
p2448
S'179'
p2449
sS'persone'
p2450
S'334'
p2451
sS'politica'
p2452
S'120'
p2453
sS'spettacolo'
p2454
S'408'
p2455
sS'economia'
p2456
S'240'
p2457
sS'gallerie'
p2458
S'150'
p2459
sS'motori'
p2460
S'99'
p2461
sS'esteri'
p2462
S'411'
p2463
sS'viaggi'
p2464
S'108'
p2465
sS'cronaca'
p2466
S'977'
p2467
sS'sport'
p2468
S'722'
p2469
sS'tecnologia'
p2470
S'103'
p2471
sS'rubriche'
p2472
S'691'
p2473
sa(dp2474
S'natale'
p2475
S'107'
p2476
sS'scienza'
p2477
S'143'
p2478
sS'persone'
p2479
S'436'
p2480
sS'media'
p2481
S'73'
p2482
sS'politica'
p2483
S'155'
p2484
sS'spettacolo'
p2485
S'466'
p2486
sS'economia'
p2487
S'389'
p2488
sS'gallerie'
p2489
S'184'
p2490
sS'motori'
p2491
S'127'
p2492
sS'esteri'
p2493
S'369'
p2494
sS'cronaca'
p2495
S'1238'
p2496
sS'sport'
p2497
S'868'
p2498
sS'tecnologia'
p2499
S'95'
p2500
sS'rubriche'
p2501
S'568'
p2502
sa(dp2503
S'tecnologia'
p2504
S'147'
p2505
sS'regione'
p2506
S'106'
p2507
sS'scienza'
p2508
S'140'
p2509
sS'persone'
p2510
S'434'
p2511
sS'media'
p2512
S'127'
p2513
sS'politica'
p2514
S'215'
p2515
sS'spettacolo'
p2516
S'364'
p2517
sS'economia'
p2518
S'497'
p2519
sS'gallerie'
p2520
S'191'
p2521
sS'motori'
p2522
S'144'
p2523
sS'esteri'
p2524
S'337'
p2525
sS'cronaca'
p2526
S'1030'
p2527
sS'sport'
p2528
S'880'
p2529
sS'rubriche'
p2530
S'690'
p2531
sa(dp2532
S'tecnologia'
p2533
S'166'
p2534
sS'regione'
p2535
S'115'
p2536
sS'scienza'
p2537
S'187'
p2538
sS'persone'
p2539
S'352'
p2540
sS'media'
p2541
S'93'
p2542
sS'politica'
p2543
S'213'
p2544
sS'curiosita'
p2545
S'66'
p2546
sS'spettacolo'
p2547
S'543'
p2548
sS'economia'
p2549
S'445'
p2550
sS'gallerie'
p2551
S'291'
p2552
sS'esteri'
p2553
S'315'
p2554
sS'cronaca'
p2555
S'838'
p2556
sS'sport'
p2557
S'870'
p2558
sS'rubriche'
p2559
S'720'
p2560
sa(dp2561
S'tecnologia'
p2562
S'183'
p2563
sS'regione'
p2564
S'127'
p2565
sS'scienza'
p2566
S'165'
p2567
sS'persone'
p2568
S'420'
p2569
sS'media'
p2570
S'83'
p2571
sS'politica'
p2572
S'186'
p2573
sS'spettacolo'
p2574
S'523'
p2575
sS'economia'
p2576
S'567'
p2577
sS'gallerie'
p2578
S'201'
p2579
sS'salute'
p2580
S'89'
p2581
sS'esteri'
p2582
S'289'
p2583
sS'cronaca'
p2584
S'1200'
p2585
sS'sport'
p2586
S'907'
p2587
sS'rubriche'
p2588
S'676'
p2589
sa(dp2590
S'tecnologia'
p2591
S'231'
p2592
sS'scienza'
p2593
S'131'
p2594
sS'persone'
p2595
S'278'
p2596
sS'dicembre'
p2597
S'84'
p2598
sS'politica'
p2599
S'135'
p2600
sS'curiosita'
p2601
S'54'
p2602
sS'prodotto'
p2603
S'50'
p2604
sS'spettacolo'
p2605
S'418'
p2606
sS'economia'
p2607
S'304'
p2608
sS'gallerie'
p2609
S'138'
p2610
sS'esteri'
p2611
S'247'
p2612
sS'cronaca'
p2613
S'735'
p2614
sS'sport'
p2615
S'524'
p2616
sS'rubriche'
p2617
S'560'
p2618
sasS'1'
p2619
(lp2620
(dp2621
S'tecnologia'
p2622
S'123'
p2623
sS'regione'
p2624
S'63'
p2625
sS'scienza'
p2626
S'176'
p2627
sS'persone'
p2628
S'329'
p2629
sS'politica'
p2630
S'304'
p2631
sS'spettacolo'
p2632
S'469'
p2633
sS'economia'
p2634
S'502'
p2635
sS'gallerie'
p2636
S'260'
p2637
sS'salute'
p2638
S'65'
p2639
sS'motori'
p2640
S'92'
p2641
sS'esteri'
p2642
S'362'
p2643
sS'cronaca'
p2644
S'1077'
p2645
sS'sport'
p2646
S'447'
p2647
sS'rubriche'
p2648
S'904'
p2649
sa(dp2650
S'tecnologia'
p2651
S'136'
p2652
sS'regione'
p2653
S'165'
p2654
sS'scienza'
p2655
S'212'
p2656
sS'persone'
p2657
S'313'
p2658
sS'media'
p2659
S'115'
p2660
sS'politica'
p2661
S'191'
p2662
sS'spettacolo'
p2663
S'538'
p2664
sS'economia'
p2665
S'572'
p2666
sS'gallerie'
p2667
S'277'
p2668
sS'salute'
p2669
S'131'
p2670
sS'esteri'
p2671
S'241'
p2672
sS'cronaca'
p2673
S'972'
p2674
sS'sport'
p2675
S'556'
p2676
sS'rubriche'
p2677
S'889'
p2678
sa(dp2679
S'tecnologia'
p2680
S'99'
p2681
sS'regione'
p2682
S'137'
p2683
sS'scienza'
p2684
S'227'
p2685
sS'persone'
p2686
S'342'
p2687
sS'media'
p2688
S'89'
p2689
sS'politica'
p2690
S'253'
p2691
sS'prodotto'
p2692
S'104'
p2693
sS'spettacolo'
p2694
S'611'
p2695
sS'economia'
p2696
S'455'
p2697
sS'gallerie'
p2698
S'353'
p2699
sS'esteri'
p2700
S'291'
p2701
sS'cronaca'
p2702
S'1033'
p2703
sS'sport'
p2704
S'670'
p2705
sS'rubriche'
p2706
S'870'
p2707
sa(dp2708
S'tecnologia'
p2709
S'299'
p2710
sS'regione'
p2711
S'85'
p2712
sS'scienza'
p2713
S'226'
p2714
sS'persone'
p2715
S'270'
p2716
sS'media'
p2717
S'191'
p2718
sS'politica'
p2719
S'274'
p2720
sS'prodotto'
p2721
S'81'
p2722
sS'spettacolo'
p2723
S'651'
p2724
sS'economia'
p2725
S'424'
p2726
sS'gallerie'
p2727
S'298'
p2728
sS'esteri'
p2729
S'306'
p2730
sS'cronaca'
p2731
S'1280'
p2732
sS'sport'
p2733
S'780'
p2734
sS'rubriche'
p2735
S'973'
p2736
sa(dp2737
S'tecnologia'
p2738
S'180'
p2739
sS'regione'
p2740
S'120'
p2741
sS'scienza'
p2742
S'323'
p2743
sS'persone'
p2744
S'377'
p2745
sS'media'
p2746
S'172'
p2747
sS'politica'
p2748
S'257'
p2749
sS'prodotto'
p2750
S'110'
p2751
sS'spettacolo'
p2752
S'1170'
p2753
sS'economia'
p2754
S'614'
p2755
sS'gallerie'
p2756
S'223'
p2757
sS'esteri'
p2758
S'308'
p2759
sS'cronaca'
p2760
S'1707'
p2761
sS'sport'
p2762
S'924'
p2763
sS'rubriche'
p2764
S'1079'
p2765
sa(dp2766
S'tecnologia'
p2767
S'152'
p2768
sS'regione'
p2769
S'112'
p2770
sS'scienza'
p2771
S'331'
p2772
sS'persone'
p2773
S'354'
p2774
sS'media'
p2775
S'202'
p2776
sS'politica'
p2777
S'228'
p2778
sS'prodotto'
p2779
S'124'
p2780
sS'spettacolo'
p2781
S'887'
p2782
sS'economia'
p2783
S'726'
p2784
sS'gallerie'
p2785
S'421'
p2786
sS'esteri'
p2787
S'352'
p2788
sS'cronaca'
p2789
S'1109'
p2790
sS'sport'
p2791
S'1382'
p2792
sS'rubriche'
p2793
S'1182'
p2794
sa(dp2795
S'tecnologia'
p2796
S'242'
p2797
sS'regione'
p2798
S'183'
p2799
sS'scienza'
p2800
S'286'
p2801
sS'persone'
p2802
S'501'
p2803
sS'media'
p2804
S'168'
p2805
sS'politica'
p2806
S'203'
p2807
sS'curiosita'
p2808
S'378'
p2809
sS'spettacolo'
p2810
S'653'
p2811
sS'economia'
p2812
S'532'
p2813
sS'gallerie'
p2814
S'358'
p2815
sS'esteri'
p2816
S'1065'
p2817
sS'cronaca'
p2818
S'1587'
p2819
sS'sport'
p2820
S'982'
p2821
sS'rubriche'
p2822
S'1243'
p2823
sa(dp2824
S'tecnologia'
p2825
S'189'
p2826
sS'scienza'
p2827
S'245'
p2828
sS'persone'
p2829
S'473'
p2830
sS'politica'
p2831
S'210'
p2832
sS'curiosita'
p2833
S'128'
p2834
sS'spettacolo'
p2835
S'474'
p2836
sS'economia'
p2837
S'569'
p2838
sS'gallerie'
p2839
S'376'
p2840
sS'salute'
p2841
S'113'
p2842
sS'monaco'
p2843
S'110'
p2844
sS'esteri'
p2845
S'1206'
p2846
sS'cronaca'
p2847
S'1063'
p2848
sS'sport'
p2849
S'541'
p2850
sS'rubriche'
p2851
S'1094'
p2852
sa(dp2853
S'tecnologia'
p2854
S'155'
p2855
sS'regione'
p2856
S'139'
p2857
sS'scienza'
p2858
S'283'
p2859
sS'persone'
p2860
S'454'
p2861
sS'media'
p2862
S'119'
p2863
sS'politica'
p2864
S'183'
p2865
sS'spettacolo'
p2866
S'489'
p2867
sS'economia'
p2868
S'690'
p2869
sS'gallerie'
p2870
S'517'
p2871
sS'salute'
p2872
S'110'
p2873
sS'esteri'
p2874
S'1429'
p2875
sS'cronaca'
p2876
S'846'
p2877
sS'sport'
p2878
S'624'
p2879
sS'rubriche'
p2880
S'1186'
p2881
sa(dp2882
S'tecnologia'
p2883
S'131'
p2884
sS'regione'
p2885
S'107'
p2886
sS'scienza'
p2887
S'327'
p2888
sS'persone'
p2889
S'407'
p2890
sS'politica'
p2891
S'216'
p2892
sS'spettacolo'
p2893
S'425'
p2894
sS'economia'
p2895
S'401'
p2896
sS'gallerie'
p2897
S'321'
p2898
sS'salute'
p2899
S'95'
p2900
sS'motori'
p2901
S'134'
p2902
sS'esteri'
p2903
S'1012'
p2904
sS'cronaca'
p2905
S'835'
p2906
sS'sport'
p2907
S'869'
p2908
sS'rubriche'
p2909
S'1086'
p2910
sa(dp2911
S'tecnologia'
p2912
S'127'
p2913
sS'scienza'
p2914
S'246'
p2915
sS'persone'
p2916
S'404'
p2917
sS'media'
p2918
S'126'
p2919
sS'politica'
p2920
S'214'
p2921
sS'spettacolo'
p2922
S'613'
p2923
sS'economia'
p2924
S'353'
p2925
sS'gallerie'
p2926
S'271'
p2927
sS'salute'
p2928
S'138'
p2929
sS'motori'
p2930
S'154'
p2931
sS'esteri'
p2932
S'917'
p2933
sS'cronaca'
p2934
S'1072'
p2935
sS'sport'
p2936
S'1376'
p2937
sS'rubriche'
p2938
S'1168'
p2939
sa(dp2940
S'tecnologia'
p2941
S'151'
p2942
sS'scienza'
p2943
S'217'
p2944
sS'persone'
p2945
S'621'
p2946
sS'media'
p2947
S'187'
p2948
sS'politica'
p2949
S'280'
p2950
sS'spettacolo'
p2951
S'663'
p2952
sS'economia'
p2953
S'489'
p2954
sS'gallerie'
p2955
S'359'
p2956
sS'salute'
p2957
S'146'
p2958
sS'motori'
p2959
S'217'
p2960
sS'esteri'
p2961
S'672'
p2962
sS'cronaca'
p2963
S'889'
p2964
sS'sport'
p2965
S'1251'
p2966
sS'rubriche'
p2967
S'993'
p2968
sa(dp2969
S'tecnologia'
p2970
S'228'
p2971
sS'scienza'
p2972
S'258'
p2973
sS'persone'
p2974
S'526'
p2975
sS'media'
p2976
S'126'
p2977
sS'politica'
p2978
S'227'
p2979
sS'spettacolo'
p2980
S'553'
p2981
sS'economia'
p2982
S'554'
p2983
sS'gallerie'
p2984
S'289'
p2985
sS'salute'
p2986
S'224'
p2987
sS'motori'
p2988
S'209'
p2989
sS'esteri'
p2990
S'536'
p2991
sS'cronaca'
p2992
S'884'
p2993
sS'sport'
p2994
S'712'
p2995
sS'rubriche'
p2996
S'870'
p2997
sa(dp2998
S'tecnologia'
p2999
S'98'
p3000
sS'regione'
p3001
S'99'
p3002
sS'scienza'
p3003
S'319'
p3004
sS'persone'
p3005
S'562'
p3006
sS'politica'
p3007
S'295'
p3008
sS'spettacolo'
p3009
S'390'
p3010
sS'economia'
p3011
S'506'
p3012
sS'gallerie'
p3013
S'427'
p3014
sS'salute'
p3015
S'156'
p3016
sS'motori'
p3017
S'170'
p3018
sS'esteri'
p3019
S'497'
p3020
sS'cronaca'
p3021
S'678'
p3022
sS'sport'
p3023
S'586'
p3024
sS'rubriche'
p3025
S'845'
p3026
sa(dp3027
S'tecnologia'
p3028
S'134'
p3029
sS'scuola'
p3030
S'85'
p3031
sS'scienza'
p3032
S'329'
p3033
sS'persone'
p3034
S'487'
p3035
sS'politica'
p3036
S'238'
p3037
sS'prodotto'
p3038
S'82'
p3039
sS'spettacolo'
p3040
S'478'
p3041
sS'economia'
p3042
S'721'
p3043
sS'gallerie'
p3044
S'215'
p3045
sS'salute'
p3046
S'191'
p3047
sS'esteri'
p3048
S'482'
p3049
sS'cronaca'
p3050
S'885'
p3051
sS'sport'
p3052
S'628'
p3053
sS'rubriche'
p3054
S'1000'
p3055
sa(dp3056
S'tecnologia'
p3057
S'150'
p3058
sS'scienza'
p3059
S'293'
p3060
sS'persone'
p3061
S'385'
p3062
sS'politica'
p3063
S'263'
p3064
sS'prodotto'
p3065
S'128'
p3066
sS'spettacolo'
p3067
S'430'
p3068
sS'economia'
p3069
S'740'
p3070
sS'gallerie'
p3071
S'269'
p3072
sS'salute'
p3073
S'87'
p3074
sS'motori'
p3075
S'117'
p3076
sS'esteri'
p3077
S'492'
p3078
sS'cronaca'
p3079
S'913'
p3080
sS'sport'
p3081
S'702'
p3082
sS'rubriche'
p3083
S'904'
p3084
sa(dp3085
S'tecnologia'
p3086
S'140'
p3087
sS'scienza'
p3088
S'374'
p3089
sS'persone'
p3090
S'526'
p3091
sS'politica'
p3092
S'261'
p3093
sS'prodotto'
p3094
S'144'
p3095
sS'spettacolo'
p3096
S'416'
p3097
sS'economia'
p3098
S'662'
p3099
sS'gallerie'
p3100
S'337'
p3101
sS'salute'
p3102
S'128'
p3103
sS'motori'
p3104
S'120'
p3105
sS'esteri'
p3106
S'431'
p3107
sS'cronaca'
p3108
S'1165'
p3109
sS'sport'
p3110
S'1123'
p3111
sS'rubriche'
p3112
S'947'
p3113
sa(dp3114
S'tecnologia'
p3115
S'209'
p3116
sS'scienza'
p3117
S'216'
p3118
sS'persone'
p3119
S'562'
p3120
sS'media'
p3121
S'141'
p3122
sS'politica'
p3123
S'309'
p3124
sS'prodotto'
p3125
S'99'
p3126
sS'spettacolo'
p3127
S'494'
p3128
sS'economia'
p3129
S'508'
p3130
sS'gallerie'
p3131
S'422'
p3132
sS'motori'
p3133
S'146'
p3134
sS'esteri'
p3135
S'565'
p3136
sS'cronaca'
p3137
S'1162'
p3138
sS'sport'
p3139
S'1225'
p3140
sS'rubriche'
p3141
S'1180'
p3142
sa(dp3143
S'tecnologia'
p3144
S'148'
p3145
sS'scienza'
p3146
S'289'
p3147
sS'persone'
p3148
S'495'
p3149
sS'media'
p3150
S'89'
p3151
sS'politica'
p3152
S'276'
p3153
sS'spettacolo'
p3154
S'387'
p3155
sS'economia'
p3156
S'589'
p3157
sS'gallerie'
p3158
S'314'
p3159
sS'salute'
p3160
S'148'
p3161
sS'motori'
p3162
S'128'
p3163
sS'esteri'
p3164
S'462'
p3165
sS'cronaca'
p3166
S'990'
p3167
sS'sport'
p3168
S'1202'
p3169
sS'rubriche'
p3170
S'1031'
p3171
sa(dp3172
S'tecnologia'
p3173
S'145'
p3174
sS'scienza'
p3175
S'344'
p3176
sS'persone'
p3177
S'462'
p3178
sS'politica'
p3179
S'292'
p3180
sS'prodotto'
p3181
S'103'
p3182
sS'spettacolo'
p3183
S'465'
p3184
sS'economia'
p3185
S'637'
p3186
sS'gallerie'
p3187
S'275'
p3188
sS'salute'
p3189
S'121'
p3190
sS'motori'
p3191
S'115'
p3192
sS'esteri'
p3193
S'394'
p3194
sS'cronaca'
p3195
S'1011'
p3196
sS'sport'
p3197
S'763'
p3198
sS'rubriche'
p3199
S'875'
p3200
sa(dp3201
S'tecnologia'
p3202
S'224'
p3203
sS'regione'
p3204
S'112'
p3205
sS'scienza'
p3206
S'305'
p3207
sS'persone'
p3208
S'471'
p3209
sS'politica'
p3210
S'387'
p3211
sS'spettacolo'
p3212
S'447'
p3213
sS'economia'
p3214
S'602'
p3215
sS'gallerie'
p3216
S'318'
p3217
sS'salute'
p3218
S'91'
p3219
sS'motori'
p3220
S'94'
p3221
sS'esteri'
p3222
S'287'
p3223
sS'cronaca'
p3224
S'863'
p3225
sS'sport'
p3226
S'899'
p3227
sS'rubriche'
p3228
S'1071'
p3229
sa(dp3230
S'tecnologia'
p3231
S'298'
p3232
sS'regione'
p3233
S'139'
p3234
sS'scienza'
p3235
S'304'
p3236
sS'persone'
p3237
S'480'
p3238
sS'media'
p3239
S'135'
p3240
sS'politica'
p3241
S'319'
p3242
sS'spettacolo'
p3243
S'511'
p3244
sS'economia'
p3245
S'823'
p3246
sS'gallerie'
p3247
S'365'
p3248
sS'salute'
p3249
S'146'
p3250
sS'esteri'
p3251
S'288'
p3252
sS'cronaca'
p3253
S'869'
p3254
sS'sport'
p3255
S'667'
p3256
sS'rubriche'
p3257
S'949'
p3258
sa(dp3259
S'tecnologia'
p3260
S'131'
p3261
sS'scuola'
p3262
S'149'
p3263
sS'scienza'
p3264
S'204'
p3265
sS'persone'
p3266
S'480'
p3267
sS'politica'
p3268
S'206'
p3269
sS'prodotto'
p3270
S'112'
p3271
sS'spettacolo'
p3272
S'466'
p3273
sS'economia'
p3274
S'802'
p3275
sS'gallerie'
p3276
S'271'
p3277
sS'motori'
p3278
S'102'
p3279
sS'esteri'
p3280
S'261'
p3281
sS'cronaca'
p3282
S'1048'
p3283
sS'sport'
p3284
S'737'
p3285
sS'rubriche'
p3286
S'985'
p3287
sa(dp3288
S'tecnologia'
p3289
S'134'
p3290
sS'regione'
p3291
S'97'
p3292
sS'scienza'
p3293
S'254'
p3294
sS'persone'
p3295
S'430'
p3296
sS'politica'
p3297
S'229'
p3298
sS'spettacolo'
p3299
S'413'
p3300
sS'economia'
p3301
S'489'
p3302
sS'gallerie'
p3303
S'244'
p3304
sS'salute'
p3305
S'107'
p3306
sS'motori'
p3307
S'100'
p3308
sS'esteri'
p3309
S'329'
p3310
sS'cronaca'
p3311
S'869'
p3312
sS'sport'
p3313
S'1165'
p3314
sS'rubriche'
p3315
S'918'
p3316
sa(dp3317
S'tecnologia'
p3318
S'168'
p3319
sS'scienza'
p3320
S'281'
p3321
sS'persone'
p3322
S'388'
p3323
sS'media'
p3324
S'123'
p3325
sS'politica'
p3326
S'329'
p3327
sS'prodotto'
p3328
S'114'
p3329
sS'spettacolo'
p3330
S'510'
p3331
sS'economia'
p3332
S'601'
p3333
sS'gallerie'
p3334
S'249'
p3335
sS'motori'
p3336
S'108'
p3337
sS'esteri'
p3338
S'475'
p3339
sS'cronaca'
p3340
S'932'
p3341
sS'sport'
p3342
S'1655'
p3343
sS'rubriche'
p3344
S'1122'
p3345
sa(dp3346
S'tecnologia'
p3347
S'149'
p3348
sS'regione'
p3349
S'95'
p3350
sS'scienza'
p3351
S'282'
p3352
sS'persone'
p3353
S'517'
p3354
sS'media'
p3355
S'100'
p3356
sS'politica'
p3357
S'280'
p3358
sS'spettacolo'
p3359
S'499'
p3360
sS'economia'
p3361
S'838'
p3362
sS'gallerie'
p3363
S'494'
p3364
sS'motori'
p3365
S'96'
p3366
sS'esteri'
p3367
S'687'
p3368
sS'cronaca'
p3369
S'875'
p3370
sS'sport'
p3371
S'1080'
p3372
sS'rubriche'
p3373
S'1118'
p3374
sa(dp3375
S'tecnologia'
p3376
S'149'
p3377
sS'scienza'
p3378
S'283'
p3379
sS'persone'
p3380
S'468'
p3381
sS'media'
p3382
S'107'
p3383
sS'politica'
p3384
S'297'
p3385
sS'spettacolo'
p3386
S'555'
p3387
sS'economia'
p3388
S'623'
p3389
sS'gallerie'
p3390
S'273'
p3391
sS'salute'
p3392
S'100'
p3393
sS'moda'
p3394
S'110'
p3395
sS'esteri'
p3396
S'477'
p3397
sS'cronaca'
p3398
S'861'
p3399
sS'sport'
p3400
S'819'
p3401
sS'rubriche'
p3402
S'1075'
p3403
sa(dp3404
S'tecnologia'
p3405
S'183'
p3406
sS'scienza'
p3407
S'206'
p3408
sS'persone'
p3409
S'472'
p3410
sS'politica'
p3411
S'248'
p3412
sS'prodotto'
p3413
S'88'
p3414
sS'spettacolo'
p3415
S'433'
p3416
sS'economia'
p3417
S'791'
p3418
sS'gallerie'
p3419
S'269'
p3420
sS'salute'
p3421
S'111'
p3422
sS'motori'
p3423
S'91'
p3424
sS'esteri'
p3425
S'334'
p3426
sS'cronaca'
p3427
S'802'
p3428
sS'sport'
p3429
S'702'
p3430
sS'rubriche'
p3431
S'1035'
p3432
sa(dp3433
S'tecnologia'
p3434
S'148'
p3435
sS'scienza'
p3436
S'248'
p3437
sS'persone'
p3438
S'504'
p3439
sS'media'
p3440
S'85'
p3441
sS'politica'
p3442
S'366'
p3443
sS'prodotto'
p3444
S'144'
p3445
sS'spettacolo'
p3446
S'407'
p3447
sS'economia'
p3448
S'826'
p3449
sS'gallerie'
p3450
S'319'
p3451
sS'salute'
p3452
S'102'
p3453
sS'esteri'
p3454
S'287'
p3455
sS'cronaca'
p3456
S'971'
p3457
sS'sport'
p3458
S'825'
p3459
sS'rubriche'
p3460
S'1314'
p3461
sa(dp3462
S'tecnologia'
p3463
S'172'
p3464
sS'regione'
p3465
S'84'
p3466
sS'scienza'
p3467
S'255'
p3468
sS'persone'
p3469
S'477'
p3470
sS'media'
p3471
S'82'
p3472
sS'politica'
p3473
S'356'
p3474
sS'prodotto'
p3475
S'130'
p3476
sS'spettacolo'
p3477
S'493'
p3478
sS'economia'
p3479
S'794'
p3480
sS'gallerie'
p3481
S'277'
p3482
sS'esteri'
p3483
S'200'
p3484
sS'cronaca'
p3485
S'847'
p3486
sS'sport'
p3487
S'788'
p3488
sS'rubriche'
p3489
S'1211'
p3490
sa(dp3491
S'tecnologia'
p3492
S'173'
p3493
sS'regione'
p3494
S'84'
p3495
sS'scienza'
p3496
S'264'
p3497
sS'persone'
p3498
S'408'
p3499
sS'media'
p3500
S'113'
p3501
sS'politica'
p3502
S'551'
p3503
sS'prodotto'
p3504
S'175'
p3505
sS'spettacolo'
p3506
S'506'
p3507
sS'economia'
p3508
S'498'
p3509
sS'gallerie'
p3510
S'261'
p3511
sS'esteri'
p3512
S'214'
p3513
sS'cronaca'
p3514
S'755'
p3515
sS'sport'
p3516
S'1062'
p3517
sS'rubriche'
p3518
S'1854'
p3519
sasS'3'
p3520
(lp3521
(dp3522
S'tecnologia'
p3523
S'464'
p3524
sS'regione'
p3525
S'164'
p3526
sS'scienza'
p3527
S'248'
p3528
sS'persone'
p3529
S'432'
p3530
sS'media'
p3531
S'102'
p3532
sS'politica'
p3533
S'241'
p3534
sS'spettacolo'
p3535
S'656'
p3536
sS'economia'
p3537
S'350'
p3538
sS'gallerie'
p3539
S'252'
p3540
sS'motori'
p3541
S'163'
p3542
sS'esteri'
p3543
S'371'
p3544
sS'cronaca'
p3545
S'1062'
p3546
sS'sport'
p3547
S'981'
p3548
sS'rubriche'
p3549
S'1003'
p3550
sa(dp3551
S'tecnologia'
p3552
S'298'
p3553
sS'regione'
p3554
S'148'
p3555
sS'scienza'
p3556
S'189'
p3557
sS'persone'
p3558
S'503'
p3559
sS'politica'
p3560
S'245'
p3561
sS'spettacolo'
p3562
S'467'
p3563
sS'economia'
p3564
S'670'
p3565
sS'gallerie'
p3566
S'172'
p3567
sS'motori'
p3568
S'116'
p3569
sS'moda'
p3570
S'134'
p3571
sS'esteri'
p3572
S'347'
p3573
sS'cronaca'
p3574
S'871'
p3575
sS'sport'
p3576
S'1067'
p3577
sS'rubriche'
p3578
S'955'
p3579
sa(dp3580
S'tecnologia'
p3581
S'211'
p3582
sS'regione'
p3583
S'178'
p3584
sS'scienza'
p3585
S'236'
p3586
sS'persone'
p3587
S'539'
p3588
sS'politica'
p3589
S'287'
p3590
sS'spettacolo'
p3591
S'473'
p3592
sS'economia'
p3593
S'729'
p3594
sS'gallerie'
p3595
S'362'
p3596
sS'salute'
p3597
S'117'
p3598
sS'moda'
p3599
S'142'
p3600
sS'esteri'
p3601
S'326'
p3602
sS'cronaca'
p3603
S'1087'
p3604
sS'sport'
p3605
S'889'
p3606
sS'rubriche'
p3607
S'1101'
p3608
sa(dp3609
S'tecnologia'
p3610
S'163'
p3611
sS'notizia'
p3612
S'114'
p3613
sS'regione'
p3614
S'83'
p3615
sS'scienza'
p3616
S'282'
p3617
sS'persone'
p3618
S'517'
p3619
sS'politica'
p3620
S'321'
p3621
sS'spettacolo'
p3622
S'939'
p3623
sS'economia'
p3624
S'572'
p3625
sS'gallerie'
p3626
S'359'
p3627
sS'salute'
p3628
S'141'
p3629
sS'esteri'
p3630
S'299'
p3631
sS'cronaca'
p3632
S'1008'
p3633
sS'sport'
p3634
S'790'
p3635
sS'rubriche'
p3636
S'1034'
p3637
sa(dp3638
S'tecnologia'
p3639
S'192'
p3640
sS'regione'
p3641
S'96'
p3642
sS'scienza'
p3643
S'249'
p3644
sS'persone'
p3645
S'321'
p3646
sS'media'
p3647
S'80'
p3648
sS'politica'
p3649
S'267'
p3650
sS'spettacolo'
p3651
S'691'
p3652
sS'economia'
p3653
S'499'
p3654
sS'gallerie'
p3655
S'528'
p3656
sS'salute'
p3657
S'120'
p3658
sS'esteri'
p3659
S'323'
p3660
sS'cronaca'
p3661
S'1197'
p3662
sS'sport'
p3663
S'811'
p3664
sS'rubriche'
p3665
S'886'
p3666
sa(dp3667
S'tecnologia'
p3668
S'142'
p3669
sS'regione'
p3670
S'79'
p3671
sS'scienza'
p3672
S'269'
p3673
sS'persone'
p3674
S'352'
p3675
sS'politica'
p3676
S'225'
p3677
sS'spettacolo'
p3678
S'596'
p3679
sS'economia'
p3680
S'445'
p3681
sS'gallerie'
p3682
S'356'
p3683
sS'motori'
p3684
S'67'
p3685
sS'esteri'
p3686
S'372'
p3687
sS'viaggi'
p3688
S'134'
p3689
sS'cronaca'
p3690
S'873'
p3691
sS'sport'
p3692
S'719'
p3693
sS'rubriche'
p3694
S'849'
p3695
sa(dp3696
S'tecnologia'
p3697
S'115'
p3698
sS'scienza'
p3699
S'325'
p3700
sS'persone'
p3701
S'387'
p3702
sS'media'
p3703
S'98'
p3704
sS'politica'
p3705
S'192'
p3706
sS'spettacolo'
p3707
S'518'
p3708
sS'economia'
p3709
S'489'
p3710
sS'gallerie'
p3711
S'369'
p3712
sS'salute'
p3713
S'168'
p3714
sS'esteri'
p3715
S'338'
p3716
sS'viaggi'
p3717
S'92'
p3718
sS'cronaca'
p3719
S'824'
p3720
sS'sport'
p3721
S'1011'
p3722
sS'rubriche'
p3723
S'887'
p3724
sa(dp3725
S'tecnologia'
p3726
S'153'
p3727
sS'scienza'
p3728
S'228'
p3729
sS'persone'
p3730
S'477'
p3731
sS'media'
p3732
S'127'
p3733
sS'politica'
p3734
S'372'
p3735
sS'spettacolo'
p3736
S'538'
p3737
sS'economia'
p3738
S'311'
p3739
sS'gallerie'
p3740
S'354'
p3741
sS'salute'
p3742
S'135'
p3743
sS'motori'
p3744
S'324'
p3745
sS'esteri'
p3746
S'332'
p3747
sS'cronaca'
p3748
S'720'
p3749
sS'sport'
p3750
S'1513'
p3751
sS'rubriche'
p3752
S'849'
p3753
sa(dp3754
S'tecnologia'
p3755
S'230'
p3756
sS'scienza'
p3757
S'255'
p3758
sS'persone'
p3759
S'589'
p3760
sS'media'
p3761
S'111'
p3762
sS'politica'
p3763
S'321'
p3764
sS'spettacolo'
p3765
S'661'
p3766
sS'economia'
p3767
S'449'
p3768
sS'gallerie'
p3769
S'258'
p3770
sS'salute'
p3771
S'107'
p3772
sS'motori'
p3773
S'132'
p3774
sS'esteri'
p3775
S'304'
p3776
sS'cronaca'
p3777
S'835'
p3778
sS'sport'
p3779
S'1208'
p3780
sS'rubriche'
p3781
S'1066'
p3782
sa(dp3783
S'tecnologia'
p3784
S'221'
p3785
sS'scienza'
p3786
S'329'
p3787
sS'persone'
p3788
S'560'
p3789
sS'media'
p3790
S'130'
p3791
sS'politica'
p3792
S'316'
p3793
sS'spettacolo'
p3794
S'776'
p3795
sS'economia'
p3796
S'555'
p3797
sS'gallerie'
p3798
S'327'
p3799
sS'salute'
p3800
S'76'
p3801
sS'motori'
p3802
S'99'
p3803
sS'esteri'
p3804
S'583'
p3805
sS'cronaca'
p3806
S'774'
p3807
sS'sport'
p3808
S'845'
p3809
sS'rubriche'
p3810
S'867'
p3811
sa(dp3812
S'tecnologia'
p3813
S'197'
p3814
sS'scuola'
p3815
S'143'
p3816
sS'scienza'
p3817
S'218'
p3818
sS'persone'
p3819
S'364'
p3820
sS'politica'
p3821
S'298'
p3822
sS'spettacolo'
p3823
S'557'
p3824
sS'economia'
p3825
S'477'
p3826
sS'gallerie'
p3827
S'270'
p3828
sS'salute'
p3829
S'171'
p3830
sS'moda'
p3831
S'108'
p3832
sS'esteri'
p3833
S'308'
p3834
sS'cronaca'
p3835
S'756'
p3836
sS'sport'
p3837
S'745'
p3838
sS'rubriche'
p3839
S'903'
p3840
sa(dp3841
S'tecnologia'
p3842
S'183'
p3843
sS'scuola'
p3844
S'260'
p3845
sS'scienza'
p3846
S'234'
p3847
sS'persone'
p3848
S'385'
p3849
sS'politica'
p3850
S'272'
p3851
sS'prodotto'
p3852
S'146'
p3853
sS'spettacolo'
p3854
S'488'
p3855
sS'economia'
p3856
S'418'
p3857
sS'gallerie'
p3858
S'264'
p3859
sS'motori'
p3860
S'122'
p3861
sS'esteri'
p3862
S'482'
p3863
sS'cronaca'
p3864
S'920'
p3865
sS'sport'
p3866
S'1260'
p3867
sS'rubriche'
p3868
S'1062'
p3869
sa(dp3870
S'tecnologia'
p3871
S'170'
p3872
sS'scuola'
p3873
S'199'
p3874
sS'scienza'
p3875
S'282'
p3876
sS'persone'
p3877
S'365'
p3878
sS'politica'
p3879
S'277'
p3880
sS'prodotto'
p3881
S'103'
p3882
sS'spettacolo'
p3883
S'472'
p3884
sS'economia'
p3885
S'411'
p3886
sS'gallerie'
p3887
S'290'
p3888
sS'salute'
p3889
S'93'
p3890
sS'esteri'
p3891
S'416'
p3892
sS'cronaca'
p3893
S'969'
p3894
sS'sport'
p3895
S'1097'
p3896
sS'rubriche'
p3897
S'1016'
p3898
sa(dp3899
S'tecnologia'
p3900
S'180'
p3901
sS'scuola'
p3902
S'181'
p3903
sS'scienza'
p3904
S'225'
p3905
sS'persone'
p3906
S'450'
p3907
sS'politica'
p3908
S'251'
p3909
sS'spettacolo'
p3910
S'435'
p3911
sS'economia'
p3912
S'405'
p3913
sS'gallerie'
p3914
S'322'
p3915
sS'salute'
p3916
S'119'
p3917
sS'motori'
p3918
S'113'
p3919
sS'esteri'
p3920
S'472'
p3921
sS'cronaca'
p3922
S'1242'
p3923
sS'sport'
p3924
S'1433'
p3925
sS'rubriche'
p3926
S'1054'
p3927
sa(dp3928
S'tecnologia'
p3929
S'208'
p3930
sS'scienza'
p3931
S'279'
p3932
sS'persone'
p3933
S'478'
p3934
sS'media'
p3935
S'144'
p3936
sS'politica'
p3937
S'270'
p3938
sS'spettacolo'
p3939
S'496'
p3940
sS'economia'
p3941
S'410'
p3942
sS'gallerie'
p3943
S'296'
p3944
sS'salute'
p3945
S'147'
p3946
sS'motori'
p3947
S'126'
p3948
sS'esteri'
p3949
S'405'
p3950
sS'cronaca'
p3951
S'1000'
p3952
sS'sport'
p3953
S'1296'
p3954
sS'rubriche'
p3955
S'1186'
p3956
sa(dp3957
S'tecnologia'
p3958
S'137'
p3959
sS'scienza'
p3960
S'294'
p3961
sS'persone'
p3962
S'491'
p3963
sS'media'
p3964
S'110'
p3965
sS'politica'
p3966
S'212'
p3967
sS'spettacolo'
p3968
S'537'
p3969
sS'economia'
p3970
S'545'
p3971
sS'gallerie'
p3972
S'430'
p3973
sS'salute'
p3974
S'105'
p3975
sS'motori'
p3976
S'142'
p3977
sS'esteri'
p3978
S'300'
p3979
sS'cronaca'
p3980
S'990'
p3981
sS'sport'
p3982
S'1002'
p3983
sS'rubriche'
p3984
S'1011'
p3985
sa(dp3986
S'tecnologia'
p3987
S'174'
p3988
sS'scienza'
p3989
S'356'
p3990
sS'persone'
p3991
S'539'
p3992
sS'media'
p3993
S'100'
p3994
sS'politica'
p3995
S'360'
p3996
sS'spettacolo'
p3997
S'625'
p3998
sS'economia'
p3999
S'571'
p4000
sS'gallerie'
p4001
S'283'
p4002
sS'salute'
p4003
S'105'
p4004
sS'motori'
p4005
S'104'
p4006
sS'esteri'
p4007
S'268'
p4008
sS'cronaca'
p4009
S'941'
p4010
sS'sport'
p4011
S'930'
p4012
sS'rubriche'
p4013
S'1056'
p4014
sa(dp4015
S'tecnologia'
p4016
S'179'
p4017
sS'scienza'
p4018
S'334'
p4019
sS'persone'
p4020
S'386'
p4021
sS'politica'
p4022
S'315'
p4023
sS'spettacolo'
p4024
S'474'
p4025
sS'economia'
p4026
S'513'
p4027
sS'gallerie'
p4028
S'229'
p4029
sS'salute'
p4030
S'120'
p4031
sS'motori'
p4032
S'97'
p4033
sS'esteri'
p4034
S'621'
p4035
sS'cucina'
p4036
S'79'
p4037
sS'cronaca'
p4038
S'1313'
p4039
sS'sport'
p4040
S'844'
p4041
sS'rubriche'
p4042
S'1079'
p4043
sa(dp4044
S'tecnologia'
p4045
S'186'
p4046
sS'regione'
p4047
S'93'
p4048
sS'scienza'
p4049
S'351'
p4050
sS'persone'
p4051
S'669'
p4052
sS'festa'
p4053
S'81'
p4054
sS'politica'
p4055
S'275'
p4056
sS'spettacolo'
p4057
S'403'
p4058
sS'economia'
p4059
S'425'
p4060
sS'gallerie'
p4061
S'318'
p4062
sS'salute'
p4063
S'93'
p4064
sS'esteri'
p4065
S'635'
p4066
sS'cronaca'
p4067
S'953'
p4068
sS'sport'
p4069
S'1398'
p4070
sS'rubriche'
p4071
S'1263'
p4072
sa(dp4073
S'tecnologia'
p4074
S'381'
p4075
sS'regione'
p4076
S'72'
p4077
sS'scienza'
p4078
S'679'
p4079
sS'persone'
p4080
S'561'
p4081
sS'politica'
p4082
S'253'
p4083
sS'spettacolo'
p4084
S'561'
p4085
sS'economia'
p4086
S'600'
p4087
sS'gallerie'
p4088
S'380'
p4089
sS'salute'
p4090
S'95'
p4091
sS'motori'
p4092
S'79'
p4093
sS'esteri'
p4094
S'666'
p4095
sS'cronaca'
p4096
S'1013'
p4097
sS'sport'
p4098
S'1333'
p4099
sS'rubriche'
p4100
S'1227'
p4101
sa(dp4102
S'tecnologia'
p4103
S'210'
p4104
sS'regione'
p4105
S'96'
p4106
sS'scienza'
p4107
S'340'
p4108
sS'persone'
p4109
S'406'
p4110
sS'media'
p4111
S'77'
p4112
sS'politica'
p4113
S'249'
p4114
sS'spettacolo'
p4115
S'503'
p4116
sS'economia'
p4117
S'608'
p4118
sS'gallerie'
p4119
S'275'
p4120
sS'moda'
p4121
S'126'
p4122
sS'esteri'
p4123
S'556'
p4124
sS'cronaca'
p4125
S'975'
p4126
sS'sport'
p4127
S'1307'
p4128
sS'rubriche'
p4129
S'1191'
p4130
sa(dp4131
S'tecnologia'
p4132
S'221'
p4133
sS'regione'
p4134
S'128'
p4135
sS'scienza'
p4136
S'216'
p4137
sS'persone'
p4138
S'403'
p4139
sS'media'
p4140
S'136'
p4141
sS'politica'
p4142
S'281'
p4143
sS'spettacolo'
p4144
S'554'
p4145
sS'economia'
p4146
S'516'
p4147
sS'gallerie'
p4148
S'577'
p4149
sS'motori'
p4150
S'118'
p4151
sS'esteri'
p4152
S'503'
p4153
sS'cronaca'
p4154
S'1050'
p4155
sS'sport'
p4156
S'1466'
p4157
sS'rubriche'
p4158
S'1267'
p4159
sa(dp4160
S'tecnologia'
p4161
S'165'
p4162
sS'regione'
p4163
S'106'
p4164
sS'scuola'
p4165
S'174'
p4166
sS'scienza'
p4167
S'226'
p4168
sS'persone'
p4169
S'491'
p4170
sS'politica'
p4171
S'237'
p4172
sS'spettacolo'
p4173
S'379'
p4174
sS'economia'
p4175
S'655'
p4176
sS'gallerie'
p4177
S'353'
p4178
sS'motori'
p4179
S'89'
p4180
sS'esteri'
p4181
S'345'
p4182
sS'cronaca'
p4183
S'1193'
p4184
sS'sport'
p4185
S'1231'
p4186
sS'rubriche'
p4187
S'942'
p4188
sa(dp4189
S'tecnologia'
p4190
S'203'
p4191
sS'scuola'
p4192
S'89'
p4193
sS'scienza'
p4194
S'352'
p4195
sS'persone'
p4196
S'640'
p4197
sS'media'
p4198
S'97'
p4199
sS'politica'
p4200
S'261'
p4201
sS'spettacolo'
p4202
S'689'
p4203
sS'economia'
p4204
S'581'
p4205
sS'gallerie'
p4206
S'319'
p4207
sS'salute'
p4208
S'111'
p4209
sS'esteri'
p4210
S'1014'
p4211
sS'cronaca'
p4212
S'1124'
p4213
sS'sport'
p4214
S'713'
p4215
sS'rubriche'
p4216
S'1152'
p4217
sa(dp4218
S'tecnologia'
p4219
S'131'
p4220
sS'regione'
p4221
S'107'
p4222
sS'scienza'
p4223
S'253'
p4224
sS'persone'
p4225
S'407'
p4226
sS'media'
p4227
S'101'
p4228
sS'politica'
p4229
S'285'
p4230
sS'spettacolo'
p4231
S'570'
p4232
sS'economia'
p4233
S'522'
p4234
sS'gallerie'
p4235
S'298'
p4236
sS'motori'
p4237
S'121'
p4238
sS'esteri'
p4239
S'1024'
p4240
sS'cronaca'
p4241
S'1161'
p4242
sS'sport'
p4243
S'663'
p4244
sS'rubriche'
p4245
S'1057'
p4246
sa(dp4247
S'tecnologia'
p4248
S'109'
p4249
sS'regione'
p4250
S'73'
p4251
sS'scienza'
p4252
S'203'
p4253
sS'persone'
p4254
S'363'
p4255
sS'politica'
p4256
S'332'
p4257
sS'spettacolo'
p4258
S'546'
p4259
sS'economia'
p4260
S'491'
p4261
sS'gallerie'
p4262
S'205'
p4263
sS'salute'
p4264
S'77'
p4265
sS'esteri'
p4266
S'1512'
p4267
sS'cronaca'
p4268
S'990'
p4269
sS'sport'
p4270
S'462'
p4271
sS'rubriche'
p4272
S'965'
p4273
sS'scuola'
p4274
S'64'
p4275
sa(dp4276
S'tecnologia'
p4277
S'95'
p4278
sS'regione'
p4279
S'50'
p4280
sS'scienza'
p4281
S'293'
p4282
sS'persone'
p4283
S'489'
p4284
sS'politica'
p4285
S'219'
p4286
sS'spettacolo'
p4287
S'383'
p4288
sS'economia'
p4289
S'392'
p4290
sS'gallerie'
p4291
S'237'
p4292
sS'salute'
p4293
S'120'
p4294
sS'motori'
p4295
S'56'
p4296
sS'esteri'
p4297
S'808'
p4298
sS'cronaca'
p4299
S'789'
p4300
sS'sport'
p4301
S'699'
p4302
sS'rubriche'
p4303
S'870'
p4304
sa(dp4305
S'tecnologia'
p4306
S'129'
p4307
sS'scienza'
p4308
S'215'
p4309
sS'persone'
p4310
S'340'
p4311
sS'politica'
p4312
S'309'
p4313
sS'prodotto'
p4314
S'50'
p4315
sS'spettacolo'
p4316
S'359'
p4317
sS'economia'
p4318
S'246'
p4319
sS'gallerie'
p4320
S'200'
p4321
sS'salute'
p4322
S'103'
p4323
sS'motori'
p4324
S'122'
p4325
sS'esteri'
p4326
S'437'
p4327
sS'cronaca'
p4328
S'899'
p4329
sS'sport'
p4330
S'1245'
p4331
sS'rubriche'
p4332
S'852'
p4333
sa(dp4334
S'tecnologia'
p4335
S'178'
p4336
sS'scienza'
p4337
S'147'
p4338
sS'persone'
p4339
S'297'
p4340
sS'media'
p4341
S'79'
p4342
sS'politica'
p4343
S'227'
p4344
sS'spettacolo'
p4345
S'396'
p4346
sS'economia'
p4347
S'282'
p4348
sS'gallerie'
p4349
S'197'
p4350
sS'salute'
p4351
S'85'
p4352
sS'motori'
p4353
S'196'
p4354
sS'esteri'
p4355
S'539'
p4356
sS'cronaca'
p4357
S'984'
p4358
sS'sport'
p4359
S'1299'
p4360
sS'rubriche'
p4361
S'961'
p4362
sa(dp4363
S'tecnologia'
p4364
S'164'
p4365
sS'regione'
p4366
S'72'
p4367
sS'scienza'
p4368
S'176'
p4369
sS'persone'
p4370
S'304'
p4371
sS'politica'
p4372
S'258'
p4373
sS'spettacolo'
p4374
S'525'
p4375
sS'economia'
p4376
S'541'
p4377
sS'gallerie'
p4378
S'229'
p4379
sS'salute'
p4380
S'75'
p4381
sS'motori'
p4382
S'226'
p4383
sS'esteri'
p4384
S'369'
p4385
sS'cronaca'
p4386
S'1058'
p4387
sS'sport'
p4388
S'891'
p4389
sS'rubriche'
p4390
S'905'
p4391
sa(dp4392
S'tecnologia'
p4393
S'264'
p4394
sS'scienza'
p4395
S'229'
p4396
sS'persone'
p4397
S'311'
p4398
sS'politica'
p4399
S'259'
p4400
sS'prodotto'
p4401
S'51'
p4402
sS'spettacolo'
p4403
S'393'
p4404
sS'economia'
p4405
S'481'
p4406
sS'gallerie'
p4407
S'156'
p4408
sS'salute'
p4409
S'134'
p4410
sS'motori'
p4411
S'87'
p4412
sS'esteri'
p4413
S'557'
p4414
sS'cronaca'
p4415
S'868'
p4416
sS'sport'
p4417
S'523'
p4418
sS'rubriche'
p4419
S'971'
p4420
sasS'2'
p4421
(lp4422
(dp4423
S'tecnologia'
p4424
S'215'
p4425
sS'scienza'
p4426
S'228'
p4427
sS'persone'
p4428
S'469'
p4429
sS'media'
p4430
S'109'
p4431
sS'politica'
p4432
S'528'
p4433
sS'prodotto'
p4434
S'168'
p4435
sS'spettacolo'
p4436
S'610'
p4437
sS'economia'
p4438
S'424'
p4439
sS'gallerie'
p4440
S'351'
p4441
sS'salute'
p4442
S'76'
p4443
sS'esteri'
p4444
S'331'
p4445
sS'cronaca'
p4446
S'685'
p4447
sS'sport'
p4448
S'1613'
p4449
sS'rubriche'
p4450
S'1244'
p4451
sa(dp4452
S'tecnologia'
p4453
S'193'
p4454
sS'scienza'
p4455
S'181'
p4456
sS'persone'
p4457
S'430'
p4458
sS'media'
p4459
S'157'
p4460
sS'politica'
p4461
S'337'
p4462
sS'prodotto'
p4463
S'100'
p4464
sS'spettacolo'
p4465
S'516'
p4466
sS'economia'
p4467
S'771'
p4468
sS'gallerie'
p4469
S'201'
p4470
sS'salute'
p4471
S'132'
p4472
sS'esteri'
p4473
S'260'
p4474
sS'cronaca'
p4475
S'792'
p4476
sS'sport'
p4477
S'1267'
p4478
sS'rubriche'
p4479
S'955'
p4480
sa(dp4481
S'tecnologia'
p4482
S'198'
p4483
sS'scienza'
p4484
S'280'
p4485
sS'persone'
p4486
S'640'
p4487
sS'media'
p4488
S'106'
p4489
sS'politica'
p4490
S'371'
p4491
sS'spettacolo'
p4492
S'623'
p4493
sS'economia'
p4494
S'624'
p4495
sS'gallerie'
p4496
S'316'
p4497
sS'salute'
p4498
S'199'
p4499
sS'motori'
p4500
S'154'
p4501
sS'esteri'
p4502
S'427'
p4503
sS'cronaca'
p4504
S'751'
p4505
sS'sport'
p4506
S'877'
p4507
sS'rubriche'
p4508
S'1234'
p4509
sa(dp4510
S'tecnologia'
p4511
S'183'
p4512
sS'scienza'
p4513
S'342'
p4514
sS'persone'
p4515
S'523'
p4516
sS'politica'
p4517
S'318'
p4518
sS'prodotto'
p4519
S'124'
p4520
sS'spettacolo'
p4521
S'787'
p4522
sS'economia'
p4523
S'583'
p4524
sS'gallerie'
p4525
S'255'
p4526
sS'salute'
p4527
S'123'
p4528
sS'motori'
p4529
S'142'
p4530
sS'esteri'
p4531
S'710'
p4532
sS'cronaca'
p4533
S'971'
p4534
sS'sport'
p4535
S'1034'
p4536
sS'rubriche'
p4537
S'1066'
p4538
sa(dp4539
S'tecnologia'
p4540
S'140'
p4541
sS'scienza'
p4542
S'305'
p4543
sS'persone'
p4544
S'499'
p4545
sS'media'
p4546
S'78'
p4547
sS'politica'
p4548
S'306'
p4549
sS'prodotto'
p4550
S'115'
p4551
sS'spettacolo'
p4552
S'613'
p4553
sS'economia'
p4554
S'675'
p4555
sS'gallerie'
p4556
S'394'
p4557
sS'salute'
p4558
S'109'
p4559
sS'esteri'
p4560
S'385'
p4561
sS'cronaca'
p4562
S'1130'
p4563
sS'sport'
p4564
S'950'
p4565
sS'rubriche'
p4566
S'1083'
p4567
sa(dp4568
S'tecnologia'
p4569
S'129'
p4570
sS'scienza'
p4571
S'254'
p4572
sS'persone'
p4573
S'495'
p4574
sS'politica'
p4575
S'272'
p4576
sS'prodotto'
p4577
S'101'
p4578
sS'spettacolo'
p4579
S'654'
p4580
sS'economia'
p4581
S'749'
p4582
sS'gallerie'
p4583
S'239'
p4584
sS'salute'
p4585
S'114'
p4586
sS'motori'
p4587
S'79'
p4588
sS'esteri'
p4589
S'346'
p4590
sS'cronaca'
p4591
S'886'
p4592
sS'sport'
p4593
S'938'
p4594
sS'rubriche'
p4595
S'935'
p4596
sa(dp4597
S'tecnologia'
p4598
S'155'
p4599
sS'scienza'
p4600
S'281'
p4601
sS'persone'
p4602
S'523'
p4603
sS'media'
p4604
S'93'
p4605
sS'politica'
p4606
S'267'
p4607
sS'prodotto'
p4608
S'101'
p4609
sS'spettacolo'
p4610
S'598'
p4611
sS'economia'
p4612
S'420'
p4613
sS'gallerie'
p4614
S'245'
p4615
sS'salute'
p4616
S'110'
p4617
sS'esteri'
p4618
S'310'
p4619
sS'cronaca'
p4620
S'947'
p4621
sS'sport'
p4622
S'1209'
p4623
sS'rubriche'
p4624
S'835'
p4625
sa(dp4626
S'tecnologia'
p4627
S'162'
p4628
sS'scienza'
p4629
S'220'
p4630
sS'persone'
p4631
S'459'
p4632
sS'media'
p4633
S'186'
p4634
sS'politica'
p4635
S'280'
p4636
sS'prodotto'
p4637
S'126'
p4638
sS'spettacolo'
p4639
S'630'
p4640
sS'economia'
p4641
S'490'
p4642
sS'gallerie'
p4643
S'354'
p4644
sS'salute'
p4645
S'112'
p4646
sS'esteri'
p4647
S'371'
p4648
sS'cronaca'
p4649
S'984'
p4650
sS'sport'
p4651
S'1701'
p4652
sS'rubriche'
p4653
S'1129'
p4654
sa(dp4655
S'tecnologia'
p4656
S'149'
p4657
sS'scienza'
p4658
S'214'
p4659
sS'persone'
p4660
S'401'
p4661
sS'media'
p4662
S'67'
p4663
sS'politica'
p4664
S'158'
p4665
sS'prodotto'
p4666
S'112'
p4667
sS'spettacolo'
p4668
S'709'
p4669
sS'economia'
p4670
S'812'
p4671
sS'gallerie'
p4672
S'453'
p4673
sS'salute'
p4674
S'66'
p4675
sS'esteri'
p4676
S'376'
p4677
sS'cronaca'
p4678
S'790'
p4679
sS'sport'
p4680
S'1073'
p4681
sS'rubriche'
p4682
S'754'
p4683
sa(dp4684
S'tecnologia'
p4685
S'174'
p4686
sS'scienza'
p4687
S'326'
p4688
sS'persone'
p4689
S'612'
p4690
sS'media'
p4691
S'101'
p4692
sS'politica'
p4693
S'235'
p4694
sS'prodotto'
p4695
S'132'
p4696
sS'spettacolo'
p4697
S'753'
p4698
sS'economia'
p4699
S'691'
p4700
sS'gallerie'
p4701
S'370'
p4702
sS'salute'
p4703
S'276'
p4704
sS'esteri'
p4705
S'283'
p4706
sS'cronaca'
p4707
S'830'
p4708
sS'sport'
p4709
S'753'
p4710
sS'rubriche'
p4711
S'971'
p4712
sa(dp4713
S'tecnologia'
p4714
S'174'
p4715
sS'scienza'
p4716
S'365'
p4717
sS'persone'
p4718
S'461'
p4719
sS'media'
p4720
S'129'
p4721
sS'politica'
p4722
S'208'
p4723
sS'spettacolo'
p4724
S'1223'
p4725
sS'economia'
p4726
S'536'
p4727
sS'gallerie'
p4728
S'462'
p4729
sS'salute'
p4730
S'153'
p4731
sS'motori'
p4732
S'134'
p4733
sS'esteri'
p4734
S'278'
p4735
sS'cronaca'
p4736
S'836'
p4737
sS'sport'
p4738
S'699'
p4739
sS'rubriche'
p4740
S'901'
p4741
sa(dp4742
S'tecnologia'
p4743
S'138'
p4744
sS'scienza'
p4745
S'301'
p4746
sS'persone'
p4747
S'315'
p4748
sS'media'
p4749
S'104'
p4750
sS'politica'
p4751
S'188'
p4752
sS'prodotto'
p4753
S'86'
p4754
sS'spettacolo'
p4755
S'1143'
p4756
sS'economia'
p4757
S'599'
p4758
sS'gallerie'
p4759
S'362'
p4760
sS'salute'
p4761
S'106'
p4762
sS'esteri'
p4763
S'309'
p4764
sS'cronaca'
p4765
S'792'
p4766
sS'sport'
p4767
S'536'
p4768
sS'rubriche'
p4769
S'792'
p4770
sa(dp4771
S'tecnologia'
p4772
S'157'
p4773
sS'scienza'
p4774
S'377'
p4775
sS'persone'
p4776
S'451'
p4777
sS'media'
p4778
S'61'
p4779
sS'politica'
p4780
S'338'
p4781
sS'spettacolo'
p4782
S'981'
p4783
sS'economia'
p4784
S'664'
p4785
sS'gallerie'
p4786
S'303'
p4787
sS'musica'
p4788
S'302'
p4789
sS'salute'
p4790
S'88'
p4791
sS'esteri'
p4792
S'268'
p4793
sS'cronaca'
p4794
S'916'
p4795
sS'sport'
p4796
S'639'
p4797
sS'rubriche'
p4798
S'826'
p4799
sa(dp4800
S'tecnologia'
p4801
S'149'
p4802
sS'scienza'
p4803
S'327'
p4804
sS'persone'
p4805
S'314'
p4806
sS'politica'
p4807
S'315'
p4808
sS'prodotto'
p4809
S'106'
p4810
sS'spettacolo'
p4811
S'1108'
p4812
sS'economia'
p4813
S'548'
p4814
sS'gallerie'
p4815
S'306'
p4816
sS'musica'
p4817
S'150'
p4818
sS'motori'
p4819
S'129'
p4820
sS'esteri'
p4821
S'429'
p4822
sS'cronaca'
p4823
S'1080'
p4824
sS'sport'
p4825
S'997'
p4826
sS'rubriche'
p4827
S'1124'
p4828
sa(dp4829
S'tecnologia'
p4830
S'272'
p4831
sS'finale'
p4832
S'127'
p4833
sS'scienza'
p4834
S'299'
p4835
sS'persone'
p4836
S'370'
p4837
sS'media'
p4838
S'138'
p4839
sS'politica'
p4840
S'240'
p4841
sS'prodotto'
p4842
S'131'
p4843
sS'spettacolo'
p4844
S'1578'
p4845
sS'economia'
p4846
S'573'
p4847
sS'gallerie'
p4848
S'284'
p4849
sS'esteri'
p4850
S'449'
p4851
sS'cronaca'
p4852
S'1065'
p4853
sS'sport'
p4854
S'1260'
p4855
sS'rubriche'
p4856
S'1370'
p4857
sa(dp4858
S'tecnologia'
p4859
S'152'
p4860
sS'scienza'
p4861
S'285'
p4862
sS'persone'
p4863
S'400'
p4864
sS'media'
p4865
S'119'
p4866
sS'politica'
p4867
S'304'
p4868
sS'prodotto'
p4869
S'101'
p4870
sS'spettacolo'
p4871
S'722'
p4872
sS'economia'
p4873
S'667'
p4874
sS'gallerie'
p4875
S'379'
p4876
sS'salute'
p4877
S'123'
p4878
sS'esteri'
p4879
S'519'
p4880
sS'cronaca'
p4881
S'984'
p4882
sS'sport'
p4883
S'929'
p4884
sS'rubriche'
p4885
S'1094'
p4886
sa(dp4887
S'tecnologia'
p4888
S'121'
p4889
sS'scienza'
p4890
S'291'
p4891
sS'persone'
p4892
S'342'
p4893
sS'media'
p4894
S'101'
p4895
sS'politica'
p4896
S'232'
p4897
sS'spettacolo'
p4898
S'535'
p4899
sS'economia'
p4900
S'674'
p4901
sS'gallerie'
p4902
S'228'
p4903
sS'salute'
p4904
S'138'
p4905
sS'motori'
p4906
S'131'
p4907
sS'esteri'
p4908
S'582'
p4909
sS'cronaca'
p4910
S'1014'
p4911
sS'sport'
p4912
S'773'
p4913
sS'rubriche'
p4914
S'969'
p4915
sa(dp4916
S'tecnologia'
p4917
S'157'
p4918
sS'regione'
p4919
S'95'
p4920
sS'scienza'
p4921
S'232'
p4922
sS'persone'
p4923
S'353'
p4924
sS'politica'
p4925
S'285'
p4926
sS'prodotto'
p4927
S'100'
p4928
sS'spettacolo'
p4929
S'445'
p4930
sS'economia'
p4931
S'669'
p4932
sS'gallerie'
p4933
S'594'
p4934
sS'salute'
p4935
S'175'
p4936
sS'esteri'
p4937
S'413'
p4938
sS'cronaca'
p4939
S'957'
p4940
sS'sport'
p4941
S'703'
p4942
sS'rubriche'
p4943
S'961'
p4944
sa(dp4945
S'tecnologia'
p4946
S'169'
p4947
sS'scienza'
p4948
S'254'
p4949
sS'regione'
p4950
S'279'
p4951
sS'persone'
p4952
S'407'
p4953
sS'politica'
p4954
S'225'
p4955
sS'spettacolo'
p4956
S'534'
p4957
sS'economia'
p4958
S'503'
p4959
sS'gallerie'
p4960
S'215'
p4961
sS'salute'
p4962
S'145'
p4963
sS'motori'
p4964
S'127'
p4965
sS'esteri'
p4966
S'460'
p4967
sS'cronaca'
p4968
S'1060'
p4969
sS'sport'
p4970
S'959'
p4971
sS'rubriche'
p4972
S'891'
p4973
sa(dp4974
S'tecnologia'
p4975
S'166'
p4976
sS'regione'
p4977
S'246'
p4978
sS'scienza'
p4979
S'270'
p4980
sS'persone'
p4981
S'455'
p4982
sS'media'
p4983
S'85'
p4984
sS'politica'
p4985
S'237'
p4986
sS'spettacolo'
p4987
S'600'
p4988
sS'economia'
p4989
S'596'
p4990
sS'gallerie'
p4991
S'230'
p4992
sS'salute'
p4993
S'108'
p4994
sS'esteri'
p4995
S'284'
p4996
sS'cronaca'
p4997
S'1049'
p4998
sS'sport'
p4999
S'1077'
p5000
sS'rubriche'
p5001
S'902'
p5002
sa(dp5003
S'tecnologia'
p5004
S'192'
p5005
sS'regione'
p5006
S'183'
p5007
sS'scuola'
p5008
S'250'
p5009
sS'scienza'
p5010
S'299'
p5011
sS'persone'
p5012
S'547'
p5013
sS'politica'
p5014
S'290'
p5015
sS'spettacolo'
p5016
S'599'
p5017
sS'economia'
p5018
S'1047'
p5019
sS'gallerie'
p5020
S'348'
p5021
sS'salute'
p5022
S'207'
p5023
sS'esteri'
p5024
S'343'
p5025
sS'cronaca'
p5026
S'1142'
p5027
sS'sport'
p5028
S'1104'
p5029
sS'rubriche'
p5030
S'1041'
p5031
sa(dp5032
S'tecnologia'
p5033
S'198'
p5034
sS'scuola'
p5035
S'149'
p5036
sS'scienza'
p5037
S'210'
p5038
sS'persone'
p5039
S'430'
p5040
sS'politica'
p5041
S'276'
p5042
sS'prodotto'
p5043
S'101'
p5044
sS'spettacolo'
p5045
S'505'
p5046
sS'economia'
p5047
S'573'
p5048
sS'gallerie'
p5049
S'339'
p5050
sS'salute'
p5051
S'197'
p5052
sS'esteri'
p5053
S'301'
p5054
sS'cronaca'
p5055
S'1200'
p5056
sS'sport'
p5057
S'1361'
p5058
sS'rubriche'
p5059
S'845'
p5060
sa(dp5061
S'tecnologia'
p5062
S'155'
p5063
sS'festa'
p5064
S'85'
p5065
sS'scienza'
p5066
S'228'
p5067
sS'persone'
p5068
S'372'
p5069
sS'politica'
p5070
S'224'
p5071
sS'prodotto'
p5072
S'93'
p5073
sS'spettacolo'
p5074
S'979'
p5075
sS'economia'
p5076
S'735'
p5077
sS'gallerie'
p5078
S'885'
p5079
sS'salute'
p5080
S'106'
p5081
sS'esteri'
p5082
S'196'
p5083
sS'cronaca'
p5084
S'744'
p5085
sS'sport'
p5086
S'904'
p5087
sS'rubriche'
p5088
S'877'
p5089
sa(dp5090
S'tecnologia'
p5091
S'235'
p5092
sS'festa'
p5093
S'119'
p5094
sS'scienza'
p5095
S'175'
p5096
sS'persone'
p5097
S'634'
p5098
sS'politica'
p5099
S'251'
p5100
sS'spettacolo'
p5101
S'778'
p5102
sS'economia'
p5103
S'688'
p5104
sS'gallerie'
p5105
S'467'
p5106
sS'salute'
p5107
S'239'
p5108
sS'motori'
p5109
S'129'
p5110
sS'esteri'
p5111
S'219'
p5112
sS'cronaca'
p5113
S'767'
p5114
sS'sport'
p5115
S'920'
p5116
sS'rubriche'
p5117
S'898'
p5118
sa(dp5119
S'tecnologia'
p5120
S'178'
p5121
sS'scienza'
p5122
S'237'
p5123
sS'persone'
p5124
S'395'
p5125
sS'politica'
p5126
S'296'
p5127
sS'prodotto'
p5128
S'80'
p5129
sS'spettacolo'
p5130
S'579'
p5131
sS'economia'
p5132
S'713'
p5133
sS'gallerie'
p5134
S'334'
p5135
sS'salute'
p5136
S'132'
p5137
sS'motori'
p5138
S'163'
p5139
sS'esteri'
p5140
S'324'
p5141
sS'cronaca'
p5142
S'873'
p5143
sS'sport'
p5144
S'983'
p5145
sS'rubriche'
p5146
S'956'
p5147
sa(dp5148
S'tecnologia'
p5149
S'217'
p5150
sS'scienza'
p5151
S'268'
p5152
sS'persone'
p5153
S'396'
p5154
sS'politica'
p5155
S'205'
p5156
sS'spettacolo'
p5157
S'659'
p5158
sS'economia'
p5159
S'607'
p5160
sS'gallerie'
p5161
S'386'
p5162
sS'salute'
p5163
S'108'
p5164
sS'motori'
p5165
S'113'
p5166
sS'esteri'
p5167
S'441'
p5168
sS'viaggi'
p5169
S'123'
p5170
sS'cronaca'
p5171
S'846'
p5172
sS'sport'
p5173
S'1032'
p5174
sS'rubriche'
p5175
S'887'
p5176
sa(dp5177
S'tecnologia'
p5178
S'153'
p5179
sS'regione'
p5180
S'151'
p5181
sS'scienza'
p5182
S'400'
p5183
sS'persone'
p5184
S'553'
p5185
sS'politica'
p5186
S'181'
p5187
sS'norme'
p5188
S'118'
p5189
sS'spettacolo'
p5190
S'568'
p5191
sS'economia'
p5192
S'565'
p5193
sS'gallerie'
p5194
S'256'
p5195
sS'motori'
p5196
S'107'
p5197
sS'esteri'
p5198
S'330'
p5199
sS'cronaca'
p5200
S'1020'
p5201
sS'sport'
p5202
S'1201'
p5203
sS'rubriche'
p5204
S'910'
p5205
sa(dp5206
S'tecnologia'
p5207
S'298'
p5208
sS'regione'
p5209
S'169'
p5210
sS'scienza'
p5211
S'373'
p5212
sS'persone'
p5213
S'359'
p5214
sS'media'
p5215
S'103'
p5216
sS'politica'
p5217
S'287'
p5218
sS'spettacolo'
p5219
S'565'
p5220
sS'economia'
p5221
S'328'
p5222
sS'gallerie'
p5223
S'170'
p5224
sS'motori'
p5225
S'115'
p5226
sS'esteri'
p5227
S'425'
p5228
sS'cronaca'
p5229
S'1235'
p5230
sS'sport'
p5231
S'1021'
p5232
sS'rubriche'
p5233
S'1173'
p5234
sasS'5'
p5235
(lp5236
(dp5237
S'tecnologia'
p5238
S'156'
p5239
sS'scienza'
p5240
S'243'
p5241
sS'regione'
p5242
S'1177'
p5243
sS'persone'
p5244
S'441'
p5245
sS'media'
p5246
S'109'
p5247
sS'politica'
p5248
S'169'
p5249
sS'spettacolo'
p5250
S'491'
p5251
sS'economia'
p5252
S'462'
p5253
sS'gallerie'
p5254
S'476'
p5255
sS'motori'
p5256
S'111'
p5257
sS'esteri'
p5258
S'251'
p5259
sS'cronaca'
p5260
S'1139'
p5261
sS'sport'
p5262
S'967'
p5263
sS'rubriche'
p5264
S'1284'
p5265
sa(dp5266
S'tecnologia'
p5267
S'115'
p5268
sS'scienza'
p5269
S'127'
p5270
sS'regione'
p5271
S'483'
p5272
sS'persone'
p5273
S'395'
p5274
sS'media'
p5275
S'80'
p5276
sS'politica'
p5277
S'125'
p5278
sS'spettacolo'
p5279
S'277'
p5280
sS'economia'
p5281
S'183'
p5282
sS'gallerie'
p5283
S'359'
p5284
sS'motori'
p5285
S'95'
p5286
sS'esteri'
p5287
S'295'
p5288
sS'cronaca'
p5289
S'1154'
p5290
sS'sport'
p5291
S'1251'
p5292
sS'rubriche'
p5293
S'890'
p5294
sa(dp5295
S'tecnologia'
p5296
S'212'
p5297
sS'scienza'
p5298
S'156'
p5299
sS'regione'
p5300
S'243'
p5301
sS'persone'
p5302
S'576'
p5303
sS'media'
p5304
S'133'
p5305
sS'politica'
p5306
S'163'
p5307
sS'spettacolo'
p5308
S'406'
p5309
sS'economia'
p5310
S'346'
p5311
sS'gallerie'
p5312
S'262'
p5313
sS'motori'
p5314
S'140'
p5315
sS'esteri'
p5316
S'332'
p5317
sS'cronaca'
p5318
S'1203'
p5319
sS'sport'
p5320
S'1679'
p5321
sS'rubriche'
p5322
S'1054'
p5323
sa(dp5324
S'tecnologia'
p5325
S'167'
p5326
sS'regione'
p5327
S'164'
p5328
sS'scuola'
p5329
S'180'
p5330
sS'scienza'
p5331
S'212'
p5332
sS'persone'
p5333
S'390'
p5334
sS'media'
p5335
S'114'
p5336
sS'politica'
p5337
S'276'
p5338
sS'spettacolo'
p5339
S'588'
p5340
sS'economia'
p5341
S'592'
p5342
sS'gallerie'
p5343
S'397'
p5344
sS'esteri'
p5345
S'298'
p5346
sS'cronaca'
p5347
S'848'
p5348
sS'sport'
p5349
S'1143'
p5350
sS'rubriche'
p5351
S'1017'
p5352
sa(dp5353
S'tecnologia'
p5354
S'217'
p5355
sS'regione'
p5356
S'97'
p5357
sS'scuola'
p5358
S'365'
p5359
sS'scienza'
p5360
S'229'
p5361
sS'persone'
p5362
S'421'
p5363
sS'politica'
p5364
S'239'
p5365
sS'spettacolo'
p5366
S'486'
p5367
sS'economia'
p5368
S'547'
p5369
sS'gallerie'
p5370
S'603'
p5371
sS'salute'
p5372
S'87'
p5373
sS'esteri'
p5374
S'265'
p5375
sS'cronaca'
p5376
S'882'
p5377
sS'sport'
p5378
S'858'
p5379
sS'rubriche'
p5380
S'859'
p5381
sa(dp5382
S'tecnologia'
p5383
S'147'
p5384
sS'servizi'
p5385
S'114'
p5386
sS'scuola'
p5387
S'110'
p5388
sS'scienza'
p5389
S'248'
p5390
sS'persone'
p5391
S'334'
p5392
sS'politica'
p5393
S'262'
p5394
sS'spettacolo'
p5395
S'423'
p5396
sS'economia'
p5397
S'440'
p5398
sS'gallerie'
p5399
S'311'
p5400
sS'salute'
p5401
S'94'
p5402
sS'esteri'
p5403
S'306'
p5404
sS'cronaca'
p5405
S'760'
p5406
sS'sport'
p5407
S'1311'
p5408
sS'rubriche'
p5409
S'736'
p5410
sa(dp5411
S'tecnologia'
p5412
S'95'
p5413
sS'scuola'
p5414
S'78'
p5415
sS'scienza'
p5416
S'230'
p5417
sS'persone'
p5418
S'363'
p5419
sS'media'
p5420
S'68'
p5421
sS'politica'
p5422
S'299'
p5423
sS'spettacolo'
p5424
S'429'
p5425
sS'economia'
p5426
S'445'
p5427
sS'gallerie'
p5428
S'310'
p5429
sS'salute'
p5430
S'85'
p5431
sS'esteri'
p5432
S'482'
p5433
sS'cronaca'
p5434
S'715'
p5435
sS'sport'
p5436
S'1030'
p5437
sS'rubriche'
p5438
S'976'
p5439
sa(dp5440
S'tecnologia'
p5441
S'84'
p5442
sS'regione'
p5443
S'95'
p5444
sS'scienza'
p5445
S'224'
p5446
sS'persone'
p5447
S'332'
p5448
sS'media'
p5449
S'97'
p5450
sS'politica'
p5451
S'323'
p5452
sS'spettacolo'
p5453
S'424'
p5454
sS'economia'
p5455
S'473'
p5456
sS'gallerie'
p5457
S'201'
p5458
sS'motori'
p5459
S'70'
p5460
sS'esteri'
p5461
S'399'
p5462
sS'cronaca'
p5463
S'642'
p5464
sS'sport'
p5465
S'894'
p5466
sS'rubriche'
p5467
S'707'
p5468
sa(dp5469
S'tecnologia'
p5470
S'101'
p5471
sS'regione'
p5472
S'174'
p5473
sS'scienza'
p5474
S'232'
p5475
sS'persone'
p5476
S'296'
p5477
sS'media'
p5478
S'105'
p5479
sS'politica'
p5480
S'273'
p5481
sS'spettacolo'
p5482
S'437'
p5483
sS'economia'
p5484
S'286'
p5485
sS'gallerie'
p5486
S'271'
p5487
sS'salute'
p5488
S'86'
p5489
sS'esteri'
p5490
S'325'
p5491
sS'cronaca'
p5492
S'828'
p5493
sS'sport'
p5494
S'874'
p5495
sS'rubriche'
p5496
S'662'
p5497
sa(dp5498
S'tecnologia'
p5499
S'149'
p5500
sS'festa'
p5501
S'78'
p5502
sS'scienza'
p5503
S'125'
p5504
sS'persone'
p5505
S'334'
p5506
sS'media'
p5507
S'129'
p5508
sS'politica'
p5509
S'287'
p5510
sS'spettacolo'
p5511
S'385'
p5512
sS'economia'
p5513
S'313'
p5514
sS'gallerie'
p5515
S'185'
p5516
sS'motori'
p5517
S'76'
p5518
sS'esteri'
p5519
S'385'
p5520
sS'cronaca'
p5521
S'808'
p5522
sS'sport'
p5523
S'1246'
p5524
sS'rubriche'
p5525
S'792'
p5526
sa(dp5527
S'tecnologia'
p5528
S'161'
p5529
sS'regione'
p5530
S'135'
p5531
sS'scienza'
p5532
S'179'
p5533
sS'persone'
p5534
S'369'
p5535
sS'politica'
p5536
S'619'
p5537
sS'spettacolo'
p5538
S'404'
p5539
sS'economia'
p5540
S'504'
p5541
sS'gallerie'
p5542
S'316'
p5543
sS'monaco'
p5544
S'166'
p5545
sS'esteri'
p5546
S'311'
p5547
sS'cronaca'
p5548
S'904'
p5549
sS'sport'
p5550
S'1144'
p5551
sS'rubriche'
p5552
S'1076'
p5553
sS'scuola'
p5554
S'87'
p5555
sa(dp5556
S'tecnologia'
p5557
S'98'
p5558
sS'scuola'
p5559
S'121'
p5560
sS'scienza'
p5561
S'184'
p5562
sS'persone'
p5563
S'291'
p5564
sS'media'
p5565
S'88'
p5566
sS'politica'
p5567
S'317'
p5568
sS'spettacolo'
p5569
S'299'
p5570
sS'economia'
p5571
S'444'
p5572
sS'gallerie'
p5573
S'285'
p5574
sS'monaco'
p5575
S'111'
p5576
sS'esteri'
p5577
S'246'
p5578
sS'cronaca'
p5579
S'755'
p5580
sS'sport'
p5581
S'929'
p5582
sS'rubriche'
p5583
S'785'
p5584
sa(dp5585
S'tecnologia'
p5586
S'156'
p5587
sS'regione'
p5588
S'79'
p5589
sS'scuola'
p5590
S'105'
p5591
sS'scienza'
p5592
S'222'
p5593
sS'persone'
p5594
S'366'
p5595
sS'politica'
p5596
S'250'
p5597
sS'spettacolo'
p5598
S'298'
p5599
sS'economia'
p5600
S'422'
p5601
sS'gallerie'
p5602
S'248'
p5603
sS'salute'
p5604
S'124'
p5605
sS'esteri'
p5606
S'370'
p5607
sS'cronaca'
p5608
S'785'
p5609
sS'sport'
p5610
S'1044'
p5611
sS'rubriche'
p5612
S'742'
p5613
sa(dp5614
S'tecnologia'
p5615
S'135'
p5616
sS'politica'
p5617
S'196'
p5618
sS'scuola'
p5619
S'116'
p5620
sS'scienza'
p5621
S'163'
p5622
sS'persone'
p5623
S'338'
p5624
sS'media'
p5625
S'105'
p5626
sS'finale'
p5627
S'239'
p5628
sS'spettacolo'
p5629
S'468'
p5630
sS'economia'
p5631
S'370'
p5632
sS'gallerie'
p5633
S'341'
p5634
sS'esteri'
p5635
S'261'
p5636
sS'cronaca'
p5637
S'759'
p5638
sS'sport'
p5639
S'1754'
p5640
sS'rubriche'
p5641
S'776'
p5642
sa(dp5643
S'tecnologia'
p5644
S'152'
p5645
sS'scuola'
p5646
S'109'
p5647
sS'scienza'
p5648
S'322'
p5649
sS'persone'
p5650
S'386'
p5651
sS'media'
p5652
S'98'
p5653
sS'politica'
p5654
S'193'
p5655
sS'spettacolo'
p5656
S'586'
p5657
sS'economia'
p5658
S'427'
p5659
sS'gallerie'
p5660
S'481'
p5661
sS'motori'
p5662
S'107'
p5663
sS'esteri'
p5664
S'323'
p5665
sS'cronaca'
p5666
S'1070'
p5667
sS'sport'
p5668
S'945'
p5669
sS'rubriche'
p5670
S'944'
p5671
sa(dp5672
S'tecnologia'
p5673
S'115'
p5674
sS'regione'
p5675
S'88'
p5676
sS'scienza'
p5677
S'258'
p5678
sS'persone'
p5679
S'299'
p5680
sS'media'
p5681
S'101'
p5682
sS'politica'
p5683
S'176'
p5684
sS'spettacolo'
p5685
S'416'
p5686
sS'economia'
p5687
S'304'
p5688
sS'gallerie'
p5689
S'265'
p5690
sS'motori'
p5691
S'100'
p5692
sS'esteri'
p5693
S'253'
p5694
sS'cronaca'
p5695
S'954'
p5696
sS'sport'
p5697
S'1186'
p5698
sS'rubriche'
p5699
S'872'
p5700
sa(dp5701
S'tecnologia'
p5702
S'193'
p5703
sS'scienza'
p5704
S'203'
p5705
sS'persone'
p5706
S'386'
p5707
sS'media'
p5708
S'104'
p5709
sS'politica'
p5710
S'214'
p5711
sS'spettacolo'
p5712
S'362'
p5713
sS'economia'
p5714
S'234'
p5715
sS'gallerie'
p5716
S'209'
p5717
sS'salute'
p5718
S'93'
p5719
sS'motori'
p5720
S'207'
p5721
sS'esteri'
p5722
S'255'
p5723
sS'cronaca'
p5724
S'876'
p5725
sS'sport'
p5726
S'1357'
p5727
sS'rubriche'
p5728
S'847'
p5729
sa(dp5730
S'tecnologia'
p5731
S'136'
p5732
sS'scuola'
p5733
S'79'
p5734
sS'scienza'
p5735
S'177'
p5736
sS'persone'
p5737
S'415'
p5738
sS'media'
p5739
S'85'
p5740
sS'politica'
p5741
S'277'
p5742
sS'spettacolo'
p5743
S'379'
p5744
sS'economia'
p5745
S'623'
p5746
sS'gallerie'
p5747
S'523'
p5748
sS'motori'
p5749
S'95'
p5750
sS'esteri'
p5751
S'369'
p5752
sS'cronaca'
p5753
S'1003'
p5754
sS'sport'
p5755
S'1034'
p5756
sS'rubriche'
p5757
S'816'
p5758
sa(dp5759
S'tecnologia'
p5760
S'127'
p5761
sS'regione'
p5762
S'99'
p5763
sS'scuola'
p5764
S'116'
p5765
sS'scienza'
p5766
S'171'
p5767
sS'persone'
p5768
S'457'
p5769
sS'politica'
p5770
S'219'
p5771
sS'spettacolo'
p5772
S'443'
p5773
sS'economia'
p5774
S'608'
p5775
sS'gallerie'
p5776
S'228'
p5777
sS'salute'
p5778
S'117'
p5779
sS'esteri'
p5780
S'408'
p5781
sS'cronaca'
p5782
S'1075'
p5783
sS'sport'
p5784
S'1245'
p5785
sS'rubriche'
p5786
S'783'
p5787
sa(dp5788
S'tecnologia'
p5789
S'179'
p5790
sS'scuola'
p5791
S'109'
p5792
sS'scienza'
p5793
S'198'
p5794
sS'persone'
p5795
S'412'
p5796
sS'media'
p5797
S'87'
p5798
sS'politica'
p5799
S'279'
p5800
sS'spettacolo'
p5801
S'499'
p5802
sS'economia'
p5803
S'522'
p5804
sS'gallerie'
p5805
S'185'
p5806
sS'salute'
p5807
S'95'
p5808
sS'esteri'
p5809
S'230'
p5810
sS'cronaca'
p5811
S'972'
p5812
sS'sport'
p5813
S'1016'
p5814
sS'rubriche'
p5815
S'787'
p5816
sa(dp5817
S'tecnologia'
p5818
S'152'
p5819
sS'regione'
p5820
S'81'
p5821
sS'scuola'
p5822
S'90'
p5823
sS'scienza'
p5824
S'272'
p5825
sS'persone'
p5826
S'516'
p5827
sS'politica'
p5828
S'243'
p5829
sS'spettacolo'
p5830
S'458'
p5831
sS'economia'
p5832
S'498'
p5833
sS'gallerie'
p5834
S'259'
p5835
sS'motori'
p5836
S'113'
p5837
sS'esteri'
p5838
S'266'
p5839
sS'cronaca'
p5840
S'941'
p5841
sS'sport'
p5842
S'1557'
p5843
sS'rubriche'
p5844
S'883'
p5845
sa(dp5846
S'tecnologia'
p5847
S'102'
p5848
sS'scienza'
p5849
S'243'
p5850
sS'persone'
p5851
S'316'
p5852
sS'media'
p5853
S'111'
p5854
sS'politica'
p5855
S'212'
p5856
sS'spettacolo'
p5857
S'502'
p5858
sS'economia'
p5859
S'539'
p5860
sS'gallerie'
p5861
S'178'
p5862
sS'motori'
p5863
S'70'
p5864
sS'esteri'
p5865
S'320'
p5866
sS'cucina'
p5867
S'75'
p5868
sS'cronaca'
p5869
S'780'
p5870
sS'sport'
p5871
S'924'
p5872
sS'rubriche'
p5873
S'809'
p5874
sa(dp5875
S'tecnologia'
p5876
S'126'
p5877
sS'regione'
p5878
S'67'
p5879
sS'scienza'
p5880
S'139'
p5881
sS'persone'
p5882
S'273'
p5883
sS'media'
p5884
S'131'
p5885
sS'politica'
p5886
S'160'
p5887
sS'spettacolo'
p5888
S'464'
p5889
sS'economia'
p5890
S'381'
p5891
sS'gallerie'
p5892
S'233'
p5893
sS'motori'
p5894
S'113'
p5895
sS'esteri'
p5896
S'346'
p5897
sS'cronaca'
p5898
S'877'
p5899
sS'sport'
p5900
S'1285'
p5901
sS'rubriche'
p5902
S'799'
p5903
sa(dp5904
S'tecnologia'
p5905
S'167'
p5906
sS'scienza'
p5907
S'173'
p5908
sS'persone'
p5909
S'378'
p5910
sS'media'
p5911
S'119'
p5912
sS'politica'
p5913
S'207'
p5914
sS'spettacolo'
p5915
S'496'
p5916
sS'economia'
p5917
S'386'
p5918
sS'gallerie'
p5919
S'316'
p5920
sS'salute'
p5921
S'112'
p5922
sS'motori'
p5923
S'145'
p5924
sS'esteri'
p5925
S'332'
p5926
sS'cronaca'
p5927
S'861'
p5928
sS'sport'
p5929
S'1552'
p5930
sS'rubriche'
p5931
S'875'
p5932
sa(dp5933
S'tecnologia'
p5934
S'120'
p5935
sS'scienza'
p5936
S'176'
p5937
sS'persone'
p5938
S'398'
p5939
sS'media'
p5940
S'112'
p5941
sS'politica'
p5942
S'213'
p5943
sS'spettacolo'
p5944
S'446'
p5945
sS'economia'
p5946
S'629'
p5947
sS'gallerie'
p5948
S'435'
p5949
sS'salute'
p5950
S'127'
p5951
sS'motori'
p5952
S'117'
p5953
sS'esteri'
p5954
S'321'
p5955
sS'cronaca'
p5956
S'1122'
p5957
sS'sport'
p5958
S'1414'
p5959
sS'rubriche'
p5960
S'836'
p5961
sa(dp5962
S'tecnologia'
p5963
S'71'
p5964
sS'regione'
p5965
S'67'
p5966
sS'scienza'
p5967
S'123'
p5968
sS'persone'
p5969
S'228'
p5970
sS'media'
p5971
S'47'
p5972
sS'politica'
p5973
S'117'
p5974
sS'spettacolo'
p5975
S'281'
p5976
sS'economia'
p5977
S'357'
p5978
sS'gallerie'
p5979
S'164'
p5980
sS'esteri'
p5981
S'150'
p5982
sS'cucina'
p5983
S'44'
p5984
sS'cronaca'
p5985
S'706'
p5986
sS'sport'
p5987
S'607'
p5988
sS'rubriche'
p5989
S'477'
p5990
sa(dp5991
S'tecnologia'
p5992
S'23'
p5993
sS'regione'
p5994
S'24'
p5995
sS'scienza'
p5996
S'36'
p5997
sS'persone'
p5998
S'66'
p5999
sS'politica'
p6000
S'27'
p6001
sS'spettacolo'
p6002
S'77'
p6003
sS'economia'
p6004
S'154'
p6005
sS'gallerie'
p6006
S'66'
p6007
sS'salute'
p6008
S'48'
p6009
sS'motori'
p6010
S'26'
p6011
sS'esteri'
p6012
S'53'
p6013
sS'cronaca'
p6014
S'157'
p6015
sS'sport'
p6016
S'208'
p6017
sS'rubriche'
p6018
S'132'
p6019
sa(dp6020
S'tecnologia'
p6021
S'103'
p6022
sS'regione'
p6023
S'100'
p6024
sS'scienza'
p6025
S'174'
p6026
sS'persone'
p6027
S'238'
p6028
sS'politica'
p6029
S'124'
p6030
sS'spettacolo'
p6031
S'276'
p6032
sS'economia'
p6033
S'332'
p6034
sS'gallerie'
p6035
S'223'
p6036
sS'salute'
p6037
S'86'
p6038
sS'motori'
p6039
S'81'
p6040
sS'esteri'
p6041
S'214'
p6042
sS'cronaca'
p6043
S'706'
p6044
sS'sport'
p6045
S'808'
p6046
sS'rubriche'
p6047
S'898'
p6048
sa(dp6049
S'tecnologia'
p6050
S'123'
p6051
sS'regione'
p6052
S'92'
p6053
sS'scienza'
p6054
S'223'
p6055
sS'persone'
p6056
S'338'
p6057
sS'media'
p6058
S'139'
p6059
sS'politica'
p6060
S'307'
p6061
sS'spettacolo'
p6062
S'389'
p6063
sS'economia'
p6064
S'501'
p6065
sS'gallerie'
p6066
S'323'
p6067
sS'salute'
p6068
S'104'
p6069
sS'esteri'
p6070
S'266'
p6071
sS'cronaca'
p6072
S'743'
p6073
sS'sport'
p6074
S'1061'
p6075
sS'rubriche'
p6076
S'1014'
p6077
sa(dp6078
S'tecnologia'
p6079
S'152'
p6080
sS'regione'
p6081
S'78'
p6082
sS'scienza'
p6083
S'176'
p6084
sS'persone'
p6085
S'314'
p6086
sS'media'
p6087
S'94'
p6088
sS'politica'
p6089
S'251'
p6090
sS'spettacolo'
p6091
S'350'
p6092
sS'economia'
p6093
S'409'
p6094
sS'gallerie'
p6095
S'189'
p6096
sS'motori'
p6097
S'129'
p6098
sS'esteri'
p6099
S'303'
p6100
sS'cronaca'
p6101
S'800'
p6102
sS'sport'
p6103
S'1254'
p6104
sS'rubriche'
p6105
S'880'
p6106
sa(dp6107
S'tecnologia'
p6108
S'171'
p6109
sS'regione'
p6110
S'69'
p6111
sS'scienza'
p6112
S'182'
p6113
sS'persone'
p6114
S'369'
p6115
sS'media'
p6116
S'99'
p6117
sS'politica'
p6118
S'461'
p6119
sS'spettacolo'
p6120
S'404'
p6121
sS'economia'
p6122
S'303'
p6123
sS'gallerie'
p6124
S'286'
p6125
sS'motori'
p6126
S'107'
p6127
sS'esteri'
p6128
S'453'
p6129
sS'cronaca'
p6130
S'934'
p6131
sS'sport'
p6132
S'1449'
p6133
sS'rubriche'
p6134
S'986'
p6135
sasS'4'
p6136
(lp6137
(dp6138
S'tecnologia'
p6139
S'261'
p6140
sS'scienza'
p6141
S'191'
p6142
sS'persone'
p6143
S'407'
p6144
sS'politica'
p6145
S'247'
p6146
sS'prodotto'
p6147
S'67'
p6148
sS'spettacolo'
p6149
S'374'
p6150
sS'economia'
p6151
S'531'
p6152
sS'gallerie'
p6153
S'238'
p6154
sS'salute'
p6155
S'65'
p6156
sS'motori'
p6157
S'114'
p6158
sS'esteri'
p6159
S'505'
p6160
sS'cronaca'
p6161
S'1052'
p6162
sS'sport'
p6163
S'533'
p6164
sS'rubriche'
p6165
S'987'
p6166
sa(dp6167
S'tecnologia'
p6168
S'197'
p6169
sS'regione'
p6170
S'74'
p6171
sS'scienza'
p6172
S'142'
p6173
sS'persone'
p6174
S'266'
p6175
sS'politica'
p6176
S'249'
p6177
sS'spettacolo'
p6178
S'507'
p6179
sS'economia'
p6180
S'445'
p6181
sS'gallerie'
p6182
S'266'
p6183
sS'motori'
p6184
S'87'
p6185
sS'esteri'
p6186
S'389'
p6187
sS'cucina'
p6188
S'74'
p6189
sS'cronaca'
p6190
S'858'
p6191
sS'sport'
p6192
S'574'
p6193
sS'rubriche'
p6194
S'959'
p6195
sa(dp6196
S'tecnologia'
p6197
S'127'
p6198
sS'regione'
p6199
S'83'
p6200
sS'scuola'
p6201
S'191'
p6202
sS'scienza'
p6203
S'148'
p6204
sS'persone'
p6205
S'381'
p6206
sS'politica'
p6207
S'211'
p6208
sS'spettacolo'
p6209
S'388'
p6210
sS'economia'
p6211
S'357'
p6212
sS'gallerie'
p6213
S'329'
p6214
sS'motori'
p6215
S'96'
p6216
sS'esteri'
p6217
S'407'
p6218
sS'cronaca'
p6219
S'978'
p6220
sS'sport'
p6221
S'665'
p6222
sS'rubriche'
p6223
S'947'
p6224
sa(dp6225
S'tecnologia'
p6226
S'147'
p6227
sS'regione'
p6228
S'72'
p6229
sS'scienza'
p6230
S'179'
p6231
sS'persone'
p6232
S'367'
p6233
sS'politica'
p6234
S'194'
p6235
sS'spettacolo'
p6236
S'451'
p6237
sS'economia'
p6238
S'301'
p6239
sS'gallerie'
p6240
S'191'
p6241
sS'salute'
p6242
S'110'
p6243
sS'motori'
p6244
S'129'
p6245
sS'esteri'
p6246
S'301'
p6247
sS'cronaca'
p6248
S'876'
p6249
sS'sport'
p6250
S'948'
p6251
sS'rubriche'
p6252
S'909'
p6253
sa(dp6254
S'tecnologia'
p6255
S'140'
p6256
sS'scienza'
p6257
S'186'
p6258
sS'persone'
p6259
S'246'
p6260
sS'media'
p6261
S'71'
p6262
sS'politica'
p6263
S'177'
p6264
sS'spettacolo'
p6265
S'325'
p6266
sS'economia'
p6267
S'236'
p6268
sS'gallerie'
p6269
S'407'
p6270
sS'salute'
p6271
S'70'
p6272
sS'motori'
p6273
S'77'
p6274
sS'esteri'
p6275
S'341'
p6276
sS'cronaca'
p6277
S'675'
p6278
sS'sport'
p6279
S'1023'
p6280
sS'rubriche'
p6281
S'799'
p6282
sa(dp6283
S'tecnologia'
p6284
S'144'
p6285
sS'regione'
p6286
S'64'
p6287
sS'scienza'
p6288
S'185'
p6289
sS'persone'
p6290
S'203'
p6291
sS'politica'
p6292
S'132'
p6293
sS'spettacolo'
p6294
S'317'
p6295
sS'economia'
p6296
S'240'
p6297
sS'gallerie'
p6298
S'170'
p6299
sS'salute'
p6300
S'112'
p6301
sS'motori'
p6302
S'81'
p6303
sS'esteri'
p6304
S'225'
p6305
sS'cronaca'
p6306
S'786'
p6307
sS'sport'
p6308
S'604'
p6309
sS'rubriche'
p6310
S'633'
p6311
sa(dp6312
S'tecnologia'
p6313
S'144'
p6314
sS'scienza'
p6315
S'163'
p6316
sS'persone'
p6317
S'236'
p6318
sS'media'
p6319
S'74'
p6320
sS'politica'
p6321
S'238'
p6322
sS'spettacolo'
p6323
S'533'
p6324
sS'economia'
p6325
S'526'
p6326
sS'gallerie'
p6327
S'257'
p6328
sS'salute'
p6329
S'90'
p6330
sS'motori'
p6331
S'92'
p6332
sS'esteri'
p6333
S'253'
p6334
sS'cronaca'
p6335
S'970'
p6336
sS'sport'
p6337
S'734'
p6338
sS'rubriche'
p6339
S'859'
p6340
sa(dp6341
S'tecnologia'
p6342
S'200'
p6343
sS'scienza'
p6344
S'210'
p6345
sS'persone'
p6346
S'441'
p6347
sS'politica'
p6348
S'240'
p6349
sS'spettacolo'
p6350
S'483'
p6351
sS'economia'
p6352
S'538'
p6353
sS'gallerie'
p6354
S'218'
p6355
sS'salute'
p6356
S'73'
p6357
sS'motori'
p6358
S'72'
p6359
sS'monaco'
p6360
S'101'
p6361
sS'esteri'
p6362
S'276'
p6363
sS'cronaca'
p6364
S'767'
p6365
sS'sport'
p6366
S'811'
p6367
sS'rubriche'
p6368
S'815'
p6369
sa(dp6370
S'tecnologia'
p6371
S'184'
p6372
sS'scienza'
p6373
S'188'
p6374
sS'regione'
p6375
S'287'
p6376
sS'persone'
p6377
S'407'
p6378
sS'politica'
p6379
S'247'
p6380
sS'spettacolo'
p6381
S'318'
p6382
sS'economia'
p6383
S'431'
p6384
sS'gallerie'
p6385
S'222'
p6386
sS'salute'
p6387
S'77'
p6388
sS'motori'
p6389
S'106'
p6390
sS'esteri'
p6391
S'191'
p6392
sS'cronaca'
p6393
S'949'
p6394
sS'sport'
p6395
S'468'
p6396
sS'rubriche'
p6397
S'884'
p6398
sa(dp6399
a(dp6400
a(dp6401
a(dp6402
S'tecnologia'
p6403
S'128'
p6404
sS'regione'
p6405
S'67'
p6406
sS'scienza'
p6407
S'252'
p6408
sS'persone'
p6409
S'477'
p6410
sS'media'
p6411
S'116'
p6412
sS'politica'
p6413
S'206'
p6414
sS'spettacolo'
p6415
S'488'
p6416
sS'economia'
p6417
S'487'
p6418
sS'gallerie'
p6419
S'291'
p6420
sS'motori'
p6421
S'126'
p6422
sS'esteri'
p6423
S'314'
p6424
sS'cronaca'
p6425
S'885'
p6426
sS'sport'
p6427
S'865'
p6428
sS'rubriche'
p6429
S'708'
p6430
sa(dp6431
S'tecnologia'
p6432
S'170'
p6433
sS'scienza'
p6434
S'316'
p6435
sS'persone'
p6436
S'523'
p6437
sS'politica'
p6438
S'203'
p6439
sS'spettacolo'
p6440
S'430'
p6441
sS'economia'
p6442
S'558'
p6443
sS'gallerie'
p6444
S'226'
p6445
sS'salute'
p6446
S'84'
p6447
sS'motori'
p6448
S'91'
p6449
sS'monaco'
p6450
S'73'
p6451
sS'esteri'
p6452
S'229'
p6453
sS'cronaca'
p6454
S'833'
p6455
sS'sport'
p6456
S'738'
p6457
sS'rubriche'
p6458
S'819'
p6459
sa(dp6460
S'tecnologia'
p6461
S'101'
p6462
sS'regione'
p6463
S'63'
p6464
sS'scienza'
p6465
S'278'
p6466
sS'persone'
p6467
S'433'
p6468
sS'politica'
p6469
S'244'
p6470
sS'spettacolo'
p6471
S'410'
p6472
sS'economia'
p6473
S'467'
p6474
sS'gallerie'
p6475
S'206'
p6476
sS'salute'
p6477
S'87'
p6478
sS'motori'
p6479
S'63'
p6480
sS'esteri'
p6481
S'294'
p6482
sS'cronaca'
p6483
S'842'
p6484
sS'sport'
p6485
S'796'
p6486
sS'rubriche'
p6487
S'787'
p6488
sa(dp6489
S'tecnologia'
p6490
S'121'
p6491
sS'regione'
p6492
S'70'
p6493
sS'scienza'
p6494
S'244'
p6495
sS'persone'
p6496
S'393'
p6497
sS'politica'
p6498
S'213'
p6499
sS'spettacolo'
p6500
S'384'
p6501
sS'economia'
p6502
S'522'
p6503
sS'gallerie'
p6504
S'255'
p6505
sS'salute'
p6506
S'83'
p6507
sS'motori'
p6508
S'92'
p6509
sS'esteri'
p6510
S'311'
p6511
sS'cronaca'
p6512
S'810'
p6513
sS'sport'
p6514
S'720'
p6515
sS'rubriche'
p6516
S'858'
p6517
sa(dp6518
S'tecnologia'
p6519
S'130'
p6520
sS'regione'
p6521
S'94'
p6522
sS'scienza'
p6523
S'250'
p6524
sS'persone'
p6525
S'411'
p6526
sS'media'
p6527
S'107'
p6528
sS'politica'
p6529
S'162'
p6530
sS'spettacolo'
p6531
S'435'
p6532
sS'economia'
p6533
S'566'
p6534
sS'gallerie'
p6535
S'204'
p6536
sS'salute'
p6537
S'89'
p6538
sS'esteri'
p6539
S'302'
p6540
sS'cronaca'
p6541
S'788'
p6542
sS'sport'
p6543
S'763'
p6544
sS'rubriche'
p6545
S'788'
p6546
sa(dp6547
S'tecnologia'
p6548
S'115'
p6549
sS'scienza'
p6550
S'192'
p6551
sS'persone'
p6552
S'377'
p6553
sS'media'
p6554
S'74'
p6555
sS'politica'
p6556
S'228'
p6557
sS'spettacolo'
p6558
S'484'
p6559
sS'economia'
p6560
S'346'
p6561
sS'gallerie'
p6562
S'291'
p6563
sS'salute'
p6564
S'76'
p6565
sS'motori'
p6566
S'81'
p6567
sS'esteri'
p6568
S'204'
p6569
sS'cronaca'
p6570
S'1048'
p6571
sS'sport'
p6572
S'1051'
p6573
sS'rubriche'
p6574
S'614'
p6575
sa(dp6576
S'tecnologia'
p6577
S'184'
p6578
sS'scienza'
p6579
S'197'
p6580
sS'persone'
p6581
S'275'
p6582
sS'media'
p6583
S'175'
p6584
sS'politica'
p6585
S'292'
p6586
sS'spettacolo'
p6587
S'531'
p6588
sS'economia'
p6589
S'248'
p6590
sS'gallerie'
p6591
S'316'
p6592
sS'salute'
p6593
S'83'
p6594
sS'motori'
p6595
S'199'
p6596
sS'esteri'
p6597
S'171'
p6598
sS'cronaca'
p6599
S'1304'
p6600
sS'sport'
p6601
S'1477'
p6602
sS'rubriche'
p6603
S'892'
p6604
sa(dp6605
S'tecnologia'
p6606
S'147'
p6607
sS'regione'
p6608
S'85'
p6609
sS'scienza'
p6610
S'154'
p6611
sS'persone'
p6612
S'355'
p6613
sS'media'
p6614
S'69'
p6615
sS'politica'
p6616
S'230'
p6617
sS'spettacolo'
p6618
S'450'
p6619
sS'economia'
p6620
S'431'
p6621
sS'gallerie'
p6622
S'345'
p6623
sS'motori'
p6624
S'234'
p6625
sS'esteri'
p6626
S'260'
p6627
sS'cronaca'
p6628
S'922'
p6629
sS'sport'
p6630
S'1098'
p6631
sS'rubriche'
p6632
S'743'
p6633
sa(dp6634
S'tecnologia'
p6635
S'134'
p6636
sS'scienza'
p6637
S'186'
p6638
sS'persone'
p6639
S'438'
p6640
sS'politica'
p6641
S'186'
p6642
sS'spettacolo'
p6643
S'381'
p6644
sS'economia'
p6645
S'457'
p6646
sS'gallerie'
p6647
S'233'
p6648
sS'salute'
p6649
S'87'
p6650
sS'motori'
p6651
S'79'
p6652
sS'social'
p6653
S'96'
p6654
sS'esteri'
p6655
S'340'
p6656
sS'cronaca'
p6657
S'760'
p6658
sS'sport'
p6659
S'683'
p6660
sS'rubriche'
p6661
S'753'
p6662
sa(dp6663
S'tecnologia'
p6664
S'143'
p6665
sS'scienza'
p6666
S'153'
p6667
sS'persone'
p6668
S'428'
p6669
sS'media'
p6670
S'61'
p6671
sS'politica'
p6672
S'242'
p6673
sS'spettacolo'
p6674
S'412'
p6675
sS'economia'
p6676
S'391'
p6677
sS'gallerie'
p6678
S'245'
p6679
sS'salute'
p6680
S'77'
p6681
sS'motori'
p6682
S'116'
p6683
sS'esteri'
p6684
S'276'
p6685
sS'cronaca'
p6686
S'906'
p6687
sS'sport'
p6688
S'734'
p6689
sS'rubriche'
p6690
S'816'
p6691
sa(dp6692
S'tecnologia'
p6693
S'167'
p6694
sS'storia'
p6695
S'93'
p6696
sS'scienza'
p6697
S'166'
p6698
sS'persone'
p6699
S'469'
p6700
sS'politica'
p6701
S'223'
p6702
sS'spettacolo'
p6703
S'412'
p6704
sS'economia'
p6705
S'345'
p6706
sS'gallerie'
p6707
S'214'
p6708
sS'salute'
p6709
S'157'
p6710
sS'motori'
p6711
S'88'
p6712
sS'esteri'
p6713
S'328'
p6714
sS'cronaca'
p6715
S'856'
p6716
sS'sport'
p6717
S'816'
p6718
sS'rubriche'
p6719
S'889'
p6720
sa(dp6721
S'tecnologia'
p6722
S'131'
p6723
sS'scienza'
p6724
S'157'
p6725
sS'persone'
p6726
S'399'
p6727
sS'media'
p6728
S'90'
p6729
sS'politica'
p6730
S'162'
p6731
sS'spettacolo'
p6732
S'661'
p6733
sS'economia'
p6734
S'495'
p6735
sS'gallerie'
p6736
S'214'
p6737
sS'salute'
p6738
S'57'
p6739
sS'motori'
p6740
S'84'
p6741
sS'esteri'
p6742
S'307'
p6743
sS'cronaca'
p6744
S'897'
p6745
sS'sport'
p6746
S'801'
p6747
sS'rubriche'
p6748
S'754'
p6749
sa(dp6750
S'tecnologia'
p6751
S'145'
p6752
sS'regione'
p6753
S'103'
p6754
sS'scienza'
p6755
S'202'
p6756
sS'persone'
p6757
S'465'
p6758
sS'politica'
p6759
S'202'
p6760
sS'spettacolo'
p6761
S'651'
p6762
sS'economia'
p6763
S'369'
p6764
sS'gallerie'
p6765
S'237'
p6766
sS'salute'
p6767
S'101'
p6768
sS'esteri'
p6769
S'484'
p6770
sS'cronaca'
p6771
S'989'
p6772
sS'sport'
p6773
S'963'
p6774
sS'rubriche'
p6775
S'928'
p6776
sS'scuola'
p6777
S'82'
p6778
sa(dp6779
S'tecnologia'
p6780
S'173'
p6781
sS'regione'
p6782
S'97'
p6783
sS'scienza'
p6784
S'164'
p6785
sS'persone'
p6786
S'813'
p6787
sS'media'
p6788
S'157'
p6789
sS'politica'
p6790
S'219'
p6791
sS'spettacolo'
p6792
S'696'
p6793
sS'economia'
p6794
S'262'
p6795
sS'gallerie'
p6796
S'311'
p6797
sS'motori'
p6798
S'158'
p6799
sS'esteri'
p6800
S'613'
p6801
sS'cronaca'
p6802
S'951'
p6803
sS'sport'
p6804
S'2021'
p6805
sS'rubriche'
p6806
S'1203'
p6807
sa(dp6808
S'tecnologia'
p6809
S'229'
p6810
sS'scienza'
p6811
S'223'
p6812
sS'persone'
p6813
S'581'
p6814
sS'media'
p6815
S'138'
p6816
sS'politica'
p6817
S'255'
p6818
sS'prodotto'
p6819
S'76'
p6820
sS'spettacolo'
p6821
S'687'
p6822
sS'economia'
p6823
S'499'
p6824
sS'gallerie'
p6825
S'432'
p6826
sS'motori'
p6827
S'98'
p6828
sS'esteri'
p6829
S'384'
p6830
sS'cronaca'
p6831
S'932'
p6832
sS'sport'
p6833
S'1475'
p6834
sS'rubriche'
p6835
S'944'
p6836
sa(dp6837
S'tecnologia'
p6838
S'135'
p6839
sS'regione'
p6840
S'77'
p6841
sS'scienza'
p6842
S'270'
p6843
sS'persone'
p6844
S'355'
p6845
sS'media'
p6846
S'67'
p6847
sS'politica'
p6848
S'292'
p6849
sS'prodotto'
p6850
S'72'
p6851
sS'spettacolo'
p6852
S'455'
p6853
sS'economia'
p6854
S'329'
p6855
sS'gallerie'
p6856
S'287'
p6857
sS'esteri'
p6858
S'373'
p6859
sS'cronaca'
p6860
S'645'
p6861
sS'sport'
p6862
S'1031'
p6863
sS'rubriche'
p6864
S'926'
p6865
sa(dp6866
S'tecnologia'
p6867
S'186'
p6868
sS'regione'
p6869
S'55'
p6870
sS'scienza'
p6871
S'282'
p6872
sS'persone'
p6873
S'365'
p6874
sS'media'
p6875
S'99'
p6876
sS'politica'
p6877
S'300'
p6878
sS'spettacolo'
p6879
S'481'
p6880
sS'economia'
p6881
S'403'
p6882
sS'gallerie'
p6883
S'252'
p6884
sS'salute'
p6885
S'75'
p6886
sS'esteri'
p6887
S'316'
p6888
sS'cronaca'
p6889
S'652'
p6890
sS'sport'
p6891
S'874'
p6892
sS'rubriche'
p6893
S'1005'
p6894
sa(dp6895
S'tecnologia'
p6896
S'145'
p6897
sS'regione'
p6898
S'80'
p6899
sS'scienza'
p6900
S'202'
p6901
sS'persone'
p6902
S'483'
p6903
sS'media'
p6904
S'118'
p6905
sS'politica'
p6906
S'184'
p6907
sS'spettacolo'
p6908
S'362'
p6909
sS'economia'
p6910
S'559'
p6911
sS'gallerie'
p6912
S'205'
p6913
sS'salute'
p6914
S'80'
p6915
sS'esteri'
p6916
S'253'
p6917
sS'cronaca'
p6918
S'660'
p6919
sS'sport'
p6920
S'954'
p6921
sS'rubriche'
p6922
S'784'
p6923
sasS'7'
p6924
(lp6925
(dp6926
S'tecnologia'
p6927
S'152'
p6928
sS'scienza'
p6929
S'250'
p6930
sS'persone'
p6931
S'384'
p6932
sS'media'
p6933
S'133'
p6934
sS'politica'
p6935
S'211'
p6936
sS'spettacolo'
p6937
S'450'
p6938
sS'economia'
p6939
S'710'
p6940
sS'gallerie'
p6941
S'392'
p6942
sS'salute'
p6943
S'123'
p6944
sS'motori'
p6945
S'106'
p6946
sS'esteri'
p6947
S'489'
p6948
sS'cronaca'
p6949
S'833'
p6950
sS'sport'
p6951
S'989'
p6952
sS'rubriche'
p6953
S'712'
p6954
sa(dp6955
S'tecnologia'
p6956
S'171'
p6957
sS'regione'
p6958
S'125'
p6959
sS'scienza'
p6960
S'221'
p6961
sS'persone'
p6962
S'350'
p6963
sS'media'
p6964
S'105'
p6965
sS'politica'
p6966
S'198'
p6967
sS'spettacolo'
p6968
S'365'
p6969
sS'economia'
p6970
S'657'
p6971
sS'gallerie'
p6972
S'332'
p6973
sS'esteri'
p6974
S'332'
p6975
sS'viaggi'
p6976
S'635'
p6977
sS'cronaca'
p6978
S'819'
p6979
sS'sport'
p6980
S'876'
p6981
sS'rubriche'
p6982
S'662'
p6983
sa(dp6984
S'tecnologia'
p6985
S'143'
p6986
sS'scienza'
p6987
S'278'
p6988
sS'persone'
p6989
S'333'
p6990
sS'media'
p6991
S'110'
p6992
sS'politica'
p6993
S'217'
p6994
sS'spettacolo'
p6995
S'371'
p6996
sS'economia'
p6997
S'641'
p6998
sS'gallerie'
p6999
S'284'
p7000
sS'motori'
p7001
S'180'
p7002
sS'esteri'
p7003
S'255'
p7004
sS'viaggi'
p7005
S'487'
p7006
sS'cronaca'
p7007
S'971'
p7008
sS'sport'
p7009
S'976'
p7010
sS'rubriche'
p7011
S'763'
p7012
sa(dp7013
S'tecnologia'
p7014
S'118'
p7015
sS'scienza'
p7016
S'230'
p7017
sS'persone'
p7018
S'252'
p7019
sS'media'
p7020
S'156'
p7021
sS'politica'
p7022
S'173'
p7023
sS'spettacolo'
p7024
S'295'
p7025
sS'economia'
p7026
S'531'
p7027
sS'gallerie'
p7028
S'171'
p7029
sS'motori'
p7030
S'164'
p7031
sS'esteri'
p7032
S'389'
p7033
sS'viaggi'
p7034
S'369'
p7035
sS'cronaca'
p7036
S'801'
p7037
sS'sport'
p7038
S'974'
p7039
sS'rubriche'
p7040
S'734'
p7041
sa(dp7042
S'tecnologia'
p7043
S'98'
p7044
sS'luglio'
p7045
S'89'
p7046
sS'scienza'
p7047
S'147'
p7048
sS'persone'
p7049
S'262'
p7050
sS'politica'
p7051
S'182'
p7052
sS'spettacolo'
p7053
S'328'
p7054
sS'economia'
p7055
S'765'
p7056
sS'gallerie'
p7057
S'315'
p7058
sS'motori'
p7059
S'121'
p7060
sS'esteri'
p7061
S'558'
p7062
sS'viaggi'
p7063
S'133'
p7064
sS'cronaca'
p7065
S'1074'
p7066
sS'sport'
p7067
S'1081'
p7068
sS'rubriche'
p7069
S'770'
p7070
sa(dp7071
S'tecnologia'
p7072
S'126'
p7073
sS'regione'
p7074
S'103'
p7075
sS'festa'
p7076
S'114'
p7077
sS'scienza'
p7078
S'235'
p7079
sS'persone'
p7080
S'359'
p7081
sS'media'
p7082
S'110'
p7083
sS'politica'
p7084
S'224'
p7085
sS'spettacolo'
p7086
S'453'
p7087
sS'economia'
p7088
S'896'
p7089
sS'gallerie'
p7090
S'236'
p7091
sS'esteri'
p7092
S'477'
p7093
sS'cronaca'
p7094
S'1217'
p7095
sS'sport'
p7096
S'1140'
p7097
sS'rubriche'
p7098
S'977'
p7099
sa(dp7100
S'tecnologia'
p7101
S'156'
p7102
sS'luglio'
p7103
S'86'
p7104
sS'regione'
p7105
S'87'
p7106
sS'scienza'
p7107
S'252'
p7108
sS'persone'
p7109
S'389'
p7110
sS'politica'
p7111
S'174'
p7112
sS'spettacolo'
p7113
S'418'
p7114
sS'economia'
p7115
S'756'
p7116
sS'gallerie'
p7117
S'329'
p7118
sS'motori'
p7119
S'115'
p7120
sS'esteri'
p7121
S'432'
p7122
sS'cronaca'
p7123
S'933'
p7124
sS'sport'
p7125
S'1031'
p7126
sS'rubriche'
p7127
S'759'
p7128
sa(dp7129
S'tecnologia'
p7130
S'191'
p7131
sS'scienza'
p7132
S'146'
p7133
sS'persone'
p7134
S'433'
p7135
sS'media'
p7136
S'99'
p7137
sS'politica'
p7138
S'194'
p7139
sS'spettacolo'
p7140
S'439'
p7141
sS'economia'
p7142
S'1058'
p7143
sS'gallerie'
p7144
S'441'
p7145
sS'motori'
p7146
S'87'
p7147
sS'esteri'
p7148
S'290'
p7149
sS'viaggi'
p7150
S'176'
p7151
sS'cronaca'
p7152
S'882'
p7153
sS'sport'
p7154
S'917'
p7155
sS'rubriche'
p7156
S'823'
p7157
sa(dp7158
S'tecnologia'
p7159
S'204'
p7160
sS'luglio'
p7161
S'129'
p7162
sS'scuola'
p7163
S'153'
p7164
sS'scienza'
p7165
S'206'
p7166
sS'persone'
p7167
S'413'
p7168
sS'politica'
p7169
S'267'
p7170
sS'spettacolo'
p7171
S'405'
p7172
sS'economia'
p7173
S'694'
p7174
sS'gallerie'
p7175
S'239'
p7176
sS'esteri'
p7177
S'269'
p7178
sS'viaggi'
p7179
S'197'
p7180
sS'cronaca'
p7181
S'1001'
p7182
sS'sport'
p7183
S'883'
p7184
sS'rubriche'
p7185
S'777'
p7186
sa(dp7187
S'tecnologia'
p7188
S'251'
p7189
sS'regione'
p7190
S'113'
p7191
sS'scienza'
p7192
S'140'
p7193
sS'persone'
p7194
S'277'
p7195
sS'politica'
p7196
S'177'
p7197
sS'spettacolo'
p7198
S'449'
p7199
sS'economia'
p7200
S'792'
p7201
sS'gallerie'
p7202
S'226'
p7203
sS'motori'
p7204
S'103'
p7205
sS'moda'
p7206
S'140'
p7207
sS'esteri'
p7208
S'226'
p7209
sS'cronaca'
p7210
S'845'
p7211
sS'sport'
p7212
S'886'
p7213
sS'rubriche'
p7214
S'683'
p7215
sa(dp7216
S'tecnologia'
p7217
S'192'
p7218
sS'regione'
p7219
S'92'
p7220
sS'scienza'
p7221
S'160'
p7222
sS'persone'
p7223
S'232'
p7224
sS'media'
p7225
S'88'
p7226
sS'politica'
p7227
S'224'
p7228
sS'spettacolo'
p7229
S'260'
p7230
sS'economia'
p7231
S'637'
p7232
sS'gallerie'
p7233
S'275'
p7234
sS'motori'
p7235
S'87'
p7236
sS'esteri'
p7237
S'298'
p7238
sS'cronaca'
p7239
S'819'
p7240
sS'sport'
p7241
S'903'
p7242
sS'rubriche'
p7243
S'621'
p7244
sa(dp7245
S'tecnologia'
p7246
S'195'
p7247
sS'scienza'
p7248
S'141'
p7249
sS'persone'
p7250
S'317'
p7251
sS'media'
p7252
S'103'
p7253
sS'politica'
p7254
S'200'
p7255
sS'spettacolo'
p7256
S'358'
p7257
sS'economia'
p7258
S'541'
p7259
sS'gallerie'
p7260
S'207'
p7261
sS'motori'
p7262
S'197'
p7263
sS'esteri'
p7264
S'340'
p7265
sS'viaggi'
p7266
S'99'
p7267
sS'cronaca'
p7268
S'1046'
p7269
sS'sport'
p7270
S'915'
p7271
sS'rubriche'
p7272
S'704'
p7273
sa(dp7274
S'tecnologia'
p7275
S'185'
p7276
sS'scienza'
p7277
S'181'
p7278
sS'persone'
p7279
S'544'
p7280
sS'politica'
p7281
S'235'
p7282
sS'spettacolo'
p7283
S'509'
p7284
sS'economia'
p7285
S'934'
p7286
sS'gallerie'
p7287
S'379'
p7288
sS'salute'
p7289
S'165'
p7290
sS'motori'
p7291
S'133'
p7292
sS'esteri'
p7293
S'280'
p7294
sS'viaggi'
p7295
S'374'
p7296
sS'cronaca'
p7297
S'1085'
p7298
sS'sport'
p7299
S'899'
p7300
sS'rubriche'
p7301
S'753'
p7302
sa(dp7303
S'tecnologia'
p7304
S'208'
p7305
sS'regione'
p7306
S'109'
p7307
sS'scienza'
p7308
S'446'
p7309
sS'persone'
p7310
S'546'
p7311
sS'media'
p7312
S'139'
p7313
sS'politica'
p7314
S'245'
p7315
sS'spettacolo'
p7316
S'431'
p7317
sS'economia'
p7318
S'588'
p7319
sS'gallerie'
p7320
S'238'
p7321
sS'esteri'
p7322
S'413'
p7323
sS'viaggi'
p7324
S'98'
p7325
sS'cronaca'
p7326
S'853'
p7327
sS'sport'
p7328
S'823'
p7329
sS'rubriche'
p7330
S'833'
p7331
sa(dp7332
S'tecnologia'
p7333
S'243'
p7334
sS'regione'
p7335
S'131'
p7336
sS'scienza'
p7337
S'335'
p7338
sS'persone'
p7339
S'425'
p7340
sS'media'
p7341
S'95'
p7342
sS'politica'
p7343
S'271'
p7344
sS'spettacolo'
p7345
S'355'
p7346
sS'economia'
p7347
S'707'
p7348
sS'gallerie'
p7349
S'211'
p7350
sS'salute'
p7351
S'79'
p7352
sS'esteri'
p7353
S'431'
p7354
sS'cronaca'
p7355
S'861'
p7356
sS'sport'
p7357
S'939'
p7358
sS'rubriche'
p7359
S'755'
p7360
sa(dp7361
S'tecnologia'
p7362
S'207'
p7363
sS'luglio'
p7364
S'102'
p7365
sS'regione'
p7366
S'78'
p7367
sS'scienza'
p7368
S'282'
p7369
sS'persone'
p7370
S'395'
p7371
sS'media'
p7372
S'89'
p7373
sS'politica'
p7374
S'273'
p7375
sS'spettacolo'
p7376
S'416'
p7377
sS'economia'
p7378
S'567'
p7379
sS'gallerie'
p7380
S'283'
p7381
sS'esteri'
p7382
S'356'
p7383
sS'cronaca'
p7384
S'897'
p7385
sS'sport'
p7386
S'948'
p7387
sS'rubriche'
p7388
S'833'
p7389
sa(dp7390
S'tecnologia'
p7391
S'125'
p7392
sS'luglio'
p7393
S'66'
p7394
sS'regione'
p7395
S'130'
p7396
sS'scienza'
p7397
S'263'
p7398
sS'persone'
p7399
S'314'
p7400
sS'media'
p7401
S'97'
p7402
sS'politica'
p7403
S'197'
p7404
sS'spettacolo'
p7405
S'421'
p7406
sS'economia'
p7407
S'500'
p7408
sS'gallerie'
p7409
S'172'
p7410
sS'esteri'
p7411
S'331'
p7412
sS'cronaca'
p7413
S'959'
p7414
sS'sport'
p7415
S'910'
p7416
sS'rubriche'
p7417
S'697'
p7418
sa(dp7419
S'tecnologia'
p7420
S'115'
p7421
sS'regione'
p7422
S'141'
p7423
sS'scienza'
p7424
S'200'
p7425
sS'persone'
p7426
S'420'
p7427
sS'politica'
p7428
S'278'
p7429
sS'spettacolo'
p7430
S'371'
p7431
sS'economia'
p7432
S'320'
p7433
sS'gallerie'
p7434
S'165'
p7435
sS'motori'
p7436
S'126'
p7437
sS'esteri'
p7438
S'302'
p7439
sS'viaggi'
p7440
S'270'
p7441
sS'cronaca'
p7442
S'1091'
p7443
sS'sport'
p7444
S'1069'
p7445
sS'rubriche'
p7446
S'685'
p7447
sa(dp7448
S'tecnologia'
p7449
S'91'
p7450
sS'regione'
p7451
S'104'
p7452
sS'scienza'
p7453
S'178'
p7454
sS'persone'
p7455
S'256'
p7456
sS'politica'
p7457
S'224'
p7458
sS'spettacolo'
p7459
S'412'
p7460
sS'economia'
p7461
S'304'
p7462
sS'gallerie'
p7463
S'236'
p7464
sS'motori'
p7465
S'146'
p7466
sS'esteri'
p7467
S'310'
p7468
sS'viaggi'
p7469
S'257'
p7470
sS'cronaca'
p7471
S'1169'
p7472
sS'sport'
p7473
S'967'
p7474
sS'rubriche'
p7475
S'568'
p7476
sa(dp7477
S'tecnologia'
p7478
S'162'
p7479
sS'scienza'
p7480
S'199'
p7481
sS'persone'
p7482
S'401'
p7483
sS'media'
p7484
S'110'
p7485
sS'politica'
p7486
S'204'
p7487
sS'spettacolo'
p7488
S'290'
p7489
sS'economia'
p7490
S'491'
p7491
sS'gallerie'
p7492
S'233'
p7493
sS'motori'
p7494
S'121'
p7495
sS'esteri'
p7496
S'319'
p7497
sS'viaggi'
p7498
S'145'
p7499
sS'cronaca'
p7500
S'1313'
p7501
sS'sport'
p7502
S'1070'
p7503
sS'rubriche'
p7504
S'757'
p7505
sa(dp7506
S'tecnologia'
p7507
S'114'
p7508
sS'regione'
p7509
S'121'
p7510
sS'scienza'
p7511
S'263'
p7512
sS'persone'
p7513
S'359'
p7514
sS'media'
p7515
S'93'
p7516
sS'politica'
p7517
S'195'
p7518
sS'spettacolo'
p7519
S'387'
p7520
sS'economia'
p7521
S'485'
p7522
sS'gallerie'
p7523
S'364'
p7524
sS'salute'
p7525
S'69'
p7526
sS'esteri'
p7527
S'286'
p7528
sS'cronaca'
p7529
S'1033'
p7530
sS'sport'
p7531
S'1035'
p7532
sS'rubriche'
p7533
S'705'
p7534
sa(dp7535
S'tecnologia'
p7536
S'310'
p7537
sS'scienza'
p7538
S'193'
p7539
sS'persone'
p7540
S'309'
p7541
sS'media'
p7542
S'80'
p7543
sS'politica'
p7544
S'150'
p7545
sS'prodotto'
p7546
S'76'
p7547
sS'spettacolo'
p7548
S'479'
p7549
sS'economia'
p7550
S'506'
p7551
sS'gallerie'
p7552
S'276'
p7553
sS'salute'
p7554
S'99'
p7555
sS'esteri'
p7556
S'299'
p7557
sS'cronaca'
p7558
S'1066'
p7559
sS'sport'
p7560
S'927'
p7561
sS'rubriche'
p7562
S'859'
p7563
sa(dp7564
S'tecnologia'
p7565
S'156'
p7566
sS'luglio'
p7567
S'111'
p7568
sS'regione'
p7569
S'102'
p7570
sS'scienza'
p7571
S'405'
p7572
sS'persone'
p7573
S'432'
p7574
sS'politica'
p7575
S'175'
p7576
sS'spettacolo'
p7577
S'414'
p7578
sS'economia'
p7579
S'640'
p7580
sS'gallerie'
p7581
S'185'
p7582
sS'esteri'
p7583
S'233'
p7584
sS'viaggi'
p7585
S'142'
p7586
sS'cronaca'
p7587
S'1106'
p7588
sS'sport'
p7589
S'889'
p7590
sS'rubriche'
p7591
S'725'
p7592
sa(dp7593
S'tecnologia'
p7594
S'158'
p7595
sS'scienza'
p7596
S'412'
p7597
sS'persone'
p7598
S'284'
p7599
sS'media'
p7600
S'71'
p7601
sS'politica'
p7602
S'283'
p7603
sS'spettacolo'
p7604
S'406'
p7605
sS'economia'
p7606
S'445'
p7607
sS'gallerie'
p7608
S'216'
p7609
sS'salute'
p7610
S'75'
p7611
sS'motori'
p7612
S'93'
p7613
sS'esteri'
p7614
S'370'
p7615
sS'cronaca'
p7616
S'962'
p7617
sS'sport'
p7618
S'796'
p7619
sS'rubriche'
p7620
S'801'
p7621
sa(dp7622
S'tecnologia'
p7623
S'139'
p7624
sS'scienza'
p7625
S'276'
p7626
sS'persone'
p7627
S'352'
p7628
sS'media'
p7629
S'103'
p7630
sS'politica'
p7631
S'189'
p7632
sS'spettacolo'
p7633
S'362'
p7634
sS'economia'
p7635
S'383'
p7636
sS'gallerie'
p7637
S'400'
p7638
sS'salute'
p7639
S'100'
p7640
sS'motori'
p7641
S'144'
p7642
sS'esteri'
p7643
S'325'
p7644
sS'cronaca'
p7645
S'1033'
p7646
sS'sport'
p7647
S'1279'
p7648
sS'rubriche'
p7649
S'670'
p7650
sa(dp7651
S'tecnologia'
p7652
S'134'
p7653
sS'scienza'
p7654
S'126'
p7655
sS'regione'
p7656
S'141'
p7657
sS'persone'
p7658
S'248'
p7659
sS'media'
p7660
S'76'
p7661
sS'politica'
p7662
S'169'
p7663
sS'spettacolo'
p7664
S'375'
p7665
sS'economia'
p7666
S'374'
p7667
sS'gallerie'
p7668
S'259'
p7669
sS'motori'
p7670
S'153'
p7671
sS'esteri'
p7672
S'289'
p7673
sS'cronaca'
p7674
S'1103'
p7675
sS'sport'
p7676
S'1320'
p7677
sS'rubriche'
p7678
S'853'
p7679
sa(dp7680
S'tecnologia'
p7681
S'260'
p7682
sS'scienza'
p7683
S'301'
p7684
sS'persone'
p7685
S'309'
p7686
sS'media'
p7687
S'118'
p7688
sS'politica'
p7689
S'177'
p7690
sS'spettacolo'
p7691
S'474'
p7692
sS'economia'
p7693
S'603'
p7694
sS'gallerie'
p7695
S'582'
p7696
sS'salute'
p7697
S'103'
p7698
sS'motori'
p7699
S'138'
p7700
sS'esteri'
p7701
S'292'
p7702
sS'cronaca'
p7703
S'994'
p7704
sS'sport'
p7705
S'1354'
p7706
sS'rubriche'
p7707
S'963'
p7708
sa(dp7709
S'tecnologia'
p7710
S'275'
p7711
sS'scienza'
p7712
S'261'
p7713
sS'persone'
p7714
S'304'
p7715
sS'media'
p7716
S'104'
p7717
sS'politica'
p7718
S'196'
p7719
sS'spettacolo'
p7720
S'471'
p7721
sS'economia'
p7722
S'488'
p7723
sS'gallerie'
p7724
S'261'
p7725
sS'salute'
p7726
S'114'
p7727
sS'motori'
p7728
S'100'
p7729
sS'esteri'
p7730
S'231'
p7731
sS'cronaca'
p7732
S'891'
p7733
sS'sport'
p7734
S'938'
p7735
sS'rubriche'
p7736
S'676'
p7737
sa(dp7738
S'tecnologia'
p7739
S'239'
p7740
sS'regione'
p7741
S'88'
p7742
sS'scienza'
p7743
S'284'
p7744
sS'persone'
p7745
S'268'
p7746
sS'media'
p7747
S'140'
p7748
sS'politica'
p7749
S'298'
p7750
sS'spettacolo'
p7751
S'470'
p7752
sS'economia'
p7753
S'437'
p7754
sS'gallerie'
p7755
S'235'
p7756
sS'motori'
p7757
S'164'
p7758
sS'esteri'
p7759
S'267'
p7760
sS'cronaca'
p7761
S'1061'
p7762
sS'sport'
p7763
S'1151'
p7764
sS'rubriche'
p7765
S'707'
p7766
sa(dp7767
S'tecnologia'
p7768
S'268'
p7769
sS'luglio'
p7770
S'97'
p7771
sS'regione'
p7772
S'108'
p7773
sS'scienza'
p7774
S'282'
p7775
sS'persone'
p7776
S'350'
p7777
sS'politica'
p7778
S'311'
p7779
sS'spettacolo'
p7780
S'353'
p7781
sS'economia'
p7782
S'383'
p7783
sS'gallerie'
p7784
S'265'
p7785
sS'motori'
p7786
S'89'
p7787
sS'esteri'
p7788
S'268'
p7789
sS'cronaca'
p7790
S'809'
p7791
sS'sport'
p7792
S'974'
p7793
sS'rubriche'
p7794
S'702'
p7795
sa(dp7796
S'tecnologia'
p7797
S'160'
p7798
sS'regione'
p7799
S'94'
p7800
sS'scienza'
p7801
S'257'
p7802
sS'persone'
p7803
S'331'
p7804
sS'politica'
p7805
S'203'
p7806
sS'spettacolo'
p7807
S'363'
p7808
sS'economia'
p7809
S'492'
p7810
sS'gallerie'
p7811
S'286'
p7812
sS'salute'
p7813
S'73'
p7814
sS'motori'
p7815
S'69'
p7816
sS'esteri'
p7817
S'167'
p7818
sS'cronaca'
p7819
S'713'
p7820
sS'sport'
p7821
S'1101'
p7822
sS'rubriche'
p7823
S'608'
p7824
sasS'6'
p7825
(lp7826
(dp7827
S'tecnologia'
p7828
S'203'
p7829
sS'scienza'
p7830
S'168'
p7831
sS'regione'
p7832
S'182'
p7833
sS'persone'
p7834
S'399'
p7835
sS'media'
p7836
S'74'
p7837
sS'politica'
p7838
S'1213'
p7839
sS'spettacolo'
p7840
S'389'
p7841
sS'economia'
p7842
S'326'
p7843
sS'gallerie'
p7844
S'397'
p7845
sS'motori'
p7846
S'97'
p7847
sS'esteri'
p7848
S'372'
p7849
sS'cronaca'
p7850
S'919'
p7851
sS'sport'
p7852
S'1317'
p7853
sS'rubriche'
p7854
S'1400'
p7855
sa(dp7856
S'tecnologia'
p7857
S'231'
p7858
sS'festa'
p7859
S'97'
p7860
sS'scienza'
p7861
S'216'
p7862
sS'persone'
p7863
S'333'
p7864
sS'media'
p7865
S'83'
p7866
sS'politica'
p7867
S'478'
p7868
sS'spettacolo'
p7869
S'266'
p7870
sS'economia'
p7871
S'371'
p7872
sS'gallerie'
p7873
S'284'
p7874
sS'motori'
p7875
S'77'
p7876
sS'esteri'
p7877
S'395'
p7878
sS'cronaca'
p7879
S'737'
p7880
sS'sport'
p7881
S'1386'
p7882
sS'rubriche'
p7883
S'893'
p7884
sa(dp7885
S'tecnologia'
p7886
S'127'
p7887
sS'regione'
p7888
S'109'
p7889
sS'scienza'
p7890
S'215'
p7891
sS'persone'
p7892
S'278'
p7893
sS'media'
p7894
S'78'
p7895
sS'politica'
p7896
S'353'
p7897
sS'spettacolo'
p7898
S'383'
p7899
sS'economia'
p7900
S'388'
p7901
sS'gallerie'
p7902
S'221'
p7903
sS'salute'
p7904
S'77'
p7905
sS'esteri'
p7906
S'330'
p7907
sS'cronaca'
p7908
S'797'
p7909
sS'sport'
p7910
S'1383'
p7911
sS'rubriche'
p7912
S'719'
p7913
sa(dp7914
S'tecnologia'
p7915
S'99'
p7916
sS'regione'
p7917
S'116'
p7918
sS'scienza'
p7919
S'203'
p7920
sS'persone'
p7921
S'333'
p7922
sS'politica'
p7923
S'181'
p7924
sS'giugno'
p7925
S'104'
p7926
sS'spettacolo'
p7927
S'360'
p7928
sS'economia'
p7929
S'449'
p7930
sS'gallerie'
p7931
S'278'
p7932
sS'salute'
p7933
S'89'
p7934
sS'esteri'
p7935
S'236'
p7936
sS'cronaca'
p7937
S'809'
p7938
sS'sport'
p7939
S'1176'
p7940
sS'rubriche'
p7941
S'671'
p7942
sa(dp7943
S'tecnologia'
p7944
S'164'
p7945
sS'regione'
p7946
S'89'
p7947
sS'scienza'
p7948
S'196'
p7949
sS'persone'
p7950
S'366'
p7951
sS'politica'
p7952
S'165'
p7953
sS'spettacolo'
p7954
S'270'
p7955
sS'economia'
p7956
S'523'
p7957
sS'gallerie'
p7958
S'305'
p7959
sS'salute'
p7960
S'105'
p7961
sS'esteri'
p7962
S'297'
p7963
sS'viaggi'
p7964
S'102'
p7965
sS'cronaca'
p7966
S'876'
p7967
sS'sport'
p7968
S'1081'
p7969
sS'rubriche'
p7970
S'692'
p7971
sa(dp7972
S'tecnologia'
p7973
S'206'
p7974
sS'regione'
p7975
S'116'
p7976
sS'scienza'
p7977
S'183'
p7978
sS'persone'
p7979
S'353'
p7980
sS'politica'
p7981
S'146'
p7982
sS'spettacolo'
p7983
S'466'
p7984
sS'economia'
p7985
S'305'
p7986
sS'gallerie'
p7987
S'186'
p7988
sS'salute'
p7989
S'145'
p7990
sS'moda'
p7991
S'123'
p7992
sS'esteri'
p7993
S'245'
p7994
sS'cronaca'
p7995
S'811'
p7996
sS'sport'
p7997
S'1495'
p7998
sS'rubriche'
p7999
S'628'
p8000
sa(dp8001
S'tecnologia'
p8002
S'141'
p8003
sS'regione'
p8004
S'111'
p8005
sS'scienza'
p8006
S'154'
p8007
sS'persone'
p8008
S'338'
p8009
sS'politica'
p8010
S'164'
p8011
sS'spettacolo'
p8012
S'385'
p8013
sS'economia'
p8014
S'297'
p8015
sS'gallerie'
p8016
S'423'
p8017
sS'salute'
p8018
S'84'
p8019
sS'motori'
p8020
S'100'
p8021
sS'esteri'
p8022
S'318'
p8023
sS'cronaca'
p8024
S'933'
p8025
sS'sport'
p8026
S'2657'
p8027
sS'rubriche'
p8028
S'664'
p8029
sa(dp8030
S'tecnologia'
p8031
S'125'
p8032
sS'regione'
p8033
S'110'
p8034
sS'scienza'
p8035
S'163'
p8036
sS'persone'
p8037
S'326'
p8038
sS'media'
p8039
S'113'
p8040
sS'politica'
p8041
S'238'
p8042
sS'spettacolo'
p8043
S'512'
p8044
sS'economia'
p8045
S'575'
p8046
sS'gallerie'
p8047
S'248'
p8048
sS'salute'
p8049
S'95'
p8050
sS'esteri'
p8051
S'242'
p8052
sS'cronaca'
p8053
S'1055'
p8054
sS'sport'
p8055
S'1425'
p8056
sS'rubriche'
p8057
S'630'
p8058
sa(dp8059
S'tecnologia'
p8060
S'181'
p8061
sS'regione'
p8062
S'187'
p8063
sS'scienza'
p8064
S'238'
p8065
sS'persone'
p8066
S'459'
p8067
sS'media'
p8068
S'117'
p8069
sS'politica'
p8070
S'267'
p8071
sS'spettacolo'
p8072
S'398'
p8073
sS'economia'
p8074
S'528'
p8075
sS'gallerie'
p8076
S'226'
p8077
sS'motori'
p8078
S'88'
p8079
sS'esteri'
p8080
S'326'
p8081
sS'cronaca'
p8082
S'1000'
p8083
sS'sport'
p8084
S'1190'
p8085
sS'rubriche'
p8086
S'719'
p8087
sa(dp8088
S'tecnologia'
p8089
S'113'
p8090
sS'regione'
p8091
S'99'
p8092
sS'scienza'
p8093
S'238'
p8094
sS'persone'
p8095
S'337'
p8096
sS'politica'
p8097
S'278'
p8098
sS'spettacolo'
p8099
S'377'
p8100
sS'economia'
p8101
S'481'
p8102
sS'gallerie'
p8103
S'249'
p8104
sS'salute'
p8105
S'136'
p8106
sS'motori'
p8107
S'78'
p8108
sS'esteri'
p8109
S'346'
p8110
sS'cronaca'
p8111
S'1001'
p8112
sS'sport'
p8113
S'1064'
p8114
sS'rubriche'
p8115
S'687'
p8116
sa(dp8117
S'tecnologia'
p8118
S'111'
p8119
sS'regione'
p8120
S'119'
p8121
sS'scienza'
p8122
S'504'
p8123
sS'persone'
p8124
S'301'
p8125
sS'politica'
p8126
S'196'
p8127
sS'spettacolo'
p8128
S'480'
p8129
sS'economia'
p8130
S'500'
p8131
sS'gallerie'
p8132
S'388'
p8133
sS'salute'
p8134
S'167'
p8135
sS'motori'
p8136
S'105'
p8137
sS'esteri'
p8138
S'250'
p8139
sS'cronaca'
p8140
S'903'
p8141
sS'sport'
p8142
S'798'
p8143
sS'rubriche'
p8144
S'666'
p8145
sa(dp8146
S'tecnologia'
p8147
S'123'
p8148
sS'regione'
p8149
S'243'
p8150
sS'scienza'
p8151
S'414'
p8152
sS'persone'
p8153
S'456'
p8154
sS'politica'
p8155
S'220'
p8156
sS'giugno'
p8157
S'90'
p8158
sS'spettacolo'
p8159
S'488'
p8160
sS'economia'
p8161
S'525'
p8162
sS'gallerie'
p8163
S'557'
p8164
sS'motori'
p8165
S'106'
p8166
sS'esteri'
p8167
S'380'
p8168
sS'cronaca'
p8169
S'1307'
p8170
sS'sport'
p8171
S'1010'
p8172
sS'rubriche'
p8173
S'799'
p8174
sa(dp8175
S'tecnologia'
p8176
S'149'
p8177
sS'regione'
p8178
S'241'
p8179
sS'scienza'
p8180
S'328'
p8181
sS'persone'
p8182
S'456'
p8183
sS'media'
p8184
S'86'
p8185
sS'politica'
p8186
S'163'
p8187
sS'spettacolo'
p8188
S'348'
p8189
sS'economia'
p8190
S'419'
p8191
sS'gallerie'
p8192
S'396'
p8193
sS'motori'
p8194
S'173'
p8195
sS'esteri'
p8196
S'305'
p8197
sS'cronaca'
p8198
S'1164'
p8199
sS'sport'
p8200
S'1058'
p8201
sS'rubriche'
p8202
S'879'
p8203
sa(dp8204
S'tecnologia'
p8205
S'162'
p8206
sS'regione'
p8207
S'209'
p8208
sS'scienza'
p8209
S'333'
p8210
sS'persone'
p8211
S'463'
p8212
sS'politica'
p8213
S'251'
p8214
sS'spettacolo'
p8215
S'400'
p8216
sS'economia'
p8217
S'482'
p8218
sS'gallerie'
p8219
S'254'
p8220
sS'salute'
p8221
S'160'
p8222
sS'motori'
p8223
S'257'
p8224
sS'esteri'
p8225
S'497'
p8226
sS'cronaca'
p8227
S'1321'
p8228
sS'sport'
p8229
S'1165'
p8230
sS'rubriche'
p8231
S'983'
p8232
sa(dp8233
S'tecnologia'
p8234
S'113'
p8235
sS'regione'
p8236
S'91'
p8237
sS'scienza'
p8238
S'236'
p8239
sS'persone'
p8240
S'353'
p8241
sS'media'
p8242
S'94'
p8243
sS'politica'
p8244
S'546'
p8245
sS'spettacolo'
p8246
S'369'
p8247
sS'economia'
p8248
S'596'
p8249
sS'gallerie'
p8250
S'357'
p8251
sS'motori'
p8252
S'183'
p8253
sS'esteri'
p8254
S'431'
p8255
sS'cronaca'
p8256
S'1062'
p8257
sS'sport'
p8258
S'833'
p8259
sS'rubriche'
p8260
S'1153'
p8261
sa(dp8262
S'tecnologia'
p8263
S'125'
p8264
sS'regione'
p8265
S'114'
p8266
sS'scienza'
p8267
S'268'
p8268
sS'persone'
p8269
S'335'
p8270
sS'politica'
p8271
S'317'
p8272
sS'spettacolo'
p8273
S'273'
p8274
sS'economia'
p8275
S'704'
p8276
sS'gallerie'
p8277
S'362'
p8278
sS'salute'
p8279
S'109'
p8280
sS'motori'
p8281
S'108'
p8282
sS'esteri'
p8283
S'311'
p8284
sS'cronaca'
p8285
S'1014'
p8286
sS'sport'
p8287
S'822'
p8288
sS'rubriche'
p8289
S'822'
p8290
sa(dp8291
S'tecnologia'
p8292
S'103'
p8293
sS'scuola'
p8294
S'127'
p8295
sS'scienza'
p8296
S'312'
p8297
sS'persone'
p8298
S'334'
p8299
sS'politica'
p8300
S'223'
p8301
sS'prodotto'
p8302
S'318'
p8303
sS'spettacolo'
p8304
S'370'
p8305
sS'economia'
p8306
S'707'
p8307
sS'gallerie'
p8308
S'281'
p8309
sS'salute'
p8310
S'135'
p8311
sS'esteri'
p8312
S'367'
p8313
sS'cronaca'
p8314
S'1111'
p8315
sS'sport'
p8316
S'1249'
p8317
sS'rubriche'
p8318
S'794'
p8319
sa(dp8320
S'tecnologia'
p8321
S'133'
p8322
sS'regione'
p8323
S'122'
p8324
sS'scienza'
p8325
S'281'
p8326
sS'persone'
p8327
S'328'
p8328
sS'politica'
p8329
S'144'
p8330
sS'giugno'
p8331
S'105'
p8332
sS'prodotto'
p8333
S'325'
p8334
sS'spettacolo'
p8335
S'379'
p8336
sS'economia'
p8337
S'604'
p8338
sS'gallerie'
p8339
S'286'
p8340
sS'esteri'
p8341
S'458'
p8342
sS'cronaca'
p8343
S'1290'
p8344
sS'sport'
p8345
S'1085'
p8346
sS'rubriche'
p8347
S'742'
p8348
sa(dp8349
S'tecnologia'
p8350
S'110'
p8351
sS'regione'
p8352
S'151'
p8353
sS'scienza'
p8354
S'239'
p8355
sS'persone'
p8356
S'318'
p8357
sS'media'
p8358
S'155'
p8359
sS'politica'
p8360
S'160'
p8361
sS'prodotto'
p8362
S'130'
p8363
sS'spettacolo'
p8364
S'590'
p8365
sS'economia'
p8366
S'606'
p8367
sS'gallerie'
p8368
S'329'
p8369
sS'esteri'
p8370
S'444'
p8371
sS'cronaca'
p8372
S'817'
p8373
sS'sport'
p8374
S'911'
p8375
sS'rubriche'
p8376
S'718'
p8377
sa(dp8378
S'tecnologia'
p8379
S'98'
p8380
sS'regione'
p8381
S'127'
p8382
sS'scienza'
p8383
S'181'
p8384
sS'persone'
p8385
S'273'
p8386
sS'media'
p8387
S'117'
p8388
sS'politica'
p8389
S'181'
p8390
sS'spettacolo'
p8391
S'314'
p8392
sS'economia'
p8393
S'583'
p8394
sS'gallerie'
p8395
S'283'
p8396
sS'motori'
p8397
S'119'
p8398
sS'esteri'
p8399
S'384'
p8400
sS'cronaca'
p8401
S'903'
p8402
sS'sport'
p8403
S'966'
p8404
sS'rubriche'
p8405
S'642'
p8406
sa(dp8407
S'tecnologia'
p8408
S'99'
p8409
sS'regione'
p8410
S'99'
p8411
sS'scienza'
p8412
S'227'
p8413
sS'persone'
p8414
S'279'
p8415
sS'media'
p8416
S'82'
p8417
sS'politica'
p8418
S'166'
p8419
sS'giugno'
p8420
S'63'
p8421
sS'spettacolo'
p8422
S'345'
p8423
sS'economia'
p8424
S'573'
p8425
sS'gallerie'
p8426
S'224'
p8427
sS'esteri'
p8428
S'281'
p8429
sS'cronaca'
p8430
S'1062'
p8431
sS'sport'
p8432
S'1124'
p8433
sS'rubriche'
p8434
S'842'
p8435
sa(dp8436
S'tecnologia'
p8437
S'134'
p8438
sS'scienza'
p8439
S'269'
p8440
sS'persone'
p8441
S'358'
p8442
sS'media'
p8443
S'123'
p8444
sS'politica'
p8445
S'137'
p8446
sS'prodotto'
p8447
S'119'
p8448
sS'spettacolo'
p8449
S'671'
p8450
sS'economia'
p8451
S'591'
p8452
sS'gallerie'
p8453
S'281'
p8454
sS'motori'
p8455
S'76'
p8456
sS'esteri'
p8457
S'290'
p8458
sS'cronaca'
p8459
S'934'
p8460
sS'sport'
p8461
S'950'
p8462
sS'rubriche'
p8463
S'778'
p8464
sa(dp8465
S'tecnologia'
p8466
S'154'
p8467
sS'regione'
p8468
S'115'
p8469
sS'scienza'
p8470
S'224'
p8471
sS'persone'
p8472
S'336'
p8473
sS'media'
p8474
S'111'
p8475
sS'politica'
p8476
S'229'
p8477
sS'spettacolo'
p8478
S'455'
p8479
sS'economia'
p8480
S'470'
p8481
sS'gallerie'
p8482
S'253'
p8483
sS'esteri'
p8484
S'261'
p8485
sS'cronaca'
p8486
S'901'
p8487
sS'sport'
p8488
S'988'
p8489
sS'rubriche'
p8490
S'843'
p8491
sS'scuola'
p8492
S'109'
p8493
sa(dp8494
S'tecnologia'
p8495
S'240'
p8496
sS'regione'
p8497
S'103'
p8498
sS'scienza'
p8499
S'205'
p8500
sS'persone'
p8501
S'471'
p8502
sS'politica'
p8503
S'200'
p8504
sS'spettacolo'
p8505
S'484'
p8506
sS'economia'
p8507
S'613'
p8508
sS'gallerie'
p8509
S'467'
p8510
sS'salute'
p8511
S'105'
p8512
sS'motori'
p8513
S'445'
p8514
sS'esteri'
p8515
S'360'
p8516
sS'cronaca'
p8517
S'838'
p8518
sS'sport'
p8519
S'1075'
p8520
sS'rubriche'
p8521
S'632'
p8522
sa(dp8523
S'tecnologia'
p8524
S'154'
p8525
sS'scuola'
p8526
S'211'
p8527
sS'scienza'
p8528
S'170'
p8529
sS'persone'
p8530
S'336'
p8531
sS'politica'
p8532
S'241'
p8533
sS'spettacolo'
p8534
S'355'
p8535
sS'economia'
p8536
S'791'
p8537
sS'gallerie'
p8538
S'333'
p8539
sS'salute'
p8540
S'183'
p8541
sS'motori'
p8542
S'184'
p8543
sS'esteri'
p8544
S'269'
p8545
sS'cronaca'
p8546
S'863'
p8547
sS'sport'
p8548
S'959'
p8549
sS'rubriche'
p8550
S'742'
p8551
sa(dp8552
S'tecnologia'
p8553
S'292'
p8554
sS'scuola'
p8555
S'178'
p8556
sS'scienza'
p8557
S'162'
p8558
sS'persone'
p8559
S'335'
p8560
sS'media'
p8561
S'117'
p8562
sS'politica'
p8563
S'164'
p8564
sS'spettacolo'
p8565
S'368'
p8566
sS'economia'
p8567
S'621'
p8568
sS'gallerie'
p8569
S'384'
p8570
sS'motori'
p8571
S'164'
p8572
sS'esteri'
p8573
S'979'
p8574
sS'cronaca'
p8575
S'1037'
p8576
sS'sport'
p8577
S'1051'
p8578
sS'rubriche'
p8579
S'708'
p8580
sa(dp8581
S'tecnologia'
p8582
S'364'
p8583
sS'regione'
p8584
S'91'
p8585
sS'scienza'
p8586
S'141'
p8587
sS'persone'
p8588
S'305'
p8589
sS'politica'
p8590
S'110'
p8591
sS'spettacolo'
p8592
S'342'
p8593
sS'economia'
p8594
S'500'
p8595
sS'gallerie'
p8596
S'211'
p8597
sS'motori'
p8598
S'338'
p8599
sS'esteri'
p8600
S'819'
p8601
sS'cronaca'
p8602
S'848'
p8603
sS'sport'
p8604
S'1070'
p8605
sS'rossi'
p8606
S'84'
p8607
sS'rubriche'
p8608
S'636'
p8609
sa(dp8610
S'tecnologia'
p8611
S'219'
p8612
sS'regione'
p8613
S'120'
p8614
sS'scienza'
p8615
S'182'
p8616
sS'persone'
p8617
S'292'
p8618
sS'politica'
p8619
S'167'
p8620
sS'spettacolo'
p8621
S'371'
p8622
sS'economia'
p8623
S'799'
p8624
sS'gallerie'
p8625
S'265'
p8626
sS'motori'
p8627
S'213'
p8628
sS'esteri'
p8629
S'802'
p8630
sS'cronaca'
p8631
S'781'
p8632
sS'sport'
p8633
S'1064'
p8634
sS'rubriche'
p8635
S'744'
p8636
sS'scuola'
p8637
S'63'
p8638
sa(dp8639
S'tecnologia'
p8640
S'165'
p8641
sS'regione'
p8642
S'107'
p8643
sS'scienza'
p8644
S'176'
p8645
sS'persone'
p8646
S'378'
p8647
sS'politica'
p8648
S'193'
p8649
sS'spettacolo'
p8650
S'489'
p8651
sS'economia'
p8652
S'1037'
p8653
sS'gallerie'
p8654
S'571'
p8655
sS'salute'
p8656
S'90'
p8657
sS'motori'
p8658
S'183'
p8659
sS'esteri'
p8660
S'612'
p8661
sS'cronaca'
p8662
S'814'
p8663
sS'sport'
p8664
S'954'
p8665
sS'rubriche'
p8666
S'679'
p8667
sa(dp8668
S'tecnologia'
p8669
S'153'
p8670
sS'regione'
p8671
S'170'
p8672
sS'scienza'
p8673
S'236'
p8674
sS'persone'
p8675
S'422'
p8676
sS'media'
p8677
S'117'
p8678
sS'politica'
p8679
S'224'
p8680
sS'spettacolo'
p8681
S'379'
p8682
sS'economia'
p8683
S'912'
p8684
sS'gallerie'
p8685
S'320'
p8686
sS'motori'
p8687
S'193'
p8688
sS'esteri'
p8689
S'449'
p8690
sS'cronaca'
p8691
S'888'
p8692
sS'sport'
p8693
S'895'
p8694
sS'rubriche'
p8695
S'705'
p8696
sasS'9'
p8697
(lp8698
(dp8699
a(dp8700
a(dp8701
S'tecnologia'
p8702
S'169'
p8703
sS'regione'
p8704
S'85'
p8705
sS'scienza'
p8706
S'328'
p8707
sS'persone'
p8708
S'361'
p8709
sS'politica'
p8710
S'248'
p8711
sS'spettacolo'
p8712
S'543'
p8713
sS'economia'
p8714
S'375'
p8715
sS'gallerie'
p8716
S'222'
p8717
sS'salute'
p8718
S'93'
p8719
sS'motori'
p8720
S'144'
p8721
sS'esteri'
p8722
S'386'
p8723
sS'cronaca'
p8724
S'893'
p8725
sS'sport'
p8726
S'1129'
p8727
sS'rubriche'
p8728
S'698'
p8729
sa(dp8730
S'tecnologia'
p8731
S'167'
p8732
sS'scuola'
p8733
S'90'
p8734
sS'scienza'
p8735
S'281'
p8736
sS'persone'
p8737
S'404'
p8738
sS'politica'
p8739
S'187'
p8740
sS'spettacolo'
p8741
S'598'
p8742
sS'economia'
p8743
S'472'
p8744
sS'gallerie'
p8745
S'288'
p8746
sS'salute'
p8747
S'93'
p8748
sS'motori'
p8749
S'92'
p8750
sS'esteri'
p8751
S'390'
p8752
sS'cronaca'
p8753
S'882'
p8754
sS'sport'
p8755
S'1117'
p8756
sS'rubriche'
p8757
S'662'
p8758
sa(dp8759
S'tecnologia'
p8760
S'132'
p8761
sS'regione'
p8762
S'146'
p8763
sS'scienza'
p8764
S'354'
p8765
sS'persone'
p8766
S'294'
p8767
sS'politica'
p8768
S'179'
p8769
sS'spettacolo'
p8770
S'576'
p8771
sS'economia'
p8772
S'319'
p8773
sS'gallerie'
p8774
S'300'
p8775
sS'salute'
p8776
S'115'
p8777
sS'motori'
p8778
S'78'
p8779
sS'esteri'
p8780
S'487'
p8781
sS'cronaca'
p8782
S'861'
p8783
sS'sport'
p8784
S'955'
p8785
sS'rubriche'
p8786
S'762'
p8787
sa(dp8788
S'tecnologia'
p8789
S'150'
p8790
sS'scienza'
p8791
S'167'
p8792
sS'persone'
p8793
S'359'
p8794
sS'politica'
p8795
S'208'
p8796
sS'spettacolo'
p8797
S'662'
p8798
sS'economia'
p8799
S'194'
p8800
sS'gallerie'
p8801
S'320'
p8802
sS'salute'
p8803
S'137'
p8804
sS'motori'
p8805
S'157'
p8806
sS'esteri'
p8807
S'360'
p8808
sS'viaggi'
p8809
S'127'
p8810
sS'cronaca'
p8811
S'828'
p8812
sS'sport'
p8813
S'1146'
p8814
sS'rubriche'
p8815
S'890'
p8816
sa(dp8817
S'tecnologia'
p8818
S'183'
p8819
sS'scienza'
p8820
S'153'
p8821
sS'persone'
p8822
S'289'
p8823
sS'media'
p8824
S'181'
p8825
sS'politica'
p8826
S'149'
p8827
sS'spettacolo'
p8828
S'486'
p8829
sS'economia'
p8830
S'339'
p8831
sS'gallerie'
p8832
S'223'
p8833
sS'motori'
p8834
S'90'
p8835
sS'esteri'
p8836
S'443'
p8837
sS'viaggi'
p8838
S'161'
p8839
sS'cronaca'
p8840
S'774'
p8841
sS'sport'
p8842
S'1383'
p8843
sS'rubriche'
p8844
S'808'
p8845
sa(dp8846
S'tecnologia'
p8847
S'225'
p8848
sS'scuola'
p8849
S'106'
p8850
sS'scienza'
p8851
S'191'
p8852
sS'persone'
p8853
S'230'
p8854
sS'politica'
p8855
S'169'
p8856
sS'spettacolo'
p8857
S'491'
p8858
sS'economia'
p8859
S'293'
p8860
sS'gallerie'
p8861
S'357'
p8862
sS'salute'
p8863
S'120'
p8864
sS'motori'
p8865
S'90'
p8866
sS'esteri'
p8867
S'367'
p8868
sS'cronaca'
p8869
S'667'
p8870
sS'sport'
p8871
S'970'
p8872
sS'rubriche'
p8873
S'731'
p8874
sa(dp8875
S'tecnologia'
p8876
S'245'
p8877
sS'scuola'
p8878
S'66'
p8879
sS'scienza'
p8880
S'156'
p8881
sS'persone'
p8882
S'356'
p8883
sS'politica'
p8884
S'191'
p8885
sS'spettacolo'
p8886
S'414'
p8887
sS'economia'
p8888
S'318'
p8889
sS'gallerie'
p8890
S'405'
p8891
sS'salute'
p8892
S'65'
p8893
sS'motori'
p8894
S'79'
p8895
sS'esteri'
p8896
S'527'
p8897
sS'cronaca'
p8898
S'674'
p8899
sS'sport'
p8900
S'1066'
p8901
sS'rubriche'
p8902
S'765'
p8903
sa(dp8904
S'tecnologia'
p8905
S'347'
p8906
sS'regione'
p8907
S'67'
p8908
sS'scienza'
p8909
S'345'
p8910
sS'persone'
p8911
S'452'
p8912
sS'media'
p8913
S'75'
p8914
sS'politica'
p8915
S'196'
p8916
sS'spettacolo'
p8917
S'586'
p8918
sS'economia'
p8919
S'377'
p8920
sS'gallerie'
p8921
S'243'
p8922
sS'motori'
p8923
S'80'
p8924
sS'esteri'
p8925
S'389'
p8926
sS'cronaca'
p8927
S'647'
p8928
sS'sport'
p8929
S'985'
p8930
sS'rubriche'
p8931
S'759'
p8932
sa(dp8933
S'tecnologia'
p8934
S'210'
p8935
sS'scienza'
p8936
S'250'
p8937
sS'persone'
p8938
S'407'
p8939
sS'spettacolo'
p8940
S'470'
p8941
sS'economia'
p8942
S'236'
p8943
sS'gallerie'
p8944
S'294'
p8945
sS'salute'
p8946
S'105'
p8947
sS'motori'
p8948
S'132'
p8949
sS'moda'
p8950
S'130'
p8951
sS'esteri'
p8952
S'331'
p8953
sS'viaggi'
p8954
S'152'
p8955
sS'cronaca'
p8956
S'728'
p8957
sS'sport'
p8958
S'989'
p8959
sS'rubriche'
p8960
S'691'
p8961
sa(dp8962
S'tecnologia'
p8963
S'166'
p8964
sS'finale'
p8965
S'119'
p8966
sS'scienza'
p8967
S'226'
p8968
sS'persone'
p8969
S'272'
p8970
sS'politica'
p8971
S'309'
p8972
sS'spettacolo'
p8973
S'493'
p8974
sS'economia'
p8975
S'181'
p8976
sS'gallerie'
p8977
S'277'
p8978
sS'motori'
p8979
S'117'
p8980
sS'esteri'
p8981
S'238'
p8982
sS'viaggi'
p8983
S'150'
p8984
sS'cronaca'
p8985
S'641'
p8986
sS'sport'
p8987
S'2020'
p8988
sS'rubriche'
p8989
S'751'
p8990
sa(dp8991
S'tecnologia'
p8992
S'197'
p8993
sS'finale'
p8994
S'158'
p8995
sS'scienza'
p8996
S'203'
p8997
sS'persone'
p8998
S'330'
p8999
sS'media'
p9000
S'190'
p9001
sS'politica'
p9002
S'164'
p9003
sS'spettacolo'
p9004
S'699'
p9005
sS'economia'
p9006
S'198'
p9007
sS'gallerie'
p9008
S'323'
p9009
sS'motori'
p9010
S'234'
p9011
sS'esteri'
p9012
S'314'
p9013
sS'cronaca'
p9014
S'754'
p9015
sS'sport'
p9016
S'2731'
p9017
sS'rubriche'
p9018
S'846'
p9019
sa(dp9020
S'tecnologia'
p9021
S'186'
p9022
sS'scienza'
p9023
S'154'
p9024
sS'persone'
p9025
S'547'
p9026
sS'media'
p9027
S'98'
p9028
sS'politica'
p9029
S'186'
p9030
sS'spettacolo'
p9031
S'685'
p9032
sS'economia'
p9033
S'262'
p9034
sS'gallerie'
p9035
S'335'
p9036
sS'motori'
p9037
S'101'
p9038
sS'esteri'
p9039
S'276'
p9040
sS'viaggi'
p9041
S'502'
p9042
sS'cronaca'
p9043
S'795'
p9044
sS'sport'
p9045
S'1849'
p9046
sS'rubriche'
p9047
S'814'
p9048
sa(dp9049
S'tecnologia'
p9050
S'176'
p9051
sS'scienza'
p9052
S'187'
p9053
sS'persone'
p9054
S'460'
p9055
sS'politica'
p9056
S'186'
p9057
sS'spettacolo'
p9058
S'649'
p9059
sS'economia'
p9060
S'337'
p9061
sS'gallerie'
p9062
S'277'
p9063
sS'motori'
p9064
S'454'
p9065
sS'moda'
p9066
S'159'
p9067
sS'esteri'
p9068
S'340'
p9069
sS'viaggi'
p9070
S'758'
p9071
sS'cronaca'
p9072
S'521'
p9073
sS'sport'
p9074
S'1830'
p9075
sS'rubriche'
p9076
S'589'
p9077
sa(dp9078
S'tecnologia'
p9079
S'214'
p9080
sS'regione'
p9081
S'169'
p9082
sS'scienza'
p9083
S'266'
p9084
sS'persone'
p9085
S'437'
p9086
sS'politica'
p9087
S'297'
p9088
sS'spettacolo'
p9089
S'705'
p9090
sS'economia'
p9091
S'317'
p9092
sS'gallerie'
p9093
S'355'
p9094
sS'motori'
p9095
S'196'
p9096
sS'esteri'
p9097
S'294'
p9098
sS'viaggi'
p9099
S'164'
p9100
sS'cronaca'
p9101
S'739'
p9102
sS'sport'
p9103
S'1988'
p9104
sS'rubriche'
p9105
S'880'
p9106
sa(dp9107
S'tecnologia'
p9108
S'230'
p9109
sS'regione'
p9110
S'187'
p9111
sS'scienza'
p9112
S'265'
p9113
sS'persone'
p9114
S'538'
p9115
sS'media'
p9116
S'102'
p9117
sS'politica'
p9118
S'197'
p9119
sS'spettacolo'
p9120
S'406'
p9121
sS'economia'
p9122
S'355'
p9123
sS'gallerie'
p9124
S'231'
p9125
sS'motori'
p9126
S'92'
p9127
sS'esteri'
p9128
S'442'
p9129
sS'cronaca'
p9130
S'722'
p9131
sS'sport'
p9132
S'1477'
p9133
sS'rubriche'
p9134
S'796'
p9135
sa(dp9136
S'tecnologia'
p9137
g4421
sS'scienza'
p9138
g2619
sS'festa'
p9139
g6924
sS'persone'
p9140
g4421
sS'ottobre'
p9141
g2619
sS'media'
p9142
g4421
sS'politica'
p9143
g6924
sS'economia'
p9144
g4421
sS'gallerie'
p9145
S'13'
p9146
sS'motori'
p9147
g4421
sS'esteri'
p9148
g4421
sS'cronaca'
p9149
g7825
sS'sport'
p9150
g6924
sS'rubriche'
p9151
g6924
sa(dp9152
a(dp9153
a(dp9154
a(dp9155
a(dp9156
a(dp9157
a(dp9158
S'tecnologia'
p9159
S'55'
p9160
sS'regione'
p9161
S'37'
p9162
sS'scienza'
p9163
S'69'
p9164
sS'persone'
p9165
S'123'
p9166
sS'politica'
p9167
S'49'
p9168
sS'spettacolo'
p9169
S'152'
p9170
sS'economia'
p9171
S'177'
p9172
sS'gallerie'
p9173
S'149'
p9174
sS'motori'
p9175
S'38'
p9176
sS'esteri'
p9177
S'190'
p9178
sS'viaggi'
p9179
S'35'
p9180
sS'cronaca'
p9181
S'359'
p9182
sS'sport'
p9183
S'371'
p9184
sS'rubriche'
p9185
S'214'
p9186
sa(dp9187
S'tecnologia'
p9188
S'147'
p9189
sS'scienza'
p9190
S'202'
p9191
sS'persone'
p9192
S'249'
p9193
sS'politica'
p9194
S'94'
p9195
sS'spettacolo'
p9196
S'325'
p9197
sS'economia'
p9198
S'405'
p9199
sS'gallerie'
p9200
S'171'
p9201
sS'motori'
p9202
S'149'
p9203
sS'moda'
p9204
S'78'
p9205
sS'esteri'
p9206
S'362'
p9207
sS'viaggi'
p9208
S'104'
p9209
sS'cronaca'
p9210
S'644'
p9211
sS'sport'
p9212
S'1088'
p9213
sS'rubriche'
p9214
S'428'
p9215
sa(dp9216
S'tecnologia'
p9217
S'164'
p9218
sS'scienza'
p9219
S'191'
p9220
sS'persone'
p9221
S'255'
p9222
sS'media'
p9223
S'142'
p9224
sS'politica'
p9225
S'150'
p9226
sS'spettacolo'
p9227
S'406'
p9228
sS'economia'
p9229
S'471'
p9230
sS'gallerie'
p9231
S'179'
p9232
sS'motori'
p9233
S'222'
p9234
sS'moda'
p9235
S'112'
p9236
sS'esteri'
p9237
S'383'
p9238
sS'cronaca'
p9239
S'716'
p9240
sS'sport'
p9241
S'1483'
p9242
sS'rubriche'
p9243
S'643'
p9244
sa(dp9245
S'tecnologia'
p9246
S'175'
p9247
sS'regione'
p9248
S'75'
p9249
sS'scienza'
p9250
S'298'
p9251
sS'persone'
p9252
S'261'
p9253
sS'media'
p9254
S'116'
p9255
sS'politica'
p9256
S'134'
p9257
sS'spettacolo'
p9258
S'429'
p9259
sS'economia'
p9260
S'493'
p9261
sS'gallerie'
p9262
S'179'
p9263
sS'motori'
p9264
S'103'
p9265
sS'esteri'
p9266
S'281'
p9267
sS'cronaca'
p9268
S'664'
p9269
sS'sport'
p9270
S'1098'
p9271
sS'rubriche'
p9272
S'594'
p9273
sa(dp9274
S'tecnologia'
p9275
S'113'
p9276
sS'regione'
p9277
S'80'
p9278
sS'scienza'
p9279
S'351'
p9280
sS'persone'
p9281
S'303'
p9282
sS'politica'
p9283
S'161'
p9284
sS'spettacolo'
p9285
S'408'
p9286
sS'economia'
p9287
S'356'
p9288
sS'gallerie'
p9289
S'149'
p9290
sS'salute'
p9291
S'73'
p9292
sS'motori'
p9293
S'106'
p9294
sS'esteri'
p9295
S'286'
p9296
sS'cronaca'
p9297
S'744'
p9298
sS'sport'
p9299
S'1083'
p9300
sS'rubriche'
p9301
S'642'
p9302
sa(dp9303
S'tecnologia'
p9304
S'172'
p9305
sS'regione'
p9306
S'64'
p9307
sS'scienza'
p9308
S'140'
p9309
sS'persone'
p9310
S'378'
p9311
sS'politica'
p9312
S'244'
p9313
sS'spettacolo'
p9314
S'576'
p9315
sS'economia'
p9316
S'373'
p9317
sS'gallerie'
p9318
S'176'
p9319
sS'salute'
p9320
S'73'
p9321
sS'motori'
p9322
S'74'
p9323
sS'esteri'
p9324
S'341'
p9325
sS'cronaca'
p9326
S'774'
p9327
sS'sport'
p9328
S'1513'
p9329
sS'rubriche'
p9330
S'824'
p9331
sasS'8'
p9332
(lp9333
(dp9334
S'tecnologia'
p9335
S'155'
p9336
sS'regione'
p9337
S'85'
p9338
sS'scienza'
p9339
S'240'
p9340
sS'persone'
p9341
S'238'
p9342
sS'politica'
p9343
S'166'
p9344
sS'spettacolo'
p9345
S'577'
p9346
sS'economia'
p9347
S'365'
p9348
sS'gallerie'
p9349
S'357'
p9350
sS'motori'
p9351
S'82'
p9352
sS'esteri'
p9353
S'290'
p9354
sS'viaggi'
p9355
S'152'
p9356
sS'cronaca'
p9357
S'1042'
p9358
sS'sport'
p9359
S'1496'
p9360
sS'rubriche'
p9361
S'717'
p9362
sa(dp9363
S'tecnologia'
p9364
S'169'
p9365
sS'regione'
p9366
S'107'
p9367
sS'scienza'
p9368
S'189'
p9369
sS'persone'
p9370
S'237'
p9371
sS'media'
p9372
S'131'
p9373
sS'politica'
p9374
S'107'
p9375
sS'spettacolo'
p9376
S'435'
p9377
sS'economia'
p9378
S'276'
p9379
sS'gallerie'
p9380
S'387'
p9381
sS'motori'
p9382
S'97'
p9383
sS'esteri'
p9384
S'147'
p9385
sS'cronaca'
p9386
S'1114'
p9387
sS'sport'
p9388
S'1208'
p9389
sS'rubriche'
p9390
S'833'
p9391
sa(dp9392
S'tecnologia'
p9393
S'174'
p9394
sS'scienza'
p9395
S'159'
p9396
sS'persone'
p9397
S'203'
p9398
sS'media'
p9399
S'84'
p9400
sS'politica'
p9401
S'159'
p9402
sS'spettacolo'
p9403
S'369'
p9404
sS'economia'
p9405
S'516'
p9406
sS'gallerie'
p9407
S'461'
p9408
sS'salute'
p9409
S'125'
p9410
sS'esteri'
p9411
S'200'
p9412
sS'viaggi'
p9413
S'228'
p9414
sS'cronaca'
p9415
S'789'
p9416
sS'sport'
p9417
S'1199'
p9418
sS'rubriche'
p9419
S'620'
p9420
sa(dp9421
S'tecnologia'
p9422
S'204'
p9423
sS'scienza'
p9424
S'167'
p9425
sS'persone'
p9426
S'282'
p9427
sS'politica'
p9428
S'294'
p9429
sS'spettacolo'
p9430
S'301'
p9431
sS'economia'
p9432
S'448'
p9433
sS'gallerie'
p9434
S'343'
p9435
sS'salute'
p9436
S'112'
p9437
sS'moda'
p9438
S'76'
p9439
sS'esteri'
p9440
S'241'
p9441
sS'viaggi'
p9442
S'354'
p9443
sS'cronaca'
p9444
S'714'
p9445
sS'sport'
p9446
S'939'
p9447
sS'rubriche'
p9448
S'620'
p9449
sa(dp9450
S'tecnologia'
p9451
S'119'
p9452
sS'regione'
p9453
S'113'
p9454
sS'scienza'
p9455
S'217'
p9456
sS'persone'
p9457
S'372'
p9458
sS'politica'
p9459
S'288'
p9460
sS'spettacolo'
p9461
S'332'
p9462
sS'economia'
p9463
S'362'
p9464
sS'gallerie'
p9465
S'442'
p9466
sS'salute'
p9467
S'86'
p9468
sS'esteri'
p9469
S'203'
p9470
sS'viaggi'
p9471
S'305'
p9472
sS'cronaca'
p9473
S'888'
p9474
sS'sport'
p9475
S'1145'
p9476
sS'rubriche'
p9477
S'620'
p9478
sa(dp9479
S'tecnologia'
p9480
S'110'
p9481
sS'regione'
p9482
S'98'
p9483
sS'scienza'
p9484
S'262'
p9485
sS'persone'
p9486
S'307'
p9487
sS'politica'
p9488
S'203'
p9489
sS'spettacolo'
p9490
S'342'
p9491
sS'economia'
p9492
S'438'
p9493
sS'gallerie'
p9494
S'481'
p9495
sS'moda'
p9496
S'111'
p9497
sS'esteri'
p9498
S'381'
p9499
sS'viaggi'
p9500
S'112'
p9501
sS'cronaca'
p9502
S'915'
p9503
sS'sport'
p9504
S'978'
p9505
sS'rubriche'
p9506
S'777'
p9507
sa(dp9508
S'tecnologia'
p9509
g9332
sS'regione'
p9510
g6136
sS'persone'
p9511
S'18'
p9512
sS'politica'
p9513
g3520
sS'spettacolo'
p9514
S'24'
p9515
sS'economia'
p9516
S'14'
p9517
sS'gallerie'
p9518
g9332
sS'musica'
p9519
S'14'
p9520
sS'salute'
p9521
g5235
sS'social'
p9522
g6136
sS'esteri'
p9523
S'31'
p9524
sS'cronaca'
p9525
S'52'
p9526
sS'sport'
p9527
S'24'
p9528
sS'rubriche'
p9529
S'31'
p9530
sa(dp9531
a(dp9532
a(dp9533
a(dp9534
a(dp9535
a(dp9536
a(dp9537
a(dp9538
a(dp9539
a(dp9540
a(dp9541
a(dp9542
a(dp9543
a(dp9544
a(dp9545
a(dp9546
a(dp9547
a(dp9548
a(dp9549
a(dp9550
a(dp9551
a(dp9552
a(dp9553
a(dp9554
as.