(dp0
I1
(dp1
sI2
(dp2
S'tecnologia'
p3
F1856.0
sS'moda'
p4
F102.0
sS'finale'
p5
F1.0
sS'ritorno'
p6
F3.0
sS'regione'
p7
F402.0
sS'scienza'
p8
F3370.0
sS'persone'
p9
F1077.0
sS'politica'
p10
F2392.0
sS'prodotto'
p11
F1.0
sS'spettacolo'
p12
F5720.0
sS'economia'
p13
F4713.0
sS'gallerie'
p14
F2438.0
sS'salute'
p15
F607.0
sS'motori'
p16
F900.0
sS'online'
p17
F1.0
sS'esteri'
p18
F3960.0
sS'viaggi'
p19
F357.0
sS'cronaca'
p20
F10570.0
sS'sport'
p21
F11601.0
sS'rubriche'
p22
F8138.0
sS'scuola'
p23
F737.0
ssI3
(dp24
S'tecnologia'
p25
F867.0
sS'regione'
p26
F2.0
sS'scuola'
p27
F320.0
sS'scienza'
p28
F2111.0
sS'persone'
p29
F817.0
sS'media'
p30
F186.0
sS'politica'
p31
F1041.0
sS'spettacolo'
p32
F2240.0
sS'economia'
p33
F1807.0
sS'gallerie'
p34
F729.0
sS'salute'
p35
F431.0
sS'motori'
p36
F341.0
sS'moda'
p37
F348.0
sS'esteri'
p38
F7385.0
sS'futuro'
p39
F2.0
sS'cronaca'
p40
F6397.0
sS'sport'
p41
F5658.0
sS'rubriche'
p42
F4810.0
ssI4
(dp43
S'fondi'
p44
F97.0
sS'storia'
p45
F134.0
sS'ritorno'
p46
F174.0
sS'storie'
p47
F1.0
sS'tecnologia'
p48
F7481.0
sS'politica'
p49
F7434.0
sS'economia'
p50
F11378.0
sS'motori'
p51
F2456.0
sS'esteri'
p52
F15800.0
sS'sport'
p53
F40995.0
sS'ultimora'
p54
F1.0
sS'rubriche'
p55
F27528.0
sS'scuola'
p56
F1431.0
sS'regione'
p57
F1214.0
sS'media'
p58
F1958.0
sS'spettacolo'
p59
F13511.0
sS'gallerie'
p60
F7486.0
sS'online'
p61
F2.0
sS'salute'
p62
F1645.0
sS'persone'
p63
F4824.0
sS'finale'
p64
F1.0
sS'viaggi'
p65
F378.0
sS'intesa'
p66
F171.0
sS'scienza'
p67
F12032.0
sS'moda'
p68
F370.0
sS'giochi'
p69
F1.0
sS'cronaca'
p70
F39834.0
ssI5
(dp71
S'tecnologia'
p72
F6758.0
sS'storia'
p73
F1.0
sS'storie'
p74
F509.0
sS'politica'
p75
F8693.0
sS'economia'
p76
F13474.0
sS'motori'
p77
F1326.0
sS'moda'
p78
F1.0
sS'esteri'
p79
F17006.0
sS'sport'
p80
F59748.0
sS'rubriche'
p81
F29774.0
sS'mare'
p82
F257.0
sS'fissa'
p83
F1.0
sS'scuola'
p84
F3592.0
sS'regione'
p85
F1622.0
sS'prodotto'
p86
F3.0
sS'media'
p87
F1648.0
sS'spettacolo'
p88
F12601.0
sS'gallerie'
p89
F8712.0
sS'salute'
p90
F1778.0
sS'stelle'
p91
F1.0
sS'persone'
p92
F6202.0
sS'finale'
p93
F261.0
sS'viaggi'
p94
F886.0
sS'ragazza'
p95
F1.0
sS'scienza'
p96
F12666.0
sS'servizi'
p97
F166.0
sS'carte'
p98
F15.0
sS'cronaca'
p99
F41202.0
ssI6
(dp100
S'tecnologia'
p101
F4778.0
sS'storia'
p102
F9.0
sS'storie'
p103
F1557.0
sS'politica'
p104
F5801.0
sS'giugno'
p105
F1094.0
sS'economia'
p106
F14605.0
sS'motori'
p107
F1748.0
sS'esteri'
p108
F15275.0
sS'sport'
p109
F40575.0
sS'ultimora'
p110
F3.0
sS'rubriche'
p111
F23240.0
sS'mare'
p112
F8.0
sS'scuola'
p113
F1521.0
sS'regione'
p114
F2018.0
sS'media'
p115
F642.0
sS'spettacolo'
p116
F10343.0
sS'gallerie'
p117
F7347.0
sS'online'
p118
F2.0
sS'salute'
p119
F1817.0
sS'persone'
p120
F4335.0
sS'finale'
p121
F124.0
sS'viaggi'
p122
F1548.0
sS'scienza'
p123
F11263.0
sS'analisi'
p124
F230.0
sS'moda'
p125
F367.0
sS'giochi'
p126
F3.0
sS'cronaca'
p127
F34157.0
sS'messaggi'
p128
F14.0
ssI7
(dp129
S'tecnologia'
p130
F1328.0
sS'storie'
p131
F61.0
sS'regione'
p132
F112.0
sS'scuola'
p133
F198.0
sS'scienza'
p134
F2526.0
sS'persone'
p135
F865.0
sS'media'
p136
F360.0
sS'politica'
p137
F1300.0
sS'spettacolo'
p138
F2220.0
sS'economia'
p139
F7184.0
sS'gallerie'
p140
F1890.0
sS'salute'
p141
F324.0
sS'motori'
p142
F626.0
sS'moda'
p143
F18.0
sS'esteri'
p144
F4661.0
sS'viaggi'
p145
F3805.0
sS'cronaca'
p146
F9576.0
sS'sport'
p147
F7742.0
sS'rubriche'
p148
F5506.0
ssI8
(dp149
sI9
(dp150
sI10
(dp151
S'tecnologia'
p152
F235.0
sS'ritorno'
p153
F116.0
sS'regione'
p154
F88.0
sS'scienza'
p155
F604.0
sS'persone'
p156
F232.0
sS'politica'
p157
F242.0
sS'spettacolo'
p158
F852.0
sS'economia'
p159
F602.0
sS'gallerie'
p160
F222.0
sS'salute'
p161
F4.0
sS'motori'
p162
F139.0
sS'esteri'
p163
F598.0
sS'viaggi'
p164
F11.0
sS'cronaca'
p165
F2099.0
sS'sport'
p166
F1585.0
sS'rubriche'
p167
F1071.0
sS'scuola'
p168
F3.0
ssI11
(dp169
S'tecnologia'
p170
F5523.0
sS'storia'
p171
F1.0
sS'ritorno'
p172
F4.0
sS'politica'
p173
F3539.0
sS'economia'
p174
F7409.0
sS'motori'
p175
F5769.0
sS'esteri'
p176
F26354.0
sS'sport'
p177
F33538.0
sS'rubriche'
p178
F21868.0
sS'regina'
p179
F1.0
sS'scuola'
p180
F382.0
sS'regione'
p181
F506.0
sS'media'
p182
F909.0
sS'spettacolo'
p183
F11313.0
sS'gallerie'
p184
F6476.0
sS'salute'
p185
F1296.0
sS'persone'
p186
F4414.0
sS'novembre'
p187
F1052.0
sS'finale'
p188
F1.0
sS'corso'
p189
F184.0
sS'viaggi'
p190
F4890.0
sS'titolo'
p191
F4.0
sS'ragazza'
p192
F1.0
sS'scienza'
p193
F10112.0
sS'moda'
p194
F399.0
sS'social'
p195
F2.0
sS'atto'
p196
F1.0
sS'futuro'
p197
F2.0
sS'cronaca'
p198
F31483.0
ssI12
(dp199
S'tecnologia'
p200
F3955.0
sS'storie'
p201
F49.0
sS'politica'
p202
F3212.0
sS'giugno'
p203
F1.0
sS'economia'
p204
F6295.0
sS'banca'
p205
F5.0
sS'motori'
p206
F457.0
sS'esteri'
p207
F10885.0
sS'sport'
p208
F23983.0
sS'rubriche'
p209
F14747.0
sS'mare'
p210
F3.0
sS'scuola'
p211
F218.0
sS'regione'
p212
F719.0
sS'moda'
p213
F248.0
sS'media'
p214
F1315.0
sS'spettacolo'
p215
F9789.0
sS'gallerie'
p216
F5028.0
sS'salute'
p217
F346.0
sS'stelle'
p218
F2.0
sS'persone'
p219
F3910.0
sS'novembre'
p220
F1.0
sS'continua'
p221
F4.0
sS'viaggi'
p222
F1769.0
sS'intesa'
p223
F1.0
sS'natale'
p224
F812.0
sS'ragazza'
p225
F1.0
sS'scienza'
p226
F6554.0
sS'servizi'
p227
F3.0
sS'carte'
p228
F2.0
sS'social'
p229
F108.0
sS'cronaca'
p230
F22714.0
ss.