(dp0
S'11'
p1
(lp2
(dp3
S'storia'
p4
S'1'
p5
sS'finale'
p6
g5
sS'persone'
p7
S'4'
p8
sS'novembre'
p9
g5
sS'media'
p10
S'2'
p11
sS'politica'
p12
g11
sS'spettacolo'
p13
S'11'
p14
sS'economia'
p15
S'8'
p16
sS'motori'
p17
g11
sS'esteri'
p18
S'3'
p19
sS'futuro'
p20
g11
sS'cronaca'
p21
S'9'
p22
sS'sport'
p23
S'36'
p24
sS'rubriche'
p25
S'13'
p26
sa(dp27
S'tecnologia'
p28
S'162'
p29
sS'scienza'
p30
S'293'
p31
sS'persone'
p32
S'182'
p33
sS'media'
p34
S'175'
p35
sS'politica'
p36
S'228'
p37
sS'spettacolo'
p38
S'523'
p39
sS'economia'
p40
S'425'
p41
sS'gallerie'
p42
S'459'
p43
sS'motori'
p44
S'205'
p45
sS'esteri'
p46
S'668'
p47
sS'viaggi'
p48
S'375'
p49
sS'cronaca'
p50
S'1408'
p51
sS'sport'
p52
S'2837'
p53
sS'rubriche'
p54
S'1223'
p55
sa(dp56
S'tecnologia'
p57
S'360'
p58
sS'scienza'
p59
S'389'
p60
sS'persone'
p61
S'187'
p62
sS'media'
p63
S'110'
p64
sS'politica'
p65
S'290'
p66
sS'spettacolo'
p67
S'485'
p68
sS'economia'
p69
S'440'
p70
sS'gallerie'
p71
S'652'
p72
sS'motori'
p73
S'355'
p74
sS'moda'
p75
S'102'
p76
sS'esteri'
p77
S'594'
p78
sS'cronaca'
p79
S'1285'
p80
sS'sport'
p81
S'2167'
p82
sS'rubriche'
p83
S'1023'
p84
sa(dp85
S'tecnologia'
p86
S'228'
p87
sS'scienza'
p88
S'379'
p89
sS'persone'
p90
S'178'
p91
sS'politica'
p92
S'166'
p93
sS'spettacolo'
p94
S'515'
p95
sS'economia'
p96
S'343'
p97
sS'gallerie'
p98
S'265'
p99
sS'salute'
p100
S'183'
p101
sS'motori'
p102
S'286'
p103
sS'esteri'
p104
S'642'
p105
sS'viaggi'
p106
S'161'
p107
sS'cronaca'
p108
S'1430'
p109
sS'sport'
p110
S'1923'
p111
sS'rubriche'
p112
S'1062'
p113
sa(dp114
S'tecnologia'
p115
S'177'
p116
sS'scienza'
p117
S'639'
p118
sS'persone'
p119
S'233'
p120
sS'novembre'
p121
S'175'
p122
sS'politica'
p123
S'205'
p124
sS'spettacolo'
p125
S'591'
p126
sS'economia'
p127
S'371'
p128
sS'gallerie'
p129
S'229'
p130
sS'salute'
p131
S'125'
p132
sS'motori'
p133
S'812'
p134
sS'esteri'
p135
S'602'
p136
sS'cronaca'
p137
S'1260'
p138
sS'sport'
p139
S'1802'
p140
sS'rubriche'
p141
S'1111'
p142
sa(dp143
S'tecnologia'
p144
S'216'
p145
sS'scienza'
p146
S'420'
p147
sS'persone'
p148
S'157'
p149
sS'novembre'
p150
S'80'
p151
sS'media'
p152
S'71'
p153
sS'politica'
p154
S'203'
p155
sS'spettacolo'
p156
S'532'
p157
sS'economia'
p158
S'385'
p159
sS'gallerie'
p160
S'189'
p161
sS'motori'
p162
S'488'
p163
sS'esteri'
p164
S'551'
p165
sS'cronaca'
p166
S'1315'
p167
sS'sport'
p168
S'1605'
p169
sS'rubriche'
p170
S'957'
p171
sa(dp172
S'tecnologia'
p173
g8
sS'scienza'
p174
g22
sS'persone'
p175
S'12'
p176
sS'novembre'
p177
g11
sS'politica'
p178
S'11'
p179
sS'spettacolo'
p180
g22
sS'economia'
p181
S'5'
p182
sS'gallerie'
p183
g8
sS'motori'
p184
g22
sS'esteri'
p185
S'13'
p186
sS'viaggi'
p187
S'11'
p188
sS'cronaca'
p189
S'38'
p190
sS'sport'
p191
S'52'
p192
sS'rubriche'
p193
S'34'
p194
sa(dp195
S'tecnologia'
p196
g19
sS'scuola'
p197
g19
sS'scienza'
p198
g5
sS'media'
p199
g11
sS'politica'
p200
g5
sS'atto'
p201
g5
sS'spettacolo'
p202
g182
sS'economia'
p203
g19
sS'motori'
p204
S'13'
p205
sS'social'
p206
g11
sS'esteri'
p207
S'7'
p208
sS'cronaca'
p209
S'16'
p210
sS'sport'
p211
S'15'
p212
sS'rubriche'
p213
S'6'
p214
sa(dp215
S'tecnologia'
p216
S'281'
p217
sS'scienza'
p218
S'495'
p219
sS'persone'
p220
S'335'
p221
sS'novembre'
p222
S'75'
p223
sS'media'
p224
S'108'
p225
sS'politica'
p226
S'306'
p227
sS'spettacolo'
p228
S'662'
p229
sS'economia'
p230
S'385'
p231
sS'gallerie'
p232
S'208'
p233
sS'motori'
p234
S'802'
p235
sS'esteri'
p236
S'421'
p237
sS'cronaca'
p238
S'1693'
p239
sS'sport'
p240
S'2738'
p241
sS'rubriche'
p242
S'1010'
p243
sa(dp244
S'tecnologia'
p245
S'310'
p246
sS'scienza'
p247
S'805'
p248
sS'persone'
p249
S'244'
p250
sS'politica'
p251
S'183'
p252
sS'spettacolo'
p253
S'509'
p254
sS'economia'
p255
S'356'
p256
sS'gallerie'
p257
S'363'
p258
sS'motori'
p259
S'438'
p260
sS'moda'
p261
S'148'
p262
sS'esteri'
p263
S'318'
p264
sS'viaggi'
p265
S'1469'
p266
sS'cronaca'
p267
S'1532'
p268
sS'sport'
p269
S'1574'
p270
sS'rubriche'
p271
S'1049'
p272
sa(dp273
S'tecnologia'
p274
S'218'
p275
sS'scienza'
p276
S'620'
p277
sS'persone'
p278
S'229'
p279
sS'politica'
p280
S'164'
p281
sS'spettacolo'
p282
S'399'
p283
sS'economia'
p284
S'391'
p285
sS'gallerie'
p286
S'226'
p287
sS'motori'
p288
S'514'
p289
sS'moda'
p290
S'142'
p291
sS'esteri'
p292
S'385'
p293
sS'viaggi'
p294
S'533'
p295
sS'cronaca'
p296
S'1888'
p297
sS'sport'
p298
S'1383'
p299
sS'rubriche'
p300
S'847'
p301
sa(dp302
S'tecnologia'
p303
S'244'
p304
sS'scienza'
p305
S'701'
p306
sS'persone'
p307
S'246'
p308
sS'novembre'
p309
S'253'
p310
sS'spettacolo'
p311
S'337'
p312
sS'economia'
p313
S'437'
p314
sS'gallerie'
p315
S'309'
p316
sS'salute'
p317
S'204'
p318
sS'motori'
p319
S'231'
p320
sS'esteri'
p321
S'451'
p322
sS'viaggi'
p323
S'174'
p324
sS'cronaca'
p325
S'1634'
p326
sS'sport'
p327
S'1342'
p328
sS'rubriche'
p329
S'858'
p330
sa(dp331
S'tecnologia'
p332
S'311'
p333
sS'scienza'
p334
S'419'
p335
sS'persone'
p336
S'147'
p337
sS'novembre'
p338
S'102'
p339
sS'politica'
p340
S'92'
p341
sS'spettacolo'
p342
S'626'
p343
sS'economia'
p344
S'238'
p345
sS'gallerie'
p346
S'287'
p347
sS'motori'
p348
S'341'
p349
sS'esteri'
p350
S'570'
p351
sS'viaggi'
p352
S'401'
p353
sS'cronaca'
p354
S'1504'
p355
sS'sport'
p356
S'1392'
p357
sS'rubriche'
p358
S'891'
p359
sa(dp360
S'titolo'
p361
g8
sS'scienza'
p362
g182
sS'persone'
p363
S'29'
p364
sS'novembre'
p365
g182
sS'media'
p366
S'10'
p367
sS'politica'
p368
g16
sS'spettacolo'
p369
S'22'
p370
sS'economia'
p371
S'12'
p372
sS'gallerie'
p373
S'11'
p374
sS'moda'
p375
g8
sS'esteri'
p376
S'220'
p377
sS'cronaca'
p378
S'57'
p379
sS'sport'
p380
S'34'
p381
sS'rubriche'
p382
S'71'
p383
sa(dp384
S'tecnologia'
p385
g5
sS'regina'
p386
g5
sS'ragazza'
p387
g5
sS'scienza'
p388
g5
sS'persone'
p389
g214
sS'novembre'
p390
g11
sS'politica'
p391
g19
sS'spettacolo'
p392
g11
sS'economia'
p393
g5
sS'esteri'
p394
S'25'
p395
sS'cronaca'
p396
g11
sS'sport'
p397
g16
sS'rubriche'
p398
g214
sa(dp399
S'tecnologia'
p400
S'358'
p401
sS'regione'
p402
S'127'
p403
sS'scuola'
p404
S'176'
p405
sS'scienza'
p406
S'381'
p407
sS'persone'
p408
S'200'
p409
sS'politica'
p410
S'291'
p411
sS'spettacolo'
p412
S'618'
p413
sS'economia'
p414
S'217'
p415
sS'gallerie'
p416
S'462'
p417
sS'esteri'
p418
S'4024'
p419
sS'viaggi'
p420
S'383'
p421
sS'cronaca'
p422
S'2090'
p423
sS'sport'
p424
S'858'
p425
sS'rubriche'
p426
S'1417'
p427
sa(dp428
S'tecnologia'
p429
S'248'
p430
sS'scienza'
p431
S'622'
p432
sS'persone'
p433
S'160'
p434
sS'politica'
p435
S'193'
p436
sS'spettacolo'
p437
S'565'
p438
sS'economia'
p439
S'357'
p440
sS'gallerie'
p441
S'340'
p442
sS'salute'
p443
S'249'
p444
sS'motori'
p445
S'200'
p446
sS'esteri'
p447
S'2712'
p448
sS'viaggi'
p449
S'110'
p450
sS'cronaca'
p451
S'1541'
p452
sS'sport'
p453
S'857'
p454
sS'rubriche'
p455
S'1026'
p456
sa(dp457
S'tecnologia'
p458
S'219'
p459
sS'scienza'
p460
S'352'
p461
sS'persone'
p462
S'172'
p463
sS'politica'
p464
S'122'
p465
sS'spettacolo'
p466
S'473'
p467
sS'economia'
p468
S'280'
p469
sS'corso'
p470
S'184'
p471
sS'gallerie'
p472
S'398'
p473
sS'salute'
p474
S'101'
p475
sS'motori'
p476
S'213'
p477
sS'esteri'
p478
S'2996'
p479
sS'cronaca'
p480
S'1655'
p481
sS'sport'
p482
S'1367'
p483
sS'rubriche'
p484
S'1324'
p485
sa(dp486
S'tecnologia'
p487
S'236'
p488
sS'regione'
p489
S'133'
p490
sS'scienza'
p491
S'467'
p492
sS'persone'
p493
S'247'
p494
sS'novembre'
p495
S'165'
p496
sS'politica'
p497
S'152'
p498
sS'spettacolo'
p499
S'388'
p500
sS'economia'
p501
S'171'
p502
sS'gallerie'
p503
S'260'
p504
sS'motori'
p505
S'236'
p506
sS'esteri'
p507
S'2027'
p508
sS'cronaca'
p509
S'1677'
p510
sS'sport'
p511
S'1070'
p512
sS'rubriche'
p513
S'852'
p514
sa(dp515
S'tecnologia'
p516
S'464'
p517
sS'regione'
p518
S'115'
p519
sS'scienza'
p520
S'507'
p521
sS'persone'
p522
S'253'
p523
sS'politica'
p524
S'153'
p525
sS'spettacolo'
p526
S'586'
p527
sS'economia'
p528
S'250'
p529
sS'gallerie'
p530
S'262'
p531
sS'salute'
p532
S'75'
p533
sS'motori'
p534
S'124'
p535
sS'esteri'
p536
S'1713'
p537
sS'cronaca'
p538
S'1373'
p539
sS'sport'
p540
S'841'
p541
sS'rubriche'
p542
S'885'
p543
sa(dp544
S'tecnologia'
p545
g8
sS'ritorno'
p546
g19
sS'scuola'
p547
g214
sS'scienza'
p548
S'16'
p549
sS'persone'
p550
S'11'
p551
sS'politica'
p552
g208
sS'spettacolo'
p553
S'28'
p554
sS'economia'
p555
g182
sS'motori'
p556
g19
sS'esteri'
p557
S'79'
p558
sS'viaggi'
p559
g19
sS'cronaca'
p560
S'47'
p561
sS'sport'
p562
S'42'
p563
sS'rubriche'
p564
S'24'
p565
sa(dp566
S'tecnologia'
p567
g11
sS'ritorno'
p568
g5
sS'regione'
p569
g5
sS'scienza'
p570
g11
sS'persone'
p571
g8
sS'media'
p572
g19
sS'spettacolo'
p573
g19
sS'economia'
p574
g19
sS'motori'
p575
g5
sS'esteri'
p576
S'10'
p577
sS'cronaca'
p578
S'21'
p579
sS'sport'
p580
g16
sS'rubriche'
p581
S'10'
p582
sS'scuola'
p583
g5
sa(dp584
S'tecnologia'
p585
S'265'
p586
sS'scienza'
p587
S'271'
p588
sS'persone'
p589
S'249'
p590
sS'politica'
p591
S'119'
p592
sS'spettacolo'
p593
S'757'
p594
sS'economia'
p595
S'378'
p596
sS'gallerie'
p597
S'331'
p598
sS'salute'
p599
S'133'
p600
sS'motori'
p601
S'105'
p602
sS'esteri'
p603
S'1483'
p604
sS'viaggi'
p605
S'308'
p606
sS'cronaca'
p607
S'1474'
p608
sS'sport'
p609
S'2037'
p610
sS'rubriche'
p611
S'1120'
p612
sa(dp613
S'tecnologia'
p614
S'306'
p615
sS'scienza'
p616
S'649'
p617
sS'persone'
p618
S'178'
p619
sS'media'
p620
S'202'
p621
sS'politica'
p622
S'102'
p623
sS'spettacolo'
p624
S'728'
p625
sS'economia'
p626
S'352'
p627
sS'gallerie'
p628
S'272'
p629
sS'motori'
p630
S'104'
p631
sS'esteri'
p632
S'2037'
p633
sS'viaggi'
p634
S'479'
p635
sS'cronaca'
p636
S'1366'
p637
sS'sport'
p638
S'1313'
p639
sS'rubriche'
p640
S'1126'
p641
sa(dp642
S'tecnologia'
p643
S'305'
p644
sS'regione'
p645
S'129'
p646
sS'scienza'
p647
S'567'
p648
sS'persone'
p649
S'208'
p650
sS'media'
p651
S'121'
p652
sS'politica'
p653
S'158'
p654
sS'spettacolo'
p655
S'416'
p656
sS'economia'
p657
S'443'
p658
sS'gallerie'
p659
S'149'
p660
sS'esteri'
p661
S'877'
p662
sS'viaggi'
p663
S'134'
p664
sS'cronaca'
p665
S'1321'
p666
sS'sport'
p667
S'1526'
p668
sS'rubriche'
p669
S'1038'
p670
sa(dp671
S'tecnologia'
p672
S'156'
p673
sS'scienza'
p674
S'495'
p675
sS'persone'
p676
S'188'
p677
sS'novembre'
p678
S'192'
p679
sS'politica'
p680
S'135'
p681
sS'spettacolo'
p682
S'386'
p683
sS'economia'
p684
S'461'
p685
sS'gallerie'
p686
S'168'
p687
sS'motori'
p688
S'166'
p689
sS'esteri'
p690
S'1226'
p691
sS'viaggi'
p692
S'347'
p693
sS'cronaca'
p694
S'1259'
p695
sS'sport'
p696
S'1685'
p697
sS'rubriche'
p698
S'907'
p699
sa(dp700
S'tecnologia'
p701
S'220'
p702
sS'scuola'
p703
S'96'
p704
sS'scienza'
p705
S'250'
p706
sS'persone'
p707
S'166'
p708
sS'politica'
p709
S'134'
p710
sS'spettacolo'
p711
S'488'
p712
sS'economia'
p713
S'345'
p714
sS'gallerie'
p715
S'246'
p716
sS'salute'
p717
S'122'
p718
sS'motori'
p719
S'118'
p720
sS'esteri'
p721
S'867'
p722
sS'cronaca'
p723
S'1250'
p724
sS'sport'
p725
S'1197'
p726
sS'rubriche'
p727
S'810'
p728
sa(dp729
S'tecnologia'
p730
g11
sS'scienza'
p731
g214
sS'persone'
p732
S'16'
p733
sS'politica'
p734
g19
sS'spettacolo'
p735
S'14'
p736
sS'economia'
p737
S'16'
p738
sS'gallerie'
p739
S'10'
p740
sS'motori'
p741
g19
sS'moda'
p742
g19
sS'esteri'
p743
S'30'
p744
sS'viaggi'
p745
g11
sS'cronaca'
p746
S'25'
p747
sS'sport'
p748
S'42'
p749
sS'rubriche'
p750
S'28'
p751
sa(dp752
S'tecnologia'
p753
g19
sS'regione'
p754
g5
sS'scuola'
p755
g19
sS'scienza'
p756
g22
sS'persone'
p757
g19
sS'spettacolo'
p758
g208
sS'economia'
p759
g19
sS'esteri'
p760
S'21'
p761
sS'cronaca'
p762
S'15'
p763
sS'sport'
p764
S'12'
p765
sS'rubriche'
p766
S'16'
p767
sa(dp768
S'tecnologia'
p769
S'220'
p770
sS'scuola'
p771
S'97'
p772
sS'scienza'
p773
S'342'
p774
sS'persone'
p775
S'170'
p776
sS'media'
p777
S'105'
p778
sS'politica'
p779
S'108'
p780
sS'spettacolo'
p781
S'628'
p782
sS'economia'
p783
S'328'
p784
sS'gallerie'
p785
S'376'
p786
sS'salute'
p787
S'104'
p788
sS'esteri'
p789
S'782'
p790
sS'cronaca'
p791
S'1298'
p792
sS'sport'
p793
S'1775'
p794
sS'rubriche'
p795
S'1124'
p796
sasS'10'
p797
(lp798
(dp799
a(dp800
a(dp801
a(dp802
a(dp803
a(dp804
a(dp805
a(dp806
a(dp807
a(dp808
a(dp809
a(dp810
a(dp811
a(dp812
a(dp813
a(dp814
a(dp815
a(dp816
a(dp817
a(dp818
a(dp819
S'tecnologia'
p820
S'235'
p821
sS'ritorno'
p822
S'116'
p823
sS'regione'
p824
S'88'
p825
sS'scienza'
p826
S'576'
p827
sS'persone'
p828
S'208'
p829
sS'politica'
p830
S'226'
p831
sS'spettacolo'
p832
S'831'
p833
sS'economia'
p834
S'590'
p835
sS'gallerie'
p836
S'215'
p837
sS'motori'
p838
S'118'
p839
sS'esteri'
p840
S'574'
p841
sS'cronaca'
p842
S'2013'
p843
sS'sport'
p844
S'1516'
p845
sS'rubriche'
p846
S'1050'
p847
sa(dp848
a(dp849
a(dp850
a(dp851
a(dp852
a(dp853
a(dp854
a(dp855
a(dp856
a(dp857
S'scuola'
p858
g19
sS'scienza'
p859
S'28'
p860
sS'persone'
p861
S'24'
p862
sS'politica'
p863
S'16'
p864
sS'spettacolo'
p865
S'21'
p866
sS'economia'
p867
S'12'
p868
sS'gallerie'
p869
g208
sS'salute'
p870
g8
sS'motori'
p871
S'21'
p872
sS'esteri'
p873
S'24'
p874
sS'viaggi'
p875
S'11'
p876
sS'cronaca'
p877
S'86'
p878
sS'sport'
p879
S'69'
p880
sS'rubriche'
p881
S'21'
p882
sasS'12'
p883
(lp884
(dp885
S'tecnologia'
p886
S'308'
p887
sS'scienza'
p888
S'380'
p889
sS'persone'
p890
S'187'
p891
sS'media'
p892
S'107'
p893
sS'politica'
p894
S'125'
p895
sS'spettacolo'
p896
S'512'
p897
sS'economia'
p898
S'487'
p899
sS'gallerie'
p900
S'489'
p901
sS'motori'
p902
S'74'
p903
sS'esteri'
p904
S'522'
p905
sS'viaggi'
p906
S'394'
p907
sS'cronaca'
p908
S'1357'
p909
sS'sport'
p910
S'1461'
p911
sS'rubriche'
p912
S'773'
p913
sa(dp914
S'tecnologia'
p915
S'306'
p916
sS'scienza'
p917
S'494'
p918
sS'persone'
p919
S'207'
p920
sS'politica'
p921
S'140'
p922
sS'spettacolo'
p923
S'690'
p924
sS'economia'
p925
S'566'
p926
sS'gallerie'
p927
S'272'
p928
sS'salute'
p929
S'89'
p930
sS'motori'
p931
S'89'
p932
sS'esteri'
p933
S'769'
p934
sS'viaggi'
p935
S'845'
p936
sS'cronaca'
p937
S'1222'
p938
sS'sport'
p939
S'1399'
p940
sS'rubriche'
p941
S'770'
p942
sa(dp943
S'tecnologia'
p944
S'272'
p945
sS'scuola'
p946
S'201'
p947
sS'scienza'
p948
S'477'
p949
sS'persone'
p950
S'187'
p951
sS'media'
p952
S'59'
p953
sS'politica'
p954
S'106'
p955
sS'spettacolo'
p956
S'372'
p957
sS'economia'
p958
S'445'
p959
sS'gallerie'
p960
S'455'
p961
sS'motori'
p962
S'80'
p963
sS'esteri'
p964
S'1472'
p965
sS'cronaca'
p966
S'1268'
p967
sS'sport'
p968
S'1493'
p969
sS'rubriche'
p970
S'984'
p971
sa(dp972
S'tecnologia'
p973
S'318'
p974
sS'scienza'
p975
S'400'
p976
sS'persone'
p977
S'168'
p978
sS'media'
p979
S'81'
p980
sS'politica'
p981
S'108'
p982
sS'spettacolo'
p983
S'462'
p984
sS'economia'
p985
S'324'
p986
sS'gallerie'
p987
S'233'
p988
sS'social'
p989
S'99'
p990
sS'esteri'
p991
S'733'
p992
sS'cronaca'
p993
S'1197'
p994
sS'sport'
p995
S'1329'
p996
sS'natale'
p997
S'84'
p998
sS'rubriche'
p999
S'961'
p1000
sa(dp1001
S'tecnologia'
p1002
g8
sS'servizi'
p1003
g19
sS'scuola'
p1004
g22
sS'scienza'
p1005
g8
sS'persone'
p1006
S'18'
p1007
sS'media'
p1008
g182
sS'politica'
p1009
g16
sS'spettacolo'
p1010
S'26'
p1011
sS'economia'
p1012
g19
sS'gallerie'
p1013
g16
sS'esteri'
p1014
S'15'
p1015
sS'cronaca'
p1016
S'30'
p1017
sS'sport'
p1018
S'54'
p1019
sS'rubriche'
p1020
S'34'
p1021
sa(dp1022
S'tecnologia'
p1023
g11
sS'scienza'
p1024
g11
sS'persone'
p1025
g11
sS'natale'
p1026
g5
sS'mare'
p1027
g5
sS'spettacolo'
p1028
S'36'
p1029
sS'economia'
p1030
g8
sS'gallerie'
p1031
g5
sS'carte'
p1032
g11
sS'esteri'
p1033
g214
sS'cronaca'
p1034
S'12'
p1035
sS'sport'
p1036
S'14'
p1037
sS'rubriche'
p1038
S'10'
p1039
sa(dp1040
S'tecnologia'
p1041
S'61'
p1042
sS'scienza'
p1043
S'144'
p1044
sS'persone'
p1045
S'91'
p1046
sS'media'
p1047
S'39'
p1048
sS'politica'
p1049
S'90'
p1050
sS'spettacolo'
p1051
S'335'
p1052
sS'economia'
p1053
S'137'
p1054
sS'gallerie'
p1055
S'85'
p1056
sS'motori'
p1057
S'29'
p1058
sS'esteri'
p1059
S'281'
p1060
sS'cronaca'
p1061
S'553'
p1062
sS'sport'
p1063
S'612'
p1064
sS'natale'
p1065
S'59'
p1066
sS'rubriche'
p1067
S'339'
p1068
sa(dp1069
S'tecnologia'
p1070
g5
sS'ragazza'
p1071
g5
sS'scienza'
p1072
g11
sS'persone'
p1073
S'10'
p1074
sS'spettacolo'
p1075
S'10'
p1076
sS'economia'
p1077
g208
sS'banca'
p1078
g5
sS'gallerie'
p1079
g16
sS'motori'
p1080
S'15'
p1081
sS'esteri'
p1082
g22
sS'viaggi'
p1083
g5
sS'cronaca'
p1084
g182
sS'sport'
p1085
g19
sS'rubriche'
p1086
S'14'
p1087
sa(dp1088
S'tecnologia'
p1089
S'337'
p1090
sS'regione'
p1091
S'92'
p1092
sS'scienza'
p1093
S'464'
p1094
sS'persone'
p1095
S'195'
p1096
sS'media'
p1097
S'79'
p1098
sS'politica'
p1099
S'115'
p1100
sS'spettacolo'
p1101
S'911'
p1102
sS'economia'
p1103
S'365'
p1104
sS'gallerie'
p1105
S'345'
p1106
sS'motori'
p1107
S'88'
p1108
sS'esteri'
p1109
S'1333'
p1110
sS'cronaca'
p1111
S'1367'
p1112
sS'sport'
p1113
S'1392'
p1114
sS'rubriche'
p1115
S'1110'
p1116
sa(dp1117
S'tecnologia'
p1118
S'178'
p1119
sS'regione'
p1120
S'76'
p1121
sS'scienza'
p1122
S'365'
p1123
sS'persone'
p1124
S'188'
p1125
sS'politica'
p1126
S'195'
p1127
sS'spettacolo'
p1128
S'550'
p1129
sS'economia'
p1130
S'515'
p1131
sS'gallerie'
p1132
S'185'
p1133
sS'salute'
p1134
S'94'
p1135
sS'esteri'
p1136
S'493'
p1137
sS'cronaca'
p1138
S'1477'
p1139
sS'sport'
p1140
S'1150'
p1141
sS'natale'
p1142
S'86'
p1143
sS'rubriche'
p1144
S'1031'
p1145
sa(dp1146
S'tecnologia'
p1147
S'187'
p1148
sS'regione'
p1149
S'54'
p1150
sS'scienza'
p1151
S'366'
p1152
sS'persone'
p1153
S'182'
p1154
sS'media'
p1155
S'71'
p1156
sS'politica'
p1157
S'201'
p1158
sS'spettacolo'
p1159
S'658'
p1160
sS'economia'
p1161
S'399'
p1162
sS'gallerie'
p1163
S'178'
p1164
sS'salute'
p1165
S'53'
p1166
sS'esteri'
p1167
S'557'
p1168
sS'cronaca'
p1169
S'1404'
p1170
sS'sport'
p1171
S'1220'
p1172
sS'rubriche'
p1173
S'747'
p1174
sa(dp1175
S'tecnologia'
p1176
g16
sS'regione'
p1177
g8
sS'scienza'
p1178
S'10'
p1179
sS'persone'
p1180
g214
sS'politica'
p1181
g8
sS'spettacolo'
p1182
S'22'
p1183
sS'economia'
p1184
S'17'
p1185
sS'banca'
p1186
g8
sS'gallerie'
p1187
g214
sS'esteri'
p1188
S'31'
p1189
sS'cronaca'
p1190
S'54'
p1191
sS'sport'
p1192
S'74'
p1193
sS'natale'
p1194
g11
sS'rubriche'
p1195
S'40'
p1196
sa(dp1197
S'tecnologia'
p1198
g8
sS'scienza'
p1199
g8
sS'persone'
p1200
g22
sS'spettacolo'
p1201
g208
sS'economia'
p1202
g19
sS'gallerie'
p1203
g5
sS'stelle'
p1204
g11
sS'motori'
p1205
g5
sS'social'
p1206
g22
sS'esteri'
p1207
S'17'
p1208
sS'cronaca'
p1209
S'23'
p1210
sS'sport'
p1211
S'20'
p1212
sS'intesa'
p1213
g5
sS'rubriche'
p1214
S'21'
p1215
sa(dp1216
S'tecnologia'
p1217
S'375'
p1218
sS'regione'
p1219
S'231'
p1220
sS'scienza'
p1221
S'433'
p1222
sS'persone'
p1223
S'280'
p1224
sS'media'
p1225
S'107'
p1226
sS'politica'
p1227
S'160'
p1228
sS'spettacolo'
p1229
S'705'
p1230
sS'economia'
p1231
S'384'
p1232
sS'gallerie'
p1233
S'241'
p1234
sS'moda'
p1235
S'96'
p1236
sS'esteri'
p1237
S'769'
p1238
sS'cronaca'
p1239
S'1351'
p1240
sS'sport'
p1241
S'3015'
p1242
sS'rubriche'
p1243
S'998'
p1244
sa(dp1245
S'tecnologia'
p1246
S'275'
p1247
sS'scienza'
p1248
S'509'
p1249
sS'persone'
p1250
S'245'
p1251
sS'media'
p1252
S'166'
p1253
sS'politica'
p1254
S'269'
p1255
sS'spettacolo'
p1256
S'611'
p1257
sS'economia'
p1258
S'449'
p1259
sS'gallerie'
p1260
S'498'
p1261
sS'motori'
p1262
S'72'
p1263
sS'esteri'
p1264
S'502'
p1265
sS'viaggi'
p1266
S'183'
p1267
sS'cronaca'
p1268
S'1446'
p1269
sS'sport'
p1270
S'1773'
p1271
sS'rubriche'
p1272
S'940'
p1273
sa(dp1274
S'tecnologia'
p1275
S'200'
p1276
sS'scienza'
p1277
S'413'
p1278
sS'persone'
p1279
S'295'
p1280
sS'media'
p1281
S'90'
p1282
sS'politica'
p1283
S'337'
p1284
sS'spettacolo'
p1285
S'886'
p1286
sS'economia'
p1287
S'396'
p1288
sS'gallerie'
p1289
S'452'
p1290
sS'moda'
p1291
S'102'
p1292
sS'esteri'
p1293
S'453'
p1294
sS'viaggi'
p1295
S'104'
p1296
sS'cronaca'
p1297
S'1670'
p1298
sS'sport'
p1299
S'1564'
p1300
sS'rubriche'
p1301
S'868'
p1302
sa(dp1303
S'tecnologia'
p1304
S'340'
p1305
sS'regione'
p1306
S'77'
p1307
sS'scienza'
p1308
S'494'
p1309
sS'persone'
p1310
S'359'
p1311
sS'media'
p1312
S'135'
p1313
sS'politica'
p1314
S'317'
p1315
sS'spettacolo'
p1316
S'485'
p1317
sS'economia'
p1318
S'340'
p1319
sS'gallerie'
p1320
S'211'
p1321
sS'esteri'
p1322
S'587'
p1323
sS'cronaca'
p1324
S'1624'
p1325
sS'sport'
p1326
S'1722'
p1327
sS'natale'
p1328
S'101'
p1329
sS'rubriche'
p1330
S'956'
p1331
sa(dp1332
S'tecnologia'
p1333
S'162'
p1334
sS'regione'
p1335
S'76'
p1336
sS'scienza'
p1337
S'326'
p1338
sS'persone'
p1339
S'280'
p1340
sS'media'
p1341
S'106'
p1342
sS'politica'
p1343
S'315'
p1344
sS'spettacolo'
p1345
S'423'
p1346
sS'economia'
p1347
S'241'
p1348
sS'gallerie'
p1349
S'364'
p1350
sS'esteri'
p1351
S'553'
p1352
sS'cronaca'
p1353
S'1477'
p1354
sS'sport'
p1355
S'1358'
p1356
sS'natale'
p1357
S'124'
p1358
sS'rubriche'
p1359
S'807'
p1360
sa(dp1361
S'tecnologia'
p1362
g11
sS'regione'
p1363
g11
sS'scuola'
p1364
g19
sS'scienza'
p1365
S'16'
p1366
sS'persone'
p1367
S'15'
p1368
sS'politica'
p1369
S'10'
p1370
sS'mare'
p1371
g11
sS'spettacolo'
p1372
S'21'
p1373
sS'economia'
p1374
S'14'
p1375
sS'motori'
p1376
g214
sS'esteri'
p1377
S'24'
p1378
sS'cronaca'
p1379
S'26'
p1380
sS'sport'
p1381
S'45'
p1382
sS'rubriche'
p1383
S'16'
p1384
sa(dp1385
S'tecnologia'
p1386
g5
sS'regione'
p1387
g5
sS'scienza'
p1388
g8
sS'persone'
p1389
g214
sS'novembre'
p1390
g5
sS'politica'
p1391
g8
sS'giugno'
p1392
g5
sS'spettacolo'
p1393
g182
sS'economia'
p1394
g11
sS'esteri'
p1395
S'10'
p1396
sS'sport'
p1397
S'15'
p1398
sS'natale'
p1399
g5
sS'rubriche'
p1400
g11
sS'scuola'
p1401
g5
sa(dp1402
S'tecnologia'
p1403
S'184'
p1404
sS'regione'
p1405
S'101'
p1406
sS'scienza'
p1407
S'234'
p1408
sS'persone'
p1409
S'297'
p1410
sS'media'
p1411
S'124'
p1412
sS'politica'
p1413
S'232'
p1414
sS'spettacolo'
p1415
S'612'
p1416
sS'economia'
p1417
S'254'
p1418
sS'gallerie'
p1419
S'290'
p1420
sS'esteri'
p1421
S'549'
p1422
sS'cronaca'
p1423
S'1304'
p1424
sS'sport'
p1425
S'1894'
p1426
sS'natale'
p1427
S'111'
p1428
sS'rubriche'
p1429
S'1021'
p1430
sa(dp1431
S'tecnologia'
p1432
S'190'
p1433
sS'scienza'
p1434
S'477'
p1435
sS'persone'
p1436
S'263'
p1437
sS'media'
p1438
S'93'
p1439
sS'politica'
p1440
S'174'
p1441
sS'spettacolo'
p1442
S'604'
p1443
sS'economia'
p1444
S'301'
p1445
sS'gallerie'
p1446
S'244'
p1447
sS'esteri'
p1448
S'446'
p1449
sS'viaggi'
p1450
S'89'
p1451
sS'cronaca'
p1452
S'1408'
p1453
sS'sport'
p1454
S'999'
p1455
sS'natale'
p1456
S'84'
p1457
sS'rubriche'
p1458
S'776'
p1459
sa(dp1460
S'natale'
p1461
S'121'
p1462
sS'scienza'
p1463
S'287'
p1464
sS'persone'
p1465
S'270'
p1466
sS'politica'
p1467
S'152'
p1468
sS'spettacolo'
p1469
S'317'
p1470
sS'economia'
p1471
S'288'
p1472
sS'gallerie'
p1473
S'160'
p1474
sS'salute'
p1475
S'88'
p1476
sS'esteri'
p1477
S'340'
p1478
sS'viaggi'
p1479
S'117'
p1480
sS'cronaca'
p1481
S'1009'
p1482
sS'sport'
p1483
S'726'
p1484
sS'tecnologia'
p1485
S'107'
p1486
sS'rubriche'
p1487
S'588'
p1488
sa(dp1489
S'tecnologia'
p1490
S'16'
p1491
sS'scienza'
p1492
S'42'
p1493
sS'persone'
p1494
S'28'
p1495
sS'politica'
p1496
S'12'
p1497
sS'spettacolo'
p1498
S'56'
p1499
sS'economia'
p1500
S'33'
p1501
sS'gallerie'
p1502
S'121'
p1503
sS'motori'
p1504
g19
sS'esteri'
p1505
S'46'
p1506
sS'viaggi'
p1507
S'36'
p1508
sS'cronaca'
p1509
S'168'
p1510
sS'sport'
p1511
S'67'
p1512
sS'natale'
p1513
S'12'
p1514
sS'rubriche'
p1515
S'126'
p1516
sa(dp1517
S'natale'
p1518
g11
sS'scuola'
p1519
g5
sS'esteri'
p1520
g5
sS'cronaca'
p1521
g208
sS'sport'
p1522
g11
sS'rubriche'
p1523
g11
sa(dp1524
S'natale'
p1525
g5
sS'scienza'
p1526
g5
sS'esteri'
p1527
g11
sS'cronaca'
p1528
g8
sS'sport'
p1529
g11
sS'salute'
p1530
g5
sa(dp1531
S'spettacolo'
p1532
g16
sS'cronaca'
p1533
g16
sS'rubriche'
p1534
g5
sS'salute'
p1535
g16
sS'persone'
p1536
g208
sa(dp1537
S'tecnologia'
p1538
S'52'
p1539
sS'storie'
p1540
S'49'
p1541
sS'scienza'
p1542
S'69'
p1543
sS'persone'
p1544
S'57'
p1545
sS'media'
p1546
S'22'
p1547
sS'politica'
p1548
S'36'
p1549
sS'spettacolo'
p1550
S'112'
p1551
sS'economia'
p1552
S'86'
p1553
sS'gallerie'
p1554
S'45'
p1555
sS'esteri'
p1556
S'155'
p1557
sS'cronaca'
p1558
S'511'
p1559
sS'sport'
p1560
S'168'
p1561
sS'natale'
p1562
S'23'
p1563
sS'rubriche'
p1564
S'253'
p1565
sa(dp1566
S'tecnologia'
p1567
S'33'
p1568
sS'persone'
p1569
S'19'
p1570
sS'scienza'
p1571
S'89'
p1572
sS'moda'
p1573
S'38'
p1574
sS'media'
p1575
S'20'
p1576
sS'politica'
p1577
S'43'
p1578
sS'spettacolo'
p1579
S'180'
p1580
sS'economia'
p1581
S'103'
p1582
sS'gallerie'
p1583
S'70'
p1584
sS'salute'
p1585
S'13'
p1586
sS'esteri'
p1587
S'122'
p1588
sS'cronaca'
p1589
S'363'
p1590
sS'sport'
p1591
S'237'
p1592
sS'rubriche'
p1593
S'351'
p1594
sa(dp1595
S'tecnologia'
p1596
S'25'
p1597
sS'regione'
p1598
g182
sS'scienza'
p1599
S'32'
p1600
sS'persone'
p1601
S'26'
p1602
sS'media'
p1603
g214
sS'politica'
p1604
S'46'
p1605
sS'spettacolo'
p1606
S'103'
p1607
sS'economia'
p1608
S'107'
p1609
sS'gallerie'
p1610
S'61'
p1611
sS'moda'
p1612
S'12'
p1613
sS'esteri'
p1614
S'70'
p1615
sS'cronaca'
p1616
S'299'
p1617
sS'sport'
p1618
S'143'
p1619
sS'rubriche'
p1620
S'132'
p1621
sa(dp1622
S'tecnologia'
p1623
g208
sS'scuola'
p1624
g19
sS'scienza'
p1625
S'16'
p1626
sS'persone'
p1627
S'13'
p1628
sS'media'
p1629
g182
sS'politica'
p1630
S'13'
p1631
sS'spettacolo'
p1632
S'70'
p1633
sS'economia'
p1634
S'25'
p1635
sS'gallerie'
p1636
g182
sS'continua'
p1637
g8
sS'esteri'
p1638
S'18'
p1639
sS'cronaca'
p1640
S'70'
p1641
sS'sport'
p1642
S'32'
p1643
sS'rubriche'
p1644
S'76'
p1645
sasg5
(lp1646
(dp1647
a(dp1648
a(dp1649
a(dp1650
a(dp1651
a(dp1652
a(dp1653
a(dp1654
a(dp1655
a(dp1656
a(dp1657
a(dp1658
a(dp1659
a(dp1660
a(dp1661
a(dp1662
a(dp1663
a(dp1664
a(dp1665
a(dp1666
a(dp1667
a(dp1668
a(dp1669
a(dp1670
a(dp1671
a(dp1672
a(dp1673
a(dp1674
a(dp1675
a(dp1676
a(dp1677
asg19
(lp1678
(dp1679
S'tecnologia'
p1680
g5
sS'scuola'
p1681
g182
sS'scienza'
p1682
g8
sS'persone'
p1683
g5
sS'politica'
p1684
g8
sS'spettacolo'
p1685
g5
sS'economia'
p1686
g11
sS'gallerie'
p1687
g5
sS'motori'
p1688
g11
sS'moda'
p1689
g5
sS'esteri'
p1690
g182
sS'cronaca'
p1691
g16
sS'sport'
p1692
S'11'
p1693
sS'rubriche'
p1694
g19
sa(dp1695
a(dp1696
a(dp1697
a(dp1698
a(dp1699
a(dp1700
a(dp1701
a(dp1702
a(dp1703
a(dp1704
a(dp1705
a(dp1706
S'tecnologia'
p1707
S'413'
p1708
sS'scuola'
p1709
S'312'
p1710
sS'scienza'
p1711
S'776'
p1712
sS'persone'
p1713
S'235'
p1714
sS'politica'
p1715
S'390'
p1716
sS'spettacolo'
p1717
S'553'
p1718
sS'economia'
p1719
S'426'
p1720
sS'gallerie'
p1721
S'258'
p1722
sS'salute'
p1723
S'172'
p1724
sS'motori'
p1725
S'226'
p1726
sS'esteri'
p1727
S'986'
p1728
sS'cronaca'
p1729
S'1953'
p1730
sS'sport'
p1731
S'2218'
p1732
sS'rubriche'
p1733
S'1592'
p1734
sa(dp1735
S'tecnologia'
p1736
g5
sS'scuola'
p1737
g19
sS'scienza'
p1738
g22
sS'regione'
p1739
g11
sS'politica'
p1740
g208
sS'persone'
p1741
g5
sS'spettacolo'
p1742
S'10'
p1743
sS'economia'
p1744
g214
sS'motori'
p1745
g19
sS'esteri'
p1746
g182
sS'futuro'
p1747
g11
sS'cronaca'
p1748
S'20'
p1749
sS'sport'
p1750
S'61'
p1751
sS'rubriche'
p1752
S'29'
p1753
sa(dp1754
S'sport'
p1755
g19
sa(dp1756
S'tecnologia'
p1757
S'281'
p1758
sS'scienza'
p1759
S'850'
p1760
sS'persone'
p1761
S'362'
p1762
sS'media'
p1763
S'108'
p1764
sS'politica'
p1765
S'270'
p1766
sS'spettacolo'
p1767
S'870'
p1768
sS'economia'
p1769
S'787'
p1770
sS'gallerie'
p1771
S'310'
p1772
sS'salute'
p1773
S'180'
p1774
sS'moda'
p1775
S'347'
p1776
sS'esteri'
p1777
S'864'
p1778
sS'cronaca'
p1779
S'2461'
p1780
sS'sport'
p1781
S'2171'
p1782
sS'rubriche'
p1783
S'1667'
p1784
sa(dp1785
a(dp1786
a(dp1787
a(dp1788
a(dp1789
a(dp1790
a(dp1791
a(dp1792
a(dp1793
a(dp1794
S'tecnologia'
p1795
S'171'
p1796
sS'scienza'
p1797
S'472'
p1798
sS'persone'
p1799
S'218'
p1800
sS'media'
p1801
S'78'
p1802
sS'politica'
p1803
S'370'
p1804
sS'spettacolo'
p1805
S'806'
p1806
sS'economia'
p1807
S'586'
p1808
sS'gallerie'
p1809
S'160'
p1810
sS'salute'
p1811
S'79'
p1812
sS'motori'
p1813
S'110'
p1814
sS'esteri'
p1815
S'5525'
p1816
sS'cronaca'
p1817
S'1955'
p1818
sS'sport'
p1819
S'1194'
p1820
sS'rubriche'
p1821
S'1519'
p1822
sa(dp1823
a(dp1824
a(dp1825
a(dp1826
a(dp1827
asg11
(lp1828
(dp1829
a(dp1830
a(dp1831
a(dp1832
a(dp1833
a(dp1834
a(dp1835
a(dp1836
a(dp1837
a(dp1838
a(dp1839
a(dp1840
a(dp1841
a(dp1842
a(dp1843
a(dp1844
a(dp1845
a(dp1846
a(dp1847
a(dp1848
S'tecnologia'
p1849
S'460'
p1850
sS'regione'
p1851
S'379'
p1852
sS'scienza'
p1853
S'649'
p1854
sS'persone'
p1855
S'164'
p1856
sS'politica'
p1857
S'353'
p1858
sS'spettacolo'
p1859
S'697'
p1860
sS'economia'
p1861
S'851'
p1862
sS'gallerie'
p1863
S'364'
p1864
sS'salute'
p1865
S'113'
p1866
sS'esteri'
p1867
S'571'
p1868
sS'cronaca'
p1869
S'2345'
p1870
sS'sport'
p1871
S'1903'
p1872
sS'rubriche'
p1873
S'1401'
p1874
sS'scuola'
p1875
S'126'
p1876
sa(dp1877
S'tecnologia'
p1878
S'19'
p1879
sS'politica'
p1880
g16
sS'scuola'
p1881
S'17'
p1882
sS'scienza'
p1883
S'26'
p1884
sS'regione'
p1885
S'13'
p1886
sS'persone'
p1887
S'10'
p1888
sS'spettacolo'
p1889
S'18'
p1890
sS'economia'
p1891
S'60'
p1892
sS'gallerie'
p1893
S'40'
p1894
sS'esteri'
p1895
S'32'
p1896
sS'viaggi'
p1897
g208
sS'cronaca'
p1898
S'105'
p1899
sS'sport'
p1900
S'63'
p1901
sS'rubriche'
p1902
S'57'
p1903
sa(dp1904
S'finale'
p1905
g5
sS'scuola'
p1906
g214
sS'scienza'
p1907
g16
sS'prodotto'
p1908
g5
sS'politica'
p1909
g208
sS'spettacolo'
p1910
g19
sS'economia'
p1911
g19
sS'gallerie'
p1912
g208
sS'motori'
p1913
g5
sS'online'
p1914
g5
sS'esteri'
p1915
g11
sS'cronaca'
p1916
S'12'
p1917
sS'sport'
p1918
g208
sS'rubriche'
p1919
g16
sa(dp1920
S'tecnologia'
p1921
S'198'
p1922
sS'scuola'
p1923
S'264'
p1924
sS'scienza'
p1925
S'539'
p1926
sS'persone'
p1927
S'200'
p1928
sS'politica'
p1929
S'300'
p1930
sS'spettacolo'
p1931
S'2147'
p1932
sS'economia'
p1933
S'981'
p1934
sS'gallerie'
p1935
S'833'
p1936
sS'salute'
p1937
S'106'
p1938
sS'motori'
p1939
S'123'
p1940
sS'esteri'
p1941
S'434'
p1942
sS'cronaca'
p1943
S'1435'
p1944
sS'sport'
p1945
S'1677'
p1946
sS'rubriche'
p1947
S'1475'
p1948
sa(dp1949
S'tecnologia'
p1950
S'446'
p1951
sS'scuola'
p1952
S'113'
p1953
sS'scienza'
p1954
S'385'
p1955
sS'persone'
p1956
S'188'
p1957
sS'politica'
p1958
S'420'
p1959
sS'spettacolo'
p1960
S'827'
p1961
sS'economia'
p1962
S'882'
p1963
sS'gallerie'
p1964
S'467'
p1965
sS'salute'
p1966
S'388'
p1967
sS'motori'
p1968
S'97'
p1969
sS'esteri'
p1970
S'460'
p1971
sS'cronaca'
p1972
S'1598'
p1973
sS'sport'
p1974
S'1641'
p1975
sS'rubriche'
p1976
S'1463'
p1977
sa(dp1978
S'tecnologia'
p1979
S'255'
p1980
sS'scuola'
p1981
S'87'
p1982
sS'scienza'
p1983
S'451'
p1984
sS'persone'
p1985
S'153'
p1986
sS'politica'
p1987
S'628'
p1988
sS'spettacolo'
p1989
S'542'
p1990
sS'economia'
p1991
S'762'
p1992
sS'gallerie'
p1993
S'355'
p1994
sS'motori'
p1995
S'433'
p1996
sS'esteri'
p1997
S'867'
p1998
sS'viaggi'
p1999
S'149'
p2000
sS'cronaca'
p2001
S'1440'
p2002
sS'sport'
p2003
S'2093'
p2004
sS'rubriche'
p2005
S'1411'
p2006
sa(dp2007
S'tecnologia'
p2008
S'175'
p2009
sS'scienza'
p2010
S'606'
p2011
sS'persone'
p2012
S'169'
p2013
sS'politica'
p2014
S'394'
p2015
sS'spettacolo'
p2016
S'802'
p2017
sS'economia'
p2018
S'623'
p2019
sS'gallerie'
p2020
S'182'
p2021
sS'motori'
p2022
S'108'
p2023
sS'moda'
p2024
S'102'
p2025
sS'esteri'
p2026
S'876'
p2027
sS'viaggi'
p2028
S'107'
p2029
sS'cronaca'
p2030
S'1708'
p2031
sS'sport'
p2032
S'1480'
p2033
sS'rubriche'
p2034
S'1164'
p2035
sa(dp2036
S'tecnologia'
p2037
S'285'
p2038
sS'scuola'
p2039
S'122'
p2040
sS'scienza'
p2041
S'681'
p2042
sS'persone'
p2043
S'191'
p2044
sS'politica'
p2045
S'273'
p2046
sS'spettacolo'
p2047
S'669'
p2048
sS'economia'
p2049
S'536'
p2050
sS'gallerie'
p2051
S'190'
p2052
sS'motori'
p2053
S'122'
p2054
sS'esteri'
p2055
S'695'
p2056
sS'viaggi'
p2057
S'94'
p2058
sS'cronaca'
p2059
S'1879'
p2060
sS'sport'
p2061
S'2672'
p2062
sS'rubriche'
p2063
S'1116'
p2064
sa(dp2065
S'tecnologia'
p2066
S'18'
p2067
sS'ritorno'
p2068
g19
sS'regione'
p2069
S'10'
p2070
sS'scienza'
p2071
S'25'
p2072
sS'persone'
p2073
g11
sS'politica'
p2074
g22
sS'spettacolo'
p2075
S'15'
p2076
sS'economia'
p2077
S'15'
p2078
sS'motori'
p2079
S'16'
p2080
sS'esteri'
p2081
S'23'
p2082
sS'cronaca'
p2083
S'48'
p2084
sS'sport'
p2085
S'65'
p2086
sS'rubriche'
p2087
S'43'
p2088
sS'scuola'
p2089
g11
sasg182
(lp2090
(dp2091
S'scienza'
p2092
g214
sS'scuola'
p2093
g208
sS'regione'
p2094
S'44'
p2095
sS'tecnologia'
p2096
g182
sS'politica'
p2097
g16
sS'persone'
p2098
g11
sS'spettacolo'
p2099
g182
sS'economia'
p2100
S'20'
p2101
sS'motori'
p2102
g5
sS'moda'
p2103
g5
sS'esteri'
p2104
g208
sS'cronaca'
p2105
S'49'
p2106
sS'sport'
p2107
S'25'
p2108
sS'rubriche'
p2109
S'46'
p2110
sa(dp2111
S'scienza'
p2112
g214
sS'regione'
p2113
S'21'
p2114
sS'persone'
p2115
S'53'
p2116
sS'media'
p2117
g208
sS'politica'
p2118
g182
sS'spettacolo'
p2119
S'20'
p2120
sS'economia'
p2121
g214
sS'gallerie'
p2122
S'35'
p2123
sS'salute'
p2124
g19
sS'esteri'
p2125
S'20'
p2126
sS'cronaca'
p2127
S'51'
p2128
sS'sport'
p2129
S'101'
p2130
sS'rubriche'
p2131
S'46'
p2132
sS'scuola'
p2133
g19
sa(dp2134
S'tecnologia'
p2135
g182
sS'finale'
p2136
g5
sS'scienza'
p2137
g11
sS'regione'
p2138
g16
sS'prodotto'
p2139
g11
sS'politica'
p2140
g8
sS'spettacolo'
p2141
g214
sS'economia'
p2142
g208
sS'gallerie'
p2143
g5
sS'motori'
p2144
S'20'
p2145
sS'esteri'
p2146
g16
sS'cronaca'
p2147
S'37'
p2148
sS'sport'
p2149
S'59'
p2150
sS'rubriche'
p2151
S'27'
p2152
sa(dp2153
S'tecnologia'
p2154
S'360'
p2155
sS'regione'
p2156
S'232'
p2157
sS'scienza'
p2158
S'708'
p2159
sS'persone'
p2160
S'289'
p2161
sS'media'
p2162
S'149'
p2163
sS'politica'
p2164
S'434'
p2165
sS'spettacolo'
p2166
S'831'
p2167
sS'economia'
p2168
S'542'
p2169
sS'gallerie'
p2170
S'394'
p2171
sS'esteri'
p2172
S'1017'
p2173
sS'cronaca'
p2174
S'2444'
p2175
sS'sport'
p2176
S'3220'
p2177
sS'rubriche'
p2178
S'1460'
p2179
sS'scuola'
p2180
S'147'
p2181
sa(dp2182
S'tecnologia'
p2183
S'569'
p2184
sS'regione'
p2185
S'319'
p2186
sS'scuola'
p2187
S'680'
p2188
sS'scienza'
p2189
S'647'
p2190
sS'persone'
p2191
S'432'
p2192
sS'politica'
p2193
S'497'
p2194
sS'spettacolo'
p2195
S'696'
p2196
sS'economia'
p2197
S'802'
p2198
sS'gallerie'
p2199
S'619'
p2200
sS'salute'
p2201
S'194'
p2202
sS'esteri'
p2203
S'728'
p2204
sS'cronaca'
p2205
S'2360'
p2206
sS'sport'
p2207
S'2817'
p2208
sS'rubriche'
p2209
S'1609'
p2210
sa(dp2211
S'tecnologia'
p2212
S'259'
p2213
sS'servizi'
p2214
S'166'
p2215
sS'scuola'
p2216
S'187'
p2217
sS'scienza'
p2218
S'664'
p2219
sS'persone'
p2220
S'232'
p2221
sS'politica'
p2222
S'570'
p2223
sS'mare'
p2224
S'146'
p2225
sS'spettacolo'
p2226
S'471'
p2227
sS'economia'
p2228
S'563'
p2229
sS'gallerie'
p2230
S'368'
p2231
sS'esteri'
p2232
S'852'
p2233
sS'cronaca'
p2234
S'1279'
p2235
sS'sport'
p2236
S'3860'
p2237
sS'rubriche'
p2238
S'1138'
p2239
sa(dp2240
S'tecnologia'
p2241
S'221'
p2242
sS'scuola'
p2243
S'94'
p2244
sS'scienza'
p2245
S'558'
p2246
sS'persone'
p2247
S'293'
p2248
sS'media'
p2249
S'116'
p2250
sS'politica'
p2251
S'452'
p2252
sS'mare'
p2253
S'111'
p2254
sS'spettacolo'
p2255
S'501'
p2256
sS'economia'
p2257
S'516'
p2258
sS'gallerie'
p2259
S'269'
p2260
sS'esteri'
p2261
S'1012'
p2262
sS'cronaca'
p2263
S'1800'
p2264
sS'sport'
p2265
S'2575'
p2266
sS'rubriche'
p2267
S'1589'
p2268
sa(dp2269
S'tecnologia'
p2270
S'174'
p2271
sS'regione'
p2272
S'113'
p2273
sS'scienza'
p2274
S'883'
p2275
sS'persone'
p2276
S'232'
p2277
sS'media'
p2278
S'110'
p2279
sS'politica'
p2280
S'694'
p2281
sS'spettacolo'
p2282
S'636'
p2283
sS'economia'
p2284
S'457'
p2285
sS'gallerie'
p2286
S'332'
p2287
sS'esteri'
p2288
S'1421'
p2289
sS'cronaca'
p2290
S'1794'
p2291
sS'sport'
p2292
S'2773'
p2293
sS'rubriche'
p2294
S'1578'
p2295
sS'scuola'
p2296
S'111'
p2297
sa(dp2298
S'tecnologia'
p2299
g208
sS'regione'
p2300
S'11'
p2301
sS'scienza'
p2302
S'16'
p2303
sS'persone'
p2304
S'18'
p2305
sS'politica'
p2306
S'16'
p2307
sS'spettacolo'
p2308
S'21'
p2309
sS'economia'
p2310
g208
sS'gallerie'
p2311
g16
sS'carte'
p2312
S'15'
p2313
sS'esteri'
p2314
S'33'
p2315
sS'cronaca'
p2316
S'72'
p2317
sS'sport'
p2318
S'70'
p2319
sS'rubriche'
p2320
S'66'
p2321
sS'scuola'
p2322
g8
sa(dp2323
S'tecnologia'
p2324
g11
sS'ragazza'
p2325
g5
sS'scuola'
p2326
g16
sS'scienza'
p2327
g182
sS'persone'
p2328
g8
sS'media'
p2329
g8
sS'politica'
p2330
g182
sS'spettacolo'
p2331
g22
sS'economia'
p2332
g8
sS'salute'
p2333
g11
sS'esteri'
p2334
S'14'
p2335
sS'cronaca'
p2336
S'11'
p2337
sS'sport'
p2338
S'31'
p2339
sS'rubriche'
p2340
S'25'
p2341
sa(dp2342
S'tecnologia'
p2343
S'540'
p2344
sS'regione'
p2345
S'146'
p2346
sS'scuola'
p2347
S'258'
p2348
sS'scienza'
p2349
S'571'
p2350
sS'persone'
p2351
S'320'
p2352
sS'politica'
p2353
S'827'
p2354
sS'spettacolo'
p2355
S'1135'
p2356
sS'economia'
p2357
S'934'
p2358
sS'gallerie'
p2359
S'427'
p2360
sS'motori'
p2361
S'131'
p2362
sS'esteri'
p2363
S'1089'
p2364
sS'cronaca'
p2365
S'2295'
p2366
sS'sport'
p2367
S'2992'
p2368
sS'rubriche'
p2369
S'1716'
p2370
sa(dp2371
S'tecnologia'
p2372
S'242'
p2373
sS'scuola'
p2374
S'393'
p2375
sS'scienza'
p2376
S'682'
p2377
sS'persone'
p2378
S'280'
p2379
sS'politica'
p2380
S'550'
p2381
sS'spettacolo'
p2382
S'577'
p2383
sS'economia'
p2384
S'800'
p2385
sS'gallerie'
p2386
S'451'
p2387
sS'salute'
p2388
S'261'
p2389
sS'esteri'
p2390
S'636'
p2391
sS'viaggi'
p2392
S'560'
p2393
sS'cronaca'
p2394
S'2095'
p2395
sS'sport'
p2396
S'2782'
p2397
sS'rubriche'
p2398
S'1543'
p2399
sa(dp2400
S'tecnologia'
p2401
S'321'
p2402
sS'scuola'
p2403
S'202'
p2404
sS'scienza'
p2405
S'611'
p2406
sS'persone'
p2407
S'318'
p2408
sS'media'
p2409
S'154'
p2410
sS'politica'
p2411
S'260'
p2412
sS'spettacolo'
p2413
S'299'
p2414
sS'economia'
p2415
S'577'
p2416
sS'gallerie'
p2417
S'360'
p2418
sS'motori'
p2419
S'127'
p2420
sS'esteri'
p2421
S'1111'
p2422
sS'cronaca'
p2423
S'1573'
p2424
sS'sport'
p2425
S'2269'
p2426
sS'rubriche'
p2427
S'1261'
p2428
sa(dp2429
S'tecnologia'
p2430
S'458'
p2431
sS'finale'
p2432
S'256'
p2433
sS'scuola'
p2434
S'260'
p2435
sS'scienza'
p2436
S'724'
p2437
sS'persone'
p2438
S'200'
p2439
sS'media'
p2440
S'155'
p2441
sS'politica'
p2442
S'314'
p2443
sS'spettacolo'
p2444
S'557'
p2445
sS'economia'
p2446
S'541'
p2447
sS'gallerie'
p2448
S'339'
p2449
sS'esteri'
p2450
S'763'
p2451
sS'cronaca'
p2452
S'2292'
p2453
sS'sport'
p2454
S'5581'
p2455
sS'rubriche'
p2456
S'1512'
p2457
sa(dp2458
S'tecnologia'
p2459
S'302'
p2460
sS'scuola'
p2461
S'176'
p2462
sS'scienza'
p2463
S'788'
p2464
sS'persone'
p2465
S'259'
p2466
sS'media'
p2467
S'126'
p2468
sS'politica'
p2469
S'189'
p2470
sS'spettacolo'
p2471
S'808'
p2472
sS'economia'
p2473
S'526'
p2474
sS'gallerie'
p2475
S'370'
p2476
sS'motori'
p2477
S'176'
p2478
sS'esteri'
p2479
S'513'
p2480
sS'cronaca'
p2481
S'2111'
p2482
sS'sport'
p2483
S'2338'
p2484
sS'rubriche'
p2485
S'1211'
p2486
sa(dp2487
S'tecnologia'
p2488
g214
sS'regione'
p2489
S'10'
p2490
sS'scienza'
p2491
S'33'
p2492
sS'persone'
p2493
S'38'
p2494
sS'politica'
p2495
g16
sS'spettacolo'
p2496
S'22'
p2497
sS'economia'
p2498
g208
sS'gallerie'
p2499
S'17'
p2500
sS'motori'
p2501
g208
sS'esteri'
p2502
S'26'
p2503
sS'cronaca'
p2504
S'100'
p2505
sS'sport'
p2506
S'79'
p2507
sS'rubriche'
p2508
S'37'
p2509
sS'scuola'
p2510
g182
sa(dp2511
S'finale'
p2512
g5
sS'regione'
p2513
g5
sS'persone'
p2514
S'10'
p2515
sS'politica'
p2516
g19
sS'spettacolo'
p2517
g19
sS'prodotto'
p2518
g5
sS'stelle'
p2519
g5
sS'motori'
p2520
g11
sS'esteri'
p2521
g5
sS'cronaca'
p2522
g8
sS'sport'
p2523
S'14'
p2524
sS'rubriche'
p2525
S'13'
p2526
sa(dp2527
S'tecnologia'
p2528
S'426'
p2529
sS'scuola'
p2530
S'148'
p2531
sS'scienza'
p2532
S'614'
p2533
sS'persone'
p2534
S'417'
p2535
sS'politica'
p2536
S'543'
p2537
sS'spettacolo'
p2538
S'570'
p2539
sS'economia'
p2540
S'621'
p2541
sS'gallerie'
p2542
S'730'
p2543
sS'salute'
p2544
S'161'
p2545
sS'motori'
p2546
S'169'
p2547
sS'esteri'
p2548
S'929'
p2549
sS'cronaca'
p2550
S'2626'
p2551
sS'sport'
p2552
S'3043'
p2553
sS'rubriche'
p2554
S'1713'
p2555
sa(dp2556
S'tecnologia'
p2557
S'181'
p2558
sS'storie'
p2559
S'187'
p2560
sS'scuola'
p2561
S'235'
p2562
sS'scienza'
p2563
S'463'
p2564
sS'persone'
p2565
S'334'
p2566
sS'politica'
p2567
S'252'
p2568
sS'spettacolo'
p2569
S'640'
p2570
sS'economia'
p2571
S'952'
p2572
sS'gallerie'
p2573
S'318'
p2574
sS'esteri'
p2575
S'791'
p2576
sS'viaggi'
p2577
S'216'
p2578
sS'cronaca'
p2579
S'2512'
p2580
sS'sport'
p2581
S'3328'
p2582
sS'rubriche'
p2583
S'1428'
p2584
sa(dp2585
S'tecnologia'
p2586
S'254'
p2587
sS'regione'
p2588
S'165'
p2589
sS'scuola'
p2590
S'204'
p2591
sS'scienza'
p2592
S'610'
p2593
sS'persone'
p2594
S'329'
p2595
sS'politica'
p2596
S'466'
p2597
sS'spettacolo'
p2598
S'782'
p2599
sS'economia'
p2600
S'807'
p2601
sS'gallerie'
p2602
S'367'
p2603
sS'motori'
p2604
S'142'
p2605
sS'esteri'
p2606
S'714'
p2607
sS'cronaca'
p2608
S'2205'
p2609
sS'sport'
p2610
S'2575'
p2611
sS'rubriche'
p2612
S'1425'
p2613
sa(dp2614
S'tecnologia'
p2615
S'303'
p2616
sS'scuola'
p2617
S'199'
p2618
sS'scienza'
p2619
S'671'
p2620
sS'persone'
p2621
S'371'
p2622
sS'media'
p2623
S'106'
p2624
sS'politica'
p2625
S'421'
p2626
sS'spettacolo'
p2627
S'756'
p2628
sS'economia'
p2629
S'671'
p2630
sS'gallerie'
p2631
S'496'
p2632
sS'motori'
p2633
S'230'
p2634
sS'esteri'
p2635
S'850'
p2636
sS'cronaca'
p2637
S'2118'
p2638
sS'sport'
p2639
S'3492'
p2640
sS'rubriche'
p2641
S'1612'
p2642
sa(dp2643
S'tecnologia'
p2644
S'288'
p2645
sS'storie'
p2646
S'131'
p2647
sS'scienza'
p2648
S'537'
p2649
sS'persone'
p2650
S'266'
p2651
sS'media'
p2652
S'124'
p2653
sS'politica'
p2654
S'409'
p2655
sS'spettacolo'
p2656
S'700'
p2657
sS'economia'
p2658
S'647'
p2659
sS'gallerie'
p2660
S'323'
p2661
sS'esteri'
p2662
S'1098'
p2663
sS'viaggi'
p2664
S'110'
p2665
sS'cronaca'
p2666
S'1658'
p2667
sS'sport'
p2668
S'2348'
p2669
sS'rubriche'
p2670
S'1472'
p2671
sa(dp2672
S'tecnologia'
p2673
g19
sS'scuola'
p2674
g19
sS'scienza'
p2675
g19
sS'persone'
p2676
S'15'
p2677
sS'politica'
p2678
S'12'
p2679
sS'spettacolo'
p2680
S'41'
p2681
sS'economia'
p2682
S'33'
p2683
sS'gallerie'
p2684
S'10'
p2685
sS'salute'
p2686
g8
sS'motori'
p2687
S'17'
p2688
sS'esteri'
p2689
S'72'
p2690
sS'cronaca'
p2691
S'55'
p2692
sS'sport'
p2693
S'98'
p2694
sS'rubriche'
p2695
S'65'
p2696
sa(dp2697
S'storia'
p2698
g5
sS'regione'
p2699
g19
sS'scienza'
p2700
S'10'
p2701
sS'persone'
p2702
g214
sS'politica'
p2703
g5
sS'spettacolo'
p2704
g182
sS'economia'
p2705
g182
sS'gallerie'
p2706
g22
sS'motori'
p2707
g5
sS'esteri'
p2708
S'10'
p2709
sS'cronaca'
p2710
S'30'
p2711
sS'sport'
p2712
S'51'
p2713
sS'rubriche'
p2714
S'23'
p2715
sa(dp2716
S'tecnologia'
p2717
S'335'
p2718
sS'scienza'
p2719
S'457'
p2720
sS'persone'
p2721
S'345'
p2722
sS'media'
p2723
S'160'
p2724
sS'politica'
p2725
S'517'
p2726
sS'spettacolo'
p2727
S'803'
p2728
sS'economia'
p2729
S'1036'
p2730
sS'gallerie'
p2731
S'581'
p2732
sS'salute'
p2733
S'202'
p2734
sS'motori'
p2735
S'132'
p2736
sS'esteri'
p2737
S'935'
p2738
sS'cronaca'
p2739
S'2052'
p2740
sS'sport'
p2741
S'2744'
p2742
sS'rubriche'
p2743
S'1532'
p2744
sa(dp2745
S'tecnologia'
p2746
S'479'
p2747
sS'regione'
p2748
S'167'
p2749
sS'scienza'
p2750
S'524'
p2751
sS'persone'
p2752
S'241'
p2753
sS'media'
p2754
S'150'
p2755
sS'politica'
p2756
S'293'
p2757
sS'spettacolo'
p2758
S'477'
p2759
sS'economia'
p2760
S'687'
p2761
sS'gallerie'
p2762
S'450'
p2763
sS'salute'
p2764
S'130'
p2765
sS'esteri'
p2766
S'682'
p2767
sS'cronaca'
p2768
S'2478'
p2769
sS'sport'
p2770
S'2669'
p2771
sS'rubriche'
p2772
S'1322'
p2773
sa(dp2774
S'tecnologia'
p2775
S'396'
p2776
sS'regione'
p2777
S'230'
p2778
sS'scienza'
p2779
S'605'
p2780
sS'persone'
p2781
S'229'
p2782
sS'media'
p2783
S'193'
p2784
sS'politica'
p2785
S'347'
p2786
sS'spettacolo'
p2787
S'446'
p2788
sS'economia'
p2789
S'642'
p2790
sS'gallerie'
p2791
S'438'
p2792
sS'rubriche'
p2793
S'1428'
p2794
sS'esteri'
p2795
S'626'
p2796
sS'cronaca'
p2797
S'1802'
p2798
sS'sport'
p2799
S'2908'
p2800
sS'salute'
p2801
S'633'
p2802
sa(dp2803
S'tecnologia'
p2804
S'397'
p2805
sS'regione'
p2806
S'152'
p2807
sS'scienza'
p2808
S'642'
p2809
sS'persone'
p2810
S'278'
p2811
sS'media'
p2812
S'87'
p2813
sS'politica'
p2814
S'208'
p2815
sS'spettacolo'
p2816
S'367'
p2817
sS'economia'
p2818
S'627'
p2819
sS'gallerie'
p2820
S'590'
p2821
sS'salute'
p2822
S'188'
p2823
sS'esteri'
p2824
S'549'
p2825
sS'cronaca'
p2826
S'1850'
p2827
sS'sport'
p2828
S'2584'
p2829
sS'rubriche'
p2830
S'1553'
p2831
sa(dp2832
S'tecnologia'
p2833
S'209'
p2834
sS'storie'
p2835
S'191'
p2836
sS'scuola'
p2837
S'258'
p2838
sS'scienza'
p2839
S'615'
p2840
sS'persone'
p2841
S'363'
p2842
sS'politica'
p2843
S'359'
p2844
sS'spettacolo'
p2845
S'405'
p2846
sS'economia'
p2847
S'420'
p2848
sS'gallerie'
p2849
S'398'
p2850
sS'motori'
p2851
S'161'
p2852
sS'esteri'
p2853
S'473'
p2854
sS'cronaca'
p2855
S'1384'
p2856
sS'sport'
p2857
S'2199'
p2858
sS'rubriche'
p2859
S'1278'
p2860
sa(dp2861
S'tecnologia'
p2862
S'13'
p2863
sS'scuola'
p2864
g22
sS'scienza'
p2865
S'11'
p2866
sS'persone'
p2867
S'18'
p2868
sS'media'
p2869
g214
sS'politica'
p2870
S'21'
p2871
sS'spettacolo'
p2872
S'11'
p2873
sS'economia'
p2874
S'13'
p2875
sS'gallerie'
p2876
g16
sS'motori'
p2877
S'10'
p2878
sS'esteri'
p2879
S'18'
p2880
sS'cronaca'
p2881
S'42'
p2882
sS'sport'
p2883
S'109'
p2884
sS'rubriche'
p2885
S'30'
p2886
sa(dp2887
S'tecnologia'
p2888
g19
sS'finale'
p2889
g19
sS'fissa'
p2890
g5
sS'scuola'
p2891
g5
sS'persone'
p2892
S'10'
p2893
sS'media'
p2894
g5
sS'politica'
p2895
g16
sS'spettacolo'
p2896
g5
sS'economia'
p2897
g8
sS'gallerie'
p2898
g8
sS'esteri'
p2899
g16
sS'cronaca'
p2900
S'23'
p2901
sS'sport'
p2902
S'14'
p2903
sS'rubriche'
p2904
S'16'
p2905
sasg8
(lp2906
(dp2907
a(dp2908
a(dp2909
a(dp2910
S'tecnologia'
p2911
g8
sS'scuola'
p2912
g8
sS'scienza'
p2913
g208
sS'persone'
p2914
g8
sS'media'
p2915
g5
sS'politica'
p2916
g19
sS'spettacolo'
p2917
g19
sS'gallerie'
p2918
g11
sS'esteri'
p2919
g16
sS'cronaca'
p2920
S'21'
p2921
sS'sport'
p2922
S'14'
p2923
sS'rubriche'
p2924
S'13'
p2925
sa(dp2926
S'scienza'
p2927
g16
sS'persone'
p2928
g8
sS'media'
p2929
g5
sS'politica'
p2930
g5
sS'spettacolo'
p2931
S'14'
p2932
sS'economia'
p2933
g11
sS'esteri'
p2934
g214
sS'cronaca'
p2935
S'10'
p2936
sS'sport'
p2937
S'13'
p2938
sS'rubriche'
p2939
S'11'
p2940
sa(dp2941
S'politica'
p2942
g5
sS'spettacolo'
p2943
g11
sS'economia'
p2944
g5
sS'online'
p2945
g11
sS'esteri'
p2946
g22
sS'cronaca'
p2947
g8
sS'sport'
p2948
g208
sS'ultimora'
p2949
g5
sS'rubriche'
p2950
g19
sa(dp2951
S'tecnologia'
p2952
S'262'
p2953
sS'persone'
p2954
S'82'
p2955
sS'scienza'
p2956
S'360'
p2957
sS'moda'
p2958
S'88'
p2959
sS'politica'
p2960
S'215'
p2961
sS'spettacolo'
p2962
S'408'
p2963
sS'economia'
p2964
S'348'
p2965
sS'gallerie'
p2966
S'151'
p2967
sS'salute'
p2968
S'117'
p2969
sS'motori'
p2970
S'191'
p2971
sS'esteri'
p2972
S'446'
p2973
sS'cronaca'
p2974
S'1223'
p2975
sS'sport'
p2976
S'776'
p2977
sS'rubriche'
p2978
S'896'
p2979
sa(dp2980
S'tecnologia'
p2981
S'431'
p2982
sS'scuola'
p2983
S'76'
p2984
sS'scienza'
p2985
S'601'
p2986
sS'persone'
p2987
S'302'
p2988
sS'politica'
p2989
S'468'
p2990
sS'spettacolo'
p2991
S'705'
p2992
sS'economia'
p2993
S'430'
p2994
sS'gallerie'
p2995
S'194'
p2996
sS'salute'
p2997
S'131'
p2998
sS'moda'
p2999
S'188'
p3000
sS'esteri'
p3001
S'847'
p3002
sS'cronaca'
p3003
S'1677'
p3004
sS'sport'
p3005
S'1760'
p3006
sS'rubriche'
p3007
S'1561'
p3008
sa(dp3009
S'tecnologia'
p3010
S'284'
p3011
sS'regione'
p3012
S'426'
p3013
sS'scienza'
p3014
S'483'
p3015
sS'persone'
p3016
S'98'
p3017
sS'politica'
p3018
S'357'
p3019
sS'spettacolo'
p3020
S'370'
p3021
sS'economia'
p3022
S'333'
p3023
sS'gallerie'
p3024
S'131'
p3025
sS'motori'
p3026
S'139'
p3027
sS'moda'
p3028
S'94'
p3029
sS'esteri'
p3030
S'416'
p3031
sS'cronaca'
p3032
S'2052'
p3033
sS'sport'
p3034
S'971'
p3035
sS'rubriche'
p3036
S'1231'
p3037
sa(dp3038
S'tecnologia'
p3039
S'525'
p3040
sS'regione'
p3041
S'174'
p3042
sS'scienza'
p3043
S'674'
p3044
sS'persone'
p3045
S'215'
p3046
sS'politica'
p3047
S'185'
p3048
sS'spettacolo'
p3049
S'696'
p3050
sS'economia'
p3051
S'636'
p3052
sS'gallerie'
p3053
S'378'
p3054
sS'motori'
p3055
S'206'
p3056
sS'esteri'
p3057
S'824'
p3058
sS'cronaca'
p3059
S'2238'
p3060
sS'sport'
p3061
S'1756'
p3062
sS'intesa'
p3063
S'171'
p3064
sS'rubriche'
p3065
S'2153'
p3066
sa(dp3067
S'fondi'
p3068
S'56'
p3069
sS'politica'
p3070
g208
sS'scuola'
p3071
S'12'
p3072
sS'scienza'
p3073
S'22'
p3074
sS'tecnologia'
p3075
S'20'
p3076
sS'persone'
p3077
S'19'
p3078
sS'spettacolo'
p3079
S'25'
p3080
sS'economia'
p3081
S'30'
p3082
sS'gallerie'
p3083
g182
sS'motori'
p3084
g214
sS'esteri'
p3085
S'15'
p3086
sS'cronaca'
p3087
S'50'
p3088
sS'sport'
p3089
S'100'
p3090
sS'rubriche'
p3091
S'54'
p3092
sa(dp3093
S'tecnologia'
p3094
g11
sS'scienza'
p3095
g8
sS'persone'
p3096
g214
sS'spettacolo'
p3097
S'10'
p3098
sS'economia'
p3099
g5
sS'gallerie'
p3100
g16
sS'salute'
p3101
g11
sS'motori'
p3102
g5
sS'esteri'
p3103
g16
sS'viaggi'
p3104
g5
sS'cronaca'
p3105
S'18'
p3106
sS'sport'
p3107
S'13'
p3108
sS'rubriche'
p3109
S'38'
p3110
sS'giochi'
p3111
g5
sa(dp3112
S'tecnologia'
p3113
S'335'
p3114
sS'scuola'
p3115
S'213'
p3116
sS'scienza'
p3117
S'643'
p3118
sS'persone'
p3119
S'249'
p3120
sS'media'
p3121
S'142'
p3122
sS'politica'
p3123
S'252'
p3124
sS'spettacolo'
p3125
S'1413'
p3126
sS'economia'
p3127
S'713'
p3128
sS'gallerie'
p3129
S'518'
p3130
sS'motori'
p3131
S'219'
p3132
sS'esteri'
p3133
S'1190'
p3134
sS'cronaca'
p3135
S'2652'
p3136
sS'sport'
p3137
S'2288'
p3138
sS'rubriche'
p3139
S'1505'
p3140
sa(dp3141
S'tecnologia'
p3142
S'635'
p3143
sS'scuola'
p3144
S'189'
p3145
sS'scienza'
p3146
S'1181'
p3147
sS'persone'
p3148
S'256'
p3149
sS'politica'
p3150
S'289'
p3151
sS'spettacolo'
p3152
S'762'
p3153
sS'economia'
p3154
S'862'
p3155
sS'gallerie'
p3156
S'542'
p3157
sS'salute'
p3158
S'126'
p3159
sS'esteri'
p3160
S'687'
p3161
sS'viaggi'
p3162
S'149'
p3163
sS'cronaca'
p3164
S'3294'
p3165
sS'sport'
p3166
S'2005'
p3167
sS'rubriche'
p3168
S'1953'
p3169
sa(dp3170
S'tecnologia'
p3171
S'388'
p3172
sS'regione'
p3173
S'169'
p3174
sS'scienza'
p3175
S'1031'
p3176
sS'persone'
p3177
S'295'
p3178
sS'politica'
p3179
S'377'
p3180
sS'spettacolo'
p3181
S'564'
p3182
sS'economia'
p3183
S'980'
p3184
sS'gallerie'
p3185
S'456'
p3186
sS'salute'
p3187
S'144'
p3188
sS'esteri'
p3189
S'775'
p3190
sS'cronaca'
p3191
S'2201'
p3192
sS'sport'
p3193
S'2495'
p3194
sS'rubriche'
p3195
S'1552'
p3196
sS'scuola'
p3197
S'148'
p3198
sa(dp3199
S'tecnologia'
p3200
S'403'
p3201
sS'regione'
p3202
S'135'
p3203
sS'scuola'
p3204
S'138'
p3205
sS'scienza'
p3206
S'887'
p3207
sS'persone'
p3208
S'313'
p3209
sS'politica'
p3210
S'635'
p3211
sS'spettacolo'
p3212
S'695'
p3213
sS'economia'
p3214
S'1038'
p3215
sS'gallerie'
p3216
S'568'
p3217
sS'motori'
p3218
S'111'
p3219
sS'esteri'
p3220
S'1248'
p3221
sS'cronaca'
p3222
S'2353'
p3223
sS'sport'
p3224
S'1953'
p3225
sS'rubriche'
p3226
S'1824'
p3227
sa(dp3228
S'tecnologia'
p3229
S'389'
p3230
sS'scuola'
p3231
S'278'
p3232
sS'scienza'
p3233
S'758'
p3234
sS'persone'
p3235
S'351'
p3236
sS'media'
p3237
S'155'
p3238
sS'politica'
p3239
S'303'
p3240
sS'spettacolo'
p3241
S'738'
p3242
sS'economia'
p3243
S'702'
p3244
sS'gallerie'
p3245
S'478'
p3246
sS'salute'
p3247
S'118'
p3248
sS'esteri'
p3249
S'821'
p3250
sS'cronaca'
p3251
S'2408'
p3252
sS'sport'
p3253
S'2158'
p3254
sS'rubriche'
p3255
S'1417'
p3256
sa(dp3257
S'fondi'
p3258
S'23'
p3259
sS'ritorno'
p3260
g182
sS'persone'
p3261
g22
sS'scienza'
p3262
S'20'
p3263
sS'tecnologia'
p3264
S'22'
p3265
sS'politica'
p3266
g22
sS'spettacolo'
p3267
S'55'
p3268
sS'economia'
p3269
S'32'
p3270
sS'motori'
p3271
g22
sS'esteri'
p3272
S'36'
p3273
sS'cronaca'
p3274
S'124'
p3275
sS'sport'
p3276
S'50'
p3277
sS'rubriche'
p3278
S'38'
p3279
sS'scuola'
p3280
g16
sa(dp3281
S'tecnologia'
p3282
g5
sS'storie'
p3283
g5
sS'scienza'
p3284
S'16'
p3285
sS'persone'
p3286
g8
sS'media'
p3287
g5
sS'politica'
p3288
g182
sS'spettacolo'
p3289
g19
sS'economia'
p3290
g16
sS'motori'
p3291
g5
sS'esteri'
p3292
g19
sS'cronaca'
p3293
S'54'
p3294
sS'sport'
p3295
S'30'
p3296
sS'rubriche'
p3297
S'39'
p3298
sS'scuola'
p3299
g5
sa(dp3300
S'tecnologia'
p3301
S'259'
p3302
sS'ritorno'
p3303
S'169'
p3304
sS'scuola'
p3305
S'153'
p3306
sS'scienza'
p3307
S'427'
p3308
sS'persone'
p3309
S'237'
p3310
sS'politica'
p3311
S'429'
p3312
sS'spettacolo'
p3313
S'858'
p3314
sS'economia'
p3315
S'387'
p3316
sS'gallerie'
p3317
S'383'
p3318
sS'motori'
p3319
S'401'
p3320
sS'esteri'
p3321
S'661'
p3322
sS'cronaca'
p3323
S'2274'
p3324
sS'sport'
p3325
S'2399'
p3326
sS'rubriche'
p3327
S'1127'
p3328
sa(dp3329
S'tecnologia'
p3330
S'448'
p3331
sS'scienza'
p3332
S'399'
p3333
sS'persone'
p3334
S'239'
p3335
sS'media'
p3336
S'98'
p3337
sS'politica'
p3338
S'271'
p3339
sS'spettacolo'
p3340
S'517'
p3341
sS'economia'
p3342
S'483'
p3343
sS'gallerie'
p3344
S'353'
p3345
sS'salute'
p3346
S'150'
p3347
sS'motori'
p3348
S'288'
p3349
sS'esteri'
p3350
S'614'
p3351
sS'cronaca'
p3352
S'1583'
p3353
sS'sport'
p3354
S'1405'
p3355
sS'rubriche'
p3356
S'981'
p3357
sa(dp3358
S'tecnologia'
p3359
S'559'
p3360
sS'scienza'
p3361
S'593'
p3362
sS'persone'
p3363
S'197'
p3364
sS'media'
p3365
S'90'
p3366
sS'politica'
p3367
S'639'
p3368
sS'spettacolo'
p3369
S'675'
p3370
sS'economia'
p3371
S'586'
p3372
sS'gallerie'
p3373
S'373'
p3374
sS'salute'
p3375
S'174'
p3376
sS'motori'
p3377
S'223'
p3378
sS'esteri'
p3379
S'951'
p3380
sS'cronaca'
p3381
S'3429'
p3382
sS'sport'
p3383
S'2373'
p3384
sS'rubriche'
p3385
S'1555'
p3386
sa(dp3387
S'tecnologia'
p3388
S'382'
p3389
sS'storia'
p3390
S'134'
p3391
sS'scienza'
p3392
S'466'
p3393
sS'persone'
p3394
S'379'
p3395
sS'politica'
p3396
S'427'
p3397
sS'spettacolo'
p3398
S'725'
p3399
sS'economia'
p3400
S'669'
p3401
sS'gallerie'
p3402
S'389'
p3403
sS'salute'
p3404
S'220'
p3405
sS'esteri'
p3406
S'1164'
p3407
sS'viaggi'
p3408
S'228'
p3409
sS'cronaca'
p3410
S'2600'
p3411
sS'sport'
p3412
S'2984'
p3413
sS'rubriche'
p3414
S'1676'
p3415
sa(dp3416
S'tecnologia'
p3417
S'433'
p3418
sS'scienza'
p3419
S'524'
p3420
sS'persone'
p3421
S'252'
p3422
sS'media'
p3423
S'208'
p3424
sS'politica'
p3425
S'209'
p3426
sS'spettacolo'
p3427
S'925'
p3428
sS'economia'
p3429
S'664'
p3430
sS'gallerie'
p3431
S'535'
p3432
sS'salute'
p3433
S'128'
p3434
sS'motori'
p3435
S'187'
p3436
sS'esteri'
p3437
S'1126'
p3438
sS'cronaca'
p3439
S'2019'
p3440
sS'sport'
p3441
S'4526'
p3442
sS'rubriche'
p3443
S'1286'
p3444
sa(dp3445
S'tecnologia'
p3446
g5
sS'finale'
p3447
g5
sS'scuola'
p3448
g5
sS'regione'
p3449
g8
sS'persone'
p3450
g22
sS'politica'
p3451
g182
sS'spettacolo'
p3452
S'21'
p3453
sS'economia'
p3454
g182
sS'gallerie'
p3455
g11
sS'motori'
p3456
g5
sS'esteri'
p3457
S'26'
p3458
sS'cronaca'
p3459
S'30'
p3460
sS'sport'
p3461
S'54'
p3462
sS'rubriche'
p3463
S'26'
p3464
sa(dp3465
S'fondi'
p3466
S'18'
p3467
sS'scuola'
p3468
g11
sS'scienza'
p3469
g19
sS'persone'
p3470
g16
sS'media'
p3471
g19
sS'politica'
p3472
S'13'
p3473
sS'spettacolo'
p3474
g182
sS'gallerie'
p3475
g11
sS'motori'
p3476
g11
sS'esteri'
p3477
S'15'
p3478
sS'cronaca'
p3479
S'34'
p3480
sS'sport'
p3481
S'109'
p3482
sS'tecnologia'
p3483
g214
sS'rubriche'
p3484
S'22'
p3485
sa(dp3486
S'tecnologia'
p3487
S'392'
p3488
sS'scuola'
p3489
S'73'
p3490
sS'scienza'
p3491
S'585'
p3492
sS'persone'
p3493
S'236'
p3494
sS'media'
p3495
S'223'
p3496
sS'politica'
p3497
S'307'
p3498
sS'spettacolo'
p3499
S'1516'
p3500
sS'economia'
p3501
S'446'
p3502
sS'gallerie'
p3503
S'502'
p3504
sS'motori'
p3505
S'189'
p3506
sS'esteri'
p3507
S'1202'
p3508
sS'cronaca'
p3509
S'2415'
p3510
sS'sport'
p3511
S'3673'
p3512
sS'rubriche'
p3513
S'1473'
p3514
sa(dp3515
S'tecnologia'
p3516
S'463'
p3517
sS'regione'
p3518
S'134'
p3519
sS'scienza'
p3520
S'696'
p3521
sS'persone'
p3522
S'263'
p3523
sS'media'
p3524
S'202'
p3525
sS'politica'
p3526
S'724'
p3527
sS'spettacolo'
p3528
S'663'
p3529
sS'economia'
p3530
S'626'
p3531
sS'gallerie'
p3532
S'684'
p3533
sS'motori'
p3534
S'135'
p3535
sS'esteri'
p3536
S'1181'
p3537
sS'cronaca'
p3538
S'1800'
p3539
sS'sport'
p3540
S'2642'
p3541
sS'rubriche'
p3542
S'1532'
p3543
sa(dp3544
S'tecnologia'
p3545
S'358'
p3546
sS'scuola'
p3547
S'135'
p3548
sS'scienza'
p3549
S'953'
p3550
sS'persone'
p3551
S'266'
p3552
sS'media'
p3553
S'585'
p3554
sS'politica'
p3555
S'791'
p3556
sS'spettacolo'
p3557
S'701'
p3558
sS'economia'
p3559
S'740'
p3560
sS'gallerie'
p3561
S'547'
p3562
sS'motori'
p3563
S'147'
p3564
sS'esteri'
p3565
S'911'
p3566
sS'cronaca'
p3567
S'1408'
p3568
sS'sport'
p3569
S'2121'
p3570
sS'rubriche'
p3571
S'1704'
p3572
sa(dp3573
S'tecnologia'
p3574
S'479'
p3575
sS'regione'
p3576
S'172'
p3577
sS'scienza'
p3578
S'691'
p3579
sS'persone'
p3580
S'531'
p3581
sS'media'
p3582
S'249'
p3583
sS'politica'
p3584
S'512'
p3585
sS'spettacolo'
p3586
S'442'
p3587
sS'economia'
p3588
S'656'
p3589
sS'gallerie'
p3590
S'285'
p3591
sS'salute'
p3592
S'335'
p3593
sS'esteri'
p3594
S'610'
p3595
sS'cronaca'
p3596
S'1863'
p3597
sS'sport'
p3598
S'2320'
p3599
sS'rubriche'
p3600
S'1858'
p3601
sasg208
(lp3602
(dp3603
S'tecnologia'
p3604
S'275'
p3605
sS'scienza'
p3606
S'403'
p3607
sS'persone'
p3608
S'163'
p3609
sS'media'
p3610
S'170'
p3611
sS'politica'
p3612
S'262'
p3613
sS'spettacolo'
p3614
S'590'
p3615
sS'economia'
p3616
S'1632'
p3617
sS'gallerie'
p3618
S'362'
p3619
sS'salute'
p3620
S'212'
p3621
sS'esteri'
p3622
S'1210'
p3623
sS'viaggi'
p3624
S'122'
p3625
sS'cronaca'
p3626
S'1935'
p3627
sS'sport'
p3628
S'1710'
p3629
sS'rubriche'
p3630
S'1082'
p3631
sa(dp3632
S'tecnologia'
p3633
S'324'
p3634
sS'scienza'
p3635
S'555'
p3636
sS'persone'
p3637
S'166'
p3638
sS'politica'
p3639
S'290'
p3640
sS'spettacolo'
p3641
S'327'
p3642
sS'economia'
p3643
S'1518'
p3644
sS'gallerie'
p3645
S'305'
p3646
sS'salute'
p3647
S'112'
p3648
sS'motori'
p3649
S'197'
p3650
sS'esteri'
p3651
S'1142'
p3652
sS'viaggi'
p3653
S'2032'
p3654
sS'cronaca'
p3655
S'1563'
p3656
sS'sport'
p3657
S'1312'
p3658
sS'rubriche'
p3659
S'1035'
p3660
sa(dp3661
S'tecnologia'
p3662
S'273'
p3663
sS'scuola'
p3664
S'180'
p3665
sS'scienza'
p3666
S'767'
p3667
sS'persone'
p3668
S'190'
p3669
sS'politica'
p3670
S'246'
p3671
sS'spettacolo'
p3672
S'330'
p3673
sS'economia'
p3674
S'1213'
p3675
sS'gallerie'
p3676
S'649'
p3677
sS'motori'
p3678
S'348'
p3679
sS'esteri'
p3680
S'593'
p3681
sS'viaggi'
p3682
S'928'
p3683
sS'cronaca'
p3684
S'2061'
p3685
sS'sport'
p3686
S'1652'
p3687
sS'rubriche'
p3688
S'1260'
p3689
sa(dp3690
S'tecnologia'
p3691
g22
sS'scuola'
p3692
S'18'
p3693
sS'scienza'
p3694
S'31'
p3695
sS'persone'
p3696
S'25'
p3697
sS'spettacolo'
p3698
S'12'
p3699
sS'economia'
p3700
S'41'
p3701
sS'gallerie'
p3702
S'15'
p3703
sS'motori'
p3704
g16
sS'moda'
p3705
S'17'
p3706
sS'esteri'
p3707
S'21'
p3708
sS'viaggi'
p3709
S'51'
p3710
sS'cronaca'
p3711
S'71'
p3712
sS'sport'
p3713
S'84'
p3714
sS'rubriche'
p3715
S'41'
p3716
sa(dp3717
S'persone'
p3718
S'10'
p3719
sS'media'
p3720
g8
sS'spettacolo'
p3721
g182
sS'economia'
p3722
S'15'
p3723
sS'moda'
p3724
g5
sS'esteri'
p3725
g11
sS'cronaca'
p3726
g16
sS'sport'
p3727
g208
sS'rubriche'
p3728
g214
sa(dp3729
S'tecnologia'
p3730
S'276'
p3731
sS'regione'
p3732
S'112'
p3733
sS'scienza'
p3734
S'437'
p3735
sS'persone'
p3736
S'191'
p3737
sS'media'
p3738
S'186'
p3739
sS'politica'
p3740
S'373'
p3741
sS'spettacolo'
p3742
S'506'
p3743
sS'economia'
p3744
S'1861'
p3745
sS'gallerie'
p3746
S'345'
p3747
sS'esteri'
p3748
S'1107'
p3749
sS'viaggi'
p3750
S'533'
p3751
sS'cronaca'
p3752
S'2582'
p3753
sS'sport'
p3754
S'1879'
p3755
sS'rubriche'
p3756
S'1419'
p3757
sa(dp3758
S'tecnologia'
p3759
S'163'
p3760
sS'storie'
p3761
S'61'
p3762
sS'scienza'
p3763
S'331'
p3764
sS'persone'
p3765
S'119'
p3766
sS'politica'
p3767
S'129'
p3768
sS'spettacolo'
p3769
S'447'
p3770
sS'economia'
p3771
S'882'
p3772
sS'gallerie'
p3773
S'214'
p3774
sS'motori'
p3775
S'73'
p3776
sS'esteri'
p3777
S'578'
p3778
sS'viaggi'
p3779
S'138'
p3780
sS'cronaca'
p3781
S'1349'
p3782
sS'sport'
p3783
S'1091'
p3784
sS'rubriche'
p3785
S'656'
p3786
sa(dp3787
S'tecnologia'
p3788
g16
sS'scienza'
p3789
g11
sS'persone'
p3790
g5
sS'spettacolo'
p3791
g19
sS'economia'
p3792
S'22'
p3793
sS'esteri'
p3794
g16
sS'viaggi'
p3795
g5
sS'cronaca'
p3796
g208
sS'sport'
p3797
g208
sS'rubriche'
p3798
g208
sa(dp3799
a(dp3800
a(dp3801
a(dp3802
a(dp3803
a(dp3804
a(dp3805
a(dp3806
a(dp3807
a(dp3808
a(dp3809
a(dp3810
a(dp3811
a(dp3812
a(dp3813
a(dp3814
a(dp3815
a(dp3816
a(dp3817
a(dp3818
a(dp3819
a(dp3820
a(dp3821
asg214
(lp3822
(dp3823
S'tecnologia'
p3824
S'115'
p3825
sS'scuola'
p3826
S'50'
p3827
sS'scienza'
p3828
S'116'
p3829
sS'persone'
p3830
S'92'
p3831
sS'media'
p3832
S'123'
p3833
sS'politica'
p3834
S'841'
p3835
sS'spettacolo'
p3836
S'313'
p3837
sS'economia'
p3838
S'130'
p3839
sS'gallerie'
p3840
S'169'
p3841
sS'moda'
p3842
S'47'
p3843
sS'esteri'
p3844
S'253'
p3845
sS'cronaca'
p3846
S'685'
p3847
sS'sport'
p3848
S'1272'
p3849
sS'rubriche'
p3850
S'950'
p3851
sa(dp3852
S'finale'
p3853
g5
sS'scienza'
p3854
g8
sS'media'
p3855
g11
sS'politica'
p3856
g208
sS'giugno'
p3857
g5
sS'spettacolo'
p3858
g8
sS'economia'
p3859
g19
sS'gallerie'
p3860
g16
sS'motori'
p3861
g5
sS'online'
p3862
g11
sS'esteri'
p3863
g22
sS'cronaca'
p3864
S'32'
p3865
sS'sport'
p3866
S'31'
p3867
sS'rubriche'
p3868
S'26'
p3869
sa(dp3870
S'tecnologia'
p3871
S'311'
p3872
sS'scienza'
p3873
S'678'
p3874
sS'persone'
p3875
S'235'
p3876
sS'media'
p3877
S'113'
p3878
sS'politica'
p3879
S'554'
p3880
sS'spettacolo'
p3881
S'825'
p3882
sS'economia'
p3883
S'849'
p3884
sS'gallerie'
p3885
S'483'
p3886
sS'motori'
p3887
S'101'
p3888
sS'moda'
p3889
S'133'
p3890
sS'esteri'
p3891
S'708'
p3892
sS'cronaca'
p3893
S'1913'
p3894
sS'sport'
p3895
S'4160'
p3896
sS'rubriche'
p3897
S'1479'
p3898
sa(dp3899
S'tecnologia'
p3900
S'214'
p3901
sS'regione'
p3902
S'144'
p3903
sS'scienza'
p3904
S'669'
p3905
sS'persone'
p3906
S'246'
p3907
sS'politica'
p3908
S'339'
p3909
sS'giugno'
p3910
S'245'
p3911
sS'spettacolo'
p3912
S'628'
p3913
sS'economia'
p3914
S'853'
p3915
sS'gallerie'
p3916
S'320'
p3917
sS'esteri'
p3918
S'543'
p3919
sS'viaggi'
p3920
S'216'
p3921
sS'cronaca'
p3922
S'1997'
p3923
sS'sport'
p3924
S'3010'
p3925
sS'rubriche'
p3926
S'907'
p3927
sa(dp3928
S'tecnologia'
p3929
S'370'
p3930
sS'regione'
p3931
S'180'
p3932
sS'scienza'
p3933
S'453'
p3934
sS'persone'
p3935
S'266'
p3936
sS'politica'
p3937
S'182'
p3938
sS'spettacolo'
p3939
S'464'
p3940
sS'economia'
p3941
S'656'
p3942
sS'gallerie'
p3943
S'501'
p3944
sS'salute'
p3945
S'211'
p3946
sS'esteri'
p3947
S'614'
p3948
sS'viaggi'
p3949
S'307'
p3950
sS'cronaca'
p3951
S'1627'
p3952
sS'sport'
p3953
S'2668'
p3954
sS'rubriche'
p3955
S'1347'
p3956
sa(dp3957
S'tecnologia'
p3958
S'10'
p3959
sS'scienza'
p3960
g208
sS'persone'
p3961
S'18'
p3962
sS'politica'
p3963
S'11'
p3964
sS'mare'
p3965
g208
sS'spettacolo'
p3966
S'15'
p3967
sS'economia'
p3968
S'34'
p3969
sS'gallerie'
p3970
S'16'
p3971
sS'motori'
p3972
S'12'
p3973
sS'moda'
p3974
S'28'
p3975
sS'esteri'
p3976
S'18'
p3977
sS'cronaca'
p3978
S'93'
p3979
sS'sport'
p3980
S'126'
p3981
sS'rubriche'
p3982
S'41'
p3983
sa(dp3984
S'tecnologia'
p3985
g5
sS'persone'
p3986
S'10'
p3987
sS'politica'
p3988
S'22'
p3989
sS'giugno'
p3990
g5
sS'spettacolo'
p3991
g214
sS'moda'
p3992
g5
sS'gallerie'
p3993
g5
sS'cronaca'
p3994
S'10'
p3995
sS'sport'
p3996
S'104'
p3997
sS'rubriche'
p3998
g19
sa(dp3999
S'tecnologia'
p4000
S'265'
p4001
sS'storie'
p4002
S'380'
p4003
sS'scienza'
p4004
S'484'
p4005
sS'persone'
p4006
S'266'
p4007
sS'media'
p4008
S'141'
p4009
sS'politica'
p4010
S'262'
p4011
sS'spettacolo'
p4012
S'814'
p4013
sS'economia'
p4014
S'884'
p4015
sS'gallerie'
p4016
S'408'
p4017
sS'moda'
p4018
S'158'
p4019
sS'esteri'
p4020
S'748'
p4021
sS'cronaca'
p4022
S'1922'
p4023
sS'sport'
p4024
S'4297'
p4025
sS'rubriche'
p4026
S'1456'
p4027
sa(dp4028
S'tecnologia'
p4029
S'454'
p4030
sS'storie'
p4031
S'244'
p4032
sS'regione'
p4033
S'322'
p4034
sS'scienza'
p4035
S'688'
p4036
sS'persone'
p4037
S'194'
p4038
sS'politica'
p4039
S'225'
p4040
sS'spettacolo'
p4041
S'761'
p4042
sS'economia'
p4043
S'675'
p4044
sS'gallerie'
p4045
S'405'
p4046
sS'esteri'
p4047
S'711'
p4048
sS'viaggi'
p4049
S'260'
p4050
sS'cronaca'
p4051
S'1812'
p4052
sS'sport'
p4053
S'2629'
p4054
sS'rubriche'
p4055
S'1092'
p4056
sa(dp4057
S'tecnologia'
p4058
S'225'
p4059
sS'scienza'
p4060
S'452'
p4061
sS'persone'
p4062
S'146'
p4063
sS'politica'
p4064
S'236'
p4065
sS'spettacolo'
p4066
S'461'
p4067
sS'economia'
p4068
S'694'
p4069
sS'gallerie'
p4070
S'284'
p4071
sS'salute'
p4072
S'190'
p4073
sS'motori'
p4074
S'169'
p4075
sS'esteri'
p4076
S'638'
p4077
sS'viaggi'
p4078
S'155'
p4079
sS'cronaca'
p4080
S'1464'
p4081
sS'sport'
p4082
S'2101'
p4083
sS'rubriche'
p4084
S'989'
p4085
sa(dp4086
S'tecnologia'
p4087
S'231'
p4088
sS'storie'
p4089
S'456'
p4090
sS'scienza'
p4091
S'1698'
p4092
sS'persone'
p4093
S'228'
p4094
sS'politica'
p4095
S'238'
p4096
sS'giugno'
p4097
S'226'
p4098
sS'spettacolo'
p4099
S'529'
p4100
sS'economia'
p4101
S'656'
p4102
sS'gallerie'
p4103
S'671'
p4104
sS'salute'
p4105
S'412'
p4106
sS'esteri'
p4107
S'504'
p4108
sS'cronaca'
p4109
S'2074'
p4110
sS'sport'
p4111
S'1595'
p4112
sS'rubriche'
p4113
S'1225'
p4114
sa(dp4115
S'tecnologia'
p4116
S'225'
p4117
sS'regione'
p4118
S'243'
p4119
sS'scienza'
p4120
S'1191'
p4121
sS'persone'
p4122
S'244'
p4123
sS'politica'
p4124
S'230'
p4125
sS'spettacolo'
p4126
S'486'
p4127
sS'economia'
p4128
S'467'
p4129
sS'gallerie'
p4130
S'402'
p4131
sS'salute'
p4132
S'151'
p4133
sS'motori'
p4134
S'227'
p4135
sS'esteri'
p4136
S'655'
p4137
sS'cronaca'
p4138
S'2503'
p4139
sS'sport'
p4140
S'1540'
p4141
sS'rubriche'
p4142
S'1175'
p4143
sa(dp4144
S'tecnologia'
p4145
S'25'
p4146
sS'storie'
p4147
S'24'
p4148
sS'regione'
p4149
S'33'
p4150
sS'scienza'
p4151
S'35'
p4152
sS'persone'
p4153
S'23'
p4154
sS'spettacolo'
p4155
S'10'
p4156
sS'economia'
p4157
S'33'
p4158
sS'gallerie'
p4159
S'22'
p4160
sS'salute'
p4161
g16
sS'motori'
p4162
g208
sS'esteri'
p4163
S'25'
p4164
sS'cronaca'
p4165
S'78'
p4166
sS'sport'
p4167
S'120'
p4168
sS'rubriche'
p4169
S'42'
p4170
sa(dp4171
S'tecnologia'
p4172
g8
sS'regione'
p4173
g182
sS'scienza'
p4174
g182
sS'persone'
p4175
S'20'
p4176
sS'politica'
p4177
S'11'
p4178
sS'giugno'
p4179
g5
sS'economia'
p4180
g16
sS'gallerie'
p4181
g11
sS'motori'
p4182
g8
sS'esteri'
p4183
S'27'
p4184
sS'cronaca'
p4185
S'47'
p4186
sS'sport'
p4187
S'16'
p4188
sS'messaggi'
p4189
S'14'
p4190
sS'rubriche'
p4191
S'16'
p4192
sa(dp4193
S'finale'
p4194
S'116'
p4195
sS'regione'
p4196
S'123'
p4197
sS'storie'
p4198
S'177'
p4199
sS'scienza'
p4200
S'533'
p4201
sS'persone'
p4202
S'227'
p4203
sS'politica'
p4204
S'617'
p4205
sS'spettacolo'
p4206
S'315'
p4207
sS'economia'
p4208
S'693'
p4209
sS'gallerie'
p4210
S'287'
p4211
sS'motori'
p4212
S'137'
p4213
sS'esteri'
p4214
S'985'
p4215
sS'cronaca'
p4216
S'1926'
p4217
sS'sport'
p4218
S'1557'
p4219
sS'rubriche'
p4220
S'1532'
p4221
sa(dp4222
S'tecnologia'
p4223
S'190'
p4224
sS'regione'
p4225
S'174'
p4226
sS'scienza'
p4227
S'513'
p4228
sS'persone'
p4229
S'282'
p4230
sS'politica'
p4231
S'519'
p4232
sS'giugno'
p4233
S'110'
p4234
sS'spettacolo'
p4235
S'392'
p4236
sS'economia'
p4237
S'895'
p4238
sS'gallerie'
p4239
S'435'
p4240
sS'salute'
p4241
S'147'
p4242
sS'esteri'
p4243
S'756'
p4244
sS'cronaca'
p4245
S'1874'
p4246
sS'sport'
p4247
S'1467'
p4248
sS'rubriche'
p4249
S'1515'
p4250
sa(dp4251
S'analisi'
p4252
S'230'
p4253
sS'scuola'
p4254
S'367'
p4255
sS'scienza'
p4256
S'549'
p4257
sS'persone'
p4258
S'236'
p4259
sS'politica'
p4260
S'287'
p4261
sS'spettacolo'
p4262
S'478'
p4263
sS'economia'
p4264
S'632'
p4265
sS'gallerie'
p4266
S'290'
p4267
sS'salute'
p4268
S'216'
p4269
sS'esteri'
p4270
S'770'
p4271
sS'cronaca'
p4272
S'1755'
p4273
sS'sport'
p4274
S'2442'
p4275
sS'tecnologia'
p4276
S'170'
p4277
sS'rubriche'
p4278
S'1420'
p4279
sa(dp4280
S'tecnologia'
p4281
S'135'
p4282
sS'storie'
p4283
S'94'
p4284
sS'scuola'
p4285
S'126'
p4286
sS'scienza'
p4287
S'365'
p4288
sS'persone'
p4289
S'155'
p4290
sS'politica'
p4291
S'80'
p4292
sS'giugno'
p4293
S'110'
p4294
sS'spettacolo'
p4295
S'191'
p4296
sS'economia'
p4297
S'302'
p4298
sS'gallerie'
p4299
S'216'
p4300
sS'esteri'
p4301
S'536'
p4302
sS'cronaca'
p4303
S'1101'
p4304
sS'sport'
p4305
S'796'
p4306
sS'rubriche'
p4307
S'780'
p4308
sa(dp4309
S'tecnologia'
p4310
S'188'
p4311
sS'regione'
p4312
S'134'
p4313
sS'scienza'
p4314
S'526'
p4315
sS'persone'
p4316
S'299'
p4317
sS'media'
p4318
S'131'
p4319
sS'spettacolo'
p4320
S'695'
p4321
sS'economia'
p4322
S'880'
p4323
sS'gallerie'
p4324
S'426'
p4325
sS'salute'
p4326
S'152'
p4327
sS'motori'
p4328
S'133'
p4329
sS'esteri'
p4330
S'1178'
p4331
sS'cronaca'
p4332
S'1525'
p4333
sS'sport'
p4334
S'1778'
p4335
sS'rubriche'
p4336
S'1165'
p4337
sa(dp4338
S'tecnologia'
p4339
g182
sS'scienza'
p4340
S'18'
p4341
sS'storie'
p4342
S'40'
p4343
sS'persone'
p4344
S'12'
p4345
sS'media'
p4346
S'20'
p4347
sS'politica'
p4348
S'21'
p4349
sS'giugno'
p4350
g208
sS'spettacolo'
p4351
S'16'
p4352
sS'economia'
p4353
S'37'
p4354
sS'gallerie'
p4355
S'11'
p4356
sS'esteri'
p4357
S'22'
p4358
sS'cronaca'
p4359
S'69'
p4360
sS'sport'
p4361
S'93'
p4362
sS'rubriche'
p4363
S'57'
p4364
sa(dp4365
S'tecnologia'
p4366
g5
sS'finale'
p4367
g11
sS'persone'
p4368
g8
sS'politica'
p4369
S'12'
p4370
sS'mare'
p4371
g5
sS'spettacolo'
p4372
g8
sS'economia'
p4373
g19
sS'gallerie'
p4374
g214
sS'giochi'
p4375
g19
sS'esteri'
p4376
g208
sS'cronaca'
p4377
S'54'
p4378
sS'sport'
p4379
S'13'
p4380
sS'ultimora'
p4381
g19
sS'rubriche'
p4382
S'10'
p4383
sa(dp4384
S'tecnologia'
p4385
S'101'
p4386
sS'regione'
p4387
S'111'
p4388
sS'scienza'
p4389
S'311'
p4390
sS'persone'
p4391
S'206'
p4392
sS'media'
p4393
S'111'
p4394
sS'politica'
p4395
S'91'
p4396
sS'spettacolo'
p4397
S'780'
p4398
sS'economia'
p4399
S'390'
p4400
sS'gallerie'
p4401
S'282'
p4402
sS'esteri'
p4403
S'575'
p4404
sS'viaggi'
p4405
S'137'
p4406
sS'cronaca'
p4407
S'1801'
p4408
sS'sport'
p4409
S'1181'
p4410
sS'rubriche'
p4411
S'914'
p4412
sa(dp4413
S'tecnologia'
p4414
S'246'
p4415
sS'regione'
p4416
S'143'
p4417
sS'scienza'
p4418
S'459'
p4419
sS'persone'
p4420
S'232'
p4421
sS'politica'
p4422
S'211'
p4423
sS'spettacolo'
p4424
S'561'
p4425
sS'economia'
p4426
S'682'
p4427
sS'gallerie'
p4428
S'329'
p4429
sS'salute'
p4430
S'133'
p4431
sS'esteri'
p4432
S'661'
p4433
sS'cronaca'
p4434
S'2180'
p4435
sS'sport'
p4436
S'2271'
p4437
sS'rubriche'
p4438
S'1358'
p4439
sS'scuola'
p4440
S'128'
p4441
sa(dp4442
S'tecnologia'
p4443
S'41'
p4444
sS'storia'
p4445
g22
sS'scienza'
p4446
S'25'
p4447
sS'persone'
p4448
S'18'
p4449
sS'politica'
p4450
S'29'
p4451
sS'spettacolo'
p4452
S'21'
p4453
sS'economia'
p4454
S'31'
p4455
sS'gallerie'
p4456
S'42'
p4457
sS'motori'
p4458
S'19'
p4459
sS'esteri'
p4460
S'49'
p4461
sS'viaggi'
p4462
S'10'
p4463
sS'cronaca'
p4464
S'80'
p4465
sS'sport'
p4466
S'119'
p4467
sS'rubriche'
p4468
S'54'
p4469
sa(dp4470
S'tecnologia'
p4471
S'340'
p4472
sS'scuola'
p4473
S'536'
p4474
sS'scienza'
p4475
S'427'
p4476
sS'politica'
p4477
S'228'
p4478
sS'giugno'
p4479
S'207'
p4480
sS'spettacolo'
p4481
S'418'
p4482
sS'economia'
p4483
S'1092'
p4484
sS'gallerie'
p4485
S'482'
p4486
sS'motori'
p4487
S'470'
p4488
sS'esteri'
p4489
S'727'
p4490
sS'viaggi'
p4491
S'463'
p4492
sS'cronaca'
p4493
S'2147'
p4494
sS'sport'
p4495
S'2040'
p4496
sS'rubriche'
p4497
S'1227'
p4498
sa(dp4499
S'tecnologia'
p4500
S'467'
p4501
sS'scuola'
p4502
S'310'
p4503
sS'scienza'
p4504
S'303'
p4505
sS'persone'
p4506
S'359'
p4507
sS'politica'
p4508
S'229'
p4509
sS'spettacolo'
p4510
S'345'
p4511
sS'economia'
p4512
S'527'
p4513
sS'gallerie'
p4514
S'223'
p4515
sS'salute'
p4516
S'196'
p4517
sS'motori'
p4518
S'164'
p4519
sS'esteri'
p4520
S'2175'
p4521
sS'cronaca'
p4522
S'1248'
p4523
sS'sport'
p4524
S'1314'
p4525
sS'rubriche'
p4526
S'896'
p4527
sa(dp4528
S'tecnologia'
p4529
S'19'
p4530
sS'politica'
p4531
g11
sS'scienza'
p4532
g11
sS'regione'
p4533
g11
sS'persone'
p4534
g19
sS'finale'
p4535
g182
sS'spettacolo'
p4536
g182
sS'economia'
p4537
S'19'
p4538
sS'gallerie'
p4539
g208
sS'motori'
p4540
g22
sS'esteri'
p4541
S'31'
p4542
sS'cronaca'
p4543
S'25'
p4544
sS'sport'
p4545
S'32'
p4546
sS'rubriche'
p4547
S'15'
p4548
sa(dp4549
S'scienza'
p4550
g11
sS'scuola'
p4551
g8
sS'storie'
p4552
g214
sS'tecnologia'
p4553
g5
sS'media'
p4554
g5
sS'giugno'
p4555
g5
sS'spettacolo'
p4556
g11
sS'economia'
p4557
g8
sS'salute'
p4558
g5
sS'motori'
p4559
g182
sS'esteri'
p4560
g208
sS'cronaca'
p4561
S'14'
p4562
sS'sport'
p4563
S'26'
p4564
sS'rubriche'
p4565
S'13'
p4566
sa(dp4567
S'tecnologia'
p4568
S'55'
p4569
sS'regione'
p4570
S'44'
p4571
sS'storie'
p4572
S'136'
p4573
sS'scienza'
p4574
S'163'
p4575
sS'persone'
p4576
S'60'
p4577
sS'politica'
p4578
S'48'
p4579
sS'spettacolo'
p4580
S'219'
p4581
sS'economia'
p4582
S'593'
p4583
sS'gallerie'
p4584
S'162'
p4585
sS'motori'
p4586
S'93'
p4587
sS'esteri'
p4588
S'342'
p4589
sS'cronaca'
p4590
S'372'
p4591
sS'sport'
p4592
S'424'
p4593
sS'rubriche'
p4594
S'264'
p4595
sa(dp4596
S'tecnologia'
p4597
S'369'
p4598
sS'regione'
p4599
S'360'
p4600
sS'scienza'
p4601
S'587'
p4602
sS'persone'
p4603
S'254'
p4604
sS'politica'
p4605
S'269'
p4606
sS'giugno'
p4607
S'185'
p4608
sS'spettacolo'
p4609
S'585'
p4610
sS'economia'
p4611
S'1883'
p4612
sS'gallerie'
p4613
S'457'
p4614
sS'motori'
p4615
S'197'
p4616
sS'esteri'
p4617
S'1001'
p4618
sS'cronaca'
p4619
S'1729'
p4620
sS'sport'
p4621
S'1353'
p4622
sS'rubriche'
p4623
S'1272'
p4624
sasg22
(lp4625
(dp4626
a(dp4627
a(dp4628
a(dp4629
a(dp4630
a(dp4631
a(dp4632
a(dp4633
a(dp4634
a(dp4635
a(dp4636
a(dp4637
a(dp4638
a(dp4639
a(dp4640
a(dp4641
a(dp4642
a(dp4643
a(dp4644
a(dp4645
a(dp4646
a(dp4647
a(dp4648
a(dp4649
a(dp4650
a(dp4651
a(dp4652
a(dp4653
a(dp4654
a(dp4655
asg16
(lp4656
(dp4657
a(dp4658
a(dp4659
a(dp4660
a(dp4661
a(dp4662
a(dp4663
a(dp4664
a(dp4665
a(dp4666
a(dp4667
a(dp4668
a(dp4669
a(dp4670
a(dp4671
a(dp4672
a(dp4673
a(dp4674
a(dp4675
a(dp4676
a(dp4677
a(dp4678
a(dp4679
a(dp4680
a(dp4681
a(dp4682
a(dp4683
a(dp4684
a(dp4685
a(dp4686
a(dp4687
as.