(dp0
I1
(dp1
sI2
(dp2
sI3
(dp3
sI4
(dp4
sI5
(dp5
sI6
(dp6
sI7
(dp7
sI8
(dp8
S'tecnologia'
p9
I1378
sS'finale'
p10
I1
sS'regione'
p11
I392
sS'scienza'
p12
I2058
sS'persone'
p13
I715
sS'politica'
p14
I1716
sS'prodotto'
p15
I1
sS'spettacolo'
p16
I4234
sS'economia'
p17
I3539
sS'gallerie'
p18
I2066
sS'salute'
p19
I607
sS'motori'
p20
I654
sS'online'
p21
I1
sS'esteri'
p22
I2366
sS'viaggi'
p23
I156
sS'cronaca'
p24
I6935
sS'sport'
p25
I7384
sS'rubriche'
p26
I5815
sS'scuola'
p27
I613
ssI9
(dp28
S'tecnologia'
p29
I479
sS'regione'
p30
I10
sS'scuola'
p31
I129
sS'scienza'
p32
I1316
sS'persone'
p33
I363
sS'ritorno'
p34
I3
sS'politica'
p35
I680
sS'spettacolo'
p36
I1487
sS'economia'
p37
I1176
sS'gallerie'
p38
I373
sS'motori'
p39
I248
sS'moda'
p40
I103
sS'esteri'
p41
I1599
sS'viaggi'
p42
I201
sS'cronaca'
p43
I3643
sS'sport'
p44
I4228
sS'rubriche'
p45
I2326
ssI10
(dp46
sI11
(dp47
S'tecnologia'
p48
I695
sS'regione'
p49
I2
sS'scuola'
p50
I315
sS'scienza'
p51
I1635
sS'persone'
p52
I598
sS'media'
p53
I108
sS'politica'
p54
I667
sS'spettacolo'
p55
I1433
sS'economia'
p56
I1219
sS'gallerie'
p57
I568
sS'salute'
p58
I352
sS'motori'
p59
I229
sS'moda'
p60
I347
sS'esteri'
p61
I1855
sS'futuro'
p62
I2
sS'cronaca'
p63
I4434
sS'sport'
p64
I4453
sS'rubriche'
p65
I3288
ssI12
(dp66
sI13
(dp67
S'tecnologia'
p68
I171
sS'scienza'
p69
I472
sS'persone'
p70
I218
sS'media'
p71
I78
sS'politica'
p72
I370
sS'spettacolo'
p73
I806
sS'economia'
p74
I586
sS'gallerie'
p75
I160
sS'salute'
p76
I79
sS'motori'
p77
I110
sS'esteri'
p78
I5525
sS'cronaca'
p79
I1955
sS'sport'
p80
I1194
sS'rubriche'
p81
I1519
ssI14
(dp82
S'tecnologia'
p83
I697
sS'moda'
p84
I276
sS'scuola'
p85
I80
sS'scienza'
p86
I976
sS'persone'
p87
I392
sS'media'
p88
I2
sS'politica'
p89
I688
sS'spettacolo'
p90
I1132
sS'economia'
p91
I781
sS'gallerie'
p92
I347
sS'salute'
p93
I248
sS'motori'
p94
I191
sS'online'
p95
I2
sS'esteri'
p96
I1316
sS'cronaca'
p97
I2935
sS'sport'
p98
I2570
sS'ultimora'
p99
I1
sS'rubriche'
p100
I2484
ssI15
(dp101
S'fondi'
p102
I56
sS'tecnologia'
p103
I2189
sS'giochi'
p104
I1
sS'regione'
p105
I769
sS'scienza'
p106
I4038
sS'persone'
p107
I1138
sS'media'
p108
I142
sS'politica'
p109
I1467
sS'spettacolo'
p110
I3840
sS'economia'
p111
I3555
sS'gallerie'
p112
I2038
sS'salute'
p113
I272
sS'motori'
p114
I571
sS'moda'
p115
I94
sS'esteri'
p116
I3915
sS'viaggi'
p117
I150
sS'cronaca'
p118
I12505
sS'sport'
p119
I9628
sS'intesa'
p120
I171
sS'rubriche'
p121
I8486
sS'scuola'
p122
I562
ssI16
(dp123
S'fondi'
p124
I23
sS'tecnologia'
p125
I2081
sS'storie'
p126
I1
sS'regione'
p127
I135
sS'scuola'
p128
I578
sS'scienza'
p129
I3100
sS'persone'
p130
I1350
sS'media'
p131
I344
sS'politica'
p132
I2291
sS'spettacolo'
p133
I3541
sS'economia'
p134
I3236
sS'gallerie'
p135
I2155
sS'salute'
p136
I442
sS'motori'
p137
I1033
sS'esteri'
p138
I4334
sS'ritorno'
p139
I174
sS'cronaca'
p140
I12225
sS'sport'
p141
I10368
sS'rubriche'
p142
I6981
ssI17
(dp143
S'fondi'
p144
I18
sS'tecnologia'
p145
I2035
sS'storia'
p146
I134
sS'finale'
p147
I1
sS'regione'
p148
I138
sS'scienza'
p149
I3227
sS'persone'
p150
I1413
sS'media'
p151
I1221
sS'politica'
p152
I2476
sS'spettacolo'
p153
I4556
sS'economia'
p154
I3150
sS'gallerie'
p155
I2661
sS'salute'
p156
I348
sS'motori'
p157
I661
sS'esteri'
p158
I5625
sS'viaggi'
p159
I228
sS'cronaca'
p160
I10306
sS'sport'
p161
I16109
sS'rubriche'
p162
I7719
sS'scuola'
p163
I211
ssI18
(dp164
S'tecnologia'
p165
I1677
sS'finale'
p166
I1
sS'regione'
p167
I796
sS'scienza'
p168
I2724
sS'persone'
p169
I1539
sS'servizi'
p170
I166
sS'media'
p171
I405
sS'politica'
p172
I2030
sS'mare'
p173
I146
sS'prodotto'
p174
I2
sS'spettacolo'
p175
I2471
sS'economia'
p176
I2596
sS'gallerie'
p177
I1702
sS'salute'
p178
I532
sS'motori'
p179
I21
sS'moda'
p180
I1
sS'esteri'
p181
I3242
sS'cronaca'
p182
I8083
sS'sport'
p183
I12402
sS'rubriche'
p184
I6184
sS'scuola'
p185
I1024
ssI19
(dp186
S'tecnologia'
p187
I1507
sS'ragazza'
p188
I1
sS'regione'
p189
I270
sS'scuola'
p190
I1070
sS'scienza'
p191
I3326
sS'persone'
p192
I1465
sS'media'
p193
I384
sS'politica'
p194
I2804
sS'mare'
p195
I111
sS'spettacolo'
p196
I3178
sS'economia'
p197
I3295
sS'gallerie'
p198
I1847
sS'carte'
p199
I15
sS'motori'
p200
I258
sS'esteri'
p201
I5316
sS'viaggi'
p202
I560
sS'cronaca'
p203
I9640
sS'sport'
p204
I13492
sS'rubriche'
p205
I7778
sS'salute'
p206
I263
ssI20
(dp207
S'tecnologia'
p208
I1627
sS'storie'
p209
I187
sS'finale'
p210
I257
sS'regione'
p211
I176
sS'scuola'
p212
I1028
sS'scienza'
p213
I3232
sS'persone'
p214
I1587
sS'media'
p215
I281
sS'politica'
p216
I1775
sS'prodotto'
p217
I1
sS'spettacolo'
p218
I3382
sS'economia'
p219
I3454
sS'gallerie'
p220
I2141
sS'stelle'
p221
I1
sS'motori'
p222
I496
sS'esteri'
p223
I3737
sS'viaggi'
p224
I216
sS'cronaca'
p225
I11850
sS'sport'
p226
I16958
sS'rubriche'
p227
I7339
sS'salute'
p228
I161
ssI21
(dp229
S'tecnologia'
p230
I1804
sS'storie'
p231
I131
sS'regione'
p232
I400
sS'scuola'
p233
I202
sS'scienza'
p234
I2807
sS'persone'
p235
I1473
sS'media'
p236
I733
sS'politica'
p237
I2000
sS'storia'
p238
I1
sS'spettacolo'
p239
I3228
sS'economia'
p240
I3721
sS'gallerie'
p241
I2307
sS'salute'
p242
I969
sS'motori'
p243
I380
sS'esteri'
p244
I4273
sS'viaggi'
p245
I110
sS'cronaca'
p246
I10193
sS'sport'
p247
I14310
sS'rubriche'
p248
I7454
ssI22
(dp249
S'tecnologia'
p250
I1048
sS'storie'
p251
I191
sS'politica'
p252
I1998
sS'giugno'
p253
I1
sS'economia'
p254
I2046
sS'motori'
p255
I273
sS'esteri'
p256
I2018
sS'fissa'
p257
I1
sS'rubriche'
p258
I5332
sS'sport'
p259
I10369
sS'scuola'
p260
I318
sS'regione'
p261
I152
sS'media'
p262
I332
sS'spettacolo'
p263
I1926
sS'gallerie'
p264
I1660
sS'online'
p265
I2
sS'salute'
p266
I188
sS'persone'
p267
I996
sS'finale'
p268
I4
sS'scienza'
p269
I2066
sS'moda'
p270
I180
sS'cronaca'
p271
I5929
ssI23
(dp272
S'tecnologia'
p273
I1539
sS'storie'
p274
I624
sS'regione'
p275
I646
sS'scienza'
p276
I2753
sS'persone'
p277
I1146
sS'media'
p278
I141
sS'politica'
p279
I1277
sS'mare'
p280
I7
sS'giugno'
p281
I246
sS'spettacolo'
p282
I3149
sS'economia'
p283
I3796
sS'gallerie'
p284
I1935
sS'salute'
p285
I401
sS'motori'
p286
I181
sS'moda'
p287
I187
sS'esteri'
p288
I3272
sS'viaggi'
p289
I938
sS'cronaca'
p290
I8925
sS'sport'
p291
I14935
sS'rubriche'
p292
I5835
ssI24
(dp293
S'tecnologia'
p294
I845
sS'finale'
p295
I116
sS'regione'
p296
I578
sS'storie'
p297
I657
sS'scienza'
p298
I4524
sS'persone'
p299
I1260
sS'politica'
p300
I1902
sS'giugno'
p301
I337
sS'spettacolo'
p302
I2210
sS'economia'
p303
I3384
sS'gallerie'
p304
I2109
sS'salute'
p305
I934
sS'motori'
p306
I375
sS'esteri'
p307
I3722
sS'cronaca'
p308
I10257
sS'sport'
p309
I8737
sS'messaggi'
p310
I14
sS'analisi'
p311
I230
sS'rubriche'
p312
I6925
sS'scuola'
p313
I367
ssI25
(dp314
S'tecnologia'
p315
I717
sS'storia'
p316
I9
sS'storie'
p317
I134
sS'politica'
p318
I444
sS'giugno'
p319
I117
sS'economia'
p320
I2325
sS'motori'
p321
I152
sS'esteri'
p322
I3028
sS'sport'
p323
I6251
sS'ultimora'
p324
I3
sS'rubriche'
p325
I4338
sS'mare'
p326
I1
sS'scuola'
p327
I254
sS'regione'
p328
I388
sS'media'
p329
I262
sS'spettacolo'
p330
I2268
sS'gallerie'
p331
I1312
sS'salute'
p332
I285
sS'persone'
p333
I926
sS'finale'
p334
I2
sS'viaggi'
p335
I147
sS'scienza'
p336
I1704
sS'giochi'
p337
I3
sS'cronaca'
p338
I6810
ssI26
(dp339
S'tecnologia'
p340
I1526
sS'storie'
p341
I142
sS'finale'
p342
I5
sS'regione'
p343
I406
sS'scuola'
p344
I850
sS'scienza'
p345
I1887
sS'persone'
p346
I839
sS'media'
p347
I171
sS'politica'
p348
I1038
sS'giugno'
p349
I393
sS'spettacolo'
p350
I2164
sS'economia'
p351
I5750
sS'gallerie'
p352
I1693
sS'salute'
p353
I409
sS'motori'
p354
I938
sS'esteri'
p355
I5493
sS'viaggi'
p356
I585
sS'cronaca'
p357
I7470
sS'sport'
p358
I6899
sS'rubriche'
p359
I4769
ssI27
(dp360
S'tecnologia'
p361
I1053
sS'storie'
p362
I61
sS'regione'
p363
I112
sS'scuola'
p364
I198
sS'scienza'
p365
I2123
sS'persone'
p366
I702
sS'media'
p367
I190
sS'politica'
p368
I1038
sS'spettacolo'
p369
I1630
sS'economia'
p370
I5552
sS'gallerie'
p371
I1528
sS'salute'
p372
I112
sS'motori'
p373
I626
sS'moda'
p374
I18
sS'esteri'
p375
I3451
sS'viaggi'
p376
I3683
sS'cronaca'
p377
I7641
sS'sport'
p378
I6032
sS'rubriche'
p379
I4424
ssI28
(dp380
sI29
(dp381
sI30
(dp382
sI31
(dp383
sI32
(dp384
sI33
(dp385
sI34
(dp386
sI35
(dp387
sI36
(dp388
sI37
(dp389
sI38
(dp390
sI39
(dp391
sI40
(dp392
sI41
(dp393
sI42
(dp394
S'tecnologia'
p395
I235
sS'ritorno'
p396
I116
sS'regione'
p397
I88
sS'scienza'
p398
I576
sS'persone'
p399
I208
sS'politica'
p400
I226
sS'spettacolo'
p401
I831
sS'economia'
p402
I590
sS'gallerie'
p403
I215
sS'motori'
p404
I118
sS'esteri'
p405
I574
sS'cronaca'
p406
I2013
sS'sport'
p407
I1516
sS'rubriche'
p408
I1050
ssI43
(dp409
sI44
(dp410
S'tecnologia'
p411
I750
sS'storia'
p412
I1
sS'finale'
p413
I1
sS'moda'
p414
I102
sS'scuola'
p415
I3
sS'scienza'
p416
I1089
sS'persone'
p417
I575
sS'novembre'
p418
I1
sS'media'
p419
I287
sS'politica'
p420
I702
sS'spettacolo'
p421
I1555
sS'economia'
p422
I1228
sS'gallerie'
p423
I1383
sS'salute'
p424
I187
sS'motori'
p425
I869
sS'futuro'
p426
I2
sS'esteri'
p427
I1931
sS'viaggi'
p428
I547
sS'cronaca'
p429
I4218
sS'sport'
p430
I7032
sS'rubriche'
p431
I3342
ssI45
(dp432
S'tecnologia'
p433
I1209
sS'moda'
p434
I290
sS'scuola'
p435
I3
sS'scienza'
p436
I2989
sS'persone'
p437
I1210
sS'novembre'
p438
I332
sS'media'
p439
I181
sS'politica'
p440
I1073
sS'atto'
p441
I1
sS'spettacolo'
p442
I2707
sS'economia'
p443
I1896
sS'gallerie'
p444
I1219
sS'salute'
p445
I125
sS'motori'
p446
I3076
sS'social'
p447
I2
sS'esteri'
p448
I2297
sS'viaggi'
p449
I2013
sS'cronaca'
p450
I7742
sS'sport'
p451
I9169
sS'rubriche'
p452
I5014
ssI46
(dp453
S'tecnologia'
p454
I1381
sS'politica'
p455
I709
sS'economia'
p456
I1542
sS'motori'
p457
I985
sS'esteri'
p458
I10998
sS'sport'
p459
I5858
sS'rubriche'
p460
I5593
sS'regina'
p461
I1
sS'scuola'
p462
I176
sS'regione'
p463
I127
sS'media'
p464
I10
sS'spettacolo'
p465
I2643
sS'gallerie'
p466
I1807
sS'salute'
p467
I554
sS'persone'
p468
I960
sS'novembre'
p469
I362
sS'corso'
p470
I184
sS'viaggi'
p471
I1068
sS'titolo'
p472
I4
sS'ragazza'
p473
I1
sS'scienza'
p474
I2481
sS'moda'
p475
I4
sS'cronaca'
p476
I8483
ssI47
(dp477
S'tecnologia'
p478
I1582
sS'ritorno'
p479
I4
sS'regione'
p480
I378
sS'scienza'
p481
I2479
sS'persone'
p482
I1150
sS'novembre'
p483
I165
sS'media'
p484
I326
sS'politica'
p485
I691
sS'spettacolo'
p486
I2906
sS'economia'
p487
I1602
sS'gallerie'
p488
I1274
sS'salute'
p489
I208
sS'motori'
p490
I573
sS'esteri'
p491
I8226
sS'viaggi'
p492
I924
sS'cronaca'
p493
I7279
sS'sport'
p494
I6837
sS'rubriche'
p495
I5055
sS'scuola'
p496
I7
ssI48
(dp497
S'tecnologia'
p498
I1215
sS'regione'
p499
I1
sS'scuola'
p500
I196
sS'scienza'
p501
I1976
sS'persone'
p502
I937
sS'novembre'
p503
I192
sS'media'
p504
I212
sS'politica'
p505
I645
sS'spettacolo'
p506
I2725
sS'economia'
p507
I2206
sS'gallerie'
p508
I1561
sS'salute'
p509
I315
sS'motori'
p510
I450
sS'moda'
p511
I3
sS'esteri'
p512
I4217
sS'viaggi'
p513
I1588
sS'cronaca'
p514
I6426
sS'sport'
p515
I7571
sS'rubriche'
p516
I4428
ssI49
(dp517
S'tecnologia'
p518
I995
sS'politica'
p519
I427
sS'economia'
p520
I1285
sS'banca'
p521
I1
sS'motori'
p522
I212
sS'esteri'
p523
I3849
sS'sport'
p524
I4897
sS'rubriche'
p525
I3452
sS'mare'
p526
I1
sS'scuola'
p527
I210
sS'regione'
p528
I92
sS'media'
p529
I263
sS'spettacolo'
p530
I2152
sS'gallerie'
p531
I1135
sS'carte'
p532
I2
sS'persone'
p533
I671
sS'viaggi'
p534
I1
sS'natale'
p535
I144
sS'ragazza'
p536
I1
sS'scienza'
p537
I1493
sS'servizi'
p538
I3
sS'social'
p539
I99
sS'cronaca'
p540
I4432
ssI50
(dp541
S'tecnologia'
p542
I1227
sS'politica'
p543
I1166
sS'economia'
p544
I2163
sS'banca'
p545
I4
sS'motori'
p546
I73
sS'esteri'
p547
I2822
sS'sport'
p548
I8816
sS'rubriche'
p549
I4645
sS'regione'
p550
I365
sS'media'
p551
I434
sS'spettacolo'
p552
I3439
sS'gallerie'
p553
I1561
sS'salute'
p554
I147
sS'persone'
p555
I1205
sS'viaggi'
p556
I287
sS'intesa'
p557
I1
sS'natale'
p558
I88
sS'scienza'
p559
I2100
sS'moda'
p560
I198
sS'stelle'
p561
I2
sS'social'
p562
I9
sS'cronaca'
p563
I7425
ssI51
(dp564
S'tecnologia'
p565
I986
sS'regione'
p566
I257
sS'scienza'
p567
I1838
sS'persone'
p568
I1490
sS'novembre'
p569
I1
sS'media'
p570
I458
sS'politica'
p571
I1204
sS'mare'
p572
I2
sS'giugno'
p573
I1
sS'spettacolo'
p574
I2467
sS'economia'
p575
I1440
sS'gallerie'
p576
I1269
sS'salute'
p577
I88
sS'motori'
p578
I6
sS'esteri'
p579
I2509
sS'viaggi'
p580
I206
sS'cronaca'
p581
I6848
sS'sport'
p582
I6759
sS'natale'
p583
I542
sS'rubriche'
p584
I4166
sS'scuola'
p585
I4
ssI52
(dp586
S'tecnologia'
p587
I126
sS'storie'
p588
I49
sS'regione'
p589
I5
sS'scuola'
p590
I1
sS'scienza'
p591
I233
sS'persone'
p592
I137
sS'media'
p593
I48
sS'politica'
p594
I137
sS'spettacolo'
p595
I459
sS'economia'
p596
I329
sS'gallerie'
p597
I297
sS'salute'
p598
I22
sS'motori'
p599
I3
sS'moda'
p600
I50
sS'esteri'
p601
I396
sS'viaggi'
p602
I36
sS'cronaca'
p603
I1360
sS'sport'
p604
I619
sS'natale'
p605
I38
sS'rubriche'
p606
I865
ss.