(dp0
S'11'
p1
(lp2
(dp3
S'scienza'
p4
S'86'
p5
sS'persone'
p6
S'102'
p7
sS'media'
p8
S'34'
p9
sS'politica'
p10
S'120'
p11
sS'spettacolo'
p12
S'154'
p13
sS'economia'
p14
S'85'
p15
sS'gallerie'
p16
S'73'
p17
sS'salute'
p18
S'27'
p19
sS'motori'
p20
S'39'
p21
sS'esteri'
p22
S'124'
p23
sS'viaggi'
p24
S'101'
p25
sS'cronaca'
p26
S'274'
p27
sS'sport'
p28
S'567'
p29
sS'rubriche'
p30
S'231'
p31
sa(dp32
S'scienza'
p33
S'101'
p34
sS'persone'
p35
S'186'
p36
sS'media'
p37
S'65'
p38
sS'politica'
p39
S'130'
p40
sS'spettacolo'
p41
S'313'
p42
sS'economia'
p43
S'401'
p44
sS'gallerie'
p45
S'190'
p46
sS'motori'
p47
S'97'
p48
sS'moda'
p49
S'77'
p50
sS'esteri'
p51
S'296'
p52
sS'viaggi'
p53
S'68'
p54
sS'cronaca'
p55
S'695'
p56
sS'sport'
p57
S'1192'
p58
sS'rubriche'
p59
S'439'
p60
sa(dp61
S'tecnologia'
p62
S'118'
p63
sS'aereo'
p64
S'98'
p65
sS'scienza'
p66
S'153'
p67
sS'persone'
p68
S'100'
p69
sS'politica'
p70
S'168'
p71
sS'spettacolo'
p72
S'282'
p73
sS'economia'
p74
S'352'
p75
sS'gallerie'
p76
S'121'
p77
sS'motori'
p78
S'174'
p79
sS'moda'
p80
S'50'
p81
sS'esteri'
p82
S'285'
p83
sS'cronaca'
p84
S'595'
p85
sS'sport'
p86
S'824'
p87
sS'rubriche'
p88
S'375'
p89
sa(dp90
S'canali'
p91
S'58'
p92
sS'tecnologia'
p93
S'90'
p94
sS'scienza'
p95
S'121'
p96
sS'persone'
p97
S'160'
p98
sS'politica'
p99
S'98'
p100
sS'spettacolo'
p101
S'232'
p102
sS'economia'
p103
S'266'
p104
sS'gallerie'
p105
S'59'
p106
sS'salute'
p107
S'90'
p108
sS'motori'
p109
S'98'
p110
sS'esteri'
p111
S'533'
p112
sS'cronaca'
p113
S'621'
p114
sS'sport'
p115
S'899'
p116
sS'rubriche'
p117
S'360'
p118
sa(dp119
S'tecnologia'
p120
S'73'
p121
sS'regione'
p122
S'60'
p123
sS'scienza'
p124
S'138'
p125
sS'persone'
p126
S'161'
p127
sS'media'
p128
S'49'
p129
sS'politica'
p130
S'125'
p131
sS'spettacolo'
p132
S'287'
p133
sS'economia'
p134
S'233'
p135
sS'gallerie'
p136
S'82'
p137
sS'motori'
p138
S'275'
p139
sS'esteri'
p140
S'234'
p141
sS'cronaca'
p142
S'546'
p143
sS'sport'
p144
S'690'
p145
sS'rubriche'
p146
S'408'
p147
sa(dp148
S'tecnologia'
p149
S'109'
p150
sS'scienza'
p151
S'192'
p152
sS'persone'
p153
S'125'
p154
sS'novembre'
p155
S'41'
p156
sS'politica'
p157
S'114'
p158
sS'spettacolo'
p159
S'316'
p160
sS'economia'
p161
S'275'
p162
sS'gallerie'
p163
S'106'
p164
sS'salute'
p165
S'53'
p166
sS'motori'
p167
S'139'
p168
sS'esteri'
p169
S'348'
p170
sS'cronaca'
p171
S'632'
p172
sS'sport'
p173
S'548'
p174
sS'rubriche'
p175
S'500'
p176
sa(dp177
S'tecnologia'
p178
S'80'
p179
sS'scienza'
p180
S'95'
p181
sS'persone'
p182
S'85'
p183
sS'politica'
p184
S'45'
p185
sS'spettacolo'
p186
S'171'
p187
sS'economia'
p188
S'85'
p189
sS'gallerie'
p190
S'36'
p191
sS'motori'
p192
S'139'
p193
sS'moda'
p194
S'47'
p195
sS'esteri'
p196
S'107'
p197
sS'cronaca'
p198
S'308'
p199
sS'sport'
p200
S'446'
p201
sS'rossi'
p202
S'27'
p203
sS'rubriche'
p204
S'252'
p205
sa(dp206
S'tecnologia'
p207
S'59'
p208
sS'scienza'
p209
S'77'
p210
sS'persone'
p211
S'51'
p212
sS'media'
p213
S'44'
p214
sS'politica'
p215
S'74'
p216
sS'spettacolo'
p217
S'119'
p218
sS'economia'
p219
S'75'
p220
sS'gallerie'
p221
S'47'
p222
sS'motori'
p223
S'317'
p224
sS'esteri'
p225
S'81'
p226
sS'cronaca'
p227
S'415'
p228
sS'sport'
p229
S'571'
p230
sS'rossi'
p231
S'70'
p232
sS'rubriche'
p233
S'206'
p234
sa(dp235
S'tecnologia'
p236
S'72'
p237
sS'scienza'
p238
S'173'
p239
sS'persone'
p240
S'130'
p241
sS'politica'
p242
S'150'
p243
sS'spettacolo'
p244
S'315'
p245
sS'economia'
p246
S'258'
p247
sS'gallerie'
p248
S'141'
p249
sS'motori'
p250
S'289'
p251
sS'esteri'
p252
S'195'
p253
sS'viaggi'
p254
S'75'
p255
sS'cronaca'
p256
S'778'
p257
sS'sport'
p258
S'970'
p259
sS'rossi'
p260
S'72'
p261
sS'rubriche'
p262
S'419'
p263
sa(dp264
S'tecnologia'
p265
S'92'
p266
sS'scienza'
p267
S'211'
p268
sS'persone'
p269
S'153'
p270
sS'politica'
p271
S'95'
p272
sS'spettacolo'
p273
S'256'
p274
sS'economia'
p275
S'276'
p276
sS'gallerie'
p277
S'113'
p278
sS'motori'
p279
S'164'
p280
sS'moda'
p281
S'81'
p282
sS'esteri'
p283
S'163'
p284
sS'viaggi'
p285
S'763'
p286
sS'cronaca'
p287
S'818'
p288
sS'sport'
p289
S'627'
p290
sS'rubriche'
p291
S'299'
p292
sa(dp293
S'tecnologia'
p294
S'91'
p295
sS'scienza'
p296
S'233'
p297
sS'persone'
p298
S'150'
p299
sS'politica'
p300
S'92'
p301
sS'spettacolo'
p302
S'254'
p303
sS'economia'
p304
S'319'
p305
sS'gallerie'
p306
S'70'
p307
sS'motori'
p308
S'240'
p309
sS'moda'
p310
S'109'
p311
sS'esteri'
p312
S'211'
p313
sS'viaggi'
p314
S'325'
p315
sS'cronaca'
p316
S'871'
p317
sS'sport'
p318
S'636'
p319
sS'rubriche'
p320
S'314'
p321
sa(dp322
S'tecnologia'
p323
S'78'
p324
sS'scienza'
p325
S'209'
p326
sS'persone'
p327
S'105'
p328
sS'novembre'
p329
S'76'
p330
sS'politica'
p331
S'75'
p332
sS'spettacolo'
p333
S'220'
p334
sS'economia'
p335
S'246'
p336
sS'gallerie'
p337
S'126'
p338
sS'salute'
p339
S'81'
p340
sS'motori'
p341
S'105'
p342
sS'esteri'
p343
S'204'
p344
sS'cronaca'
p345
S'739'
p346
sS'sport'
p347
S'417'
p348
sS'rubriche'
p349
S'314'
p350
sa(dp351
S'tecnologia'
p352
S'85'
p353
sS'scienza'
p354
S'175'
p355
sS'persone'
p356
S'137'
p357
sS'politica'
p358
S'63'
p359
sS'spettacolo'
p360
S'334'
p361
sS'economia'
p362
S'213'
p363
sS'gallerie'
p364
S'55'
p365
sS'motori'
p366
S'99'
p367
sS'moda'
p368
S'60'
p369
sS'esteri'
p370
S'369'
p371
sS'viaggi'
p372
S'80'
p373
sS'cronaca'
p374
S'700'
p375
sS'sport'
p376
S'529'
p377
sS'rubriche'
p378
S'352'
p379
sa(dp380
S'tecnologia'
p381
S'55'
p382
sS'scienza'
p383
S'52'
p384
sS'persone'
p385
S'110'
p386
sS'politica'
p387
S'78'
p388
sS'spettacolo'
p389
S'260'
p390
sS'economia'
p391
S'125'
p392
sS'gallerie'
p393
S'83'
p394
sS'attentati'
p395
S'302'
p396
sS'moda'
p397
S'87'
p398
sS'esteri'
p399
S'1615'
p400
sS'viaggi'
p401
S'88'
p402
sS'cronaca'
p403
S'524'
p404
sS'sport'
p405
S'186'
p406
sS'rubriche'
p407
S'251'
p408
sa(dp409
S'tecnologia'
p410
S'72'
p411
sS'storia'
p412
S'29'
p413
sS'scienza'
p414
S'100'
p415
sS'persone'
p416
S'87'
p417
sS'media'
p418
S'37'
p419
sS'politica'
p420
S'95'
p421
sS'spettacolo'
p422
S'227'
p423
sS'economia'
p424
S'68'
p425
sS'gallerie'
p426
S'73'
p427
sS'attentati'
p428
S'280'
p429
sS'esteri'
p430
S'1178'
p431
sS'cronaca'
p432
S'380'
p433
sS'sport'
p434
S'203'
p435
sS'rubriche'
p436
S'288'
p437
sa(dp438
S'tecnologia'
p439
S'127'
p440
sS'scienza'
p441
S'120'
p442
sS'persone'
p443
S'179'
p444
sS'politica'
p445
S'137'
p446
sS'spettacolo'
p447
S'371'
p448
sS'economia'
p449
S'327'
p450
sS'gallerie'
p451
S'112'
p452
sS'attentati'
p453
S'527'
p454
sS'motori'
p455
S'58'
p456
sS'esteri'
p457
S'1814'
p458
sS'viaggi'
p459
S'147'
p460
sS'cronaca'
p461
S'968'
p462
sS'sport'
p463
S'318'
p464
sS'rubriche'
p465
S'581'
p466
sa(dp467
S'tecnologia'
p468
S'105'
p469
sS'scienza'
p470
S'225'
p471
sS'persone'
p472
S'170'
p473
sS'politica'
p474
S'108'
p475
sS'spettacolo'
p476
S'322'
p477
sS'economia'
p478
S'245'
p479
sS'gallerie'
p480
S'71'
p481
sS'salute'
p482
S'219'
p483
sS'motori'
p484
S'103'
p485
sS'esteri'
p486
S'1278'
p487
sS'cronaca'
p488
S'735'
p489
sS'sport'
p490
S'492'
p491
sS'rubriche'
p492
S'431'
p493
sS'attentati'
p494
S'204'
p495
sa(dp496
S'tecnologia'
p497
S'63'
p498
sS'scienza'
p499
S'136'
p500
sS'persone'
p501
S'105'
p502
sS'novembre'
p503
S'39'
p504
sS'politica'
p505
S'78'
p506
sS'spettacolo'
p507
S'275'
p508
sS'economia'
p509
S'238'
p510
sS'gallerie'
p511
S'86'
p512
sS'attentati'
p513
S'283'
p514
sS'motori'
p515
S'166'
p516
sS'esteri'
p517
S'1580'
p518
sS'cronaca'
p519
S'863'
p520
sS'sport'
p521
S'558'
p522
sS'rubriche'
p523
S'539'
p524
sa(dp525
S'tecnologia'
p526
S'82'
p527
sS'scienza'
p528
S'177'
p529
sS'persone'
p530
S'142'
p531
sS'novembre'
p532
S'77'
p533
sS'politica'
p534
S'100'
p535
sS'spettacolo'
p536
S'231'
p537
sS'economia'
p538
S'169'
p539
sS'gallerie'
p540
S'136'
p541
sS'attentati'
p542
S'167'
p543
sS'motori'
p544
S'110'
p545
sS'esteri'
p546
S'1105'
p547
sS'cronaca'
p548
S'900'
p549
sS'sport'
p550
S'469'
p551
sS'rubriche'
p552
S'314'
p553
sa(dp554
S'tecnologia'
p555
S'205'
p556
sS'scienza'
p557
S'188'
p558
sS'persone'
p559
S'230'
p560
sS'politica'
p561
S'99'
p562
sS'spettacolo'
p563
S'312'
p564
sS'economia'
p565
S'275'
p566
sS'gallerie'
p567
S'79'
p568
sS'attentati'
p569
S'78'
p570
sS'motori'
p571
S'76'
p572
sS'esteri'
p573
S'1084'
p574
sS'cronaca'
p575
S'740'
p576
sS'sport'
p577
S'329'
p578
sS'rubriche'
p579
S'408'
p580
sS'salute'
p581
S'53'
p582
sa(dp583
S'tecnologia'
p584
S'137'
p585
sS'scienza'
p586
S'105'
p587
sS'persone'
p588
S'126'
p589
sS'novembre'
p590
S'27'
p591
sS'politica'
p592
S'61'
p593
sS'spettacolo'
p594
S'268'
p595
sS'economia'
p596
S'77'
p597
sS'gallerie'
p598
S'71'
p599
sS'attentati'
p600
S'73'
p601
sS'motori'
p602
S'39'
p603
sS'esteri'
p604
S'595'
p605
sS'cronaca'
p606
S'332'
p607
sS'sport'
p608
S'422'
p609
sS'rubriche'
p610
S'173'
p611
sa(dp612
S'tecnologia'
p613
S'77'
p614
sS'scienza'
p615
S'59'
p616
sS'persone'
p617
S'78'
p618
sS'media'
p619
S'65'
p620
sS'politica'
p621
S'86'
p622
sS'spettacolo'
p623
S'190'
p624
sS'economia'
p625
S'110'
p626
sS'gallerie'
p627
S'37'
p628
sS'attentati'
p629
S'35'
p630
sS'motori'
p631
S'31'
p632
sS'esteri'
p633
S'438'
p634
sS'cronaca'
p635
S'423'
p636
sS'sport'
p637
S'510'
p638
sS'rubriche'
p639
S'212'
p640
sa(dp641
S'tecnologia'
p642
S'101'
p643
sS'scienza'
p644
S'127'
p645
sS'persone'
p646
S'110'
p647
sS'politica'
p648
S'56'
p649
sS'spettacolo'
p650
S'426'
p651
sS'economia'
p652
S'239'
p653
sS'gallerie'
p654
S'192'
p655
sS'salute'
p656
S'73'
p657
sS'esteri'
p658
S'657'
p659
sS'viaggi'
p660
S'139'
p661
sS'cronaca'
p662
S'652'
p663
sS'sport'
p664
S'731'
p665
sS'rubriche'
p666
S'517'
p667
sS'attentati'
p668
S'56'
p669
sa(dp670
S'tecnologia'
p671
S'125'
p672
sS'aereo'
p673
S'168'
p674
sS'scienza'
p675
S'259'
p676
sS'persone'
p677
S'99'
p678
sS'media'
p679
S'65'
p680
sS'politica'
p681
S'74'
p682
sS'spettacolo'
p683
S'380'
p684
sS'economia'
p685
S'317'
p686
sS'gallerie'
p687
S'107'
p688
sS'esteri'
p689
S'1017'
p690
sS'viaggi'
p691
S'115'
p692
sS'cronaca'
p693
S'560'
p694
sS'sport'
p695
S'492'
p696
sS'rubriche'
p697
S'440'
p698
sa(dp699
S'tecnologia'
p700
S'59'
p701
sS'regione'
p702
S'81'
p703
sS'scienza'
p704
S'162'
p705
sS'persone'
p706
S'142'
p707
sS'media'
p708
S'55'
p709
sS'politica'
p710
S'101'
p711
sS'prodotto'
p712
S'43'
p713
sS'spettacolo'
p714
S'239'
p715
sS'economia'
p716
S'355'
p717
sS'gallerie'
p718
S'101'
p719
sS'esteri'
p720
S'439'
p721
sS'cronaca'
p722
S'627'
p723
sS'sport'
p724
S'820'
p725
sS'rubriche'
p726
S'386'
p727
sa(dp728
S'tecnologia'
p729
S'140'
p730
sS'scienza'
p731
S'204'
p732
sS'persone'
p733
S'172'
p734
sS'novembre'
p735
S'81'
p736
sS'politica'
p737
S'96'
p738
sS'spettacolo'
p739
S'205'
p740
sS'economia'
p741
S'314'
p742
sS'gallerie'
p743
S'121'
p744
sS'motori'
p745
S'109'
p746
sS'esteri'
p747
S'633'
p748
sS'viaggi'
p749
S'59'
p750
sS'cronaca'
p751
S'605'
p752
sS'sport'
p753
S'721'
p754
sS'rubriche'
p755
S'341'
p756
sa(dp757
S'tecnologia'
p758
S'111'
p759
sS'scuola'
p760
S'44'
p761
sS'scienza'
p762
S'116'
p763
sS'persone'
p764
S'110'
p765
sS'politica'
p766
S'90'
p767
sS'spettacolo'
p768
S'289'
p769
sS'economia'
p770
S'204'
p771
sS'gallerie'
p772
S'113'
p773
sS'salute'
p774
S'82'
p775
sS'motori'
p776
S'135'
p777
sS'esteri'
p778
S'326'
p779
sS'cronaca'
p780
S'624'
p781
sS'sport'
p782
S'518'
p783
sS'rubriche'
p784
S'308'
p785
sa(dp786
S'tecnologia'
p787
S'47'
p788
sS'scuola'
p789
S'36'
p790
sS'scienza'
p791
S'60'
p792
sS'persone'
p793
S'109'
p794
sS'politica'
p795
S'67'
p796
sS'spettacolo'
p797
S'236'
p798
sS'economia'
p799
S'143'
p800
sS'gallerie'
p801
S'33'
p802
sS'salute'
p803
S'63'
p804
sS'motori'
p805
S'56'
p806
sS'esteri'
p807
S'270'
p808
sS'cronaca'
p809
S'456'
p810
sS'sport'
p811
S'472'
p812
sS'rubriche'
p813
S'195'
p814
sa(dp815
S'tecnologia'
p816
S'57'
p817
sS'politica'
p818
S'44'
p819
sS'scuola'
p820
S'37'
p821
sS'scienza'
p822
S'72'
p823
sS'economia'
p824
S'67'
p825
sS'persone'
p826
S'67'
p827
sS'spettacolo'
p828
S'203'
p829
sS'moda'
p830
S'75'
p831
sS'gallerie'
p832
S'58'
p833
sS'salute'
p834
S'46'
p835
sS'esteri'
p836
S'257'
p837
sS'cronaca'
p838
S'346'
p839
sS'sport'
p840
S'398'
p841
sS'rubriche'
p842
S'221'
p843
sa(dp844
S'tecnologia'
p845
S'85'
p846
sS'scienza'
p847
S'169'
p848
sS'persone'
p849
S'132'
p850
sS'politica'
p851
S'99'
p852
sS'spettacolo'
p853
S'466'
p854
sS'economia'
p855
S'255'
p856
sS'gallerie'
p857
S'97'
p858
sS'salute'
p859
S'47'
p860
sS'motori'
p861
S'102'
p862
sS'moda'
p863
S'46'
p864
sS'esteri'
p865
S'332'
p866
sS'cronaca'
p867
S'760'
p868
sS'sport'
p869
S'742'
p870
sS'rubriche'
p871
S'438'
p872
sasS'10'
p873
(lp874
(dp875
S'tecnologia'
p876
S'54'
p877
sS'scienza'
p878
S'87'
p879
sS'persone'
p880
S'46'
p881
sS'politica'
p882
S'57'
p883
sS'spettacolo'
p884
S'142'
p885
sS'economia'
p886
S'183'
p887
sS'gallerie'
p888
S'68'
p889
sS'salute'
p890
S'41'
p891
sS'motori'
p892
S'44'
p893
sS'esteri'
p894
S'94'
p895
sS'viaggi'
p896
S'120'
p897
sS'cronaca'
p898
S'217'
p899
sS'sport'
p900
S'479'
p901
sS'rubriche'
p902
S'183'
p903
sa(dp904
S'tecnologia'
p905
S'84'
p906
sS'regione'
p907
S'21'
p908
sS'scienza'
p909
S'77'
p910
sS'persone'
p911
S'68'
p912
sS'politica'
p913
S'51'
p914
sS'spettacolo'
p915
S'154'
p916
sS'economia'
p917
S'128'
p918
sS'gallerie'
p919
S'34'
p920
sS'motori'
p921
S'23'
p922
sS'esteri'
p923
S'113'
p924
sS'viaggi'
p925
S'120'
p926
sS'cronaca'
p927
S'252'
p928
sS'sport'
p929
S'289'
p930
sS'rubriche'
p931
S'180'
p932
sa(dp933
S'tecnologia'
p934
S'19'
p935
sS'scienza'
p936
S'46'
p937
sS'persone'
p938
S'23'
p939
sS'ottobre'
p940
S'8'
p941
sS'media'
p942
S'6'
p943
sS'politica'
p944
S'35'
p945
sS'spettacolo'
p946
S'104'
p947
sS'economia'
p948
S'44'
p949
sS'gallerie'
p950
S'28'
p951
sS'motori'
p952
S'10'
p953
sS'esteri'
p954
S'106'
p955
sS'cronaca'
p956
S'164'
p957
sS'sport'
p958
S'198'
p959
sS'rubriche'
p960
S'97'
p961
sa(dp962
S'tecnologia'
p963
S'19'
p964
sS'scienza'
p965
S'28'
p966
sS'persone'
p967
S'52'
p968
sS'ottobre'
p969
S'15'
p970
sS'politica'
p971
S'30'
p972
sS'spettacolo'
p973
S'97'
p974
sS'economia'
p975
S'55'
p976
sS'gallerie'
p977
S'76'
p978
sS'motori'
p979
S'18'
p980
sS'social'
p981
S'26'
p982
sS'esteri'
p983
S'145'
p984
sS'cronaca'
p985
S'261'
p986
sS'sport'
p987
S'197'
p988
sS'rubriche'
p989
S'126'
p990
sa(dp991
S'tecnologia'
p992
S'34'
p993
sS'scienza'
p994
S'96'
p995
sS'persone'
p996
S'47'
p997
sS'media'
p998
S'27'
p999
sS'politica'
p1000
S'45'
p1001
sS'norme'
p1002
S'22'
p1003
sS'spettacolo'
p1004
S'168'
p1005
sS'economia'
p1006
S'179'
p1007
sS'gallerie'
p1008
S'71'
p1009
sS'motori'
p1010
S'37'
p1011
sS'esteri'
p1012
S'137'
p1013
sS'cronaca'
p1014
S'340'
p1015
sS'sport'
p1016
S'404'
p1017
sS'rubriche'
p1018
S'146'
p1019
sa(dp1020
S'tecnologia'
p1021
S'44'
p1022
sS'scienza'
p1023
S'125'
p1024
sS'persone'
p1025
S'62'
p1026
sS'politica'
p1027
S'52'
p1028
sS'spettacolo'
p1029
S'100'
p1030
sS'economia'
p1031
S'151'
p1032
sS'gallerie'
p1033
S'38'
p1034
sS'salute'
p1035
S'26'
p1036
sS'motori'
p1037
S'21'
p1038
sS'esteri'
p1039
S'125'
p1040
sS'viaggi'
p1041
S'71'
p1042
sS'cronaca'
p1043
S'320'
p1044
sS'sport'
p1045
S'275'
p1046
sS'rubriche'
p1047
S'219'
p1048
sa(dp1049
S'tecnologia'
p1050
S'51'
p1051
sS'scienza'
p1052
S'65'
p1053
sS'persone'
p1054
S'58'
p1055
sS'politica'
p1056
S'56'
p1057
sS'spettacolo'
p1058
S'121'
p1059
sS'economia'
p1060
S'101'
p1061
sS'gallerie'
p1062
S'70'
p1063
sS'salute'
p1064
S'22'
p1065
sS'motori'
p1066
S'50'
p1067
sS'esteri'
p1068
S'124'
p1069
sS'viaggi'
p1070
S'52'
p1071
sS'cronaca'
p1072
S'411'
p1073
sS'sport'
p1074
S'254'
p1075
sS'rubriche'
p1076
S'168'
p1077
sa(dp1078
S'tecnologia'
p1079
S'31'
p1080
sS'scienza'
p1081
S'80'
p1082
sS'persone'
p1083
S'80'
p1084
sS'ottobre'
p1085
S'29'
p1086
sS'politica'
p1087
S'142'
p1088
sS'spettacolo'
p1089
S'140'
p1090
sS'economia'
p1091
S'174'
p1092
sS'gallerie'
p1093
S'30'
p1094
sS'salute'
p1095
S'86'
p1096
sS'motori'
p1097
S'67'
p1098
sS'esteri'
p1099
S'110'
p1100
sS'cronaca'
p1101
S'333'
p1102
sS'sport'
p1103
S'220'
p1104
sS'rubriche'
p1105
S'174'
p1106
sa(dp1107
S'tecnologia'
p1108
S'56'
p1109
sS'regione'
p1110
S'23'
p1111
sS'scienza'
p1112
S'59'
p1113
sS'persone'
p1114
S'66'
p1115
sS'politica'
p1116
S'88'
p1117
sS'spettacolo'
p1118
S'121'
p1119
sS'economia'
p1120
S'124'
p1121
sS'gallerie'
p1122
S'34'
p1123
sS'motori'
p1124
S'59'
p1125
sS'moda'
p1126
S'36'
p1127
sS'esteri'
p1128
S'140'
p1129
sS'cronaca'
p1130
S'304'
p1131
sS'sport'
p1132
S'193'
p1133
sS'rubriche'
p1134
S'221'
p1135
sa(dp1136
S'tecnologia'
p1137
S'32'
p1138
sS'scuola'
p1139
S'19'
p1140
sS'scienza'
p1141
S'43'
p1142
sS'persone'
p1143
S'52'
p1144
sS'politica'
p1145
S'38'
p1146
sS'spettacolo'
p1147
S'59'
p1148
sS'economia'
p1149
S'112'
p1150
sS'gallerie'
p1151
S'26'
p1152
sS'motori'
p1153
S'27'
p1154
sS'moda'
p1155
S'14'
p1156
sS'esteri'
p1157
S'82'
p1158
sS'cronaca'
p1159
S'116'
p1160
sS'sport'
p1161
S'152'
p1162
sS'rubriche'
p1163
S'94'
p1164
sa(dp1165
S'tecnologia'
p1166
S'21'
p1167
sS'scienza'
p1168
S'19'
p1169
sS'persone'
p1170
S'36'
p1171
sS'media'
p1172
S'14'
p1173
sS'politica'
p1174
S'34'
p1175
sS'spettacolo'
p1176
S'74'
p1177
sS'economia'
p1178
S'48'
p1179
sS'gallerie'
p1180
S'47'
p1181
sS'salute'
p1182
S'15'
p1183
sS'motori'
p1184
S'35'
p1185
sS'esteri'
p1186
S'65'
p1187
sS'cronaca'
p1188
S'139'
p1189
sS'sport'
p1190
S'174'
p1191
sS'rubriche'
p1192
S'68'
p1193
sa(dp1194
S'tecnologia'
p1195
S'35'
p1196
sS'regione'
p1197
S'17'
p1198
sS'scienza'
p1199
S'73'
p1200
sS'persone'
p1201
S'64'
p1202
sS'politica'
p1203
S'42'
p1204
sS'spettacolo'
p1205
S'165'
p1206
sS'economia'
p1207
S'165'
p1208
sS'gallerie'
p1209
S'43'
p1210
sS'salute'
p1211
S'31'
p1212
sS'motori'
p1213
S'125'
p1214
sS'esteri'
p1215
S'179'
p1216
sS'cronaca'
p1217
S'339'
p1218
sS'sport'
p1219
S'370'
p1220
sS'rubriche'
p1221
S'201'
p1222
sa(dp1223
S'tecnologia'
p1224
S'55'
p1225
sS'scienza'
p1226
S'76'
p1227
sS'persone'
p1228
S'73'
p1229
sS'politica'
p1230
S'78'
p1231
sS'norme'
p1232
S'20'
p1233
sS'spettacolo'
p1234
S'155'
p1235
sS'economia'
p1236
S'133'
p1237
sS'gallerie'
p1238
S'54'
p1239
sS'salute'
p1240
S'21'
p1241
sS'motori'
p1242
S'58'
p1243
sS'esteri'
p1244
S'205'
p1245
sS'cronaca'
p1246
S'332'
p1247
sS'sport'
p1248
S'327'
p1249
sS'rubriche'
p1250
S'168'
p1251
sa(dp1252
S'tecnologia'
p1253
S'54'
p1254
sS'scienza'
p1255
S'119'
p1256
sS'persone'
p1257
S'43'
p1258
sS'politica'
p1259
S'107'
p1260
sS'spettacolo'
p1261
S'117'
p1262
sS'economia'
p1263
S'140'
p1264
sS'gallerie'
p1265
S'49'
p1266
sS'motori'
p1267
S'23'
p1268
sS'riforma'
p1269
S'12'
p1270
sS'esteri'
p1271
S'117'
p1272
sS'viaggi'
p1273
S'32'
p1274
sS'cronaca'
p1275
S'335'
p1276
sS'sport'
p1277
S'353'
p1278
sS'rubriche'
p1279
S'175'
p1280
sa(dp1281
S'legge'
p1282
S'49'
p1283
sS'scienza'
p1284
S'80'
p1285
sS'persone'
p1286
S'66'
p1287
sS'politica'
p1288
S'40'
p1289
sS'spettacolo'
p1290
S'123'
p1291
sS'economia'
p1292
S'173'
p1293
sS'gallerie'
p1294
S'45'
p1295
sS'motori'
p1296
S'40'
p1297
sS'social'
p1298
S'55'
p1299
sS'esteri'
p1300
S'88'
p1301
sS'cronaca'
p1302
S'385'
p1303
sS'sport'
p1304
S'267'
p1305
sS'tecnologia'
p1306
S'48'
p1307
sS'rubriche'
p1308
S'181'
p1309
sa(dp1310
S'legge'
p1311
S'28'
p1312
sS'scienza'
p1313
S'83'
p1314
sS'persone'
p1315
S'60'
p1316
sS'politica'
p1317
S'66'
p1318
sS'spettacolo'
p1319
S'114'
p1320
sS'economia'
p1321
S'131'
p1322
sS'gallerie'
p1323
S'47'
p1324
sS'motori'
p1325
S'23'
p1326
sS'social'
p1327
S'35'
p1328
sS'esteri'
p1329
S'99'
p1330
sS'cronaca'
p1331
S'358'
p1332
sS'sport'
p1333
S'283'
p1334
sS'tecnologia'
p1335
S'27'
p1336
sS'rubriche'
p1337
S'176'
p1338
sa(dp1339
S'tecnologia'
p1340
S'26'
p1341
sS'persone'
p1342
S'24'
p1343
sS'scienza'
p1344
S'30'
p1345
sS'prodotto'
p1346
S'25'
p1347
sS'politica'
p1348
S'48'
p1349
sS'spettacolo'
p1350
S'79'
p1351
sS'economia'
p1352
S'51'
p1353
sS'gallerie'
p1354
S'28'
p1355
sS'motori'
p1356
S'38'
p1357
sS'social'
p1358
S'19'
p1359
sS'esteri'
p1360
S'38'
p1361
sS'cronaca'
p1362
S'188'
p1363
sS'sport'
p1364
S'172'
p1365
sS'rubriche'
p1366
S'112'
p1367
sa(dp1368
S'tecnologia'
p1369
S'19'
p1370
sS'scienza'
p1371
S'19'
p1372
sS'persone'
p1373
S'58'
p1374
sS'media'
p1375
S'32'
p1376
sS'politica'
p1377
S'28'
p1378
sS'prodotto'
p1379
S'12'
p1380
sS'spettacolo'
p1381
S'58'
p1382
sS'economia'
p1383
S'66'
p1384
sS'salute'
p1385
S'11'
p1386
sS'motori'
p1387
S'65'
p1388
sS'esteri'
p1389
S'39'
p1390
sS'cronaca'
p1391
S'181'
p1392
sS'sport'
p1393
S'291'
p1394
sS'rubriche'
p1395
S'100'
p1396
sa(dp1397
S'tecnologia'
p1398
S'60'
p1399
sS'politica'
p1400
S'56'
p1401
sS'scienza'
p1402
S'70'
p1403
sS'moda'
p1404
S'89'
p1405
sS'media'
p1406
S'17'
p1407
sS'persone'
p1408
S'70'
p1409
sS'spettacolo'
p1410
S'150'
p1411
sS'economia'
p1412
S'170'
p1413
sS'gallerie'
p1414
S'25'
p1415
sS'motori'
p1416
S'35'
p1417
sS'esteri'
p1418
S'96'
p1419
sS'cronaca'
p1420
S'373'
p1421
sS'sport'
p1422
S'383'
p1423
sS'rubriche'
p1424
S'168'
p1425
sa(dp1426
S'tecnologia'
p1427
S'30'
p1428
sS'scienza'
p1429
S'72'
p1430
sS'persone'
p1431
S'56'
p1432
sS'ottobre'
p1433
S'17'
p1434
sS'politica'
p1435
S'63'
p1436
sS'spettacolo'
p1437
S'170'
p1438
sS'economia'
p1439
S'204'
p1440
sS'gallerie'
p1441
S'21'
p1442
sS'salute'
p1443
S'21'
p1444
sS'motori'
p1445
S'34'
p1446
sS'esteri'
p1447
S'86'
p1448
sS'cronaca'
p1449
S'349'
p1450
sS'sport'
p1451
S'264'
p1452
sS'rubriche'
p1453
S'126'
p1454
sa(dp1455
S'tecnologia'
p1456
S'43'
p1457
sS'scienza'
p1458
S'89'
p1459
sS'persone'
p1460
S'63'
p1461
sS'politica'
p1462
S'49'
p1463
sS'spettacolo'
p1464
S'151'
p1465
sS'economia'
p1466
S'168'
p1467
sS'gallerie'
p1468
S'46'
p1469
sS'motori'
p1470
S'34'
p1471
sS'moda'
p1472
S'37'
p1473
sS'esteri'
p1474
S'145'
p1475
sS'viaggi'
p1476
S'31'
p1477
sS'cronaca'
p1478
S'443'
p1479
sS'sport'
p1480
S'315'
p1481
sS'rubriche'
p1482
S'228'
p1483
sa(dp1484
S'tecnologia'
p1485
S'92'
p1486
sS'scienza'
p1487
S'70'
p1488
sS'persone'
p1489
S'56'
p1490
sS'ottobre'
p1491
S'22'
p1492
sS'politica'
p1493
S'79'
p1494
sS'spettacolo'
p1495
S'126'
p1496
sS'economia'
p1497
S'181'
p1498
sS'gallerie'
p1499
S'54'
p1500
sS'salute'
p1501
S'24'
p1502
sS'motori'
p1503
S'31'
p1504
sS'esteri'
p1505
S'100'
p1506
sS'cronaca'
p1507
S'589'
p1508
sS'sport'
p1509
S'343'
p1510
sS'rubriche'
p1511
S'194'
p1512
sa(dp1513
S'tecnologia'
p1514
S'61'
p1515
sS'scienza'
p1516
S'69'
p1517
sS'persone'
p1518
S'57'
p1519
sS'politica'
p1520
S'46'
p1521
sS'spettacolo'
p1522
S'151'
p1523
sS'economia'
p1524
S'141'
p1525
sS'gallerie'
p1526
S'55'
p1527
sS'motori'
p1528
S'46'
p1529
sS'moda'
p1530
S'51'
p1531
sS'esteri'
p1532
S'162'
p1533
sS'viaggi'
p1534
S'32'
p1535
sS'cronaca'
p1536
S'335'
p1537
sS'sport'
p1538
S'291'
p1539
sS'rubriche'
p1540
S'137'
p1541
sa(dp1542
S'tecnologia'
p1543
S'21'
p1544
sS'scienza'
p1545
S'80'
p1546
sS'persone'
p1547
S'59'
p1548
sS'politica'
p1549
S'19'
p1550
sS'spettacolo'
p1551
S'73'
p1552
sS'economia'
p1553
S'44'
p1554
sS'gallerie'
p1555
S'58'
p1556
sS'salute'
p1557
S'10'
p1558
sS'motori'
p1559
S'48'
p1560
sS'esteri'
p1561
S'61'
p1562
sS'viaggi'
p1563
S'20'
p1564
sS'cronaca'
p1565
S'175'
p1566
sS'sport'
p1567
S'197'
p1568
sS'rubriche'
p1569
S'71'
p1570
sa(dp1571
S'tecnologia'
p1572
S'41'
p1573
sS'scienza'
p1574
S'29'
p1575
sS'persone'
p1576
S'53'
p1577
sS'media'
p1578
S'21'
p1579
sS'politica'
p1580
S'57'
p1581
sS'spettacolo'
p1582
S'85'
p1583
sS'economia'
p1584
S'44'
p1585
sS'gallerie'
p1586
S'37'
p1587
sS'motori'
p1588
S'143'
p1589
sS'esteri'
p1590
S'45'
p1591
sS'cronaca'
p1592
S'220'
p1593
sS'sport'
p1594
S'368'
p1595
sS'rossi'
p1596
S'66'
p1597
sS'rubriche'
p1598
S'115'
p1599
sa(dp1600
S'tecnologia'
p1601
S'55'
p1602
sS'scienza'
p1603
S'86'
p1604
sS'persone'
p1605
S'74'
p1606
sS'politica'
p1607
S'49'
p1608
sS'spettacolo'
p1609
S'125'
p1610
sS'economia'
p1611
S'128'
p1612
sS'gallerie'
p1613
S'73'
p1614
sS'salute'
p1615
S'76'
p1616
sS'motori'
p1617
S'220'
p1618
sS'esteri'
p1619
S'92'
p1620
sS'cronaca'
p1621
S'293'
p1622
sS'sport'
p1623
S'706'
p1624
sS'rossi'
p1625
S'83'
p1626
sS'rubriche'
p1627
S'234'
p1628
sa(dp1629
S'tecnologia'
p1630
S'74'
p1631
sS'scienza'
p1632
S'98'
p1633
sS'politica'
p1634
S'70'
p1635
sS'spettacolo'
p1636
S'124'
p1637
sS'economia'
p1638
S'211'
p1639
sS'gallerie'
p1640
S'78'
p1641
sS'salute'
p1642
S'109'
p1643
sS'motori'
p1644
S'148'
p1645
sS'esteri'
p1646
S'107'
p1647
sS'viaggi'
p1648
S'237'
p1649
sS'cronaca'
p1650
S'298'
p1651
sS'sport'
p1652
S'570'
p1653
sS'rossi'
p1654
S'45'
p1655
sS'rubriche'
p1656
S'177'
p1657
sa(dp1658
S'regione'
p1659
S'43'
p1660
sS'scienza'
p1661
S'83'
p1662
sS'persone'
p1663
S'71'
p1664
sS'politica'
p1665
S'80'
p1666
sS'spettacolo'
p1667
S'176'
p1668
sS'economia'
p1669
S'186'
p1670
sS'gallerie'
p1671
S'40'
p1672
sS'salute'
p1673
S'64'
p1674
sS'motori'
p1675
S'133'
p1676
sS'esteri'
p1677
S'125'
p1678
sS'cronaca'
p1679
S'258'
p1680
sS'sport'
p1681
S'450'
p1682
sS'rossi'
p1683
S'45'
p1684
sS'rubriche'
p1685
S'194'
p1686
sa(dp1687
S'tecnologia'
p1688
S'37'
p1689
sS'scienza'
p1690
S'58'
p1691
sS'persone'
p1692
S'84'
p1693
sS'ottobre'
p1694
S'38'
p1695
sS'politica'
p1696
S'85'
p1697
sS'spettacolo'
p1698
S'171'
p1699
sS'economia'
p1700
S'176'
p1701
sS'gallerie'
p1702
S'57'
p1703
sS'motori'
p1704
S'74'
p1705
sS'moda'
p1706
S'66'
p1707
sS'esteri'
p1708
S'91'
p1709
sS'cronaca'
p1710
S'294'
p1711
sS'sport'
p1712
S'533'
p1713
sS'rubriche'
p1714
S'157'
p1715
sa(dp1716
S'tecnologia'
p1717
S'34'
p1718
sS'regione'
p1719
S'36'
p1720
sS'scienza'
p1721
S'64'
p1722
sS'persone'
p1723
S'146'
p1724
sS'politica'
p1725
S'63'
p1726
sS'spettacolo'
p1727
S'151'
p1728
sS'economia'
p1729
S'133'
p1730
sS'gallerie'
p1731
S'99'
p1732
sS'motori'
p1733
S'66'
p1734
sS'esteri'
p1735
S'84'
p1736
sS'viaggi'
p1737
S'84'
p1738
sS'cronaca'
p1739
S'304'
p1740
sS'sport'
p1741
S'405'
p1742
sS'rubriche'
p1743
S'196'
p1744
sa(dp1745
S'tecnologia'
p1746
S'12'
p1747
sS'regione'
p1748
S'10'
p1749
sS'scienza'
p1750
S'37'
p1751
sS'persone'
p1752
S'41'
p1753
sS'politica'
p1754
S'38'
p1755
sS'spettacolo'
p1756
S'72'
p1757
sS'economia'
p1758
S'68'
p1759
sS'gallerie'
p1760
S'43'
p1761
sS'salute'
p1762
S'11'
p1763
sS'motori'
p1764
S'31'
p1765
sS'esteri'
p1766
S'83'
p1767
sS'cronaca'
p1768
S'142'
p1769
sS'sport'
p1770
S'200'
p1771
sS'rubriche'
p1772
S'145'
p1773
sasS'12'
p1774
(lp1775
(dp1776
S'tecnologia'
p1777
S'104'
p1778
sS'scienza'
p1779
S'155'
p1780
sS'persone'
p1781
S'91'
p1782
sS'media'
p1783
S'33'
p1784
sS'politica'
p1785
S'61'
p1786
sS'spettacolo'
p1787
S'297'
p1788
sS'economia'
p1789
S'422'
p1790
sS'gallerie'
p1791
S'181'
p1792
sS'motori'
p1793
S'102'
p1794
sS'esteri'
p1795
S'255'
p1796
sS'cronaca'
p1797
S'658'
p1798
sS'sport'
p1799
S'573'
p1800
sS'natale'
p1801
S'40'
p1802
sS'rubriche'
p1803
S'277'
p1804
sa(dp1805
a(dp1806
S'tecnologia'
p1807
S'42'
p1808
sS'scuola'
p1809
S'22'
p1810
sS'scienza'
p1811
S'25'
p1812
sS'persone'
p1813
S'33'
p1814
sS'dicembre'
p1815
S'20'
p1816
sS'politica'
p1817
S'29'
p1818
sS'spettacolo'
p1819
S'93'
p1820
sS'economia'
p1821
S'205'
p1822
sS'gallerie'
p1823
S'20'
p1824
sS'motori'
p1825
S'26'
p1826
sS'esteri'
p1827
S'198'
p1828
sS'cronaca'
p1829
S'207'
p1830
sS'sport'
p1831
S'159'
p1832
sS'rubriche'
p1833
S'171'
p1834
sa(dp1835
S'tecnologia'
p1836
S'148'
p1837
sS'scienza'
p1838
S'192'
p1839
sS'persone'
p1840
S'123'
p1841
sS'dicembre'
p1842
S'56'
p1843
sS'natale'
p1844
S'48'
p1845
sS'spettacolo'
p1846
S'401'
p1847
sS'economia'
p1848
S'300'
p1849
sS'gallerie'
p1850
S'104'
p1851
sS'motori'
p1852
S'66'
p1853
sS'social'
p1854
S'64'
p1855
sS'esteri'
p1856
S'402'
p1857
sS'cronaca'
p1858
S'591'
p1859
sS'sport'
p1860
S'731'
p1861
sS'rubriche'
p1862
S'321'
p1863
sa(dp1864
S'tecnologia'
p1865
S'48'
p1866
sS'scuola'
p1867
S'48'
p1868
sS'scienza'
p1869
S'151'
p1870
sS'persone'
p1871
S'45'
p1872
sS'media'
p1873
S'30'
p1874
sS'politica'
p1875
S'58'
p1876
sS'spettacolo'
p1877
S'213'
p1878
sS'economia'
p1879
S'145'
p1880
sS'gallerie'
p1881
S'94'
p1882
sS'social'
p1883
S'46'
p1884
sS'esteri'
p1885
S'229'
p1886
sS'cronaca'
p1887
S'406'
p1888
sS'sport'
p1889
S'623'
p1890
sS'rubriche'
p1891
S'236'
p1892
sa(dp1893
S'tecnologia'
p1894
S'28'
p1895
sS'regione'
p1896
S'46'
p1897
sS'scienza'
p1898
S'121'
p1899
sS'persone'
p1900
S'100'
p1901
sS'media'
p1902
S'32'
p1903
sS'politica'
p1904
S'69'
p1905
sS'spettacolo'
p1906
S'203'
p1907
sS'economia'
p1908
S'63'
p1909
sS'gallerie'
p1910
S'27'
p1911
sS'salute'
p1912
S'21'
p1913
sS'esteri'
p1914
S'150'
p1915
sS'cronaca'
p1916
S'234'
p1917
sS'sport'
p1918
S'468'
p1919
sS'rubriche'
p1920
S'201'
p1921
sa(dp1922
S'natale'
p1923
S'81'
p1924
sS'regione'
p1925
S'39'
p1926
sS'scienza'
p1927
S'120'
p1928
sS'persone'
p1929
S'109'
p1930
sS'politica'
p1931
S'68'
p1932
sS'spettacolo'
p1933
S'388'
p1934
sS'economia'
p1935
S'166'
p1936
sS'gallerie'
p1937
S'106'
p1938
sS'motori'
p1939
S'34'
p1940
sS'esteri'
p1941
S'191'
p1942
sS'viaggi'
p1943
S'60'
p1944
sS'cronaca'
p1945
S'540'
p1946
sS'sport'
p1947
S'524'
p1948
sS'rubriche'
p1949
S'406'
p1950
sa(dp1951
S'tecnologia'
p1952
S'100'
p1953
sS'politica'
p1954
S'60'
p1955
sS'regione'
p1956
S'45'
p1957
sS'scienza'
p1958
S'140'
p1959
sS'moda'
p1960
S'103'
p1961
sS'media'
p1962
S'49'
p1963
sS'persone'
p1964
S'80'
p1965
sS'spettacolo'
p1966
S'364'
p1967
sS'economia'
p1968
S'184'
p1969
sS'gallerie'
p1970
S'106'
p1971
sS'esteri'
p1972
S'203'
p1973
sS'cronaca'
p1974
S'403'
p1975
sS'sport'
p1976
S'554'
p1977
sS'rubriche'
p1978
S'237'
p1979
sa(dp1980
S'tecnologia'
p1981
S'177'
p1982
sS'regione'
p1983
S'53'
p1984
sS'scienza'
p1985
S'220'
p1986
sS'persone'
p1987
S'122'
p1988
sS'politica'
p1989
S'88'
p1990
sS'spettacolo'
p1991
S'386'
p1992
sS'economia'
p1993
S'291'
p1994
sS'gallerie'
p1995
S'141'
p1996
sS'motori'
p1997
S'42'
p1998
sS'moda'
p1999
S'48'
p2000
sS'esteri'
p2001
S'483'
p2002
sS'cronaca'
p2003
S'651'
p2004
sS'sport'
p2005
S'568'
p2006
sS'rubriche'
p2007
S'409'
p2008
sa(dp2009
S'tecnologia'
p2010
S'71'
p2011
sS'scienza'
p2012
S'168'
p2013
sS'persone'
p2014
S'167'
p2015
sS'dicembre'
p2016
S'75'
p2017
sS'politica'
p2018
S'124'
p2019
sS'spettacolo'
p2020
S'364'
p2021
sS'economia'
p2022
S'278'
p2023
sS'gallerie'
p2024
S'84'
p2025
sS'salute'
p2026
S'47'
p2027
sS'esteri'
p2028
S'318'
p2029
sS'cronaca'
p2030
S'801'
p2031
sS'sport'
p2032
S'440'
p2033
sS'natale'
p2034
S'69'
p2035
sS'rubriche'
p2036
S'527'
p2037
sa(dp2038
S'tecnologia'
p2039
S'62'
p2040
sS'regione'
p2041
S'34'
p2042
sS'scienza'
p2043
S'182'
p2044
sS'persone'
p2045
S'81'
p2046
sS'politica'
p2047
S'137'
p2048
sS'spettacolo'
p2049
S'313'
p2050
sS'economia'
p2051
S'246'
p2052
sS'gallerie'
p2053
S'48'
p2054
sS'salute'
p2055
S'64'
p2056
sS'motori'
p2057
S'39'
p2058
sS'esteri'
p2059
S'350'
p2060
sS'cronaca'
p2061
S'866'
p2062
sS'sport'
p2063
S'519'
p2064
sS'rubriche'
p2065
S'373'
p2066
sa(dp2067
S'tecnologia'
p2068
S'84'
p2069
sS'regione'
p2070
S'44'
p2071
sS'scienza'
p2072
S'124'
p2073
sS'persone'
p2074
S'89'
p2075
sS'politica'
p2076
S'146'
p2077
sS'spettacolo'
p2078
S'170'
p2079
sS'economia'
p2080
S'181'
p2081
sS'gallerie'
p2082
S'37'
p2083
sS'motori'
p2084
S'26'
p2085
sS'esteri'
p2086
S'187'
p2087
sS'cronaca'
p2088
S'613'
p2089
sS'sport'
p2090
S'374'
p2091
sS'natale'
p2092
S'52'
p2093
sS'rubriche'
p2094
S'324'
p2095
sa(dp2096
S'tecnologia'
p2097
S'35'
p2098
sS'regione'
p2099
S'37'
p2100
sS'scienza'
p2101
S'174'
p2102
sS'persone'
p2103
S'129'
p2104
sS'politica'
p2105
S'195'
p2106
sS'spettacolo'
p2107
S'299'
p2108
sS'economia'
p2109
S'136'
p2110
sS'gallerie'
p2111
S'73'
p2112
sS'moda'
p2113
S'48'
p2114
sS'esteri'
p2115
S'190'
p2116
sS'cronaca'
p2117
S'654'
p2118
sS'sport'
p2119
S'643'
p2120
sS'natale'
p2121
S'34'
p2122
sS'rubriche'
p2123
S'319'
p2124
sa(dp2125
S'tecnologia'
p2126
S'175'
p2127
sS'regione'
p2128
S'47'
p2129
sS'scienza'
p2130
S'162'
p2131
sS'persone'
p2132
S'206'
p2133
sS'politica'
p2134
S'91'
p2135
sS'spettacolo'
p2136
S'448'
p2137
sS'economia'
p2138
S'434'
p2139
sS'gallerie'
p2140
S'115'
p2141
sS'salute'
p2142
S'54'
p2143
sS'motori'
p2144
S'58'
p2145
sS'esteri'
p2146
S'348'
p2147
sS'cronaca'
p2148
S'722'
p2149
sS'sport'
p2150
S'1179'
p2151
sS'rubriche'
p2152
S'397'
p2153
sa(dp2154
S'tecnologia'
p2155
S'90'
p2156
sS'scienza'
p2157
S'217'
p2158
sS'persone'
p2159
S'260'
p2160
sS'politica'
p2161
S'149'
p2162
sS'prodotto'
p2163
S'62'
p2164
sS'spettacolo'
p2165
S'451'
p2166
sS'economia'
p2167
S'345'
p2168
sS'gallerie'
p2169
S'171'
p2170
sS'esteri'
p2171
S'268'
p2172
sS'viaggi'
p2173
S'66'
p2174
sS'cronaca'
p2175
S'907'
p2176
sS'sport'
p2177
S'764'
p2178
sS'natale'
p2179
S'76'
p2180
sS'rubriche'
p2181
S'331'
p2182
sa(dp2183
S'tecnologia'
p2184
S'78'
p2185
sS'scienza'
p2186
S'177'
p2187
sS'persone'
p2188
S'152'
p2189
sS'dicembre'
p2190
S'46'
p2191
sS'politica'
p2192
S'185'
p2193
sS'spettacolo'
p2194
S'328'
p2195
sS'economia'
p2196
S'297'
p2197
sS'gallerie'
p2198
S'73'
p2199
sS'motori'
p2200
S'60'
p2201
sS'moda'
p2202
S'56'
p2203
sS'esteri'
p2204
S'162'
p2205
sS'cronaca'
p2206
S'780'
p2207
sS'sport'
p2208
S'724'
p2209
sS'rubriche'
p2210
S'411'
p2211
sa(dp2212
S'tecnologia'
p2213
S'112'
p2214
sS'scienza'
p2215
S'200'
p2216
sS'persone'
p2217
S'144'
p2218
sS'dicembre'
p2219
S'85'
p2220
sS'politica'
p2221
S'154'
p2222
sS'spettacolo'
p2223
S'301'
p2224
sS'economia'
p2225
S'265'
p2226
sS'gallerie'
p2227
S'98'
p2228
sS'salute'
p2229
S'37'
p2230
sS'motori'
p2231
S'47'
p2232
sS'esteri'
p2233
S'264'
p2234
sS'cronaca'
p2235
S'684'
p2236
sS'sport'
p2237
S'719'
p2238
sS'rubriche'
p2239
S'380'
p2240
sa(dp2241
S'tecnologia'
p2242
S'120'
p2243
sS'scienza'
p2244
S'165'
p2245
sS'persone'
p2246
S'161'
p2247
sS'dicembre'
p2248
S'40'
p2249
sS'politica'
p2250
S'165'
p2251
sS'spettacolo'
p2252
S'219'
p2253
sS'economia'
p2254
S'328'
p2255
sS'gallerie'
p2256
S'68'
p2257
sS'salute'
p2258
S'39'
p2259
sS'esteri'
p2260
S'221'
p2261
sS'cronaca'
p2262
S'743'
p2263
sS'sport'
p2264
S'656'
p2265
sS'natale'
p2266
S'52'
p2267
sS'rubriche'
p2268
S'339'
p2269
sa(dp2270
S'tecnologia'
p2271
S'80'
p2272
sS'regione'
p2273
S'41'
p2274
sS'scienza'
p2275
S'97'
p2276
sS'persone'
p2277
S'126'
p2278
sS'dicembre'
p2279
S'29'
p2280
sS'politica'
p2281
S'81'
p2282
sS'spettacolo'
p2283
S'109'
p2284
sS'economia'
p2285
S'75'
p2286
sS'gallerie'
p2287
S'85'
p2288
sS'esteri'
p2289
S'167'
p2290
sS'cronaca'
p2291
S'306'
p2292
sS'sport'
p2293
S'567'
p2294
sS'natale'
p2295
S'36'
p2296
sS'rubriche'
p2297
S'147'
p2298
sa(dp2299
S'natale'
p2300
S'73'
p2301
sS'scienza'
p2302
S'81'
p2303
sS'persone'
p2304
S'76'
p2305
sS'media'
p2306
S'26'
p2307
sS'politica'
p2308
S'60'
p2309
sS'spettacolo'
p2310
S'198'
p2311
sS'economia'
p2312
S'134'
p2313
sS'gallerie'
p2314
S'81'
p2315
sS'salute'
p2316
S'32'
p2317
sS'esteri'
p2318
S'208'
p2319
sS'cronaca'
p2320
S'554'
p2321
sS'sport'
p2322
S'594'
p2323
sS'tecnologia'
p2324
S'44'
p2325
sS'rubriche'
p2326
S'230'
p2327
sa(dp2328
S'natale'
p2329
S'120'
p2330
sS'regione'
p2331
S'35'
p2332
sS'scienza'
p2333
S'117'
p2334
sS'persone'
p2335
S'200'
p2336
sS'media'
p2337
S'41'
p2338
sS'politica'
p2339
S'99'
p2340
sS'spettacolo'
p2341
S'391'
p2342
sS'economia'
p2343
S'243'
p2344
sS'gallerie'
p2345
S'176'
p2346
sS'esteri'
p2347
S'334'
p2348
sS'cronaca'
p2349
S'735'
p2350
sS'sport'
p2351
S'981'
p2352
sS'tecnologia'
p2353
S'53'
p2354
sS'rubriche'
p2355
S'481'
p2356
sa(dp2357
S'tecnologia'
p2358
S'93'
p2359
sS'migliori'
p2360
S'59'
p2361
sS'scienza'
p2362
S'188'
p2363
sS'persone'
p2364
S'138'
p2365
sS'stabilita'
p2366
S'74'
p2367
sS'politica'
p2368
S'141'
p2369
sS'spettacolo'
p2370
S'425'
p2371
sS'economia'
p2372
S'300'
p2373
sS'gallerie'
p2374
S'218'
p2375
sS'esteri'
p2376
S'205'
p2377
sS'viaggi'
p2378
S'41'
p2379
sS'cronaca'
p2380
S'746'
p2381
sS'sport'
p2382
S'562'
p2383
sS'rubriche'
p2384
S'360'
p2385
sa(dp2386
S'tecnologia'
p2387
S'177'
p2388
sS'scienza'
p2389
S'182'
p2390
sS'persone'
p2391
S'168'
p2392
sS'dicembre'
p2393
S'60'
p2394
sS'politica'
p2395
S'108'
p2396
sS'spettacolo'
p2397
S'278'
p2398
sS'economia'
p2399
S'279'
p2400
sS'gallerie'
p2401
S'183'
p2402
sS'salute'
p2403
S'106'
p2404
sS'esteri'
p2405
S'355'
p2406
sS'cronaca'
p2407
S'699'
p2408
sS'sport'
p2409
S'380'
p2410
sS'natale'
p2411
S'89'
p2412
sS'rubriche'
p2413
S'335'
p2414
sa(dp2415
S'tecnologia'
p2416
S'74'
p2417
sS'scienza'
p2418
S'67'
p2419
sS'persone'
p2420
S'79'
p2421
sS'politica'
p2422
S'52'
p2423
sS'spettacolo'
p2424
S'170'
p2425
sS'economia'
p2426
S'150'
p2427
sS'gallerie'
p2428
S'62'
p2429
sS'motori'
p2430
S'27'
p2431
sS'esteri'
p2432
S'147'
p2433
sS'viaggi'
p2434
S'57'
p2435
sS'cronaca'
p2436
S'472'
p2437
sS'sport'
p2438
S'210'
p2439
sS'natale'
p2440
S'48'
p2441
sS'rubriche'
p2442
S'166'
p2443
sa(dp2444
S'natale'
p2445
S'56'
p2446
sS'scienza'
p2447
S'64'
p2448
sS'persone'
p2449
S'67'
p2450
sS'dicembre'
p2451
S'19'
p2452
sS'politica'
p2453
S'18'
p2454
sS'prodotto'
p2455
S'19'
p2456
sS'spettacolo'
p2457
S'151'
p2458
sS'economia'
p2459
S'145'
p2460
sS'gallerie'
p2461
S'27'
p2462
sS'esteri'
p2463
S'195'
p2464
sS'cronaca'
p2465
S'272'
p2466
sS'sport'
p2467
S'129'
p2468
sS'tecnologia'
p2469
S'22'
p2470
sS'rubriche'
p2471
S'142'
p2472
sa(dp2473
S'natale'
p2474
S'49'
p2475
sS'scienza'
p2476
S'43'
p2477
sS'persone'
p2478
S'46'
p2479
sS'politica'
p2480
S'28'
p2481
sS'spettacolo'
p2482
S'169'
p2483
sS'economia'
p2484
S'47'
p2485
sS'gallerie'
p2486
S'38'
p2487
sS'salute'
p2488
S'38'
p2489
sS'motori'
p2490
S'47'
p2491
sS'esteri'
p2492
S'172'
p2493
sS'cronaca'
p2494
S'361'
p2495
sS'sport'
p2496
S'192'
p2497
sS'tecnologia'
p2498
S'28'
p2499
sS'rubriche'
p2500
S'244'
p2501
sa(dp2502
S'tecnologia'
p2503
S'38'
p2504
sS'scienza'
p2505
S'54'
p2506
sS'persone'
p2507
S'76'
p2508
sS'politica'
p2509
S'30'
p2510
sS'spettacolo'
p2511
S'125'
p2512
sS'economia'
p2513
S'74'
p2514
sS'gallerie'
p2515
S'31'
p2516
sS'motori'
p2517
S'65'
p2518
sS'moda'
p2519
S'33'
p2520
sS'esteri'
p2521
S'147'
p2522
sS'cronaca'
p2523
S'521'
p2524
sS'sport'
p2525
S'224'
p2526
sS'natale'
p2527
S'16'
p2528
sS'rubriche'
p2529
S'162'
p2530
sa(dp2531
S'tecnologia'
p2532
S'74'
p2533
sS'affari'
p2534
S'76'
p2535
sS'scienza'
p2536
S'100'
p2537
sS'persone'
p2538
S'199'
p2539
sS'media'
p2540
S'53'
p2541
sS'politica'
p2542
S'121'
p2543
sS'spettacolo'
p2544
S'226'
p2545
sS'economia'
p2546
S'403'
p2547
sS'gallerie'
p2548
S'77'
p2549
sS'motori'
p2550
S'66'
p2551
sS'esteri'
p2552
S'268'
p2553
sS'cronaca'
p2554
S'873'
p2555
sS'sport'
p2556
S'523'
p2557
sS'rubriche'
p2558
S'361'
p2559
sa(dp2560
S'tecnologia'
p2561
S'72'
p2562
sS'regione'
p2563
S'25'
p2564
sS'scienza'
p2565
S'79'
p2566
sS'persone'
p2567
S'175'
p2568
sS'politica'
p2569
S'76'
p2570
sS'norme'
p2571
S'25'
p2572
sS'spettacolo'
p2573
S'221'
p2574
sS'economia'
p2575
S'209'
p2576
sS'gallerie'
p2577
S'62'
p2578
sS'moda'
p2579
S'31'
p2580
sS'esteri'
p2581
S'201'
p2582
sS'cronaca'
p2583
S'508'
p2584
sS'sport'
p2585
S'330'
p2586
sS'rubriche'
p2587
S'274'
p2588
sa(dp2589
S'tecnologia'
p2590
S'69'
p2591
sS'regione'
p2592
S'30'
p2593
sS'scienza'
p2594
S'61'
p2595
sS'persone'
p2596
S'107'
p2597
sS'politica'
p2598
S'53'
p2599
sS'spettacolo'
p2600
S'187'
p2601
sS'economia'
p2602
S'258'
p2603
sS'gallerie'
p2604
S'51'
p2605
sS'motori'
p2606
S'28'
p2607
sS'esteri'
p2608
S'153'
p2609
sS'viaggi'
p2610
S'18'
p2611
sS'cronaca'
p2612
S'558'
p2613
sS'sport'
p2614
S'414'
p2615
sS'rubriche'
p2616
S'216'
p2617
sa(dp2618
S'tecnologia'
p2619
S'59'
p2620
sS'scienza'
p2621
S'64'
p2622
sS'persone'
p2623
S'47'
p2624
sS'dicembre'
p2625
S'31'
p2626
sS'politica'
p2627
S'53'
p2628
sS'spettacolo'
p2629
S'156'
p2630
sS'economia'
p2631
S'108'
p2632
sS'gallerie'
p2633
S'53'
p2634
sS'motori'
p2635
S'17'
p2636
sS'moda'
p2637
S'13'
p2638
sS'esteri'
p2639
S'96'
p2640
sS'cronaca'
p2641
S'322'
p2642
sS'sport'
p2643
S'104'
p2644
sS'rubriche'
p2645
S'148'
p2646
sasS'1'
p2647
(lp2648
(dp2649
S'tecnologia'
p2650
S'19'
p2651
sS'scienza'
p2652
S'45'
p2653
sS'persone'
p2654
S'35'
p2655
sS'politica'
p2656
S'83'
p2657
sS'norme'
p2658
S'42'
p2659
sS'prodotto'
p2660
S'12'
p2661
sS'spettacolo'
p2662
S'113'
p2663
sS'economia'
p2664
S'110'
p2665
sS'gallerie'
p2666
S'100'
p2667
sS'motori'
p2668
S'12'
p2669
sS'esteri'
p2670
S'113'
p2671
sS'cronaca'
p2672
S'253'
p2673
sS'sport'
p2674
S'55'
p2675
sS'rubriche'
p2676
S'191'
p2677
sa(dp2678
S'tecnologia'
p2679
S'39'
p2680
sS'regione'
p2681
S'28'
p2682
sS'scienza'
p2683
S'69'
p2684
sS'persone'
p2685
S'36'
p2686
sS'media'
p2687
S'31'
p2688
sS'politica'
p2689
S'74'
p2690
sS'spettacolo'
p2691
S'168'
p2692
sS'economia'
p2693
S'138'
p2694
sS'gallerie'
p2695
S'41'
p2696
sS'motori'
p2697
S'30'
p2698
sS'esteri'
p2699
S'89'
p2700
sS'cronaca'
p2701
S'333'
p2702
sS'sport'
p2703
S'144'
p2704
sS'rubriche'
p2705
S'195'
p2706
sa(dp2707
S'tecnologia'
p2708
S'16'
p2709
sS'regione'
p2710
S'16'
p2711
sS'scienza'
p2712
S'60'
p2713
sS'persone'
p2714
S'35'
p2715
sS'politica'
p2716
S'88'
p2717
sS'spettacolo'
p2718
S'142'
p2719
sS'economia'
p2720
S'96'
p2721
sS'gallerie'
p2722
S'36'
p2723
sS'salute'
p2724
S'14'
p2725
sS'esteri'
p2726
S'120'
p2727
sS'cronaca'
p2728
S'275'
p2729
sS'sport'
p2730
S'102'
p2731
sS'rossi'
p2732
S'13'
p2733
sS'rubriche'
p2734
S'233'
p2735
sa(dp2736
S'tecnologia'
p2737
S'36'
p2738
sS'scienza'
p2739
S'66'
p2740
sS'persone'
p2741
S'35'
p2742
sS'media'
p2743
S'41'
p2744
sS'dicembre'
p2745
S'13'
p2746
sS'politica'
p2747
S'77'
p2748
sS'spettacolo'
p2749
S'114'
p2750
sS'economia'
p2751
S'100'
p2752
sS'gallerie'
p2753
S'22'
p2754
sS'salute'
p2755
S'12'
p2756
sS'esteri'
p2757
S'91'
p2758
sS'cronaca'
p2759
S'363'
p2760
sS'sport'
p2761
S'142'
p2762
sS'rubriche'
p2763
S'213'
p2764
sa(dp2765
S'canali'
p2766
S'31'
p2767
sS'tecnologia'
p2768
S'37'
p2769
sS'scienza'
p2770
S'43'
p2771
sS'persone'
p2772
S'99'
p2773
sS'politica'
p2774
S'91'
p2775
sS'norme'
p2776
S'38'
p2777
sS'spettacolo'
p2778
S'353'
p2779
sS'economia'
p2780
S'226'
p2781
sS'gallerie'
p2782
S'67'
p2783
sS'salute'
p2784
S'24'
p2785
sS'esteri'
p2786
S'117'
p2787
sS'cronaca'
p2788
S'534'
p2789
sS'sport'
p2790
S'231'
p2791
sS'rubriche'
p2792
S'331'
p2793
sa(dp2794
S'tecnologia'
p2795
S'78'
p2796
sS'scienza'
p2797
S'128'
p2798
sS'persone'
p2799
S'38'
p2800
sS'media'
p2801
S'24'
p2802
sS'politica'
p2803
S'65'
p2804
sS'prodotto'
p2805
S'21'
p2806
sS'spettacolo'
p2807
S'299'
p2808
sS'economia'
p2809
S'151'
p2810
sS'gallerie'
p2811
S'60'
p2812
sS'moda'
p2813
S'30'
p2814
sS'esteri'
p2815
S'179'
p2816
sS'cronaca'
p2817
S'377'
p2818
sS'sport'
p2819
S'360'
p2820
sS'rubriche'
p2821
S'368'
p2822
sa(dp2823
S'tecnologia'
p2824
S'88'
p2825
sS'regione'
p2826
S'70'
p2827
sS'scienza'
p2828
S'192'
p2829
sS'persone'
p2830
S'201'
p2831
sS'politica'
p2832
S'131'
p2833
sS'norme'
p2834
S'69'
p2835
sS'spettacolo'
p2836
S'478'
p2837
sS'economia'
p2838
S'441'
p2839
sS'gallerie'
p2840
S'199'
p2841
sS'motori'
p2842
S'73'
p2843
sS'esteri'
p2844
S'1000'
p2845
sS'cronaca'
p2846
S'1052'
p2847
sS'sport'
p2848
S'561'
p2849
sS'rubriche'
p2850
S'849'
p2851
sa(dp2852
S'tecnologia'
p2853
S'131'
p2854
sS'festa'
p2855
S'52'
p2856
sS'scienza'
p2857
S'200'
p2858
sS'persone'
p2859
S'193'
p2860
sS'politica'
p2861
S'156'
p2862
sS'norme'
p2863
S'103'
p2864
sS'spettacolo'
p2865
S'381'
p2866
sS'economia'
p2867
S'445'
p2868
sS'gallerie'
p2869
S'151'
p2870
sS'moda'
p2871
S'50'
p2872
sS'esteri'
p2873
S'983'
p2874
sS'cronaca'
p2875
S'797'
p2876
sS'sport'
p2877
S'339'
p2878
sS'rubriche'
p2879
S'664'
p2880
sa(dp2881
S'tecnologia'
p2882
S'84'
p2883
sS'festa'
p2884
S'43'
p2885
sS'scienza'
p2886
S'254'
p2887
sS'persone'
p2888
S'166'
p2889
sS'media'
p2890
S'92'
p2891
sS'politica'
p2892
S'132'
p2893
sS'norme'
p2894
S'36'
p2895
sS'spettacolo'
p2896
S'314'
p2897
sS'economia'
p2898
S'404'
p2899
sS'gallerie'
p2900
S'146'
p2901
sS'esteri'
p2902
S'1402'
p2903
sS'cronaca'
p2904
S'642'
p2905
sS'sport'
p2906
S'345'
p2907
sS'rubriche'
p2908
S'652'
p2909
sa(dp2910
S'tecnologia'
p2911
S'35'
p2912
sS'scienza'
p2913
S'121'
p2914
sS'persone'
p2915
S'57'
p2916
sS'guerra'
p2917
S'26'
p2918
sS'politica'
p2919
S'61'
p2920
sS'spettacolo'
p2921
S'143'
p2922
sS'economia'
p2923
S'107'
p2924
sS'gallerie'
p2925
S'56'
p2926
sS'motori'
p2927
S'47'
p2928
sS'social'
p2929
S'23'
p2930
sS'esteri'
p2931
S'474'
p2932
sS'cronaca'
p2933
S'312'
p2934
sS'sport'
p2935
S'253'
p2936
sS'rubriche'
p2937
S'324'
p2938
sa(dp2939
S'tecnologia'
p2940
S'30'
p2941
sS'festa'
p2942
S'26'
p2943
sS'scienza'
p2944
S'82'
p2945
sS'persone'
p2946
S'48'
p2947
sS'media'
p2948
S'57'
p2949
sS'politica'
p2950
S'65'
p2951
sS'spettacolo'
p2952
S'214'
p2953
sS'economia'
p2954
S'109'
p2955
sS'gallerie'
p2956
S'49'
p2957
sS'salute'
p2958
S'46'
p2959
sS'esteri'
p2960
S'524'
p2961
sS'cronaca'
p2962
S'390'
p2963
sS'sport'
p2964
S'393'
p2965
sS'rubriche'
p2966
S'374'
p2967
sa(dp2968
S'tecnologia'
p2969
S'72'
p2970
sS'regione'
p2971
S'73'
p2972
sS'scienza'
p2973
S'145'
p2974
sS'persone'
p2975
S'181'
p2976
sS'media'
p2977
S'69'
p2978
sS'politica'
p2979
S'222'
p2980
sS'spettacolo'
p2981
S'353'
p2982
sS'economia'
p2983
S'304'
p2984
sS'gallerie'
p2985
S'220'
p2986
sS'motori'
p2987
S'118'
p2988
sS'esteri'
p2989
S'514'
p2990
sS'cronaca'
p2991
S'791'
p2992
sS'sport'
p2993
S'894'
p2994
sS'rubriche'
p2995
S'606'
p2996
sa(dp2997
S'tecnologia'
p2998
S'105'
p2999
sS'scienza'
p3000
S'199'
p3001
sS'persone'
p3002
S'128'
p3003
sS'media'
p3004
S'59'
p3005
sS'politica'
p3006
S'115'
p3007
sS'spettacolo'
p3008
S'296'
p3009
sS'economia'
p3010
S'444'
p3011
sS'gallerie'
p3012
S'340'
p3013
sS'salute'
p3014
S'100'
p3015
sS'motori'
p3016
S'178'
p3017
sS'esteri'
p3018
S'469'
p3019
sS'cronaca'
p3020
S'654'
p3021
sS'sport'
p3022
S'497'
p3023
sS'rubriche'
p3024
S'531'
p3025
sa(dp3026
S'tecnologia'
p3027
S'74'
p3028
sS'regione'
p3029
S'62'
p3030
sS'scienza'
p3031
S'216'
p3032
sS'persone'
p3033
S'306'
p3034
sS'politica'
p3035
S'280'
p3036
sS'spettacolo'
p3037
S'210'
p3038
sS'economia'
p3039
S'361'
p3040
sS'gallerie'
p3041
S'97'
p3042
sS'salute'
p3043
S'95'
p3044
sS'motori'
p3045
S'155'
p3046
sS'esteri'
p3047
S'452'
p3048
sS'cronaca'
p3049
S'566'
p3050
sS'sport'
p3051
S'369'
p3052
sS'rubriche'
p3053
S'664'
p3054
sa(dp3055
S'tecnologia'
p3056
S'62'
p3057
sS'storia'
p3058
S'46'
p3059
sS'scienza'
p3060
S'202'
p3061
sS'persone'
p3062
S'143'
p3063
sS'politica'
p3064
S'184'
p3065
sS'spettacolo'
p3066
S'280'
p3067
sS'economia'
p3068
S'437'
p3069
sS'gallerie'
p3070
S'176'
p3071
sS'salute'
p3072
S'64'
p3073
sS'motori'
p3074
S'71'
p3075
sS'esteri'
p3076
S'388'
p3077
sS'cronaca'
p3078
S'587'
p3079
sS'sport'
p3080
S'456'
p3081
sS'rubriche'
p3082
S'694'
p3083
sa(dp3084
S'tecnologia'
p3085
S'85'
p3086
sS'scienza'
p3087
S'213'
p3088
sS'persone'
p3089
S'134'
p3090
sS'media'
p3091
S'56'
p3092
sS'volo'
p3093
S'62'
p3094
sS'politica'
p3095
S'129'
p3096
sS'spettacolo'
p3097
S'243'
p3098
sS'economia'
p3099
S'383'
p3100
sS'gallerie'
p3101
S'96'
p3102
sS'motori'
p3103
S'118'
p3104
sS'esteri'
p3105
S'465'
p3106
sS'cronaca'
p3107
S'666'
p3108
sS'sport'
p3109
S'590'
p3110
sS'rubriche'
p3111
S'581'
p3112
sa(dp3113
S'tecnologia'
p3114
S'75'
p3115
sS'regione'
p3116
S'29'
p3117
sS'scienza'
p3118
S'147'
p3119
sS'persone'
p3120
S'102'
p3121
sS'media'
p3122
S'23'
p3123
sS'politica'
p3124
S'51'
p3125
sS'prodotto'
p3126
S'23'
p3127
sS'spettacolo'
p3128
S'129'
p3129
sS'economia'
p3130
S'185'
p3131
sS'gallerie'
p3132
S'56'
p3133
sS'esteri'
p3134
S'188'
p3135
sS'cronaca'
p3136
S'392'
p3137
sS'sport'
p3138
S'275'
p3139
sS'rubriche'
p3140
S'282'
p3141
sa(dp3142
S'tecnologia'
p3143
S'48'
p3144
sS'scienza'
p3145
S'70'
p3146
sS'persone'
p3147
S'100'
p3148
sS'media'
p3149
S'24'
p3150
sS'politica'
p3151
S'130'
p3152
sS'spettacolo'
p3153
S'149'
p3154
sS'economia'
p3155
S'156'
p3156
sS'gallerie'
p3157
S'54'
p3158
sS'salute'
p3159
S'30'
p3160
sS'motori'
p3161
S'73'
p3162
sS'esteri'
p3163
S'174'
p3164
sS'cronaca'
p3165
S'374'
p3166
sS'sport'
p3167
S'345'
p3168
sS'rubriche'
p3169
S'287'
p3170
sa(dp3171
S'tecnologia'
p3172
S'70'
p3173
sS'scienza'
p3174
S'164'
p3175
sS'persone'
p3176
S'161'
p3177
sS'media'
p3178
S'93'
p3179
sS'politica'
p3180
S'157'
p3181
sS'norme'
p3182
S'80'
p3183
sS'spettacolo'
p3184
S'282'
p3185
sS'economia'
p3186
S'379'
p3187
sS'salute'
p3188
S'83'
p3189
sS'motori'
p3190
S'72'
p3191
sS'esteri'
p3192
S'300'
p3193
sS'cronaca'
p3194
S'832'
p3195
sS'sport'
p3196
S'738'
p3197
sS'rubriche'
p3198
S'546'
p3199
sa(dp3200
S'tecnologia'
p3201
S'68'
p3202
sS'scienza'
p3203
S'178'
p3204
sS'persone'
p3205
S'174'
p3206
sS'media'
p3207
S'72'
p3208
sS'politica'
p3209
S'227'
p3210
sS'spettacolo'
p3211
S'191'
p3212
sS'economia'
p3213
S'405'
p3214
sS'gallerie'
p3215
S'104'
p3216
sS'salute'
p3217
S'49'
p3218
sS'motori'
p3219
S'141'
p3220
sS'esteri'
p3221
S'403'
p3222
sS'cronaca'
p3223
S'618'
p3224
sS'sport'
p3225
S'497'
p3226
sS'rubriche'
p3227
S'509'
p3228
sa(dp3229
S'tecnologia'
p3230
S'115'
p3231
sS'scienza'
p3232
S'195'
p3233
sS'persone'
p3234
S'252'
p3235
sS'media'
p3236
S'61'
p3237
sS'politica'
p3238
S'280'
p3239
sS'spettacolo'
p3240
S'233'
p3241
sS'economia'
p3242
S'482'
p3243
sS'gallerie'
p3244
S'141'
p3245
sS'salute'
p3246
S'61'
p3247
sS'moda'
p3248
S'85'
p3249
sS'esteri'
p3250
S'220'
p3251
sS'cronaca'
p3252
S'722'
p3253
sS'sport'
p3254
S'501'
p3255
sS'rubriche'
p3256
S'523'
p3257
sa(dp3258
S'tecnologia'
p3259
S'160'
p3260
sS'regione'
p3261
S'49'
p3262
sS'scienza'
p3263
S'249'
p3264
sS'persone'
p3265
S'164'
p3266
sS'media'
p3267
S'49'
p3268
sS'politica'
p3269
S'175'
p3270
sS'spettacolo'
p3271
S'234'
p3272
sS'economia'
p3273
S'525'
p3274
sS'gallerie'
p3275
S'102'
p3276
sS'motori'
p3277
S'69'
p3278
sS'esteri'
p3279
S'208'
p3280
sS'cronaca'
p3281
S'637'
p3282
sS'sport'
p3283
S'387'
p3284
sS'rubriche'
p3285
S'636'
p3286
sa(dp3287
S'tecnologia'
p3288
S'84'
p3289
sS'festa'
p3290
S'45'
p3291
sS'scienza'
p3292
S'234'
p3293
sS'persone'
p3294
S'228'
p3295
sS'media'
p3296
S'43'
p3297
sS'politica'
p3298
S'134'
p3299
sS'spettacolo'
p3300
S'212'
p3301
sS'economia'
p3302
S'384'
p3303
sS'gallerie'
p3304
S'92'
p3305
sS'motori'
p3306
S'58'
p3307
sS'esteri'
p3308
S'205'
p3309
sS'cronaca'
p3310
S'697'
p3311
sS'sport'
p3312
S'487'
p3313
sS'rubriche'
p3314
S'467'
p3315
sa(dp3316
S'tecnologia'
p3317
S'37'
p3318
sS'scienza'
p3319
S'125'
p3320
sS'persone'
p3321
S'67'
p3322
sS'politica'
p3323
S'83'
p3324
sS'prodotto'
p3325
S'27'
p3326
sS'spettacolo'
p3327
S'94'
p3328
sS'economia'
p3329
S'132'
p3330
sS'gallerie'
p3331
S'62'
p3332
sS'salute'
p3333
S'17'
p3334
sS'motori'
p3335
S'32'
p3336
sS'esteri'
p3337
S'142'
p3338
sS'cronaca'
p3339
S'352'
p3340
sS'sport'
p3341
S'263'
p3342
sS'rubriche'
p3343
S'247'
p3344
sa(dp3345
S'tecnologia'
p3346
S'40'
p3347
sS'scienza'
p3348
S'50'
p3349
sS'persone'
p3350
S'106'
p3351
sS'politica'
p3352
S'122'
p3353
sS'prodotto'
p3354
S'21'
p3355
sS'spettacolo'
p3356
S'122'
p3357
sS'economia'
p3358
S'136'
p3359
sS'gallerie'
p3360
S'32'
p3361
sS'salute'
p3362
S'24'
p3363
sS'motori'
p3364
S'22'
p3365
sS'esteri'
p3366
S'193'
p3367
sS'cronaca'
p3368
S'321'
p3369
sS'sport'
p3370
S'437'
p3371
sS'rubriche'
p3372
S'309'
p3373
sa(dp3374
S'tecnologia'
p3375
S'52'
p3376
sS'scienza'
p3377
S'163'
p3378
sS'persone'
p3379
S'269'
p3380
sS'media'
p3381
S'84'
p3382
sS'politica'
p3383
S'197'
p3384
sS'spettacolo'
p3385
S'315'
p3386
sS'economia'
p3387
S'431'
p3388
sS'gallerie'
p3389
S'143'
p3390
sS'musica'
p3391
S'47'
p3392
sS'motori'
p3393
S'98'
p3394
sS'esteri'
p3395
S'588'
p3396
sS'cronaca'
p3397
S'741'
p3398
sS'sport'
p3399
S'676'
p3400
sS'rubriche'
p3401
S'756'
p3402
sa(dp3403
S'tecnologia'
p3404
S'102'
p3405
sS'scienza'
p3406
S'143'
p3407
sS'persone'
p3408
S'251'
p3409
sS'media'
p3410
S'78'
p3411
sS'politica'
p3412
S'214'
p3413
sS'norme'
p3414
S'78'
p3415
sS'spettacolo'
p3416
S'386'
p3417
sS'economia'
p3418
S'435'
p3419
sS'gallerie'
p3420
S'184'
p3421
sS'moda'
p3422
S'118'
p3423
sS'esteri'
p3424
S'499'
p3425
sS'cronaca'
p3426
S'622'
p3427
sS'sport'
p3428
S'516'
p3429
sS'rubriche'
p3430
S'824'
p3431
sa(dp3432
S'tecnologia'
p3433
S'76'
p3434
sS'scienza'
p3435
S'159'
p3436
sS'persone'
p3437
S'194'
p3438
sS'media'
p3439
S'56'
p3440
sS'politica'
p3441
S'197'
p3442
sS'spettacolo'
p3443
S'246'
p3444
sS'economia'
p3445
S'545'
p3446
sS'gallerie'
p3447
S'193'
p3448
sS'salute'
p3449
S'51'
p3450
sS'motori'
p3451
S'51'
p3452
sS'esteri'
p3453
S'360'
p3454
sS'cronaca'
p3455
S'833'
p3456
sS'sport'
p3457
S'362'
p3458
sS'rubriche'
p3459
S'658'
p3460
sa(dp3461
S'tecnologia'
p3462
S'48'
p3463
sS'scienza'
p3464
S'130'
p3465
sS'persone'
p3466
S'232'
p3467
sS'media'
p3468
S'94'
p3469
sS'politica'
p3470
S'284'
p3471
sS'spettacolo'
p3472
S'273'
p3473
sS'economia'
p3474
S'450'
p3475
sS'gallerie'
p3476
S'130'
p3477
sS'salute'
p3478
S'44'
p3479
sS'motori'
p3480
S'57'
p3481
sS'esteri'
p3482
S'267'
p3483
sS'cronaca'
p3484
S'743'
p3485
sS'sport'
p3486
S'461'
p3487
sS'rubriche'
p3488
S'1155'
p3489
sa(dp3490
S'tecnologia'
p3491
S'125'
p3492
sS'regione'
p3493
S'71'
p3494
sS'scienza'
p3495
S'208'
p3496
sS'persone'
p3497
S'171'
p3498
sS'media'
p3499
S'55'
p3500
sS'politica'
p3501
S'220'
p3502
sS'spettacolo'
p3503
S'267'
p3504
sS'economia'
p3505
S'405'
p3506
sS'gallerie'
p3507
S'69'
p3508
sS'motori'
p3509
S'90'
p3510
sS'esteri'
p3511
S'180'
p3512
sS'cronaca'
p3513
S'802'
p3514
sS'sport'
p3515
S'443'
p3516
sS'rubriche'
p3517
S'916'
p3518
sa(dp3519
S'tecnologia'
p3520
S'39'
p3521
sS'scienza'
p3522
S'135'
p3523
sS'persone'
p3524
S'86'
p3525
sS'politica'
p3526
S'315'
p3527
sS'prodotto'
p3528
S'26'
p3529
sS'spettacolo'
p3530
S'168'
p3531
sS'economia'
p3532
S'125'
p3533
sS'gallerie'
p3534
S'116'
p3535
sS'motori'
p3536
S'37'
p3537
sS'moda'
p3538
S'28'
p3539
sS'esteri'
p3540
S'116'
p3541
sS'cronaca'
p3542
S'340'
p3543
sS'sport'
p3544
S'438'
p3545
sS'rubriche'
p3546
S'793'
p3547
sasS'3'
p3548
(lp3549
(dp3550
S'tecnologia'
p3551
S'102'
p3552
sS'regione'
p3553
S'49'
p3554
sS'scienza'
p3555
S'55'
p3556
sS'festa'
p3557
S'69'
p3558
sS'persone'
p3559
S'67'
p3560
sS'politica'
p3561
S'78'
p3562
sS'spettacolo'
p3563
S'168'
p3564
sS'economia'
p3565
S'68'
p3566
sS'gallerie'
p3567
S'32'
p3568
sS'motori'
p3569
S'30'
p3570
sS'esteri'
p3571
S'133'
p3572
sS'cronaca'
p3573
S'319'
p3574
sS'sport'
p3575
S'198'
p3576
sS'rubriche'
p3577
S'249'
p3578
sa(dp3579
S'tecnologia'
p3580
S'7'
p3581
sS'storia'
p3582
g2647
sS'scienza'
p3583
g2647
sS'persone'
p3584
S'2'
p3585
sS'politica'
p3586
g941
sS'prodotto'
p3587
g2647
sS'spettacolo'
p3588
g2647
sS'economia'
p3589
g3548
sS'intervista'
p3590
g2647
sS'salute'
p3591
g2647
sS'esteri'
p3592
g2647
sS'cronaca'
p3593
g943
sS'sport'
p3594
S'5'
p3595
sS'rubriche'
p3596
g3595
sa(dp3597
a(dp3598
a(dp3599
a(dp3600
a(dp3601
a(dp3602
a(dp3603
a(dp3604
a(dp3605
a(dp3606
S'tecnologia'
p3607
S'112'
p3608
sS'scuola'
p3609
S'80'
p3610
sS'scienza'
p3611
S'219'
p3612
sS'persone'
p3613
S'152'
p3614
sS'politica'
p3615
S'170'
p3616
sS'spettacolo'
p3617
S'317'
p3618
sS'economia'
p3619
S'466'
p3620
sS'gallerie'
p3621
S'70'
p3622
sS'salute'
p3623
S'39'
p3624
sS'motori'
p3625
S'43'
p3626
sS'esteri'
p3627
S'274'
p3628
sS'cronaca'
p3629
S'782'
p3630
sS'sport'
p3631
S'563'
p3632
sS'rubriche'
p3633
S'541'
p3634
sa(dp3635
S'tecnologia'
p3636
S'106'
p3637
sS'scuola'
p3638
S'79'
p3639
sS'scienza'
p3640
S'233'
p3641
sS'persone'
p3642
S'135'
p3643
sS'politica'
p3644
S'131'
p3645
sS'spettacolo'
p3646
S'264'
p3647
sS'economia'
p3648
S'381'
p3649
sS'gallerie'
p3650
S'93'
p3651
sS'salute'
p3652
S'46'
p3653
sS'motori'
p3654
S'110'
p3655
sS'esteri'
p3656
S'311'
p3657
sS'cronaca'
p3658
S'898'
p3659
sS'sport'
p3660
S'584'
p3661
sS'rubriche'
p3662
S'565'
p3663
sa(dp3664
S'tecnologia'
p3665
g2647
sS'scuola'
p3666
g3585
sS'scienza'
p3667
g3585
sS'persone'
p3668
g2647
sS'politica'
p3669
g941
sS'spettacolo'
p3670
g943
sS'economia'
p3671
g3548
sS'gallerie'
p3672
S'19'
p3673
sS'motori'
p3674
g2647
sS'esteri'
p3675
g3585
sS'cronaca'
p3676
S'14'
p3677
sS'sport'
p3678
g2647
sS'rubriche'
p3679
g2647
sa(dp3680
a(dp3681
a(dp3682
a(dp3683
a(dp3684
a(dp3685
a(dp3686
a(dp3687
a(dp3688
a(dp3689
a(dp3690
S'tecnologia'
p3691
S'96'
p3692
sS'aereo'
p3693
S'81'
p3694
sS'scienza'
p3695
S'212'
p3696
sS'persone'
p3697
S'98'
p3698
sS'politica'
p3699
S'150'
p3700
sS'norme'
p3701
S'54'
p3702
sS'spettacolo'
p3703
S'328'
p3704
sS'economia'
p3705
S'411'
p3706
sS'gallerie'
p3707
S'50'
p3708
sS'moda'
p3709
S'56'
p3710
sS'esteri'
p3711
S'952'
p3712
sS'cronaca'
p3713
S'925'
p3714
sS'sport'
p3715
S'384'
p3716
sS'rubriche'
p3717
S'577'
p3718
sa(dp3719
a(dp3720
a(dp3721
a(dp3722
a(dp3723
a(dp3724
asg3585
(lp3725
(dp3726
S'tecnologia'
p3727
S'63'
p3728
sS'scienza'
p3729
S'75'
p3730
sS'persone'
p3731
S'109'
p3732
sS'politica'
p3733
S'238'
p3734
sS'prodotto'
p3735
S'48'
p3736
sS'spettacolo'
p3737
S'301'
p3738
sS'economia'
p3739
S'141'
p3740
sS'gallerie'
p3741
S'158'
p3742
sS'motori'
p3743
S'122'
p3744
sS'esteri'
p3745
S'127'
p3746
sS'viaggi'
p3747
S'64'
p3748
sS'cronaca'
p3749
S'286'
p3750
sS'sport'
p3751
S'501'
p3752
sS'rubriche'
p3753
S'495'
p3754
sa(dp3755
S'tecnologia'
p3756
S'116'
p3757
sS'scienza'
p3758
S'145'
p3759
sS'persone'
p3760
S'157'
p3761
sS'media'
p3762
S'88'
p3763
sS'politica'
p3764
S'274'
p3765
sS'norme'
p3766
S'62'
p3767
sS'spettacolo'
p3768
S'301'
p3769
sS'economia'
p3770
S'635'
p3771
sS'gallerie'
p3772
S'143'
p3773
sS'motori'
p3774
S'105'
p3775
sS'esteri'
p3776
S'260'
p3777
sS'cronaca'
p3778
S'705'
p3779
sS'sport'
p3780
S'777'
p3781
sS'rubriche'
p3782
S'697'
p3783
sa(dp3784
S'tecnologia'
p3785
S'83'
p3786
sS'scienza'
p3787
S'231'
p3788
sS'persone'
p3789
S'230'
p3790
sS'media'
p3791
S'112'
p3792
sS'politica'
p3793
S'277'
p3794
sS'spettacolo'
p3795
S'420'
p3796
sS'economia'
p3797
S'463'
p3798
sS'gallerie'
p3799
S'229'
p3800
sS'motori'
p3801
S'101'
p3802
sS'moda'
p3803
S'120'
p3804
sS'esteri'
p3805
S'324'
p3806
sS'cronaca'
p3807
S'684'
p3808
sS'sport'
p3809
S'577'
p3810
sS'rubriche'
p3811
S'1069'
p3812
sa(dp3813
S'tecnologia'
p3814
S'98'
p3815
sS'aereo'
p3816
S'213'
p3817
sS'scienza'
p3818
S'222'
p3819
sS'persone'
p3820
S'136'
p3821
sS'politica'
p3822
S'206'
p3823
sS'norme'
p3824
S'80'
p3825
sS'spettacolo'
p3826
S'466'
p3827
sS'economia'
p3828
S'370'
p3829
sS'gallerie'
p3830
S'108'
p3831
sS'motori'
p3832
S'158'
p3833
sS'esteri'
p3834
S'620'
p3835
sS'cronaca'
p3836
S'649'
p3837
sS'sport'
p3838
S'595'
p3839
sS'rubriche'
p3840
S'714'
p3841
sa(dp3842
S'tecnologia'
p3843
S'77'
p3844
sS'aereo'
p3845
S'36'
p3846
sS'scienza'
p3847
S'150'
p3848
sS'persone'
p3849
S'309'
p3850
sS'politica'
p3851
S'207'
p3852
sS'norme'
p3853
S'29'
p3854
sS'spettacolo'
p3855
S'316'
p3856
sS'economia'
p3857
S'520'
p3858
sS'gallerie'
p3859
S'85'
p3860
sS'motori'
p3861
S'89'
p3862
sS'esteri'
p3863
S'273'
p3864
sS'cronaca'
p3865
S'890'
p3866
sS'sport'
p3867
S'490'
p3868
sS'rubriche'
p3869
S'776'
p3870
sa(dp3871
S'tecnologia'
p3872
S'73'
p3873
sS'scienza'
p3874
S'177'
p3875
sS'persone'
p3876
S'147'
p3877
sS'politica'
p3878
S'208'
p3879
sS'norme'
p3880
S'53'
p3881
sS'spettacolo'
p3882
S'398'
p3883
sS'economia'
p3884
S'351'
p3885
sS'gallerie'
p3886
S'88'
p3887
sS'salute'
p3888
S'63'
p3889
sS'motori'
p3890
S'60'
p3891
sS'esteri'
p3892
S'334'
p3893
sS'cronaca'
p3894
S'797'
p3895
sS'sport'
p3896
S'591'
p3897
sS'rubriche'
p3898
S'725'
p3899
sa(dp3900
S'tecnologia'
p3901
S'43'
p3902
sS'scienza'
p3903
S'91'
p3904
sS'persone'
p3905
S'83'
p3906
sS'politica'
p3907
S'103'
p3908
sS'prodotto'
p3909
S'30'
p3910
sS'spettacolo'
p3911
S'244'
p3912
sS'economia'
p3913
S'127'
p3914
sS'gallerie'
p3915
S'53'
p3916
sS'motori'
p3917
S'17'
p3918
sS'esteri'
p3919
S'144'
p3920
sS'viaggi'
p3921
S'22'
p3922
sS'cronaca'
p3923
S'407'
p3924
sS'sport'
p3925
S'345'
p3926
sS'rubriche'
p3927
S'273'
p3928
sa(dp3929
S'tecnologia'
p3930
S'45'
p3931
sS'scienza'
p3932
S'66'
p3933
sS'persone'
p3934
S'83'
p3935
sS'media'
p3936
S'48'
p3937
sS'politica'
p3938
S'99'
p3939
sS'prodotto'
p3940
S'21'
p3941
sS'spettacolo'
p3942
S'181'
p3943
sS'economia'
p3944
S'188'
p3945
sS'gallerie'
p3946
S'74'
p3947
sS'salute'
p3948
S'18'
p3949
sS'esteri'
p3950
S'169'
p3951
sS'cronaca'
p3952
S'397'
p3953
sS'sport'
p3954
S'504'
p3955
sS'rubriche'
p3956
S'279'
p3957
sa(dp3958
S'tecnologia'
p3959
S'84'
p3960
sS'scienza'
p3961
S'163'
p3962
sS'persone'
p3963
S'181'
p3964
sS'media'
p3965
S'56'
p3966
sS'politica'
p3967
S'91'
p3968
sS'spettacolo'
p3969
S'483'
p3970
sS'economia'
p3971
S'573'
p3972
sS'gallerie'
p3973
S'311'
p3974
sS'motori'
p3975
S'54'
p3976
sS'esteri'
p3977
S'326'
p3978
sS'viaggi'
p3979
S'57'
p3980
sS'cronaca'
p3981
S'804'
p3982
sS'sport'
p3983
S'815'
p3984
sS'rubriche'
p3985
S'508'
p3986
sa(dp3987
S'tecnologia'
p3988
S'79'
p3989
sS'scienza'
p3990
S'182'
p3991
sS'persone'
p3992
S'187'
p3993
sS'media'
p3994
S'41'
p3995
sS'politica'
p3996
S'105'
p3997
sS'spettacolo'
p3998
S'437'
p3999
sS'economia'
p4000
S'423'
p4001
sS'gallerie'
p4002
S'297'
p4003
sS'salute'
p4004
S'155'
p4005
sS'esteri'
p4006
S'332'
p4007
sS'viaggi'
p4008
S'78'
p4009
sS'cronaca'
p4010
S'775'
p4011
sS'sport'
p4012
S'472'
p4013
sS'rubriche'
p4014
S'566'
p4015
sa(dp4016
S'tecnologia'
p4017
S'58'
p4018
sS'scienza'
p4019
S'221'
p4020
sS'persone'
p4021
S'195'
p4022
sS'media'
p4023
S'63'
p4024
sS'politica'
p4025
S'120'
p4026
sS'norme'
p4027
S'71'
p4028
sS'spettacolo'
p4029
S'902'
p4030
sS'economia'
p4031
S'438'
p4032
sS'gallerie'
p4033
S'250'
p4034
sS'salute'
p4035
S'61'
p4036
sS'esteri'
p4037
S'208'
p4038
sS'cronaca'
p4039
S'800'
p4040
sS'sport'
p4041
S'539'
p4042
sS'rubriche'
p4043
S'635'
p4044
sa(dp4045
S'tecnologia'
p4046
S'88'
p4047
sS'scienza'
p4048
S'305'
p4049
sS'persone'
p4050
S'166'
p4051
sS'politica'
p4052
S'109'
p4053
sS'norme'
p4054
S'37'
p4055
sS'spettacolo'
p4056
S'754'
p4057
sS'economia'
p4058
S'530'
p4059
sS'gallerie'
p4060
S'299'
p4061
sS'salute'
p4062
S'43'
p4063
sS'motori'
p4064
S'34'
p4065
sS'esteri'
p4066
S'329'
p4067
sS'cronaca'
p4068
S'643'
p4069
sS'sport'
p4070
S'360'
p4071
sS'rubriche'
p4072
S'568'
p4073
sa(dp4074
S'tecnologia'
p4075
S'93'
p4076
sS'scienza'
p4077
S'245'
p4078
sS'persone'
p4079
S'143'
p4080
sS'politica'
p4081
S'241'
p4082
sS'spettacolo'
p4083
S'701'
p4084
sS'economia'
p4085
S'373'
p4086
sS'gallerie'
p4087
S'111'
p4088
sS'musica'
p4089
S'48'
p4090
sS'salute'
p4091
S'52'
p4092
sS'motori'
p4093
S'55'
p4094
sS'esteri'
p4095
S'226'
p4096
sS'cronaca'
p4097
S'731'
p4098
sS'sport'
p4099
S'428'
p4100
sS'rubriche'
p4101
S'590'
p4102
sa(dp4103
S'tecnologia'
p4104
S'45'
p4105
sS'festa'
p4106
S'19'
p4107
sS'scienza'
p4108
S'112'
p4109
sS'persone'
p4110
S'62'
p4111
sS'politica'
p4112
S'124'
p4113
sS'spettacolo'
p4114
S'316'
p4115
sS'economia'
p4116
S'207'
p4117
sS'gallerie'
p4118
S'46'
p4119
sS'musica'
p4120
S'21'
p4121
sS'motori'
p4122
S'43'
p4123
sS'esteri'
p4124
S'134'
p4125
sS'cronaca'
p4126
S'362'
p4127
sS'sport'
p4128
S'245'
p4129
sS'rubriche'
p4130
S'271'
p4131
sa(dp4132
S'tecnologia'
p4133
S'59'
p4134
sS'scienza'
p4135
S'107'
p4136
sS'persone'
p4137
S'72'
p4138
sS'volo'
p4139
S'28'
p4140
sS'politica'
p4141
S'64'
p4142
sS'prodotto'
p4143
S'22'
p4144
sS'spettacolo'
p4145
S'471'
p4146
sS'economia'
p4147
S'242'
p4148
sS'gallerie'
p4149
S'74'
p4150
sS'motori'
p4151
S'18'
p4152
sS'esteri'
p4153
S'202'
p4154
sS'cronaca'
p4155
S'360'
p4156
sS'sport'
p4157
S'264'
p4158
sS'rubriche'
p4159
S'300'
p4160
sa(dp4161
S'tecnologia'
p4162
S'65'
p4163
sS'scienza'
p4164
S'118'
p4165
sS'persone'
p4166
S'240'
p4167
sS'media'
p4168
S'107'
p4169
sS'politica'
p4170
S'183'
p4171
sS'spettacolo'
p4172
S'538'
p4173
sS'economia'
p4174
S'455'
p4175
sS'gallerie'
p4176
S'104'
p4177
sS'salute'
p4178
S'48'
p4179
sS'motori'
p4180
S'61'
p4181
sS'esteri'
p4182
S'401'
p4183
sS'cronaca'
p4184
S'824'
p4185
sS'sport'
p4186
S'641'
p4187
sS'rubriche'
p4188
S'632'
p4189
sa(dp4190
S'tecnologia'
p4191
S'80'
p4192
sS'scienza'
p4193
S'189'
p4194
sS'persone'
p4195
S'161'
p4196
sS'media'
p4197
S'89'
p4198
sS'politica'
p4199
S'197'
p4200
sS'spettacolo'
p4201
S'292'
p4202
sS'economia'
p4203
S'496'
p4204
sS'gallerie'
p4205
S'185'
p4206
sS'salute'
p4207
S'89'
p4208
sS'motori'
p4209
S'68'
p4210
sS'esteri'
p4211
S'467'
p4212
sS'cronaca'
p4213
S'912'
p4214
sS'sport'
p4215
S'547'
p4216
sS'rubriche'
p4217
S'676'
p4218
sa(dp4219
S'tecnologia'
p4220
S'111'
p4221
sS'scienza'
p4222
S'207'
p4223
sS'persone'
p4224
S'120'
p4225
sS'politica'
p4226
S'237'
p4227
sS'norme'
p4228
S'75'
p4229
sS'spettacolo'
p4230
S'224'
p4231
sS'economia'
p4232
S'501'
p4233
sS'gallerie'
p4234
S'120'
p4235
sS'salute'
p4236
S'111'
p4237
sS'motori'
p4238
S'56'
p4239
sS'esteri'
p4240
S'359'
p4241
sS'cronaca'
p4242
S'959'
p4243
sS'sport'
p4244
S'457'
p4245
sS'rubriche'
p4246
S'767'
p4247
sa(dp4248
S'tecnologia'
p4249
S'72'
p4250
sS'regione'
p4251
S'153'
p4252
sS'scienza'
p4253
S'162'
p4254
sS'persone'
p4255
S'137'
p4256
sS'politica'
p4257
S'158'
p4258
sS'norme'
p4259
S'54'
p4260
sS'spettacolo'
p4261
S'309'
p4262
sS'economia'
p4263
S'357'
p4264
sS'gallerie'
p4265
S'116'
p4266
sS'salute'
p4267
S'46'
p4268
sS'esteri'
p4269
S'402'
p4270
sS'cronaca'
p4271
S'843'
p4272
sS'sport'
p4273
S'578'
p4274
sS'rubriche'
p4275
S'644'
p4276
sa(dp4277
S'tecnologia'
p4278
S'102'
p4279
sS'regione'
p4280
S'87'
p4281
sS'scienza'
p4282
S'184'
p4283
sS'persone'
p4284
S'124'
p4285
sS'politica'
p4286
S'118'
p4287
sS'norme'
p4288
S'51'
p4289
sS'spettacolo'
p4290
S'212'
p4291
sS'economia'
p4292
S'412'
p4293
sS'gallerie'
p4294
S'113'
p4295
sS'salute'
p4296
S'48'
p4297
sS'esteri'
p4298
S'146'
p4299
sS'cronaca'
p4300
S'789'
p4301
sS'sport'
p4302
S'648'
p4303
sS'rubriche'
p4304
S'486'
p4305
sa(dp4306
S'tecnologia'
p4307
S'33'
p4308
sS'migliori'
p4309
S'30'
p4310
sS'scuola'
p4311
S'97'
p4312
sS'scienza'
p4313
S'110'
p4314
sS'persone'
p4315
S'53'
p4316
sS'politica'
p4317
S'77'
p4318
sS'spettacolo'
p4319
S'123'
p4320
sS'economia'
p4321
S'249'
p4322
sS'gallerie'
p4323
S'37'
p4324
sS'salute'
p4325
S'40'
p4326
sS'esteri'
p4327
S'113'
p4328
sS'cronaca'
p4329
S'361'
p4330
sS'sport'
p4331
S'233'
p4332
sS'rubriche'
p4333
S'272'
p4334
sa(dp4335
S'tecnologia'
p4336
S'25'
p4337
sS'scuola'
p4338
S'41'
p4339
sS'scienza'
p4340
S'91'
p4341
sS'persone'
p4342
S'42'
p4343
sS'politica'
p4344
S'102'
p4345
sS'spettacolo'
p4346
S'183'
p4347
sS'economia'
p4348
S'137'
p4349
sS'gallerie'
p4350
S'40'
p4351
sS'salute'
p4352
S'63'
p4353
sS'esteri'
p4354
S'141'
p4355
sS'viaggi'
p4356
S'21'
p4357
sS'cronaca'
p4358
S'404'
p4359
sS'sport'
p4360
S'340'
p4361
sS'rubriche'
p4362
S'249'
p4363
sa(dp4364
S'tecnologia'
p4365
S'77'
p4366
sS'festa'
p4367
S'72'
p4368
sS'scienza'
p4369
S'138'
p4370
sS'persone'
p4371
S'155'
p4372
sS'politica'
p4373
S'82'
p4374
sS'norme'
p4375
S'78'
p4376
sS'spettacolo'
p4377
S'723'
p4378
sS'economia'
p4379
S'530'
p4380
sS'gallerie'
p4381
S'245'
p4382
sS'esteri'
p4383
S'163'
p4384
sS'cronaca'
p4385
S'592'
p4386
sS'sport'
p4387
S'465'
p4388
sS'rubriche'
p4389
S'492'
p4390
sS'scuola'
p4391
S'63'
p4392
sa(dp4393
S'tecnologia'
p4394
S'130'
p4395
sS'scienza'
p4396
S'103'
p4397
sS'persone'
p4398
S'236'
p4399
sS'politica'
p4400
S'153'
p4401
sS'norme'
p4402
S'39'
p4403
sS'spettacolo'
p4404
S'316'
p4405
sS'economia'
p4406
S'524'
p4407
sS'gallerie'
p4408
S'292'
p4409
sS'salute'
p4410
S'113'
p4411
sS'motori'
p4412
S'59'
p4413
sS'esteri'
p4414
S'151'
p4415
sS'cronaca'
p4416
S'608'
p4417
sS'sport'
p4418
S'466'
p4419
sS'rubriche'
p4420
S'522'
p4421
sa(dp4422
S'tecnologia'
p4423
S'67'
p4424
sS'scienza'
p4425
S'101'
p4426
sS'persone'
p4427
S'82'
p4428
sS'politica'
p4429
S'161'
p4430
sS'norme'
p4431
S'77'
p4432
sS'spettacolo'
p4433
S'226'
p4434
sS'economia'
p4435
S'452'
p4436
sS'gallerie'
p4437
S'108'
p4438
sS'salute'
p4439
S'59'
p4440
sS'motori'
p4441
S'103'
p4442
sS'esteri'
p4443
S'260'
p4444
sS'cronaca'
p4445
S'548'
p4446
sS'sport'
p4447
S'657'
p4448
sS'rubriche'
p4449
S'491'
p4450
sa(dp4451
S'tecnologia'
p4452
S'148'
p4453
sS'scienza'
p4454
S'194'
p4455
sS'persone'
p4456
S'180'
p4457
sS'politica'
p4458
S'141'
p4459
sS'norme'
p4460
S'93'
p4461
sS'spettacolo'
p4462
S'379'
p4463
sS'economia'
p4464
S'370'
p4465
sS'gallerie'
p4466
S'103'
p4467
sS'salute'
p4468
S'50'
p4469
sS'motori'
p4470
S'65'
p4471
sS'esteri'
p4472
S'266'
p4473
sS'cronaca'
p4474
S'787'
p4475
sS'sport'
p4476
S'446'
p4477
sS'rubriche'
p4478
S'470'
p4479
sa(dp4480
S'tecnologia'
p4481
S'61'
p4482
sS'regione'
p4483
S'57'
p4484
sS'scienza'
p4485
S'187'
p4486
sS'persone'
p4487
S'214'
p4488
sS'politica'
p4489
S'135'
p4490
sS'norme'
p4491
S'90'
p4492
sS'spettacolo'
p4493
S'282'
p4494
sS'economia'
p4495
S'400'
p4496
sS'gallerie'
p4497
S'169'
p4498
sS'esteri'
p4499
S'265'
p4500
sS'viaggi'
p4501
S'56'
p4502
sS'cronaca'
p4503
S'725'
p4504
sS'sport'
p4505
S'785'
p4506
sS'rubriche'
p4507
S'490'
p4508
sa(dp4509
S'tecnologia'
p4510
S'64'
p4511
sS'regione'
p4512
S'32'
p4513
sS'scienza'
p4514
S'139'
p4515
sS'persone'
p4516
S'174'
p4517
sS'politica'
p4518
S'82'
p4519
sS'spettacolo'
p4520
S'152'
p4521
sS'economia'
p4522
S'72'
p4523
sS'gallerie'
p4524
S'33'
p4525
sS'motori'
p4526
S'20'
p4527
sS'moda'
p4528
S'20'
p4529
sS'esteri'
p4530
S'152'
p4531
sS'cronaca'
p4532
S'431'
p4533
sS'sport'
p4534
S'204'
p4535
sS'rubriche'
p4536
S'292'
p4537
sasg3595
(lp4538
(dp4539
S'tecnologia'
p4540
S'49'
p4541
sS'scienza'
p4542
S'92'
p4543
sS'regione'
p4544
S'271'
p4545
sS'persone'
p4546
S'116'
p4547
sS'politica'
p4548
S'49'
p4549
sS'spettacolo'
p4550
S'153'
p4551
sS'economia'
p4552
S'129'
p4553
sS'gallerie'
p4554
S'217'
p4555
sS'salute'
p4556
S'31'
p4557
sS'motori'
p4558
S'47'
p4559
sS'esteri'
p4560
S'89'
p4561
sS'cronaca'
p4562
S'447'
p4563
sS'sport'
p4564
S'215'
p4565
sS'rubriche'
p4566
S'469'
p4567
sa(dp4568
S'tecnologia'
p4569
S'30'
p4570
sS'scienza'
p4571
S'47'
p4572
sS'regione'
p4573
S'174'
p4574
sS'persone'
p4575
S'82'
p4576
sS'media'
p4577
S'15'
p4578
sS'politica'
p4579
S'35'
p4580
sS'spettacolo'
p4581
S'109'
p4582
sS'economia'
p4583
S'55'
p4584
sS'gallerie'
p4585
S'51'
p4586
sS'motori'
p4587
S'27'
p4588
sS'esteri'
p4589
S'183'
p4590
sS'cronaca'
p4591
S'513'
p4592
sS'sport'
p4593
S'354'
p4594
sS'rubriche'
p4595
S'301'
p4596
sa(dp4597
S'tecnologia'
p4598
S'54'
p4599
sS'scienza'
p4600
S'60'
p4601
sS'regione'
p4602
S'98'
p4603
sS'persone'
p4604
S'101'
p4605
sS'politica'
p4606
S'59'
p4607
sS'spettacolo'
p4608
S'113'
p4609
sS'economia'
p4610
S'89'
p4611
sS'gallerie'
p4612
S'41'
p4613
sS'motori'
p4614
S'28'
p4615
sS'esteri'
p4616
S'153'
p4617
sS'viaggi'
p4618
S'35'
p4619
sS'cronaca'
p4620
S'440'
p4621
sS'sport'
p4622
S'610'
p4623
sS'rubriche'
p4624
S'352'
p4625
sa(dp4626
S'tecnologia'
p4627
S'96'
p4628
sS'regione'
p4629
S'56'
p4630
sS'scienza'
p4631
S'198'
p4632
sS'persone'
p4633
S'126'
p4634
sS'politica'
p4635
S'221'
p4636
sS'spettacolo'
p4637
S'335'
p4638
sS'economia'
p4639
S'339'
p4640
sS'gallerie'
p4641
S'181'
p4642
sS'salute'
p4643
S'94'
p4644
sS'esteri'
p4645
S'438'
p4646
sS'cronaca'
p4647
S'830'
p4648
sS'sport'
p4649
S'751'
p4650
sS'rubriche'
p4651
S'669'
p4652
sS'scuola'
p4653
S'52'
p4654
sa(dp4655
S'tecnologia'
p4656
S'145'
p4657
sS'scuola'
p4658
S'208'
p4659
sS'scienza'
p4660
S'224'
p4661
sS'persone'
p4662
S'214'
p4663
sS'politica'
p4664
S'240'
p4665
sS'spettacolo'
p4666
S'334'
p4667
sS'economia'
p4668
S'400'
p4669
sS'gallerie'
p4670
S'251'
p4671
sS'motori'
p4672
S'56'
p4673
sS'moda'
p4674
S'42'
p4675
sS'esteri'
p4676
S'371'
p4677
sS'cronaca'
p4678
S'895'
p4679
sS'sport'
p4680
S'773'
p4681
sS'rubriche'
p4682
S'582'
p4683
sa(dp4684
S'tecnologia'
p4685
S'75'
p4686
sS'servizi'
p4687
S'58'
p4688
sS'scuola'
p4689
S'58'
p4690
sS'scienza'
p4691
S'199'
p4692
sS'persone'
p4693
S'190'
p4694
sS'politica'
p4695
S'220'
p4696
sS'spettacolo'
p4697
S'315'
p4698
sS'economia'
p4699
S'268'
p4700
sS'gallerie'
p4701
S'174'
p4702
sS'salute'
p4703
S'44'
p4704
sS'esteri'
p4705
S'380'
p4706
sS'cronaca'
p4707
S'599'
p4708
sS'sport'
p4709
S'1327'
p4710
sS'rubriche'
p4711
S'513'
p4712
sa(dp4713
S'tecnologia'
p4714
S'83'
p4715
sS'regione'
p4716
S'89'
p4717
sS'scienza'
p4718
S'205'
p4719
sS'persone'
p4720
S'159'
p4721
sS'politica'
p4722
S'207'
p4723
sS'mare'
p4724
S'41'
p4725
sS'spettacolo'
p4726
S'283'
p4727
sS'economia'
p4728
S'362'
p4729
sS'gallerie'
p4730
S'107'
p4731
sS'salute'
p4732
S'41'
p4733
sS'esteri'
p4734
S'516'
p4735
sS'cronaca'
p4736
S'772'
p4737
sS'sport'
p4738
S'840'
p4739
sS'rubriche'
p4740
S'611'
p4741
sa(dp4742
S'tecnologia'
p4743
S'45'
p4744
sS'scuola'
p4745
S'37'
p4746
sS'scienza'
p4747
S'245'
p4748
sS'persone'
p4749
S'161'
p4750
sS'politica'
p4751
S'231'
p4752
sS'mare'
p4753
S'39'
p4754
sS'spettacolo'
p4755
S'322'
p4756
sS'economia'
p4757
S'265'
p4758
sS'gallerie'
p4759
S'63'
p4760
sS'moda'
p4761
S'34'
p4762
sS'esteri'
p4763
S'507'
p4764
sS'cronaca'
p4765
S'767'
p4766
sS'sport'
p4767
S'683'
p4768
sS'rubriche'
p4769
S'489'
p4770
sa(dp4771
S'regione'
p4772
S'33'
p4773
sS'festa'
p4774
S'35'
p4775
sS'scienza'
p4776
S'164'
p4777
sS'persone'
p4778
S'148'
p4779
sS'politica'
p4780
S'112'
p4781
sS'spettacolo'
p4782
S'133'
p4783
sS'economia'
p4784
S'116'
p4785
sS'gallerie'
p4786
S'29'
p4787
sS'motori'
p4788
S'36'
p4789
sS'esteri'
p4790
S'218'
p4791
sS'viaggi'
p4792
S'35'
p4793
sS'cronaca'
p4794
S'328'
p4795
sS'sport'
p4796
S'308'
p4797
sS'rubriche'
p4798
S'252'
p4799
sa(dp4800
S'festa'
p4801
S'49'
p4802
sS'scienza'
p4803
S'85'
p4804
sS'persone'
p4805
S'83'
p4806
sS'media'
p4807
S'22'
p4808
sS'politica'
p4809
S'114'
p4810
sS'spettacolo'
p4811
S'113'
p4812
sS'economia'
p4813
S'112'
p4814
sS'gallerie'
p4815
S'67'
p4816
sS'motori'
p4817
S'21'
p4818
sS'esteri'
p4819
S'196'
p4820
sS'cronaca'
p4821
S'319'
p4822
sS'sport'
p4823
S'356'
p4824
sS'rubriche'
p4825
S'263'
p4826
sS'scuola'
p4827
S'31'
p4828
sa(dp4829
S'tecnologia'
p4830
S'80'
p4831
sS'regione'
p4832
S'51'
p4833
sS'scuola'
p4834
S'61'
p4835
sS'scienza'
p4836
S'127'
p4837
sS'persone'
p4838
S'161'
p4839
sS'politica'
p4840
S'337'
p4841
sS'spettacolo'
p4842
S'384'
p4843
sS'economia'
p4844
S'411'
p4845
sS'gallerie'
p4846
S'158'
p4847
sS'salute'
p4848
S'49'
p4849
sS'esteri'
p4850
S'348'
p4851
sS'cronaca'
p4852
S'1111'
p4853
sS'sport'
p4854
S'683'
p4855
sS'rubriche'
p4856
S'626'
p4857
sa(dp4858
S'regione'
p4859
S'79'
p4860
sS'scienza'
p4861
S'186'
p4862
sS'persone'
p4863
S'224'
p4864
sS'politica'
p4865
S'239'
p4866
sS'spettacolo'
p4867
S'228'
p4868
sS'economia'
p4869
S'339'
p4870
sS'gallerie'
p4871
S'189'
p4872
sS'salute'
p4873
S'80'
p4874
sS'esteri'
p4875
S'307'
p4876
sS'viaggi'
p4877
S'173'
p4878
sS'cronaca'
p4879
S'796'
p4880
sS'sport'
p4881
S'685'
p4882
sS'rubriche'
p4883
S'554'
p4884
sS'scuola'
p4885
S'63'
p4886
sa(dp4887
S'tecnologia'
p4888
S'126'
p4889
sS'scienza'
p4890
S'177'
p4891
sS'persone'
p4892
S'166'
p4893
sS'politica'
p4894
S'163'
p4895
sS'norme'
p4896
S'70'
p4897
sS'spettacolo'
p4898
S'226'
p4899
sS'economia'
p4900
S'440'
p4901
sS'gallerie'
p4902
S'131'
p4903
sS'salute'
p4904
S'63'
p4905
sS'esteri'
p4906
S'441'
p4907
sS'viaggi'
p4908
S'43'
p4909
sS'cronaca'
p4910
S'723'
p4911
sS'sport'
p4912
S'663'
p4913
sS'rubriche'
p4914
S'548'
p4915
sa(dp4916
S'tecnologia'
p4917
S'137'
p4918
sS'scuola'
p4919
S'106'
p4920
sS'scienza'
p4921
S'263'
p4922
sS'persone'
p4923
S'153'
p4924
sS'media'
p4925
S'57'
p4926
sS'politica'
p4927
S'155'
p4928
sS'spettacolo'
p4929
S'338'
p4930
sS'economia'
p4931
S'262'
p4932
sS'gallerie'
p4933
S'154'
p4934
sS'motori'
p4935
S'76'
p4936
sS'esteri'
p4937
S'284'
p4938
sS'cronaca'
p4939
S'849'
p4940
sS'sport'
p4941
S'1779'
p4942
sS'rubriche'
p4943
S'689'
p4944
sa(dp4945
S'tecnologia'
p4946
S'62'
p4947
sS'scuola'
p4948
S'96'
p4949
sS'scienza'
p4950
S'318'
p4951
sS'persone'
p4952
S'190'
p4953
sS'media'
p4954
S'43'
p4955
sS'politica'
p4956
S'117'
p4957
sS'spettacolo'
p4958
S'420'
p4959
sS'economia'
p4960
S'240'
p4961
sS'gallerie'
p4962
S'224'
p4963
sS'motori'
p4964
S'82'
p4965
sS'esteri'
p4966
S'340'
p4967
sS'cronaca'
p4968
S'903'
p4969
sS'sport'
p4970
S'835'
p4971
sS'rubriche'
p4972
S'639'
p4973
sa(dp4974
S'tecnologia'
p4975
S'53'
p4976
sS'scienza'
p4977
S'125'
p4978
sS'persone'
p4979
S'72'
p4980
sS'politica'
p4981
S'72'
p4982
sS'prodotto'
p4983
S'26'
p4984
sS'spettacolo'
p4985
S'197'
p4986
sS'economia'
p4987
S'162'
p4988
sS'gallerie'
p4989
S'84'
p4990
sS'motori'
p4991
S'37'
p4992
sS'esteri'
p4993
S'148'
p4994
sS'riforma'
p4995
S'29'
p4996
sS'cronaca'
p4997
S'506'
p4998
sS'sport'
p4999
S'386'
p5000
sS'rubriche'
p5001
S'316'
p5002
sa(dp5003
S'tecnologia'
p5004
S'52'
p5005
sS'scienza'
p5006
S'123'
p5007
sS'persone'
p5008
S'84'
p5009
sS'media'
p5010
S'26'
p5011
sS'politica'
p5012
S'63'
p5013
sS'spettacolo'
p5014
S'201'
p5015
sS'economia'
p5016
S'120'
p5017
sS'gallerie'
p5018
S'83'
p5019
sS'salute'
p5020
S'24'
p5021
sS'motori'
p5022
S'51'
p5023
sS'esteri'
p5024
S'151'
p5025
sS'cronaca'
p5026
S'425'
p5027
sS'sport'
p5028
S'468'
p5029
sS'rubriche'
p5030
S'263'
p5031
sa(dp5032
S'tecnologia'
p5033
S'125'
p5034
sS'scienza'
p5035
S'211'
p5036
sS'persone'
p5037
S'222'
p5038
sS'politica'
p5039
S'178'
p5040
sS'spettacolo'
p5041
S'396'
p5042
sS'economia'
p5043
S'444'
p5044
sS'gallerie'
p5045
S'203'
p5046
sS'impresa'
p5047
S'56'
p5048
sS'motori'
p5049
S'47'
p5050
sS'esteri'
p5051
S'430'
p5052
sS'cronaca'
p5053
S'1127'
p5054
sS'sport'
p5055
S'744'
p5056
sS'rubriche'
p5057
S'626'
p5058
sS'salute'
p5059
S'47'
p5060
sa(dp5061
S'tecnologia'
p5062
S'137'
p5063
sS'scuola'
p5064
S'53'
p5065
sS'scienza'
p5066
S'151'
p5067
sS'persone'
p5068
S'207'
p5069
sS'politica'
p5070
S'104'
p5071
sS'norme'
p5072
S'67'
p5073
sS'spettacolo'
p5074
S'332'
p5075
sS'economia'
p5076
S'540'
p5077
sS'gallerie'
p5078
S'113'
p5079
sS'salute'
p5080
S'66'
p5081
sS'esteri'
p5082
S'418'
p5083
sS'cronaca'
p5084
S'1095'
p5085
sS'sport'
p5086
S'822'
p5087
sS'rubriche'
p5088
S'526'
p5089
sa(dp5090
S'tecnologia'
p5091
S'98'
p5092
sS'scuola'
p5093
S'37'
p5094
sS'scienza'
p5095
S'182'
p5096
sS'persone'
p5097
S'162'
p5098
sS'politica'
p5099
S'158'
p5100
sS'spettacolo'
p5101
S'301'
p5102
sS'economia'
p5103
S'386'
p5104
sS'gallerie'
p5105
S'100'
p5106
sS'salute'
p5107
S'43'
p5108
sS'motori'
p5109
S'102'
p5110
sS'esteri'
p5111
S'247'
p5112
sS'cronaca'
p5113
S'874'
p5114
sS'sport'
p5115
S'614'
p5116
sS'rubriche'
p5117
S'577'
p5118
sa(dp5119
S'tecnologia'
p5120
S'131'
p5121
sS'regione'
p5122
S'56'
p5123
sS'scienza'
p5124
S'231'
p5125
sS'persone'
p5126
S'96'
p5127
sS'politica'
p5128
S'249'
p5129
sS'spettacolo'
p5130
S'475'
p5131
sS'economia'
p5132
S'320'
p5133
sS'gallerie'
p5134
S'225'
p5135
sS'motori'
p5136
S'97'
p5137
sS'esteri'
p5138
S'369'
p5139
sS'cronaca'
p5140
S'1062'
p5141
sS'sport'
p5142
S'1155'
p5143
sS'rubriche'
p5144
S'651'
p5145
sS'scuola'
p5146
S'40'
p5147
sa(dp5148
S'tecnologia'
p5149
S'73'
p5150
sS'regione'
p5151
S'38'
p5152
sS'scienza'
p5153
S'216'
p5154
sS'persone'
p5155
S'146'
p5156
sS'politica'
p5157
S'153'
p5158
sS'spettacolo'
p5159
S'352'
p5160
sS'economia'
p5161
S'308'
p5162
sS'gallerie'
p5163
S'137'
p5164
sS'motori'
p5165
S'64'
p5166
sS'esteri'
p5167
S'428'
p5168
sS'viaggi'
p5169
S'53'
p5170
sS'cronaca'
p5171
S'798'
p5172
sS'sport'
p5173
S'819'
p5174
sS'rubriche'
p5175
S'618'
p5176
sa(dp5177
S'tecnologia'
p5178
S'73'
p5179
sS'scienza'
p5180
S'84'
p5181
sS'persone'
p5182
S'53'
p5183
sS'politica'
p5184
S'63'
p5185
sS'spettacolo'
p5186
S'244'
p5187
sS'economia'
p5188
S'143'
p5189
sS'gallerie'
p5190
S'51'
p5191
sS'salute'
p5192
S'41'
p5193
sS'motori'
p5194
S'32'
p5195
sS'esteri'
p5196
S'316'
p5197
sS'viaggi'
p5198
S'44'
p5199
sS'cronaca'
p5200
S'424'
p5201
sS'sport'
p5202
S'432'
p5203
sS'rubriche'
p5204
S'278'
p5205
sa(dp5206
S'tecnologia'
p5207
S'99'
p5208
sS'scienza'
p5209
S'84'
p5210
sS'persone'
p5211
S'63'
p5212
sS'media'
p5213
S'26'
p5214
sS'politica'
p5215
S'101'
p5216
sS'spettacolo'
p5217
S'237'
p5218
sS'economia'
p5219
S'154'
p5220
sS'gallerie'
p5221
S'98'
p5222
sS'motori'
p5223
S'47'
p5224
sS'moda'
p5225
S'18'
p5226
sS'esteri'
p5227
S'232'
p5228
sS'cronaca'
p5229
S'475'
p5230
sS'sport'
p5231
S'631'
p5232
sS'rubriche'
p5233
S'313'
p5234
sa(dp5235
S'tecnologia'
p5236
S'121'
p5237
sS'scienza'
p5238
S'125'
p5239
sS'persone'
p5240
S'121'
p5241
sS'media'
p5242
S'63'
p5243
sS'politica'
p5244
S'150'
p5245
sS'spettacolo'
p5246
S'380'
p5247
sS'economia'
p5248
S'477'
p5249
sS'gallerie'
p5250
S'218'
p5251
sS'salute'
p5252
S'57'
p5253
sS'motori'
p5254
S'132'
p5255
sS'esteri'
p5256
S'366'
p5257
sS'cronaca'
p5258
S'1065'
p5259
sS'sport'
p5260
S'951'
p5261
sS'rubriche'
p5262
S'566'
p5263
sa(dp5264
S'tecnologia'
p5265
S'125'
p5266
sS'regione'
p5267
S'64'
p5268
sS'scienza'
p5269
S'165'
p5270
sS'persone'
p5271
S'110'
p5272
sS'politica'
p5273
S'168'
p5274
sS'norme'
p5275
S'43'
p5276
sS'spettacolo'
p5277
S'248'
p5278
sS'economia'
p5279
S'388'
p5280
sS'gallerie'
p5281
S'168'
p5282
sS'motori'
p5283
S'62'
p5284
sS'esteri'
p5285
S'323'
p5286
sS'cronaca'
p5287
S'1057'
p5288
sS'sport'
p5289
S'786'
p5290
sS'rubriche'
p5291
S'477'
p5292
sa(dp5293
S'tecnologia'
p5294
S'133'
p5295
sS'regione'
p5296
S'66'
p5297
sS'scienza'
p5298
S'240'
p5299
sS'persone'
p5300
S'286'
p5301
sS'politica'
p5302
S'163'
p5303
sS'spettacolo'
p5304
S'211'
p5305
sS'economia'
p5306
S'356'
p5307
sS'gallerie'
p5308
S'104'
p5309
sS'salute'
p5310
S'113'
p5311
sS'motori'
p5312
S'40'
p5313
sS'esteri'
p5314
S'256'
p5315
sS'cronaca'
p5316
S'822'
p5317
sS'sport'
p5318
S'800'
p5319
sS'rubriche'
p5320
S'593'
p5321
sa(dp5322
S'tecnologia'
p5323
S'145'
p5324
sS'regione'
p5325
S'63'
p5326
sS'scienza'
p5327
S'259'
p5328
sS'persone'
p5329
S'162'
p5330
sS'politica'
p5331
S'124'
p5332
sS'spettacolo'
p5333
S'178'
p5334
sS'economia'
p5335
S'304'
p5336
sS'gallerie'
p5337
S'146'
p5338
sS'salute'
p5339
S'105'
p5340
sS'motori'
p5341
S'62'
p5342
sS'esteri'
p5343
S'270'
p5344
sS'cronaca'
p5345
S'897'
p5346
sS'sport'
p5347
S'845'
p5348
sS'rubriche'
p5349
S'664'
p5350
sa(dp5351
S'tecnologia'
p5352
S'57'
p5353
sS'scuola'
p5354
S'55'
p5355
sS'scienza'
p5356
S'221'
p5357
sS'persone'
p5358
S'134'
p5359
sS'politica'
p5360
S'183'
p5361
sS'spettacolo'
p5362
S'213'
p5363
sS'economia'
p5364
S'287'
p5365
sS'gallerie'
p5366
S'156'
p5367
sS'salute'
p5368
S'71'
p5369
sS'motori'
p5370
S'67'
p5371
sS'esteri'
p5372
S'261'
p5373
sS'cronaca'
p5374
S'703'
p5375
sS'sport'
p5376
S'716'
p5377
sS'rubriche'
p5378
S'588'
p5379
sa(dp5380
S'tecnologia'
p5381
S'48'
p5382
sS'scienza'
p5383
S'91'
p5384
sS'persone'
p5385
S'55'
p5386
sS'media'
p5387
S'39'
p5388
sS'politica'
p5389
S'84'
p5390
sS'spettacolo'
p5391
S'101'
p5392
sS'economia'
p5393
S'161'
p5394
sS'gallerie'
p5395
S'55'
p5396
sS'salute'
p5397
S'17'
p5398
sS'motori'
p5399
S'48'
p5400
sS'esteri'
p5401
S'146'
p5402
sS'cronaca'
p5403
S'289'
p5404
sS'sport'
p5405
S'333'
p5406
sS'rubriche'
p5407
S'234'
p5408
sa(dp5409
S'tecnologia'
p5410
S'53'
p5411
sS'scuola'
p5412
S'14'
p5413
sS'scienza'
p5414
S'79'
p5415
sS'persone'
p5416
S'57'
p5417
sS'media'
p5418
S'33'
p5419
sS'politica'
p5420
S'137'
p5421
sS'spettacolo'
p5422
S'110'
p5423
sS'economia'
p5424
S'96'
p5425
sS'gallerie'
p5426
S'40'
p5427
sS'motori'
p5428
S'22'
p5429
sS'esteri'
p5430
S'208'
p5431
sS'cronaca'
p5432
S'339'
p5433
sS'sport'
p5434
S'321'
p5435
sS'rubriche'
p5436
S'280'
p5437
sasS'4'
p5438
(lp5439
(dp5440
a(dp5441
a(dp5442
a(dp5443
a(dp5444
a(dp5445
a(dp5446
a(dp5447
a(dp5448
S'tecnologia'
p5449
S'16'
p5450
sS'storia'
p5451
g3585
sS'regione'
p5452
g3548
sS'scienza'
p5453
S'13'
p5454
sS'persone'
p5455
S'11'
p5456
sS'politica'
p5457
g3595
sS'spettacolo'
p5458
S'10'
p5459
sS'economia'
p5460
S'41'
p5461
sS'gallerie'
p5462
g3581
sS'motori'
p5463
g3548
sS'esteri'
p5464
g5438
sS'cronaca'
p5465
S'36'
p5466
sS'sport'
p5467
S'18'
p5468
sS'rubriche'
p5469
S'19'
p5470
sa(dp5471
S'tecnologia'
p5472
g3581
sS'storia'
p5473
g3585
sS'regione'
p5474
g3548
sS'scienza'
p5475
g5438
sS'persone'
p5476
S'51'
p5477
sS'media'
p5478
g3585
sS'politica'
p5479
g3595
sS'spettacolo'
p5480
S'10'
p5481
sS'economia'
p5482
S'14'
p5483
sS'esteri'
p5484
S'16'
p5485
sS'viaggi'
p5486
g3585
sS'cronaca'
p5487
S'59'
p5488
sS'sport'
p5489
S'22'
p5490
sS'rubriche'
p5491
S'33'
p5492
sa(dp5493
a(dp5494
S'tecnologia'
p5495
g3548
sS'scuola'
p5496
g3585
sS'scienza'
p5497
S'10'
p5498
sS'persone'
p5499
g3548
sS'politica'
p5500
g3548
sS'spettacolo'
p5501
S'13'
p5502
sS'economia'
p5503
S'9'
p5504
sS'gallerie'
p5505
g3595
sS'motori'
p5506
g5438
sS'esteri'
p5507
S'20'
p5508
sS'cronaca'
p5509
S'57'
p5510
sS'sport'
p5511
S'42'
p5512
sS'rubriche'
p5513
S'25'
p5514
sS'aereo'
p5515
g3585
sa(dp5516
S'tecnologia'
p5517
S'123'
p5518
sS'scuola'
p5519
S'58'
p5520
sS'scienza'
p5521
S'190'
p5522
sS'persone'
p5523
S'212'
p5524
sS'politica'
p5525
S'108'
p5526
sS'norme'
p5527
S'42'
p5528
sS'spettacolo'
p5529
S'431'
p5530
sS'economia'
p5531
S'351'
p5532
sS'gallerie'
p5533
S'178'
p5534
sS'motori'
p5535
S'55'
p5536
sS'esteri'
p5537
S'490'
p5538
sS'cronaca'
p5539
S'1047'
p5540
sS'sport'
p5541
S'573'
p5542
sS'rubriche'
p5543
S'488'
p5544
sa(dp5545
S'tecnologia'
p5546
S'135'
p5547
sS'scienza'
p5548
S'263'
p5549
sS'persone'
p5550
S'250'
p5551
sS'politica'
p5552
S'111'
p5553
sS'spettacolo'
p5554
S'312'
p5555
sS'economia'
p5556
S'405'
p5557
sS'gallerie'
p5558
S'192'
p5559
sS'testata'
p5560
S'40'
p5561
sS'moda'
p5562
S'35'
p5563
sS'esteri'
p5564
S'239'
p5565
sS'viaggi'
p5566
S'76'
p5567
sS'cronaca'
p5568
S'838'
p5569
sS'sport'
p5570
S'478'
p5571
sS'rubriche'
p5572
S'570'
p5573
sa(dp5574
S'tecnologia'
p5575
S'93'
p5576
sS'scienza'
p5577
S'253'
p5578
sS'persone'
p5579
S'179'
p5580
sS'politica'
p5581
S'215'
p5582
sS'spettacolo'
p5583
S'277'
p5584
sS'economia'
p5585
S'569'
p5586
sS'gallerie'
p5587
S'97'
p5588
sS'salute'
p5589
S'43'
p5590
sS'motori'
p5591
S'46'
p5592
sS'social'
p5593
S'57'
p5594
sS'esteri'
p5595
S'337'
p5596
sS'cronaca'
p5597
S'695'
p5598
sS'sport'
p5599
S'647'
p5600
sS'rubriche'
p5601
S'578'
p5602
sa(dp5603
S'tecnologia'
p5604
S'73'
p5605
sS'regione'
p5606
S'34'
p5607
sS'scienza'
p5608
S'214'
p5609
sS'persone'
p5610
S'235'
p5611
sS'politica'
p5612
S'187'
p5613
sS'norme'
p5614
S'47'
p5615
sS'spettacolo'
p5616
S'226'
p5617
sS'economia'
p5618
S'367'
p5619
sS'gallerie'
p5620
S'109'
p5621
sS'motori'
p5622
S'78'
p5623
sS'esteri'
p5624
S'356'
p5625
sS'cronaca'
p5626
S'771'
p5627
sS'sport'
p5628
S'450'
p5629
sS'rubriche'
p5630
S'649'
p5631
sa(dp5632
S'tecnologia'
p5633
S'108'
p5634
sS'scienza'
p5635
S'263'
p5636
sS'persone'
p5637
S'223'
p5638
sS'politica'
p5639
S'123'
p5640
sS'spettacolo'
p5641
S'274'
p5642
sS'economia'
p5643
S'419'
p5644
sS'gallerie'
p5645
S'89'
p5646
sS'impresa'
p5647
S'50'
p5648
sS'motori'
p5649
S'35'
p5650
sS'esteri'
p5651
S'239'
p5652
sS'cronaca'
p5653
S'892'
p5654
sS'sport'
p5655
S'532'
p5656
sS'rubriche'
p5657
S'492'
p5658
sS'salute'
p5659
S'37'
p5660
sa(dp5661
S'tecnologia'
p5662
S'93'
p5663
sS'scuola'
p5664
S'23'
p5665
sS'scienza'
p5666
S'109'
p5667
sS'persone'
p5668
S'146'
p5669
sS'politica'
p5670
S'84'
p5671
sS'spettacolo'
p5672
S'248'
p5673
sS'economia'
p5674
S'87'
p5675
sS'gallerie'
p5676
S'125'
p5677
sS'salute'
p5678
S'29'
p5679
sS'motori'
p5680
S'36'
p5681
sS'esteri'
p5682
S'93'
p5683
sS'cronaca'
p5684
S'614'
p5685
sS'sport'
p5686
S'363'
p5687
sS'rubriche'
p5688
S'218'
p5689
sa(dp5690
S'tecnologia'
p5691
S'31'
p5692
sS'migliori'
p5693
S'22'
p5694
sS'scienza'
p5695
S'102'
p5696
sS'persone'
p5697
S'80'
p5698
sS'politica'
p5699
S'143'
p5700
sS'spettacolo'
p5701
S'254'
p5702
sS'economia'
p5703
S'93'
p5704
sS'gallerie'
p5705
S'52'
p5706
sS'salute'
p5707
S'21'
p5708
sS'motori'
p5709
S'75'
p5710
sS'esteri'
p5711
S'100'
p5712
sS'cronaca'
p5713
S'601'
p5714
sS'sport'
p5715
S'537'
p5716
sS'rubriche'
p5717
S'306'
p5718
sa(dp5719
S'tecnologia'
p5720
S'84'
p5721
sS'scienza'
p5722
S'107'
p5723
sS'persone'
p5724
S'133'
p5725
sS'politica'
p5726
S'180'
p5727
sS'spettacolo'
p5728
S'356'
p5729
sS'economia'
p5730
S'246'
p5731
sS'gallerie'
p5732
S'181'
p5733
sS'impresa'
p5734
S'38'
p5735
sS'motori'
p5736
S'113'
p5737
sS'moda'
p5738
S'55'
p5739
sS'esteri'
p5740
S'346'
p5741
sS'cronaca'
p5742
S'1000'
p5743
sS'sport'
p5744
S'868'
p5745
sS'rubriche'
p5746
S'604'
p5747
sa(dp5748
S'tecnologia'
p5749
S'117'
p5750
sS'scienza'
p5751
S'142'
p5752
sS'persone'
p5753
S'175'
p5754
sS'politica'
p5755
S'139'
p5756
sS'spettacolo'
p5757
S'332'
p5758
sS'economia'
p5759
S'391'
p5760
sS'gallerie'
p5761
S'158'
p5762
sS'salute'
p5763
S'57'
p5764
sS'motori'
p5765
S'207'
p5766
sS'moda'
p5767
S'70'
p5768
sS'esteri'
p5769
S'363'
p5770
sS'cronaca'
p5771
S'804'
p5772
sS'sport'
p5773
S'422'
p5774
sS'rubriche'
p5775
S'549'
p5776
sa(dp5777
S'canali'
p5778
S'57'
p5779
sS'tecnologia'
p5780
S'110'
p5781
sS'scienza'
p5782
S'147'
p5783
sS'persone'
p5784
S'168'
p5785
sS'politica'
p5786
S'184'
p5787
sS'spettacolo'
p5788
S'319'
p5789
sS'economia'
p5790
S'361'
p5791
sS'gallerie'
p5792
S'175'
p5793
sS'motori'
p5794
S'65'
p5795
sS'moda'
p5796
S'47'
p5797
sS'esteri'
p5798
S'262'
p5799
sS'cronaca'
p5800
S'861'
p5801
sS'sport'
p5802
S'535'
p5803
sS'rubriche'
p5804
S'572'
p5805
sa(dp5806
S'tecnologia'
p5807
S'104'
p5808
sS'scienza'
p5809
S'94'
p5810
sS'persone'
p5811
S'145'
p5812
sS'politica'
p5813
S'130'
p5814
sS'spettacolo'
p5815
S'305'
p5816
sS'economia'
p5817
S'326'
p5818
sS'gallerie'
p5819
S'102'
p5820
sS'salute'
p5821
S'65'
p5822
sS'motori'
p5823
S'87'
p5824
sS'esteri'
p5825
S'317'
p5826
sS'viaggi'
p5827
S'48'
p5828
sS'cronaca'
p5829
S'915'
p5830
sS'sport'
p5831
S'754'
p5832
sS'rubriche'
p5833
S'568'
p5834
sa(dp5835
S'tecnologia'
p5836
S'52'
p5837
sS'scienza'
p5838
S'162'
p5839
sS'persone'
p5840
S'87'
p5841
sS'politica'
p5842
S'85'
p5843
sS'spettacolo'
p5844
S'315'
p5845
sS'economia'
p5846
S'362'
p5847
sS'gallerie'
p5848
S'146'
p5849
sS'salute'
p5850
S'41'
p5851
sS'motori'
p5852
S'48'
p5853
sS'esteri'
p5854
S'275'
p5855
sS'viaggi'
p5856
S'32'
p5857
sS'cronaca'
p5858
S'841'
p5859
sS'sport'
p5860
S'744'
p5861
sS'rubriche'
p5862
S'644'
p5863
sa(dp5864
S'tecnologia'
p5865
S'40'
p5866
sS'regione'
p5867
S'19'
p5868
sS'scienza'
p5869
S'106'
p5870
sS'persone'
p5871
S'76'
p5872
sS'politica'
p5873
S'64'
p5874
sS'spettacolo'
p5875
S'255'
p5876
sS'economia'
p5877
S'146'
p5878
sS'gallerie'
p5879
S'31'
p5880
sS'salute'
p5881
S'16'
p5882
sS'motori'
p5883
S'34'
p5884
sS'esteri'
p5885
S'287'
p5886
sS'cronaca'
p5887
S'428'
p5888
sS'sport'
p5889
S'276'
p5890
sS'rubriche'
p5891
S'310'
p5892
sa(dp5893
S'tecnologia'
p5894
S'54'
p5895
sS'scienza'
p5896
S'62'
p5897
sS'persone'
p5898
S'129'
p5899
sS'media'
p5900
S'33'
p5901
sS'politica'
p5902
S'77'
p5903
sS'spettacolo'
p5904
S'209'
p5905
sS'economia'
p5906
S'185'
p5907
sS'gallerie'
p5908
S'67'
p5909
sS'giochi'
p5910
S'20'
p5911
sS'motori'
p5912
S'22'
p5913
sS'esteri'
p5914
S'307'
p5915
sS'cronaca'
p5916
S'400'
p5917
sS'sport'
p5918
S'867'
p5919
sS'rubriche'
p5920
S'326'
p5921
sa(dp5922
S'tecnologia'
p5923
S'142'
p5924
sS'scienza'
p5925
S'181'
p5926
sS'persone'
p5927
S'133'
p5928
sS'media'
p5929
S'93'
p5930
sS'politica'
p5931
S'134'
p5932
sS'mare'
p5933
S'53'
p5934
sS'spettacolo'
p5935
S'388'
p5936
sS'economia'
p5937
S'289'
p5938
sS'gallerie'
p5939
S'237'
p5940
sS'motori'
p5941
S'49'
p5942
sS'esteri'
p5943
S'412'
p5944
sS'cronaca'
p5945
S'878'
p5946
sS'sport'
p5947
S'1220'
p5948
sS'rubriche'
p5949
S'555'
p5950
sa(dp5951
S'tecnologia'
p5952
S'106'
p5953
sS'scuola'
p5954
S'40'
p5955
sS'scienza'
p5956
S'180'
p5957
sS'persone'
p5958
S'160'
p5959
sS'media'
p5960
S'34'
p5961
sS'politica'
p5962
S'244'
p5963
sS'spettacolo'
p5964
S'254'
p5965
sS'economia'
p5966
S'347'
p5967
sS'gallerie'
p5968
S'214'
p5969
sS'motori'
p5970
S'64'
p5971
sS'esteri'
p5972
S'485'
p5973
sS'cronaca'
p5974
S'618'
p5975
sS'sport'
p5976
S'657'
p5977
sS'rubriche'
p5978
S'471'
p5979
sa(dp5980
S'tecnologia'
p5981
S'171'
p5982
sS'migliori'
p5983
S'55'
p5984
sS'scienza'
p5985
S'238'
p5986
sS'persone'
p5987
S'323'
p5988
sS'politica'
p5989
S'259'
p5990
sS'spettacolo'
p5991
S'291'
p5992
sS'economia'
p5993
S'281'
p5994
sS'gallerie'
p5995
S'113'
p5996
sS'impresa'
p5997
S'85'
p5998
sS'motori'
p5999
S'47'
p6000
sS'esteri'
p6001
S'352'
p6002
sS'cronaca'
p6003
S'540'
p6004
sS'sport'
p6005
S'579'
p6006
sS'rubriche'
p6007
S'658'
p6008
sa(dp6009
S'tecnologia'
p6010
S'107'
p6011
sS'regione'
p6012
S'51'
p6013
sS'scienza'
p6014
S'233'
p6015
sS'persone'
p6016
S'193'
p6017
sS'media'
p6018
S'49'
p6019
sS'politica'
p6020
S'201'
p6021
sS'spettacolo'
p6022
S'157'
p6023
sS'economia'
p6024
S'319'
p6025
sS'gallerie'
p6026
S'149'
p6027
sS'salute'
p6028
S'60'
p6029
sS'esteri'
p6030
S'265'
p6031
sS'cronaca'
p6032
S'691'
p6033
sS'sport'
p6034
S'633'
p6035
sS'rubriche'
p6036
S'567'
p6037
sasg3581
(lp6038
(dp6039
S'tecnologia'
p6040
S'94'
p6041
sS'regione'
p6042
S'61'
p6043
sS'scienza'
p6044
S'160'
p6045
sS'persone'
p6046
S'88'
p6047
sS'media'
p6048
S'40'
p6049
sS'politica'
p6050
S'95'
p6051
sS'spettacolo'
p6052
S'243'
p6053
sS'economia'
p6054
S'544'
p6055
sS'gallerie'
p6056
S'114'
p6057
sS'esteri'
p6058
S'284'
p6059
sS'viaggi'
p6060
S'41'
p6061
sS'cronaca'
p6062
S'641'
p6063
sS'sport'
p6064
S'513'
p6065
sS'rubriche'
p6066
S'360'
p6067
sa(dp6068
S'testata'
p6069
g2647
sa(dp6070
a(dp6071
a(dp6072
a(dp6073
a(dp6074
a(dp6075
a(dp6076
a(dp6077
S'tecnologia'
p6078
S'113'
p6079
sS'regione'
p6080
S'42'
p6081
sS'scuola'
p6082
S'44'
p6083
sS'scienza'
p6084
S'132'
p6085
sS'persone'
p6086
S'160'
p6087
sS'politica'
p6088
S'113'
p6089
sS'spettacolo'
p6090
S'231'
p6091
sS'economia'
p6092
S'549'
p6093
sS'gallerie'
p6094
S'146'
p6095
sS'esteri'
p6096
S'197'
p6097
sS'viaggi'
p6098
S'118'
p6099
sS'cronaca'
p6100
S'676'
p6101
sS'sport'
p6102
S'502'
p6103
sS'rubriche'
p6104
S'384'
p6105
sa(dp6106
S'tecnologia'
p6107
S'46'
p6108
sS'scuola'
p6109
S'18'
p6110
sS'scienza'
p6111
S'31'
p6112
sS'persone'
p6113
S'39'
p6114
sS'media'
p6115
S'17'
p6116
sS'politica'
p6117
S'43'
p6118
sS'spettacolo'
p6119
S'133'
p6120
sS'economia'
p6121
S'150'
p6122
sS'gallerie'
p6123
S'25'
p6124
sS'motori'
p6125
S'22'
p6126
sS'esteri'
p6127
S'108'
p6128
sS'cronaca'
p6129
S'223'
p6130
sS'sport'
p6131
S'308'
p6132
sS'rubriche'
p6133
S'183'
p6134
sa(dp6135
S'storia'
p6136
g2647
sS'aereo'
p6137
g2647
sS'spettacolo'
p6138
g3595
sS'motori'
p6139
g3585
sS'cronaca'
p6140
g3585
sS'sport'
p6141
g2647
sS'rubriche'
p6142
g3585
sa(dp6143
a(dp6144
a(dp6145
a(dp6146
a(dp6147
a(dp6148
a(dp6149
a(dp6150
S'tecnologia'
p6151
S'75'
p6152
sS'politica'
p6153
S'86'
p6154
sS'scienza'
p6155
S'164'
p6156
sS'moda'
p6157
S'126'
p6158
sS'media'
p6159
S'56'
p6160
sS'persone'
p6161
S'113'
p6162
sS'spettacolo'
p6163
S'206'
p6164
sS'economia'
p6165
S'326'
p6166
sS'gallerie'
p6167
S'78'
p6168
sS'esteri'
p6169
S'233'
p6170
sS'viaggi'
p6171
S'68'
p6172
sS'cronaca'
p6173
S'871'
p6174
sS'sport'
p6175
S'664'
p6176
sS'rubriche'
p6177
S'348'
p6178
sa(dp6179
S'tecnologia'
p6180
S'64'
p6181
sS'scienza'
p6182
S'173'
p6183
sS'persone'
p6184
S'158'
p6185
sS'media'
p6186
S'44'
p6187
sS'politica'
p6188
S'93'
p6189
sS'spettacolo'
p6190
S'191'
p6191
sS'economia'
p6192
S'309'
p6193
sS'gallerie'
p6194
S'113'
p6195
sS'salute'
p6196
S'36'
p6197
sS'esteri'
p6198
S'195'
p6199
sS'viaggi'
p6200
S'81'
p6201
sS'cronaca'
p6202
S'766'
p6203
sS'sport'
p6204
S'786'
p6205
sS'rubriche'
p6206
S'402'
p6207
sa(dp6208
S'cronaca'
p6209
g3595
sS'politica'
p6210
g2647
sS'piazza'
p6211
g2647
sS'rubriche'
p6212
S'11'
p6213
sS'persone'
p6214
g2647
sa(dp6215
a(dp6216
a(dp6217
a(dp6218
a(dp6219
a(dp6220
a(dp6221
a(dp6222
a(dp6223
S'canali'
p6224
S'38'
p6225
sS'tecnologia'
p6226
S'91'
p6227
sS'scienza'
p6228
S'137'
p6229
sS'persone'
p6230
S'114'
p6231
sS'media'
p6232
S'28'
p6233
sS'politica'
p6234
S'105'
p6235
sS'spettacolo'
p6236
S'177'
p6237
sS'economia'
p6238
S'192'
p6239
sS'gallerie'
p6240
S'91'
p6241
sS'motori'
p6242
S'30'
p6243
sS'esteri'
p6244
S'155'
p6245
sS'cronaca'
p6246
S'417'
p6247
sS'sport'
p6248
S'460'
p6249
sS'rubriche'
p6250
S'291'
p6251
sasg943
(lp6252
(dp6253
S'tecnologia'
p6254
S'81'
p6255
sS'scienza'
p6256
S'81'
p6257
sS'persone'
p6258
S'73'
p6259
sS'media'
p6260
S'34'
p6261
sS'politica'
p6262
S'433'
p6263
sS'spettacolo'
p6264
S'133'
p6265
sS'economia'
p6266
S'152'
p6267
sS'gallerie'
p6268
S'83'
p6269
sS'motori'
p6270
S'51'
p6271
sS'moda'
p6272
S'35'
p6273
sS'esteri'
p6274
S'164'
p6275
sS'cronaca'
p6276
S'469'
p6277
sS'sport'
p6278
S'492'
p6279
sS'rubriche'
p6280
S'540'
p6281
sa(dp6282
S'cronaca'
p6283
g5438
sS'sport'
p6284
g2647
sa(dp6285
a(dp6286
a(dp6287
a(dp6288
a(dp6289
a(dp6290
a(dp6291
a(dp6292
a(dp6293
a(dp6294
a(dp6295
a(dp6296
a(dp6297
S'tecnologia'
p6298
S'114'
p6299
sS'scienza'
p6300
S'310'
p6301
sS'persone'
p6302
S'296'
p6303
sS'media'
p6304
S'496'
p6305
sS'politica'
p6306
S'438'
p6307
sS'spettacolo'
p6308
S'304'
p6309
sS'economia'
p6310
S'843'
p6311
sS'gallerie'
p6312
S'306'
p6313
sS'impresa'
p6314
S'72'
p6315
sS'motori'
p6316
S'126'
p6317
sS'esteri'
p6318
S'642'
p6319
sS'cronaca'
p6320
S'1812'
p6321
sS'sport'
p6322
S'927'
p6323
sS'rubriche'
p6324
S'1078'
p6325
sa(dp6326
S'tecnologia'
p6327
g3585
sS'prodotto'
p6328
g3585
sS'spettacolo'
p6329
S'22'
p6330
sS'economia'
p6331
g3585
sS'gallerie'
p6332
g3585
sS'cronaca'
p6333
g3585
sa(dp6334
a(dp6335
a(dp6336
a(dp6337
a(dp6338
a(dp6339
a(dp6340
a(dp6341
a(dp6342
a(dp6343
a(dp6344
a(dp6345
a(dp6346
a(dp6347
S'tecnologia'
p6348
S'74'
p6349
sS'regione'
p6350
S'45'
p6351
sS'scienza'
p6352
S'202'
p6353
sS'persone'
p6354
S'111'
p6355
sS'politica'
p6356
S'59'
p6357
sS'spettacolo'
p6358
S'175'
p6359
sS'economia'
p6360
S'632'
p6361
sS'gallerie'
p6362
S'169'
p6363
sS'salute'
p6364
S'42'
p6365
sS'motori'
p6366
S'107'
p6367
sS'esteri'
p6368
S'328'
p6369
sS'cronaca'
p6370
S'635'
p6371
sS'sport'
p6372
S'492'
p6373
sS'rubriche'
p6374
S'343'
p6375
sasg5504
(lp6376
(dp6377
a(dp6378
S'tecnologia'
p6379
g3581
sS'regione'
p6380
g3548
sS'scuola'
p6381
g3595
sS'scienza'
p6382
S'11'
p6383
sS'persone'
p6384
S'10'
p6385
sS'politica'
p6386
g941
sS'spettacolo'
p6387
S'18'
p6388
sS'economia'
p6389
S'20'
p6390
sS'gallerie'
p6391
S'10'
p6392
sS'salute'
p6393
g3585
sS'esteri'
p6394
S'17'
p6395
sS'cronaca'
p6396
S'23'
p6397
sS'sport'
p6398
S'33'
p6399
sS'rubriche'
p6400
S'31'
p6401
sa(dp6402
S'tecnologia'
p6403
S'58'
p6404
sS'scienza'
p6405
S'244'
p6406
sS'persone'
p6407
S'132'
p6408
sS'media'
p6409
S'99'
p6410
sS'politica'
p6411
S'115'
p6412
sS'spettacolo'
p6413
S'268'
p6414
sS'economia'
p6415
S'235'
p6416
sS'gallerie'
p6417
S'140'
p6418
sS'salute'
p6419
S'57'
p6420
sS'motori'
p6421
S'91'
p6422
sS'esteri'
p6423
S'328'
p6424
sS'cronaca'
p6425
S'661'
p6426
sS'sport'
p6427
S'614'
p6428
sS'rubriche'
p6429
S'335'
p6430
sa(dp6431
S'tecnologia'
p6432
S'147'
p6433
sS'scienza'
p6434
S'151'
p6435
sS'persone'
p6436
S'92'
p6437
sS'politica'
p6438
S'63'
p6439
sS'spettacolo'
p6440
S'267'
p6441
sS'economia'
p6442
S'286'
p6443
sS'gallerie'
p6444
S'124'
p6445
sS'motori'
p6446
S'74'
p6447
sS'moda'
p6448
S'33'
p6449
sS'esteri'
p6450
S'339'
p6451
sS'cronaca'
p6452
S'552'
p6453
sS'sport'
p6454
S'538'
p6455
sS'rubriche'
p6456
S'363'
p6457
sS'social'
p6458
S'29'
p6459
sa(dp6460
S'tecnologia'
p6461
S'36'
p6462
sS'scienza'
p6463
S'107'
p6464
sS'persone'
p6465
S'39'
p6466
sS'politica'
p6467
S'40'
p6468
sS'spettacolo'
p6469
S'231'
p6470
sS'economia'
p6471
S'103'
p6472
sS'gallerie'
p6473
S'51'
p6474
sS'musica'
p6475
S'12'
p6476
sS'salute'
p6477
S'21'
p6478
sS'motori'
p6479
S'14'
p6480
sS'esteri'
p6481
S'116'
p6482
sS'cronaca'
p6483
S'207'
p6484
sS'sport'
p6485
S'261'
p6486
sS'rubriche'
p6487
S'225'
p6488
sa(dp6489
S'tecnologia'
p6490
S'63'
p6491
sS'scienza'
p6492
S'60'
p6493
sS'persone'
p6494
S'44'
p6495
sS'politica'
p6496
S'58'
p6497
sS'spettacolo'
p6498
S'274'
p6499
sS'economia'
p6500
S'57'
p6501
sS'gallerie'
p6502
S'94'
p6503
sS'salute'
p6504
S'41'
p6505
sS'motori'
p6506
S'38'
p6507
sS'esteri'
p6508
S'127'
p6509
sS'viaggi'
p6510
S'51'
p6511
sS'cronaca'
p6512
S'216'
p6513
sS'sport'
p6514
S'319'
p6515
sS'rubriche'
p6516
S'224'
p6517
sa(dp6518
S'tecnologia'
p6519
S'67'
p6520
sS'scienza'
p6521
S'104'
p6522
sS'persone'
p6523
S'81'
p6524
sS'media'
p6525
S'137'
p6526
sS'politica'
p6527
S'95'
p6528
sS'spettacolo'
p6529
S'266'
p6530
sS'economia'
p6531
S'205'
p6532
sS'gallerie'
p6533
S'196'
p6534
sS'salute'
p6535
S'70'
p6536
sS'esteri'
p6537
S'439'
p6538
sS'viaggi'
p6539
S'245'
p6540
sS'cronaca'
p6541
S'701'
p6542
sS'sport'
p6543
S'791'
p6544
sS'rubriche'
p6545
S'552'
p6546
sa(dp6547
S'tecnologia'
p6548
S'98'
p6549
sS'scuola'
p6550
S'48'
p6551
sS'scienza'
p6552
S'131'
p6553
sS'persone'
p6554
S'106'
p6555
sS'politica'
p6556
S'105'
p6557
sS'spettacolo'
p6558
S'288'
p6559
sS'economia'
p6560
S'228'
p6561
sS'gallerie'
p6562
S'85'
p6563
sS'salute'
p6564
S'74'
p6565
sS'motori'
p6566
S'105'
p6567
sS'esteri'
p6568
S'400'
p6569
sS'cronaca'
p6570
S'562'
p6571
sS'sport'
p6572
S'737'
p6573
sS'rubriche'
p6574
S'419'
p6575
sa(dp6576
S'tecnologia'
p6577
S'162'
p6578
sS'scienza'
p6579
S'136'
p6580
sS'persone'
p6581
S'112'
p6582
sS'volo'
p6583
S'67'
p6584
sS'politica'
p6585
S'122'
p6586
sS'spettacolo'
p6587
S'334'
p6588
sS'economia'
p6589
S'209'
p6590
sS'gallerie'
p6591
S'166'
p6592
sS'salute'
p6593
S'75'
p6594
sS'esteri'
p6595
S'525'
p6596
sS'viaggi'
p6597
S'176'
p6598
sS'cronaca'
p6599
S'506'
p6600
sS'sport'
p6601
S'647'
p6602
sS'rubriche'
p6603
S'456'
p6604
sa(dp6605
S'tecnologia'
p6606
S'296'
p6607
sS'scienza'
p6608
S'240'
p6609
sS'persone'
p6610
S'137'
p6611
sS'settembre'
p6612
S'55'
p6613
sS'politica'
p6614
S'115'
p6615
sS'norme'
p6616
S'70'
p6617
sS'spettacolo'
p6618
S'352'
p6619
sS'economia'
p6620
S'170'
p6621
sS'gallerie'
p6622
S'92'
p6623
sS'motori'
p6624
S'84'
p6625
sS'esteri'
p6626
S'376'
p6627
sS'cronaca'
p6628
S'466'
p6629
sS'sport'
p6630
S'557'
p6631
sS'rubriche'
p6632
S'440'
p6633
sa(dp6634
S'tecnologia'
p6635
S'191'
p6636
sS'scienza'
p6637
S'265'
p6638
sS'persone'
p6639
S'93'
p6640
sS'politica'
p6641
S'72'
p6642
sS'spettacolo'
p6643
S'356'
p6644
sS'economia'
p6645
S'229'
p6646
sS'gallerie'
p6647
S'182'
p6648
sS'musica'
p6649
S'54'
p6650
sS'salute'
p6651
S'169'
p6652
sS'esteri'
p6653
S'364'
p6654
sS'viaggi'
p6655
S'318'
p6656
sS'cronaca'
p6657
S'542'
p6658
sS'sport'
p6659
S'720'
p6660
sS'rubriche'
p6661
S'509'
p6662
sa(dp6663
S'tecnologia'
p6664
S'64'
p6665
sS'scienza'
p6666
S'74'
p6667
sS'persone'
p6668
S'45'
p6669
sS'media'
p6670
S'38'
p6671
sS'politica'
p6672
S'138'
p6673
sS'spettacolo'
p6674
S'145'
p6675
sS'economia'
p6676
S'59'
p6677
sS'gallerie'
p6678
S'31'
p6679
sS'motori'
p6680
S'40'
p6681
sS'esteri'
p6682
S'95'
p6683
sS'viaggi'
p6684
S'66'
p6685
sS'cronaca'
p6686
S'166'
p6687
sS'sport'
p6688
S'664'
p6689
sS'rubriche'
p6690
S'180'
p6691
sa(dp6692
S'tecnologia'
p6693
S'53'
p6694
sS'economia'
p6695
S'40'
p6696
sS'scienza'
p6697
S'68'
p6698
sS'persone'
p6699
S'45'
p6700
sS'media'
p6701
S'45'
p6702
sS'politica'
p6703
S'75'
p6704
sS'spettacolo'
p6705
S'209'
p6706
sS'moda'
p6707
S'44'
p6708
sS'gallerie'
p6709
S'85'
p6710
sS'motori'
p6711
S'67'
p6712
sS'esteri'
p6713
S'57'
p6714
sS'cronaca'
p6715
S'224'
p6716
sS'sport'
p6717
S'886'
p6718
sS'rubriche'
p6719
S'240'
p6720
sa(dp6721
S'tecnologia'
p6722
S'120'
p6723
sS'scienza'
p6724
S'128'
p6725
sS'persone'
p6726
S'166'
p6727
sS'media'
p6728
S'47'
p6729
sS'politica'
p6730
S'108'
p6731
sS'spettacolo'
p6732
S'202'
p6733
sS'economia'
p6734
S'153'
p6735
sS'gallerie'
p6736
S'149'
p6737
sS'motori'
p6738
S'65'
p6739
sS'esteri'
p6740
S'203'
p6741
sS'viaggi'
p6742
S'683'
p6743
sS'cronaca'
p6744
S'592'
p6745
sS'sport'
p6746
S'1006'
p6747
sS'rubriche'
p6748
S'366'
p6749
sa(dp6750
S'tecnologia'
p6751
S'112'
p6752
sS'scienza'
p6753
S'114'
p6754
sS'persone'
p6755
S'155'
p6756
sS'politica'
p6757
S'127'
p6758
sS'spettacolo'
p6759
S'246'
p6760
sS'economia'
p6761
S'201'
p6762
sS'gallerie'
p6763
S'169'
p6764
sS'motori'
p6765
S'383'
p6766
sS'moda'
p6767
S'109'
p6768
sS'esteri'
p6769
S'321'
p6770
sS'viaggi'
p6771
S'481'
p6772
sS'cronaca'
p6773
S'425'
p6774
sS'sport'
p6775
S'854'
p6776
sS'rubriche'
p6777
S'332'
p6778
sa(dp6779
S'tecnologia'
p6780
S'141'
p6781
sS'scienza'
p6782
S'181'
p6783
sS'persone'
p6784
S'128'
p6785
sS'politica'
p6786
S'176'
p6787
sS'spettacolo'
p6788
S'323'
p6789
sS'economia'
p6790
S'260'
p6791
sS'gallerie'
p6792
S'114'
p6793
sS'salute'
p6794
S'63'
p6795
sS'motori'
p6796
S'209'
p6797
sS'esteri'
p6798
S'208'
p6799
sS'viaggi'
p6800
S'424'
p6801
sS'cronaca'
p6802
S'578'
p6803
sS'sport'
p6804
S'986'
p6805
sS'rubriche'
p6806
S'359'
p6807
sa(dp6808
S'tecnologia'
p6809
S'149'
p6810
sS'regione'
p6811
S'54'
p6812
sS'scienza'
p6813
S'162'
p6814
sS'persone'
p6815
S'99'
p6816
sS'settembre'
p6817
S'43'
p6818
sS'politica'
p6819
S'129'
p6820
sS'spettacolo'
p6821
S'169'
p6822
sS'economia'
p6823
S'237'
p6824
sS'gallerie'
p6825
S'165'
p6826
sS'motori'
p6827
S'52'
p6828
sS'esteri'
p6829
S'293'
p6830
sS'cronaca'
p6831
S'450'
p6832
sS'sport'
p6833
S'678'
p6834
sS'rubriche'
p6835
S'293'
p6836
sa(dp6837
S'canali'
p6838
S'39'
p6839
sS'tecnologia'
p6840
S'219'
p6841
sS'scienza'
p6842
S'168'
p6843
sS'persone'
p6844
S'107'
p6845
sS'politica'
p6846
S'157'
p6847
sS'mare'
p6848
S'38'
p6849
sS'spettacolo'
p6850
S'165'
p6851
sS'economia'
p6852
S'211'
p6853
sS'gallerie'
p6854
S'99'
p6855
sS'motori'
p6856
S'49'
p6857
sS'esteri'
p6858
S'180'
p6859
sS'cronaca'
p6860
S'562'
p6861
sS'sport'
p6862
S'507'
p6863
sS'rubriche'
p6864
S'465'
p6865
sa(dp6866
S'tecnologia'
p6867
S'39'
p6868
sS'scienza'
p6869
S'83'
p6870
sS'persone'
p6871
S'42'
p6872
sS'settembre'
p6873
S'18'
p6874
sS'politica'
p6875
S'30'
p6876
sS'mare'
p6877
S'23'
p6878
sS'spettacolo'
p6879
S'135'
p6880
sS'economia'
p6881
S'68'
p6882
sS'gallerie'
p6883
S'46'
p6884
sS'motori'
p6885
S'28'
p6886
sS'esteri'
p6887
S'61'
p6888
sS'cronaca'
p6889
S'303'
p6890
sS'sport'
p6891
S'291'
p6892
sS'rubriche'
p6893
S'180'
p6894
sa(dp6895
S'tecnologia'
p6896
S'58'
p6897
sS'scienza'
p6898
S'46'
p6899
sS'persone'
p6900
S'39'
p6901
sS'media'
p6902
S'23'
p6903
sS'politica'
p6904
S'41'
p6905
sS'prodotto'
p6906
S'27'
p6907
sS'spettacolo'
p6908
S'175'
p6909
sS'economia'
p6910
S'78'
p6911
sS'gallerie'
p6912
S'42'
p6913
sS'moda'
p6914
S'20'
p6915
sS'esteri'
p6916
S'92'
p6917
sS'cronaca'
p6918
S'321'
p6919
sS'sport'
p6920
S'524'
p6921
sS'rubriche'
p6922
S'262'
p6923
sa(dp6924
S'tecnologia'
p6925
S'103'
p6926
sS'scienza'
p6927
S'114'
p6928
sS'persone'
p6929
S'128'
p6930
sS'guerra'
p6931
S'68'
p6932
sS'media'
p6933
S'38'
p6934
sS'politica'
p6935
S'118'
p6936
sS'spettacolo'
p6937
S'669'
p6938
sS'economia'
p6939
S'423'
p6940
sS'gallerie'
p6941
S'228'
p6942
sS'motori'
p6943
S'57'
p6944
sS'esteri'
p6945
S'154'
p6946
sS'cronaca'
p6947
S'508'
p6948
sS'sport'
p6949
S'867'
p6950
sS'rubriche'
p6951
S'464'
p6952
sa(dp6953
S'tecnologia'
p6954
S'181'
p6955
sS'scienza'
p6956
S'171'
p6957
sS'persone'
p6958
S'189'
p6959
sS'politica'
p6960
S'101'
p6961
sS'norme'
p6962
S'52'
p6963
sS'spettacolo'
p6964
S'373'
p6965
sS'economia'
p6966
S'519'
p6967
sS'gallerie'
p6968
S'186'
p6969
sS'salute'
p6970
S'56'
p6971
sS'motori'
p6972
S'74'
p6973
sS'esteri'
p6974
S'190'
p6975
sS'cronaca'
p6976
S'593'
p6977
sS'sport'
p6978
S'589'
p6979
sS'rubriche'
p6980
S'380'
p6981
sa(dp6982
S'tecnologia'
p6983
S'120'
p6984
sS'persone'
p6985
S'108'
p6986
sS'scienza'
p6987
S'142'
p6988
sS'moda'
p6989
S'133'
p6990
sS'politica'
p6991
S'108'
p6992
sS'spettacolo'
p6993
S'274'
p6994
sS'economia'
p6995
S'412'
p6996
sS'gallerie'
p6997
S'293'
p6998
sS'motori'
p6999
S'102'
p7000
sS'esteri'
p7001
S'291'
p7002
sS'viaggi'
p7003
S'126'
p7004
sS'cronaca'
p7005
S'599'
p7006
sS'sport'
p7007
S'717'
p7008
sS'rubriche'
p7009
S'416'
p7010
sa(dp7011
S'tecnologia'
p7012
S'110'
p7013
sS'scienza'
p7014
S'179'
p7015
sS'persone'
p7016
S'131'
p7017
sS'politica'
p7018
S'121'
p7019
sS'spettacolo'
p7020
S'163'
p7021
sS'economia'
p7022
S'505'
p7023
sS'gallerie'
p7024
S'166'
p7025
sS'salute'
p7026
S'71'
p7027
sS'motori'
p7028
S'122'
p7029
sS'esteri'
p7030
S'317'
p7031
sS'viaggi'
p7032
S'151'
p7033
sS'cronaca'
p7034
S'681'
p7035
sS'sport'
p7036
S'818'
p7037
sS'rubriche'
p7038
S'318'
p7039
sa(dp7040
S'tecnologia'
p7041
S'98'
p7042
sS'scienza'
p7043
S'170'
p7044
sS'persone'
p7045
S'100'
p7046
sS'politica'
p7047
S'52'
p7048
sS'spettacolo'
p7049
S'266'
p7050
sS'economia'
p7051
S'352'
p7052
sS'gallerie'
p7053
S'173'
p7054
sS'salute'
p7055
S'72'
p7056
sS'motori'
p7057
S'92'
p7058
sS'esteri'
p7059
S'403'
p7060
sS'viaggi'
p7061
S'204'
p7062
sS'cronaca'
p7063
S'694'
p7064
sS'sport'
p7065
S'546'
p7066
sS'rubriche'
p7067
S'332'
p7068
sa(dp7069
S'tecnologia'
p7070
S'52'
p7071
sS'scienza'
p7072
S'99'
p7073
sS'persone'
p7074
S'49'
p7075
sS'politica'
p7076
S'52'
p7077
sS'spettacolo'
p7078
S'126'
p7079
sS'economia'
p7080
S'158'
p7081
sS'gallerie'
p7082
S'39'
p7083
sS'motori'
p7084
S'64'
p7085
sS'moda'
p7086
S'32'
p7087
sS'esteri'
p7088
S'191'
p7089
sS'viaggi'
p7090
S'80'
p7091
sS'cronaca'
p7092
S'236'
p7093
sS'sport'
p7094
S'334'
p7095
sS'rubriche'
p7096
S'188'
p7097
sa(dp7098
S'tecnologia'
p7099
S'73'
p7100
sS'scienza'
p7101
S'83'
p7102
sS'persone'
p7103
S'52'
p7104
sS'politica'
p7105
S'73'
p7106
sS'prodotto'
p7107
S'19'
p7108
sS'spettacolo'
p7109
S'221'
p7110
sS'economia'
p7111
S'234'
p7112
sS'gallerie'
p7113
S'41'
p7114
sS'motori'
p7115
S'62'
p7116
sS'moda'
p7117
S'45'
p7118
sS'esteri'
p7119
S'173'
p7120
sS'cronaca'
p7121
S'286'
p7122
sS'sport'
p7123
S'594'
p7124
sS'rubriche'
p7125
S'220'
p7126
sa(dp7127
S'tecnologia'
p7128
S'119'
p7129
sS'scienza'
p7130
S'193'
p7131
sS'persone'
p7132
S'111'
p7133
sS'politica'
p7134
S'105'
p7135
sS'spettacolo'
p7136
S'434'
p7137
sS'economia'
p7138
S'404'
p7139
sS'gallerie'
p7140
S'129'
p7141
sS'salute'
p7142
S'50'
p7143
sS'motori'
p7144
S'81'
p7145
sS'moda'
p7146
S'38'
p7147
sS'esteri'
p7148
S'271'
p7149
sS'cronaca'
p7150
S'656'
p7151
sS'sport'
p7152
S'672'
p7153
sS'rubriche'
p7154
S'381'
p7155
sa(dp7156
S'tecnologia'
p7157
S'83'
p7158
sS'scienza'
p7159
S'224'
p7160
sS'persone'
p7161
S'126'
p7162
sS'media'
p7163
S'63'
p7164
sS'politica'
p7165
S'122'
p7166
sS'spettacolo'
p7167
S'296'
p7168
sS'economia'
p7169
S'390'
p7170
sS'gallerie'
p7171
S'93'
p7172
sS'salute'
p7173
S'45'
p7174
sS'motori'
p7175
S'56'
p7176
sS'esteri'
p7177
S'297'
p7178
sS'cronaca'
p7179
S'825'
p7180
sS'sport'
p7181
S'695'
p7182
sS'rubriche'
p7183
S'483'
p7184
sa(dp7185
S'tecnologia'
p7186
S'115'
p7187
sS'regione'
p7188
S'29'
p7189
sS'scienza'
p7190
S'198'
p7191
sS'persone'
p7192
S'182'
p7193
sS'politica'
p7194
S'94'
p7195
sS'spettacolo'
p7196
S'352'
p7197
sS'economia'
p7198
S'274'
p7199
sS'gallerie'
p7200
S'132'
p7201
sS'salute'
p7202
S'25'
p7203
sS'motori'
p7204
S'47'
p7205
sS'esteri'
p7206
S'355'
p7207
sS'cronaca'
p7208
S'560'
p7209
sS'sport'
p7210
S'756'
p7211
sS'rubriche'
p7212
S'370'
p7213
sasg941
(lp7214
(dp7215
S'tecnologia'
p7216
S'26'
p7217
sS'regione'
p7218
S'10'
p7219
sS'scienza'
p7220
S'76'
p7221
sS'persone'
p7222
S'16'
p7223
sS'politica'
p7224
S'27'
p7225
sS'spettacolo'
p7226
S'81'
p7227
sS'economia'
p7228
S'53'
p7229
sS'gallerie'
p7230
S'51'
p7231
sS'salute'
p7232
S'19'
p7233
sS'motori'
p7234
S'10'
p7235
sS'esteri'
p7236
S'62'
p7237
sS'cronaca'
p7238
S'267'
p7239
sS'sport'
p7240
S'218'
p7241
sS'rubriche'
p7242
S'115'
p7243
sa(dp7244
S'tecnologia'
p7245
S'13'
p7246
sS'scienza'
p7247
S'48'
p7248
sS'persone'
p7249
S'18'
p7250
sS'media'
p7251
g5504
sS'politica'
p7252
S'43'
p7253
sS'spettacolo'
p7254
S'81'
p7255
sS'economia'
p7256
S'42'
p7257
sS'gallerie'
p7258
S'102'
p7259
sS'motori'
p7260
g5504
sS'moda'
p7261
S'11'
p7262
sS'esteri'
p7263
S'42'
p7264
sS'cronaca'
p7265
S'180'
p7266
sS'sport'
p7267
S'178'
p7268
sS'rubriche'
p7269
S'160'
p7270
sa(dp7271
S'tecnologia'
p7272
S'62'
p7273
sS'festa'
p7274
S'44'
p7275
sS'scienza'
p7276
S'73'
p7277
sS'persone'
p7278
S'123'
p7279
sS'politica'
p7280
S'85'
p7281
sS'spettacolo'
p7282
S'130'
p7283
sS'economia'
p7284
S'214'
p7285
sS'gallerie'
p7286
S'118'
p7287
sS'salute'
p7288
S'80'
p7289
sS'esteri'
p7290
S'166'
p7291
sS'viaggi'
p7292
S'49'
p7293
sS'cronaca'
p7294
S'395'
p7295
sS'sport'
p7296
S'567'
p7297
sS'rubriche'
p7298
S'349'
p7299
sa(dp7300
S'tecnologia'
p7301
S'130'
p7302
sS'scienza'
p7303
S'84'
p7304
sS'persone'
p7305
S'83'
p7306
sS'politica'
p7307
S'113'
p7308
sS'spettacolo'
p7309
S'124'
p7310
sS'economia'
p7311
S'209'
p7312
sS'gallerie'
p7313
S'102'
p7314
sS'salute'
p7315
S'37'
p7316
sS'moda'
p7317
S'79'
p7318
sS'esteri'
p7319
S'144'
p7320
sS'viaggi'
p7321
S'469'
p7322
sS'cronaca'
p7323
S'477'
p7324
sS'sport'
p7325
S'467'
p7326
sS'rubriche'
p7327
S'254'
p7328
sa(dp7329
S'tecnologia'
p7330
S'76'
p7331
sS'scienza'
p7332
S'100'
p7333
sS'persone'
p7334
S'107'
p7335
sS'politica'
p7336
S'168'
p7337
sS'spettacolo'
p7338
S'214'
p7339
sS'economia'
p7340
S'119'
p7341
sS'gallerie'
p7342
S'179'
p7343
sS'salute'
p7344
S'83'
p7345
sS'moda'
p7346
S'43'
p7347
sS'esteri'
p7348
S'143'
p7349
sS'viaggi'
p7350
S'97'
p7351
sS'cronaca'
p7352
S'569'
p7353
sS'sport'
p7354
S'448'
p7355
sS'rubriche'
p7356
S'286'
p7357
sa(dp7358
S'tecnologia'
p7359
S'125'
p7360
sS'regione'
p7361
S'93'
p7362
sS'scienza'
p7363
S'101'
p7364
sS'persone'
p7365
S'155'
p7366
sS'politica'
p7367
S'70'
p7368
sS'spettacolo'
p7369
S'158'
p7370
sS'economia'
p7371
S'144'
p7372
sS'gallerie'
p7373
S'124'
p7374
sS'moda'
p7375
S'142'
p7376
sS'esteri'
p7377
S'146'
p7378
sS'viaggi'
p7379
S'68'
p7380
sS'cronaca'
p7381
S'358'
p7382
sS'sport'
p7383
S'395'
p7384
sS'rubriche'
p7385
S'209'
p7386
sa(dp7387
a(dp7388
a(dp7389
a(dp7390
a(dp7391
a(dp7392
a(dp7393
a(dp7394
a(dp7395
a(dp7396
a(dp7397
a(dp7398
a(dp7399
a(dp7400
a(dp7401
a(dp7402
a(dp7403
a(dp7404
a(dp7405
a(dp7406
a(dp7407
a(dp7408
a(dp7409
a(dp7410
a(dp7411
as.