(dp0
I1
(dp1
S'tecnologia'
p2
F2130.0
sS'storia'
p3
F46.0
sS'guerra'
p4
F26.0
sS'volo'
p5
F62.0
sS'politica'
p6
F4739.0
sS'economia'
p7
F9431.0
sS'motori'
p8
F1602.0
sS'esteri'
p9
F11423.0
sS'sport'
p10
F12557.0
sS'rossi'
p11
F13.0
sS'rubriche'
p12
F16378.0
sS'regione'
p13
F398.0
sS'moda'
p14
F311.0
sS'media'
p15
F1161.0
sS'spettacolo'
p16
F7402.0
sS'gallerie'
p17
F3334.0
sS'musica'
p18
F47.0
sS'salute'
p19
F714.0
sS'canali'
p20
F31.0
sS'persone'
p21
F4392.0
sS'norme'
p22
F446.0
sS'dicembre'
p23
F13.0
sS'festa'
p24
F166.0
sS'scienza'
p25
F4585.0
sS'prodotto'
p26
F130.0
sS'social'
p27
F23.0
sS'cronaca'
p28
F17618.0
ssI2
(dp29
S'tecnologia'
p30
F2139.0
sS'festa'
p31
F91.0
sS'volo'
p32
F28.0
sS'politica'
p33
F4292.0
sS'economia'
p34
F10536.0
sS'motori'
p35
F1288.0
sS'esteri'
p36
F7294.0
sS'sport'
p37
F13970.0
sS'rubriche'
p38
F14949.0
sS'scuola'
p39
F201.0
sS'regione'
p40
F329.0
sS'moda'
p41
F140.0
sS'media'
p42
F604.0
sS'spettacolo'
p43
F10650.0
sS'gallerie'
p44
F3991.0
sS'musica'
p45
F69.0
sS'salute'
p46
F1059.0
sS'migliori'
p47
F30.0
sS'persone'
p48
F4178.0
sS'norme'
p49
F889.0
sS'viaggi'
p50
F298.0
sS'aereo'
p51
F249.0
sS'scienza'
p52
F4415.0
sS'prodotto'
p53
F121.0
sS'cronaca'
p54
F18073.0
ssI3
(dp55
S'tecnologia'
p56
F424.0
sS'storia'
p57
F1.0
sS'politica'
p58
F545.0
sS'economia'
p59
F1332.0
sS'motori'
p60
F184.0
sS'esteri'
p61
F1673.0
sS'sport'
p62
F1735.0
sS'rubriche'
p63
F1938.0
sS'scuola'
p64
F161.0
sS'regione'
p65
F49.0
sS'prodotto'
p66
F1.0
sS'spettacolo'
p67
F1084.0
sS'gallerie'
p68
F264.0
sS'salute'
p69
F86.0
sS'persone'
p70
F455.0
sS'norme'
p71
F54.0
sS'aereo'
p72
F81.0
sS'festa'
p73
F69.0
sS'scienza'
p74
F722.0
sS'moda'
p75
F56.0
sS'intervista'
p76
F1.0
sS'cronaca'
p77
F2944.0
ssI4
(dp78
S'tecnologia'
p79
F1769.0
sS'storia'
p80
F4.0
sS'politica'
p81
F2681.0
sS'economia'
p82
F5608.0
sS'motori'
p83
F1068.0
sS'esteri'
p84
F5565.0
sS'sport'
p85
F11217.0
sS'rubriche'
p86
F9202.0
sS'mare'
p87
F53.0
sS'scuola'
p88
F123.0
sS'regione'
p89
F110.0
sS'media'
p90
F211.0
sS'testata'
p91
F40.0
sS'spettacolo'
p92
F5236.0
sS'gallerie'
p93
F2427.0
sS'salute'
p94
F369.0
sS'canali'
p95
F57.0
sS'migliori'
p96
F77.0
sS'persone'
p97
F3112.0
sS'norme'
p98
F89.0
sS'viaggi'
p99
F158.0
sS'impresa'
p100
F173.0
sS'aereo'
p101
F2.0
sS'scienza'
p102
F3073.0
sS'moda'
p103
F207.0
sS'giochi'
p104
F20.0
sS'social'
p105
F57.0
sS'cronaca'
p106
F13586.0
ssI5
(dp107
S'tecnologia'
p108
F2505.0
sS'politica'
p109
F4649.0
sS'economia'
p110
F8473.0
sS'motori'
p111
F1283.0
sS'esteri'
p112
F9340.0
sS'sport'
p113
F21685.0
sS'rubriche'
p114
F15127.0
sS'mare'
p115
F80.0
sS'scuola'
p116
F911.0
sS'regione'
p117
F1138.0
sS'moda'
p118
F94.0
sS'media'
p119
F324.0
sS'spettacolo'
p120
F7982.0
sS'gallerie'
p121
F4018.0
sS'salute'
p122
F986.0
sS'persone'
p123
F4304.0
sS'norme'
p124
F180.0
sS'viaggi'
p125
F383.0
sS'impresa'
p126
F56.0
sS'festa'
p127
F84.0
sS'scienza'
p128
F5177.0
sS'prodotto'
p129
F26.0
sS'servizi'
p130
F58.0
sS'riforma'
p131
F29.0
sS'cronaca'
p132
F22250.0
ssI6
(dp133
S'tecnologia'
p134
F271.0
sS'regione'
p135
F45.0
sS'scienza'
p136
F593.0
sS'persone'
p137
F480.0
sS'media'
p138
F530.0
sS'politica'
p139
F930.0
sS'prodotto'
p140
F2.0
sS'spettacolo'
p141
F634.0
sS'economia'
p142
F1629.0
sS'gallerie'
p143
F560.0
sS'impresa'
p144
F72.0
sS'motori'
p145
F284.0
sS'moda'
p146
F35.0
sS'esteri'
p147
F1134.0
sS'cronaca'
p148
F2922.0
sS'sport'
p149
F1912.0
sS'rubriche'
p150
F1961.0
sS'salute'
p151
F42.0
ssI7
(dp152
S'tecnologia'
p153
F483.0
sS'storia'
p154
F1.0
sS'politica'
p155
F536.0
sS'economia'
p156
F2070.0
sS'motori'
p157
F54.0
sS'esteri'
p158
F1172.0
sS'sport'
p159
F3234.0
sS'rubriche'
p160
F1981.0
sS'scuola'
p161
F62.0
sS'regione'
p162
F103.0
sS'media'
p163
F185.0
sS'testata'
p164
F1.0
sS'spettacolo'
p165
F1186.0
sS'gallerie'
p166
F567.0
sS'salute'
p167
F36.0
sS'canali'
p168
F38.0
sS'persone'
p169
F673.0
sS'viaggi'
p170
F308.0
sS'aereo'
p171
F1.0
sS'piazza'
p172
F1.0
sS'scienza'
p173
F797.0
sS'moda'
p174
F126.0
sS'cronaca'
p175
F3601.0
ssI8
(dp176
S'tecnologia'
p177
F432.0
sS'regione'
p178
F103.0
sS'scienza'
p179
F482.0
sS'persone'
p180
F502.0
sS'media'
p181
F9.0
sS'festa'
p182
F44.0
sS'politica'
p183
F506.0
sS'spettacolo'
p184
F788.0
sS'economia'
p185
F781.0
sS'gallerie'
p186
F676.0
sS'salute'
p187
F219.0
sS'motori'
p188
F19.0
sS'moda'
p189
F275.0
sS'esteri'
p190
F703.0
sS'viaggi'
p191
F683.0
sS'cronaca'
p192
F2246.0
sS'sport'
p193
F2273.0
sS'rubriche'
p194
F1373.0
ssI9
(dp195
S'tecnologia'
p196
F3134.0
sS'guerra'
p197
F68.0
sS'volo'
p198
F67.0
sS'politica'
p199
F2720.0
sS'economia'
p200
F6720.0
sS'motori'
p201
F2056.0
sS'esteri'
p202
F7183.0
sS'sport'
p203
F18201.0
sS'rubriche'
p204
F9783.0
sS'mare'
p205
F61.0
sS'scuola'
p206
F53.0
sS'regione'
p207
F86.0
sS'prodotto'
p208
F46.0
sS'media'
p209
F490.0
sS'spettacolo'
p210
F7597.0
sS'gallerie'
p211
F3520.0
sS'musica'
p212
F66.0
sS'settembre'
p213
F116.0
sS'salute'
p214
F891.0
sS'canali'
p215
F39.0
sS'persone'
p216
F2848.0
sS'norme'
p217
F122.0
sS'viaggi'
p218
F3005.0
sS'scienza'
p219
F4046.0
sS'moda'
p220
F454.0
sS'social'
p221
F29.0
sS'cronaca'
p222
F13695.0
ssI10
(dp223
S'tecnologia'
p224
F1269.0
sS'politica'
p225
F1791.0
sS'economia'
p226
F4012.0
sS'motori'
p227
F1806.0
sS'esteri'
p228
F3283.0
sS'sport'
p229
F9923.0
sS'rossi'
p230
F239.0
sS'rubriche'
p231
F4931.0
sS'legge'
p232
F77.0
sS'scuola'
p233
F19.0
sS'regione'
p234
F150.0
sS'prodotto'
p235
F37.0
sS'media'
p236
F117.0
sS'spettacolo'
p237
F3816.0
sS'gallerie'
p238
F1474.0
sS'salute'
p239
F568.0
sS'persone'
p240
F1808.0
sS'norme'
p241
F42.0
sS'viaggi'
p242
F799.0
sS'scienza'
p243
F2110.0
sS'ottobre'
p244
F129.0
sS'moda'
p245
F293.0
sS'social'
p246
F135.0
sS'riforma'
p247
F12.0
sS'cronaca'
p248
F9048.0
ssI11
(dp249
S'tecnologia'
p250
F2595.0
sS'storia'
p251
F29.0
sS'politica'
p252
F2818.0
sS'economia'
p253
F6612.0
sS'motori'
p254
F3160.0
sS'esteri'
p255
F17768.0
sS'sport'
p256
F17297.0
sS'rossi'
p257
F169.0
sS'rubriche'
p258
F10512.0
sS'scuola'
p259
F117.0
sS'regione'
p260
F141.0
sS'prodotto'
p261
F43.0
sS'media'
p262
F414.0
sS'spettacolo'
p263
F8153.0
sS'gallerie'
p264
F2789.0
sS'attentati'
p265
F2005.0
sS'salute'
p266
F834.0
sS'canali'
p267
F58.0
sS'persone'
p268
F3813.0
sS'novembre'
p269
F341.0
sS'viaggi'
p270
F1960.0
sS'aereo'
p271
F266.0
sS'scienza'
p272
F4295.0
sS'moda'
p273
F632.0
sS'cronaca'
p274
F18487.0
ssI12
(dp275
S'tecnologia'
p276
F2357.0
sS'stabilita'
p277
F74.0
sS'politica'
p278
F2699.0
sS'economia'
p279
F6711.0
sS'motori'
p280
F750.0
sS'esteri'
p281
F7067.0
sS'sport'
p282
F15428.0
sS'rubriche'
p283
F8925.0
sS'affari'
p284
F76.0
sS'scuola'
p285
F70.0
sS'regione'
p286
F476.0
sS'prodotto'
p287
F81.0
sS'media'
p288
F264.0
sS'spettacolo'
p289
F8044.0
sS'gallerie'
p290
F2690.0
sS'salute'
p291
F438.0
sS'migliori'
p292
F59.0
sS'persone'
p293
F3596.0
sS'norme'
p294
F25.0
sS'dicembre'
p295
F461.0
sS'viaggi'
p296
F242.0
sS'natale'
p297
F939.0
sS'scienza'
p298
F3890.0
sS'moda'
p299
F332.0
sS'social'
p300
F110.0
sS'cronaca'
p301
F17387.0
ss.