(dp0
I1
(dp1
S'canali'
p2
I31
sS'tecnologia'
p3
I313
sS'regione'
p4
I114
sS'scienza'
p5
I603
sS'persone'
p6
I479
sS'media'
p7
I96
sS'dicembre'
p8
I13
sS'politica'
p9
I609
sS'norme'
p10
I149
sS'prodotto'
p11
I33
sS'spettacolo'
p12
I1667
sS'economia'
p13
I1262
sS'gallerie'
p14
I525
sS'salute'
p15
I50
sS'motori'
p16
I115
sS'moda'
p17
I30
sS'esteri'
p18
I1709
sS'cronaca'
p19
I3187
sS'sport'
p20
I1595
sS'rossi'
p21
I13
sS'rubriche'
p22
I2380
ssI2
(dp23
S'tecnologia'
p24
I531
sS'regione'
p25
I135
sS'festa'
p26
I121
sS'scienza'
p27
I1217
sS'persone'
p28
I1079
sS'guerra'
p29
I26
sS'media'
p30
I277
sS'politica'
p31
I1031
sS'norme'
p32
I139
sS'spettacolo'
p33
I1911
sS'economia'
p34
I2174
sS'gallerie'
p35
I1059
sS'salute'
p36
I241
sS'motori'
p37
I498
sS'moda'
p38
I50
sS'esteri'
p39
I4818
sS'cronaca'
p40
I4152
sS'sport'
p41
I3090
sS'rubriche'
p42
I3815
sS'social'
p43
I23
ssI3
(dp44
S'tecnologia'
p45
I523
sS'storia'
p46
I46
sS'regione'
p47
I29
sS'scienza'
p48
I1169
sS'persone'
p49
I1066
sS'media'
p50
I329
sS'volo'
p51
I62
sS'politica'
p52
I1158
sS'norme'
p53
I80
sS'prodotto'
p54
I23
sS'spettacolo'
p55
I1507
sS'economia'
p56
I2427
sS'gallerie'
p57
I627
sS'salute'
p58
I287
sS'motori'
p59
I475
sS'moda'
p60
I85
sS'esteri'
p61
I2138
sS'cronaca'
p62
I4191
sS'sport'
p63
I3402
sS'rubriche'
p64
I3422
ssI4
(dp65
S'tecnologia'
p66
I551
sS'regione'
p67
I49
sS'scienza'
p68
I1123
sS'persone'
p69
I1279
sS'media'
p70
I310
sS'festa'
p71
I45
sS'politica'
p72
I1122
sS'norme'
p73
I78
sS'prodotto'
p74
I48
sS'spettacolo'
p75
I1609
sS'economia'
p76
I2588
sS'gallerie'
p77
I808
sS'musica'
p78
I47
sS'salute'
p79
I92
sS'motori'
p80
I330
sS'moda'
p81
I118
sS'esteri'
p82
I2195
sS'cronaca'
p83
I4203
sS'sport'
p84
I3128
sS'rubriche'
p85
I3897
ssI5
(dp86
S'tecnologia'
p87
I572
sS'regione'
p88
I71
sS'scienza'
p89
I1146
sS'persone'
p90
I1121
sS'media'
p91
I349
sS'politica'
p92
I1814
sS'norme'
p93
I142
sS'prodotto'
p94
I74
sS'spettacolo'
p95
I2196
sS'economia'
p96
I2589
sS'gallerie'
p97
I953
sS'salute'
p98
I44
sS'motori'
p99
I670
sS'moda'
p100
I148
sS'esteri'
p101
I1894
sS'viaggi'
p102
I64
sS'cronaca'
p103
I4209
sS'sport'
p104
I3792
sS'rubriche'
p105
I5839
sS'aereo'
p106
I213
ssI6
(dp107
S'tecnologia'
p108
I459
sS'aereo'
p109
I36
sS'scienza'
p110
I1050
sS'persone'
p111
I1185
sS'media'
p112
I208
sS'politica'
p113
I933
sS'norme'
p114
I153
sS'prodotto'
p115
I51
sS'spettacolo'
p116
I2961
sS'economia'
p117
I2620
sS'gallerie'
p118
I1158
sS'salute'
p119
I297
sS'motori'
p120
I220
sS'esteri'
p121
I1786
sS'viaggi'
p122
I157
sS'cronaca'
p123
I4870
sS'sport'
p124
I3756
sS'rubriche'
p125
I3762
ssI7
(dp126
S'tecnologia'
p127
I541
sS'festa'
p128
I19
sS'scienza'
p129
I1283
sS'persone'
p130
I964
sS'media'
p131
I196
sS'volo'
p132
I28
sS'politica'
p133
I1155
sS'norme'
p134
I112
sS'prodotto'
p135
I22
sS'spettacolo'
p136
I3296
sS'economia'
p137
I2804
sS'gallerie'
p138
I939
sS'musica'
p139
I69
sS'salute'
p140
I343
sS'motori'
p141
I335
sS'esteri'
p142
I2118
sS'cronaca'
p143
I4791
sS'sport'
p144
I2942
sS'rubriche'
p145
I3804
ssI8
(dp146
S'tecnologia'
p147
I506
sS'migliori'
p148
I30
sS'regione'
p149
I240
sS'scienza'
p150
I889
sS'persone'
p151
I829
sS'festa'
p152
I72
sS'politica'
p153
I851
sS'norme'
p154
I299
sS'spettacolo'
p155
I2092
sS'economia'
p156
I2661
sS'gallerie'
p157
I951
sS'salute'
p158
I369
sS'motori'
p159
I162
sS'esteri'
p160
I1376
sS'viaggi'
p161
I21
sS'cronaca'
p162
I4145
sS'sport'
p163
I3387
sS'rubriche'
p164
I3156
sS'scuola'
p165
I201
ssI9
(dp166
S'tecnologia'
p167
I382
sS'storia'
p168
I1
sS'intervista'
p169
I1
sS'regione'
p170
I138
sS'scienza'
p171
I576
sS'persone'
p172
I637
sS'festa'
p173
I69
sS'politica'
p174
I444
sS'norme'
p175
I183
sS'prodotto'
p176
I1
sS'spettacolo'
p177
I982
sS'economia'
p178
I913
sS'gallerie'
p179
I337
sS'salute'
p180
I51
sS'motori'
p181
I115
sS'moda'
p182
I20
sS'esteri'
p183
I817
sS'viaggi'
p184
I56
sS'cronaca'
p185
I2268
sS'sport'
p186
I1638
sS'rubriche'
p187
I1506
ssI10
(dp188
sI11
(dp189
S'tecnologia'
p190
I219
sS'scuola'
p191
I161
sS'scienza'
p192
I454
sS'persone'
p193
I288
sS'politica'
p194
I309
sS'spettacolo'
p195
I587
sS'economia'
p196
I850
sS'gallerie'
p197
I182
sS'salute'
p198
I85
sS'motori'
p199
I154
sS'esteri'
p200
I587
sS'cronaca'
p201
I1694
sS'sport'
p202
I1148
sS'rubriche'
p203
I1107
ssI12
(dp204
S'tecnologia'
p205
I96
sS'aereo'
p206
I81
sS'scienza'
p207
I212
sS'persone'
p208
I98
sS'politica'
p209
I150
sS'norme'
p210
I54
sS'spettacolo'
p211
I328
sS'economia'
p212
I411
sS'gallerie'
p213
I50
sS'moda'
p214
I56
sS'esteri'
p215
I952
sS'cronaca'
p216
I925
sS'sport'
p217
I384
sS'rubriche'
p218
I577
ssI13
(dp219
sI14
(dp220
sI15
(dp221
S'tecnologia'
p222
I377
sS'storia'
p223
I4
sS'politica'
p224
I447
sS'economia'
p225
I1389
sS'motori'
p226
I108
sS'esteri'
p227
I1106
sS'sport'
p228
I1780
sS'rubriche'
p229
I1713
sS'scuola'
p230
I60
sS'regione'
p231
I6
sS'media'
p232
I2
sS'testata'
p233
I40
sS'spettacolo'
p234
I1053
sS'gallerie'
p235
I479
sS'salute'
p236
I43
sS'persone'
p237
I706
sS'norme'
p238
I42
sS'viaggi'
p239
I78
sS'aereo'
p240
I2
sS'scienza'
p241
I733
sS'moda'
p242
I35
sS'social'
p243
I57
sS'cronaca'
p244
I2732
ssI16
(dp245
S'canali'
p246
I57
sS'tecnologia'
p247
I616
sS'migliori'
p248
I22
sS'regione'
p249
I34
sS'scienza'
p250
I1084
sS'persone'
p251
I1160
sS'politica'
p252
I1040
sS'norme'
p253
I47
sS'spettacolo'
p254
I2009
sS'economia'
p255
I1964
sS'gallerie'
p256
I889
sS'impresa'
p257
I88
sS'motori'
p258
I609
sS'moda'
p259
I172
sS'esteri'
p260
I1759
sS'cronaca'
p261
I5543
sS'sport'
p262
I3707
sS'scuola'
p263
I23
sS'rubriche'
p264
I3390
sS'salute'
p265
I144
ssI17
(dp266
S'tecnologia'
p267
I669
sS'migliori'
p268
I55
sS'regione'
p269
I19
sS'scienza'
p270
I1023
sS'persone'
p271
I1053
sS'media'
p272
I160
sS'politica'
p273
I993
sS'mare'
p274
I53
sS'spettacolo'
p275
I2017
sS'economia'
p276
I1936
sS'gallerie'
p277
I910
sS'impresa'
p278
I85
sS'salute'
p279
I122
sS'motori'
p280
I351
sS'esteri'
p281
I2435
sS'viaggi'
p282
I80
sS'cronaca'
p283
I4620
sS'sport'
p284
I5097
sS'scuola'
p285
I40
sS'rubriche'
p286
I3532
sS'giochi'
p287
I20
ssI18
(dp288
S'tecnologia'
p289
I556
sS'servizi'
p290
I58
sS'regione'
p291
I650
sS'scienza'
p292
I1053
sS'persone'
p293
I1022
sS'media'
p294
I64
sS'politica'
p295
I1025
sS'spettacolo'
p296
I1516
sS'economia'
p297
I1599
sS'gallerie'
p298
I1064
sS'salute'
p299
I229
sS'motori'
p300
I158
sS'moda'
p301
I42
sS'esteri'
p302
I1879
sS'viaggi'
p303
I35
sS'cronaca'
p304
I4415
sS'sport'
p305
I4663
sS'rubriche'
p306
I3453
sS'scuola'
p307
I318
ssI19
(dp308
S'tecnologia'
p309
I334
sS'media'
p310
I22
sS'regione'
p311
I252
sS'scienza'
p312
I1189
sS'persone'
p313
I1102
sS'festa'
p314
I84
sS'politica'
p315
I1403
sS'mare'
p316
I80
sS'norme'
p317
I70
sS'spettacolo'
p318
I1689
sS'economia'
p319
I2045
sS'gallerie'
p320
I744
sS'salute'
p321
I233
sS'motori'
p322
I57
sS'moda'
p323
I34
sS'esteri'
p324
I2533
sS'viaggi'
p325
I251
sS'cronaca'
p326
I4816
sS'sport'
p327
I4218
sS'rubriche'
p328
I3343
sS'scuola'
p329
I192
ssI20
(dp330
S'tecnologia'
p331
I664
sS'scuola'
p332
I292
sS'scienza'
p333
I1373
sS'persone'
p334
I1090
sS'media'
p335
I126
sS'politica'
p336
I847
sS'norme'
p337
I67
sS'prodotto'
p338
I26
sS'spettacolo'
p339
I2185
sS'economia'
p340
I2154
sS'gallerie'
p341
I961
sS'impresa'
p342
I56
sS'salute'
p343
I180
sS'motori'
p344
I395
sS'esteri'
p345
I2018
sS'riforma'
p346
I29
sS'cronaca'
p347
I5779
sS'sport'
p348
I5648
sS'rubriche'
p349
I3636
ssI21
(dp350
S'tecnologia'
p351
I755
sS'regione'
p352
I224
sS'scienza'
p353
I1145
sS'persone'
p354
I875
sS'media'
p355
I89
sS'politica'
p356
I1047
sS'norme'
p357
I43
sS'spettacolo'
p358
I2147
sS'economia'
p359
I2146
sS'gallerie'
p360
I1001
sS'salute'
p361
I211
sS'motori'
p362
I474
sS'moda'
p363
I18
sS'esteri'
p364
I2290
sS'viaggi'
p365
I97
sS'cronaca'
p366
I5703
sS'sport'
p367
I5574
sS'rubriche'
p368
I3496
sS'scuola'
p369
I40
ssI22
(dp370
S'tecnologia'
p371
I384
sS'regione'
p372
I63
sS'scienza'
p373
I731
sS'persone'
p374
I481
sS'media'
p375
I106
sS'politica'
p376
I961
sS'spettacolo'
p377
I735
sS'economia'
p378
I1000
sS'gallerie'
p379
I480
sS'salute'
p380
I193
sS'motori'
p381
I250
sS'moda'
p382
I35
sS'esteri'
p383
I1049
sS'cronaca'
p384
I2701
sS'sport'
p385
I2708
sS'rubriche'
p386
I2306
sS'scuola'
p387
I69
ssI23
(dp388
sI24
(dp389
S'tecnologia'
p390
I116
sS'scienza'
p391
I310
sS'persone'
p392
I296
sS'media'
p393
I496
sS'politica'
p394
I438
sS'prodotto'
p395
I2
sS'spettacolo'
p396
I326
sS'economia'
p397
I845
sS'gallerie'
p398
I308
sS'impresa'
p399
I72
sS'motori'
p400
I126
sS'esteri'
p401
I642
sS'cronaca'
p402
I1814
sS'sport'
p403
I927
sS'rubriche'
p404
I1078
ssI25
(dp405
sI26
(dp406
S'tecnologia'
p407
I168
sS'regione'
p408
I106
sS'scienza'
p409
I362
sS'persone'
p410
I199
sS'media'
p411
I40
sS'politica'
p412
I154
sS'spettacolo'
p413
I418
sS'economia'
p414
I1176
sS'gallerie'
p415
I283
sS'salute'
p416
I42
sS'motori'
p417
I107
sS'esteri'
p418
I612
sS'viaggi'
p419
I41
sS'cronaca'
p420
I1276
sS'sport'
p421
I1005
sS'rubriche'
p422
I703
ssI27
(dp423
S'testata'
p424
I1
ssI28
(dp425
S'tecnologia'
p426
I159
sS'storia'
p427
I1
sS'regione'
p428
I42
sS'scuola'
p429
I62
sS'scienza'
p430
I163
sS'persone'
p431
I199
sS'media'
p432
I17
sS'politica'
p433
I156
sS'spettacolo'
p434
I369
sS'economia'
p435
I699
sS'gallerie'
p436
I171
sS'motori'
p437
I24
sS'esteri'
p438
I305
sS'viaggi'
p439
I118
sS'cronaca'
p440
I901
sS'sport'
p441
I811
sS'rubriche'
p442
I569
sS'aereo'
p443
I1
ssI29
(dp444
S'tecnologia'
p445
I139
sS'politica'
p446
I180
sS'piazza'
p447
I1
sS'scienza'
p448
I337
sS'moda'
p449
I126
sS'media'
p450
I100
sS'persone'
p451
I272
sS'spettacolo'
p452
I397
sS'economia'
p453
I635
sS'gallerie'
p454
I191
sS'salute'
p455
I36
sS'esteri'
p456
I428
sS'viaggi'
p457
I149
sS'cronaca'
p458
I1642
sS'sport'
p459
I1450
sS'rubriche'
p460
I761
ssI30
(dp461
sI31
(dp462
S'canali'
p463
I38
sS'tecnologia'
p464
I398
sS'regione'
p465
I10
sS'scienza'
p466
I518
sS'persone'
p467
I461
sS'media'
p468
I37
sS'festa'
p469
I44
sS'politica'
p470
I541
sS'spettacolo'
p471
I807
sS'economia'
p472
I829
sS'gallerie'
p473
I643
sS'salute'
p474
I219
sS'motori'
p475
I49
sS'moda'
p476
I133
sS'esteri'
p477
I712
sS'viaggi'
p478
I615
sS'cronaca'
p479
I2305
sS'sport'
p480
I2338
sS'rubriche'
p481
I1455
ssI32
(dp482
S'tecnologia'
p483
I125
sS'regione'
p484
I93
sS'scienza'
p485
I101
sS'persone'
p486
I155
sS'politica'
p487
I70
sS'spettacolo'
p488
I158
sS'economia'
p489
I144
sS'gallerie'
p490
I124
sS'moda'
p491
I142
sS'esteri'
p492
I146
sS'viaggi'
p493
I68
sS'cronaca'
p494
I358
sS'sport'
p495
I395
sS'rubriche'
p496
I209
ssI33
(dp497
sI34
(dp498
sI35
(dp499
S'tecnologia'
p500
I7
sS'regione'
p501
I3
sS'scuola'
p502
I5
sS'scienza'
p503
I11
sS'persone'
p504
I10
sS'politica'
p505
I8
sS'spettacolo'
p506
I18
sS'economia'
p507
I20
sS'gallerie'
p508
I10
sS'salute'
p509
I2
sS'esteri'
p510
I17
sS'cronaca'
p511
I23
sS'sport'
p512
I33
sS'rubriche'
p513
I31
ssI36
(dp514
S'tecnologia'
p515
I631
sS'scuola'
p516
I48
sS'scienza'
p517
I933
sS'persone'
p518
I606
sS'media'
p519
I236
sS'volo'
p520
I67
sS'politica'
p521
I598
sS'spettacolo'
p522
I1928
sS'economia'
p523
I1323
sS'gallerie'
p524
I856
sS'musica'
p525
I12
sS'salute'
p526
I338
sS'motori'
p527
I322
sS'moda'
p528
I33
sS'esteri'
p529
I2274
sS'viaggi'
p530
I472
sS'cronaca'
p531
I3405
sS'sport'
p532
I3907
sS'rubriche'
p533
I2574
sS'social'
p534
I29
ssI37
(dp535
S'tecnologia'
p536
I977
sS'scienza'
p537
I1070
sS'persone'
p538
I769
sS'media'
p539
I130
sS'settembre'
p540
I55
sS'politica'
p541
I811
sS'norme'
p542
I70
sS'spettacolo'
p543
I1833
sS'economia'
p544
I1112
sS'gallerie'
p545
I822
sS'musica'
p546
I54
sS'salute'
p547
I232
sS'motori'
p548
I848
sS'moda'
p549
I153
sS'esteri'
p550
I1624
sS'viaggi'
p551
I1972
sS'cronaca'
p552
I2993
sS'sport'
p553
I5673
sS'rubriche'
p554
I2426
ssI38
(dp555
S'tecnologia'
p556
I869
sS'guerra'
p557
I68
sS'settembre'
p558
I61
sS'politica'
p559
I684
sS'economia'
p560
I1948
sS'motori'
p561
I362
sS'esteri'
p562
I1261
sS'sport'
p563
I4173
sS'rubriche'
p564
I2460
sS'mare'
p565
I61
sS'regione'
p566
I54
sS'moda'
p567
I153
sS'media'
p568
I61
sS'spettacolo'
p569
I1960
sS'gallerie'
p570
I1059
sS'salute'
p571
I56
sS'canali'
p572
I39
sS'persone'
p573
I712
sS'norme'
p574
I52
sS'viaggi'
p575
I126
sS'scienza'
p576
I886
sS'prodotto'
p577
I27
sS'cronaca'
p578
I3336
ssI39
(dp579
S'tecnologia'
p580
I650
sS'regione'
p581
I29
sS'scienza'
p582
I1146
sS'persone'
p583
I751
sS'media'
p584
I63
sS'politica'
p585
I619
sS'prodotto'
p586
I19
sS'spettacolo'
p587
I1858
sS'economia'
p588
I2317
sS'gallerie'
p589
I773
sS'salute'
p590
I263
sS'motori'
p591
I524
sS'moda'
p592
I115
sS'esteri'
p593
I2007
sS'viaggi'
p594
I435
sS'cronaca'
p595
I3938
sS'sport'
p596
I4415
sS'rubriche'
p597
I2292
ssI40
(dp598
S'tecnologia'
p599
I305
sS'regione'
p600
I21
sS'scienza'
p601
I524
sS'persone'
p602
I356
sS'ottobre'
p603
I23
sS'media'
p604
I33
sS'politica'
p605
I326
sS'norme'
p606
I22
sS'spettacolo'
p607
I886
sS'economia'
p608
I841
sS'gallerie'
p609
I385
sS'salute'
p610
I89
sS'motori'
p611
I203
sS'social'
p612
I26
sS'esteri'
p613
I844
sS'viaggi'
p614
I363
sS'cronaca'
p615
I1965
sS'sport'
p616
I2096
sS'rubriche'
p617
I1119
ssI41
(dp618
S'tecnologia'
p619
I284
sS'regione'
p620
I40
sS'scienza'
p621
I469
sS'persone'
p622
I414
sS'ottobre'
p623
I29
sS'media'
p624
I14
sS'politica'
p625
I529
sS'norme'
p626
I20
sS'spettacolo'
p627
I831
sS'economia'
p628
I896
sS'gallerie'
p629
I283
sS'salute'
p630
I153
sS'motori'
p631
I394
sS'moda'
p632
I50
sS'esteri'
p633
I898
sS'viaggi'
p634
I32
sS'cronaca'
p635
I1898
sS'sport'
p636
I1789
sS'riforma'
p637
I12
sS'rubriche'
p638
I1101
sS'scuola'
p639
I19
ssI42
(dp640
S'legge'
p641
I77
sS'moda'
p642
I126
sS'scienza'
p643
I443
sS'persone'
p644
I397
sS'ottobre'
p645
I17
sS'media'
p646
I49
sS'politica'
p647
I350
sS'prodotto'
p648
I37
sS'spettacolo'
p649
I845
sS'economia'
p650
I963
sS'gallerie'
p651
I212
sS'salute'
p652
I32
sS'motori'
p653
I269
sS'social'
p654
I109
sS'esteri'
p655
I591
sS'viaggi'
p656
I31
sS'cronaca'
p657
I2277
sS'sport'
p658
I1975
sS'tecnologia'
p659
I253
sS'rubriche'
p660
I1091
ssI43
(dp661
S'tecnologia'
p662
I344
sS'regione'
p663
I43
sS'scienza'
p664
I515
sS'persone'
p665
I370
sS'ottobre'
p666
I22
sS'media'
p667
I21
sS'politica'
p668
I400
sS'spettacolo'
p669
I860
sS'economia'
p670
I935
sS'gallerie'
p671
I395
sS'salute'
p672
I283
sS'motori'
p673
I769
sS'moda'
p674
I51
sS'esteri'
p675
I692
sS'viaggi'
p676
I289
sS'cronaca'
p677
I2168
sS'sport'
p678
I2925
sS'rossi'
p679
I239
sS'rubriche'
p680
I1122
ssI44
(dp681
S'canali'
p682
I58
sS'tecnologia'
p683
I291
sS'regione'
p684
I46
sS'scienza'
p685
I620
sS'persone'
p686
I819
sS'ottobre'
p687
I38
sS'media'
p688
I99
sS'politica'
p689
I702
sS'spettacolo'
p690
I1375
sS'economia'
p691
I1481
sS'gallerie'
p692
I642
sS'salute'
p693
I128
sS'motori'
p694
I579
sS'moda'
p695
I193
sS'esteri'
p696
I1496
sS'viaggi'
p697
I253
sS'cronaca'
p698
I2925
sS'sport'
p699
I4620
sS'rubriche'
p700
I1903
sS'aereo'
p701
I98
ssI45
(dp702
S'tecnologia'
p703
I576
sS'regione'
p704
I60
sS'scienza'
p705
I1119
sS'persone'
p706
I855
sS'novembre'
p707
I41
sS'media'
p708
I93
sS'politica'
p709
I695
sS'spettacolo'
p710
I1718
sS'economia'
p711
I1521
sS'gallerie'
p712
I595
sS'salute'
p713
I53
sS'motori'
p714
I1563
sS'moda'
p715
I237
sS'esteri'
p716
I1339
sS'viaggi'
p717
I1163
sS'cronaca'
p718
I4368
sS'sport'
p719
I4488
sS'rossi'
p720
I169
sS'rubriche'
p721
I2398
ssI46
(dp722
S'tecnologia'
p723
I585
sS'storia'
p724
I29
sS'scienza'
p725
I1017
sS'persone'
p726
I893
sS'novembre'
p727
I115
sS'media'
p728
I37
sS'politica'
p729
I634
sS'spettacolo'
p730
I2009
sS'economia'
p731
I1462
sS'gallerie'
p732
I606
sS'salute'
p733
I300
sS'motori'
p734
I531
sS'moda'
p735
I147
sS'esteri'
p736
I8038
sS'viaggi'
p737
I315
sS'cronaca'
p738
I4909
sS'sport'
p739
I2703
sS'rubriche'
p740
I2756
sS'attentati'
p741
I1596
ssI47
(dp742
S'tecnologia'
p743
I786
sS'regione'
p744
I81
sS'aereo'
p745
I168
sS'scienza'
p746
I1077
sS'persone'
p747
I927
sS'novembre'
p748
I104
sS'media'
p749
I185
sS'politica'
p750
I577
sS'prodotto'
p751
I43
sS'spettacolo'
p752
I2046
sS'economia'
p753
I1542
sS'gallerie'
p754
I723
sS'attentati'
p755
I409
sS'motori'
p756
I256
sS'esteri'
p757
I5335
sS'viaggi'
p758
I254
sS'cronaca'
p759
I4234
sS'sport'
p760
I3773
sS'rubriche'
p761
I2450
sS'salute'
p762
I126
ssI48
(dp763
S'tecnologia'
p764
I544
sS'scuola'
p765
I117
sS'scienza'
p766
I776
sS'persone'
p767
I681
sS'novembre'
p768
I81
sS'media'
p769
I33
sS'politica'
p770
I457
sS'spettacolo'
p771
I1696
sS'economia'
p772
I1405
sS'gallerie'
p773
I603
sS'salute'
p774
I238
sS'motori'
p775
I504
sS'moda'
p776
I121
sS'esteri'
p777
I2073
sS'viaggi'
p778
I59
sS'cronaca'
p779
I3449
sS'sport'
p780
I3424
sS'natale'
p781
I40
sS'rubriche'
p782
I1780
ssI49
(dp783
S'tecnologia'
p784
I543
sS'moda'
p785
I151
sS'regione'
p786
I183
sS'scuola'
p787
I70
sS'scienza'
p788
I969
sS'persone'
p789
I612
sS'media'
p790
I111
sS'dicembre'
p791
I76
sS'politica'
p792
I372
sS'spettacolo'
p793
I2048
sS'economia'
p794
I1354
sS'gallerie'
p795
I598
sS'salute'
p796
I21
sS'motori'
p797
I168
sS'social'
p798
I110
sS'esteri'
p799
I1856
sS'viaggi'
p800
I60
sS'cronaca'
p801
I3032
sS'sport'
p802
I3627
sS'natale'
p803
I129
sS'rubriche'
p804
I1981
ssI50
(dp805
S'tecnologia'
p806
I595
sS'regione'
p807
I162
sS'scienza'
p808
I1204
sS'persone'
p809
I1084
sS'dicembre'
p810
I121
sS'politica'
p811
I1027
sS'prodotto'
p812
I62
sS'spettacolo'
p813
I2373
sS'economia'
p814
I1917
sS'gallerie'
p815
I601
sS'salute'
p816
I165
sS'motori'
p817
I183
sS'moda'
p818
I104
sS'esteri'
p819
I1823
sS'viaggi'
p820
I66
sS'cronaca'
p821
I5343
sS'sport'
p822
I4643
sS'natale'
p823
I231
sS'rubriche'
p824
I2682
ssI51
(dp825
S'tecnologia'
p826
I679
sS'migliori'
p827
I59
sS'regione'
p828
I76
sS'scienza'
p829
I1030
sS'persone'
p830
I1013
sS'stabilita'
p831
I74
sS'media'
p832
I67
sS'dicembre'
p833
I214
sS'politica'
p834
I808
sS'spettacolo'
p835
I1921
sS'economia'
p836
I1624
sS'gallerie'
p837
I909
sS'salute'
p838
I214
sS'motori'
p839
I47
sS'esteri'
p840
I1754
sS'viaggi'
p841
I41
sS'cronaca'
p842
I4467
sS'sport'
p843
I4459
sS'natale'
p844
I370
sS'rubriche'
p845
I2272
ssI52
(dp846
S'tecnologia'
p847
I377
sS'politica'
p848
I378
sS'economia'
p849
I1286
sS'motori'
p850
I233
sS'esteri'
p851
I1283
sS'affari'
p852
I76
sS'rubriche'
p853
I1565
sS'sport'
p854
I2022
sS'regione'
p855
I55
sS'moda'
p856
I64
sS'media'
p857
I53
sS'spettacolo'
p858
I1249
sS'gallerie'
p859
I348
sS'salute'
p860
I38
sS'persone'
p861
I749
sS'norme'
p862
I25
sS'dicembre'
p863
I19
sS'viaggi'
p864
I75
sS'natale'
p865
I169
sS'scienza'
p866
I468
sS'prodotto'
p867
I19
sS'cronaca'
p868
I3565
ss.